(S'2.0'
p1
(dp2
S'bugs_activity'
p3
((lp4
(dp5
S'Extra'
p6
S''
sS'Default'
p7
S'0'
sS'Field'
p8
S'bug_id'
p9
sS'Key'
p10
S'MUL'
p11
sS'Null'
p12
S''
sS'Type'
p13
S'mediumint(9)'
p14
sa(dp15
g6
S''
sg7
S'0'
sg8
S'who'
p16
sg10
S''
sg12
S''
sg13
S'mediumint(9)'
p17
sa(dp18
g6
S''
sg7
S'0000-00-00 00:00:00'
p19
sg8
S'when'
p20
sg10
S'MUL'
p21
sg12
S''
sg13
S'datetime'
p22
sa(dp23
g6
S''
sg7
S''
sg8
S'field'
p24
sg10
S''
sg12
S''
sg13
S'varchar(64)'
p25
sa(dp26
g6
S''
sg7
Nsg8
S'oldvalue'
p27
sg10
S''
sg12
S'YES'
p28
sg13
S'tinytext'
p29
sa(dp30
g6
S''
sg7
Nsg8
S'newvalue'
p31
sg10
S''
sg12
S'YES'
p32
sg13
S'tinytext'
p33
sa(lp34
(dp35
S'Comment'
p36
S''
sS'Non_unique'
p37
L1L
sS'Sub_part'
p38
NsS'Index_type'
p39
S'BTREE'
p40
sS'Key_name'
p41
S'bug_id'
p42
sS'Collation'
p43
S'A'
sS'Null'
p44
S''
sS'Seq_in_index'
p45
L1L
sS'Table'
p46
S'bugs_activity'
p47
sS'Cardinality'
p48
NsS'Packed'
p49
NsS'Column_name'
p50
S'bug_id'
p51
sa(dp52
g36
S''
sg37
L1L
sg38
Nsg39
S'BTREE'
p53
sg41
S'when'
p54
sg43
S'A'
sg44
S''
sg45
L1L
sg46
S'bugs_activity'
p55
sg48
Nsg49
Nsg50
S'when'
p56
satp57
sS'versions'
p58
((lp59
(dp60
S'Extra'
p61
S''
sS'Default'
p62
NsS'Field'
p63
S'value'
p64
sS'Key'
p65
S''
sS'Null'
p66
S'YES'
p67
sS'Type'
p68
S'tinytext'
p69
sa(dp70
g61
S''
sg62
Nsg63
S'program'
p71
sg65
S''
sg66
S'YES'
p72
sg68
S'tinytext'
p73
sa(lp74
tp75
sS'cc'
p76
((lp77
(dp78
S'Extra'
p79
S''
sS'Default'
p80
S'0'
sS'Field'
p81
S'bug_id'
p82
sS'Key'
p83
S''
sS'Null'
p84
S''
sS'Type'
p85
S'mediumint(9)'
p86
sa(dp87
g79
S''
sg80
S'0'
sg81
S'who'
p88
sg83
S''
sg84
S''
sg85
S'mediumint(9)'
p89
sa(ltp90
sS'bugs'
p91
((lp92
(dp93
S'Extra'
p94
S'auto_increment'
p95
sS'Default'
p96
NsS'Field'
p97
S'bug_id'
p98
sS'Key'
p99
S'PRI'
p100
sS'Null'
p101
S''
sS'Type'
p102
S'mediumint(9)'
p103
sa(dp104
g94
S''
sg96
S'0'
sg97
S'assigned_to'
p105
sg99
S'MUL'
p106
sg101
S''
sg102
S'mediumint(9)'
p107
sa(dp108
g94
S''
sg96
Nsg97
S'bug_file_loc'
p109
sg99
S''
sg101
S'YES'
p110
sg102
S'text'
p111
sa(dp112
g94
S''
sg96
S'critical'
p113
sg97
S'bug_severity'
p114
sg99
S'MUL'
p115
sg101
S''
sg102
S"enum('critical','major','normal','minor','trivial','enhancement')"
p116
sa(dp117
g94
S''
sg96
S'NEW'
p118
sg97
S'bug_status'
p119
sg99
S'MUL'
p120
sg101
S''
sg102
S"enum('NEW','ASSIGNED','REOPENED','RESOLVED','VERIFIED','CLOSED')"
p121
sa(dp122
g94
S''
sg96
Nsg97
S'creation_ts'
p123
sg99
S''
sg101
S'YES'
p124
sg102
S'datetime'
p125
sa(dp126
g94
S''
sg96
Nsg97
S'delta_ts'
p127
sg99
S'MUL'
p128
sg101
S'YES'
p129
sg102
S'timestamp(14)'
p130
sa(dp131
g94
S''
sg96
Nsg97
S'short_desc'
p132
sg99
S''
sg101
S'YES'
p133
sg102
S'mediumtext'
p134
sa(dp135
g94
S''
sg96
Nsg97
S'long_desc'
p136
sg99
S''
sg101
S'YES'
p137
sg102
S'mediumtext'
p138
sa(dp139
g94
S''
sg96
Nsg97
S'op_sys'
p140
sg99
S''
sg101
S'YES'
p141
sg102
S'tinytext'
p142
sa(dp143
g94
S''
sg96
S'P1'
p144
sg97
S'priority'
p145
sg99
S'MUL'
p146
sg101
S''
sg102
S"enum('P1','P2','P3','P4','P5')"
p147
sa(dp148
g94
S''
sg96
S''
sg97
S'product'
p149
sg99
S'MUL'
p150
sg101
S''
sg102
S'varchar(16)'
p151
sa(dp152
g94
S''
sg96
Nsg97
S'rep_platform'
p153
sg99
S''
sg101
S'YES'
p154
sg102
S"enum('All','DEC','HP','Macintosh','PC','SGI','Sun','X-Windows','Other')"
p155
sa(dp156
g94
S''
sg96
S'0'
sg97
S'reporter'
p157
sg99
S'MUL'
p158
sg101
S''
sg102
S'mediumint(9)'
p159
sa(dp160
g94
S''
sg96
S''
sg97
S'version'
p161
sg99
S'MUL'
p162
sg101
S''
sg102
S'varchar(16)'
p163
sa(dp164
g94
S''
sg96
S'BUILD'
p165
sg97
S'area'
p166
sg99
S'MUL'
p167
sg101
S''
sg102
S"enum('BUILD','CODE','CONTENT','DOC','PERFORMANCE','TEST','UI','i18n','l10n')"
p168
sa(dp169
g94
S''
sg96
S''
sg97
S'component'
p170
sg99
S'MUL'
p171
sg101
S''
sg102
S'varchar(50)'
p172
sa(dp173
g94
S''
sg96
S''
sg97
S'resolution'
p174
sg99
S'MUL'
p175
sg101
S''
sg102
S"enum('','FIXED','INVALID','WONTFIX','LATER','REMIND','DUPLICATE','WORKSFORME')"
p176
sa(lp177
(dp178
S'Comment'
p179
S''
sS'Non_unique'
p180
L0L
sS'Sub_part'
p181
NsS'Index_type'
p182
S'BTREE'
p183
sS'Key_name'
p184
S'PRIMARY'
p185
sS'Collation'
p186
S'A'
sS'Null'
p187
S''
sS'Seq_in_index'
p188
L1L
sS'Table'
p189
S'bugs'
p190
sS'Cardinality'
p191
L0L
sS'Packed'
p192
NsS'Column_name'
p193
S'bug_id'
p194
sa(dp195
g179
S''
sg180
L1L
sg181
Nsg182
S'BTREE'
p196
sg184
S'assigned_to'
p197
sg186
S'A'
sg187
S''
sg188
L1L
sg189
S'bugs'
p198
sg191
Nsg192
Nsg193
S'assigned_to'
p199
sa(dp200
g179
S''
sg180
L1L
sg181
Nsg182
S'BTREE'
p201
sg184
S'delta_ts'
p202
sg186
S'A'
sg187
S''
sg188
L1L
sg189
S'bugs'
p203
sg191
Nsg192
Nsg193
S'delta_ts'
p204
sa(dp205
g179
S''
sg180
L1L
sg181
Nsg182
S'BTREE'
p206
sg184
S'bug_severity'
p207
sg186
S'A'
sg187
S''
sg188
L1L
sg189
S'bugs'
p208
sg191
Nsg192
Nsg193
S'bug_severity'
p209
sa(dp210
g179
S''
sg180
L1L
sg181
Nsg182
S'BTREE'
p211
sg184
S'bug_status'
p212
sg186
S'A'
sg187
S''
sg188
L1L
sg189
S'bugs'
p213
sg191
Nsg192
Nsg193
S'bug_status'
p214
sa(dp215
g179
S''
sg180
L1L
sg181
Nsg182
S'BTREE'
p216
sg184
S'priority'
p217
sg186
S'A'
sg187
S''
sg188
L1L
sg189
S'bugs'
p218
sg191
Nsg192
Nsg193
S'priority'
p219
sa(dp220
g179
S''
sg180
L1L
sg181
Nsg182
S'BTREE'
p221
sg184
S'product'
p222
sg186
S'A'
sg187
S''
sg188
L1L
sg189
S'bugs'
p223
sg191
Nsg192
Nsg193
S'product'
p224
sa(dp225
g179
S''
sg180
L1L
sg181
Nsg182
S'BTREE'
p226
sg184
S'reporter'
p227
sg186
S'A'
sg187
S''
sg188
L1L
sg189
S'bugs'
p228
sg191
Nsg192
Nsg193
S'reporter'
p229
sa(dp230
g179
S''
sg180
L1L
sg181
Nsg182
S'BTREE'
p231
sg184
S'version'
p232
sg186
S'A'
sg187
S''
sg188
L1L
sg189
S'bugs'
p233
sg191
Nsg192
Nsg193
S'version'
p234
sa(dp235
g179
S''
sg180
L1L
sg181
Nsg182
S'BTREE'
p236
sg184
S'area'
p237
sg186
S'A'
sg187
S''
sg188
L1L
sg189
S'bugs'
p238
sg191
Nsg192
Nsg193
S'area'
p239
sa(dp240
g179
S''
sg180
L1L
sg181
Nsg182
S'BTREE'
p241
sg184
S'component'
p242
sg186
S'A'
sg187
S''
sg188
L1L
sg189
S'bugs'
p243
sg191
Nsg192
Nsg193
S'component'
p244
sa(dp245
g179
S''
sg180
L1L
sg181
Nsg182
S'BTREE'
p246
sg184
S'resolution'
p247
sg186
S'A'
sg187
S''
sg188
L1L
sg189
S'bugs'
p248
sg191
Nsg192
Nsg193
S'resolution'
p249
satp250
sS'profiles'
p251
((lp252
(dp253
S'Extra'
p254
S'auto_increment'
p255
sS'Default'
p256
NsS'Field'
p257
S'userid'
p258
sS'Key'
p259
S'PRI'
p260
sS'Null'
p261
S''
sS'Type'
p262
S'mediumint(9)'
p263
sa(dp264
g254
S''
sg256
S''
sg257
S'login_name'
p265
sg259
S'MUL'
p266
sg261
S''
sg262
S'varchar(255)'
p267
sa(dp268
g254
S''
sg256
Nsg257
S'password'
p269
sg259
S''
sg261
S'YES'
p270
sg262
S'varchar(16)'
p271
sa(dp272
g254
S''
sg256
Nsg257
S'cryptpassword'
p273
sg259
S''
sg261
S'YES'
p274
sg262
S'varchar(64)'
p275
sa(dp276
g254
S''
sg256
Nsg257
S'realname'
p277
sg259
S''
sg261
S'YES'
p278
sg262
S'varchar(255)'
p279
sa(lp280
(dp281
S'Comment'
p282
S''
sS'Non_unique'
p283
L0L
sS'Sub_part'
p284
NsS'Index_type'
p285
S'BTREE'
p286
sS'Key_name'
p287
S'PRIMARY'
p288
sS'Collation'
p289
S'A'
sS'Null'
p290
S''
sS'Seq_in_index'
p291
L1L
sS'Table'
p292
S'profiles'
p293
sS'Cardinality'
p294
L0L
sS'Packed'
p295
NsS'Column_name'
p296
S'userid'
p297
sa(dp298
g282
S''
sg283
L1L
sg284
Nsg285
S'BTREE'
p299
sg287
S'login_name'
p300
sg289
S'A'
sg290
S''
sg291
L1L
sg292
S'profiles'
p301
sg294
Nsg295
Nsg296
S'login_name'
p302
satp303
sS'components'
p304
((lp305
(dp306
S'Extra'
p307
S''
sS'Default'
p308
NsS'Field'
p309
S'value'
p310
sS'Key'
p311
S''
sS'Null'
p312
S'YES'
p313
sS'Type'
p314
S'tinytext'
p315
sa(dp316
g307
S''
sg308
Nsg309
S'program'
p317
sg311
S''
sg312
S'YES'
p318
sg314
S'tinytext'
p319
sa(dp320
g307
S''
sg308
Nsg309
S'initialowner'
p321
sg311
S''
sg312
S'YES'
p322
sg314
S'tinytext'
p323
sa(ltp324
sS'logincookies'
p325
((lp326
(dp327
S'Extra'
p328
S'auto_increment'
p329
sS'Default'
p330
NsS'Field'
p331
S'cookie'
p332
sS'Key'
p333
S'PRI'
p334
sS'Null'
p335
S''
sS'Type'
p336
S'mediumint(9)'
p337
sa(dp338
g328
S''
sg330
S'0'
sg331
S'userid'
p339
sg333
S''
sg335
S''
sg336
S'mediumint(9)'
p340
sa(dp341
g328
S''
sg330
Nsg331
S'cryptpassword'
p342
sg333
S''
sg335
S'YES'
p343
sg336
S'varchar(64)'
p344
sa(dp345
g328
S''
sg330
Nsg331
S'hostname'
p346
sg333
S''
sg335
S'YES'
p347
sg336
S'varchar(128)'
p348
sa(dp349
g328
S''
sg330
Nsg331
S'lastused'
p350
sg333
S'MUL'
p351
sg335
S'YES'
p352
sg336
S'timestamp(14)'
p353
sa(lp354
(dp355
S'Comment'
p356
S''
sS'Non_unique'
p357
L0L
sS'Sub_part'
p358
NsS'Index_type'
p359
S'BTREE'
p360
sS'Key_name'
p361
S'PRIMARY'
p362
sS'Collation'
p363
S'A'
sS'Null'
p364
S''
sS'Seq_in_index'
p365
L1L
sS'Table'
p366
S'logincookies'
p367
sS'Cardinality'
p368
L0L
sS'Packed'
p369
NsS'Column_name'
p370
S'cookie'
p371
sa(dp372
g356
S''
sg357
L1L
sg358
Nsg359
S'BTREE'
p373
sg361
S'lastused'
p374
sg363
S'A'
sg364
S''
sg365
L1L
sg366
S'logincookies'
p375
sg368
Nsg369
Nsg370
S'lastused'
p376
satp377
st.