(S'2.10'
p1
(dp2
S'groups'
p3
((lp4
(dp5
S'Extra'
p6
S''
sS'Default'
p7
S'0'
sS'Field'
p8
S'bit'
p9
sS'Key'
p10
S'PRI'
p11
sS'Null'
p12
S''
sS'Type'
p13
S'bigint(20)'
p14
sa(dp15
g6
S''
sg7
S''
sg8
S'name'
p16
sg10
S'UNI'
p17
sg12
S''
sg13
S'varchar(255)'
p18
sa(dp19
g6
S''
sg7
S''
sg8
S'description'
p20
sg10
S''
sg12
S''
sg13
S'text'
p21
sa(dp22
g6
S''
sg7
S'0'
sg8
S'isbuggroup'
p23
sg10
S''
sg12
S''
sg13
S'tinyint(4)'
p24
sa(dp25
g6
S''
sg7
S''
sg8
S'userregexp'
p26
sg10
S''
sg12
S''
sg13
S'tinytext'
p27
sa(lp28
(dp29
S'Comment'
p30
S''
sS'Non_unique'
p31
L0L
sS'Sub_part'
p32
NsS'Index_type'
p33
S'BTREE'
p34
sS'Key_name'
p35
S'bit'
p36
sS'Collation'
p37
S'A'
sS'Null'
p38
S''
sS'Seq_in_index'
p39
L1L
sS'Table'
p40
S'groups'
p41
sS'Cardinality'
p42
L7L
sS'Packed'
p43
NsS'Column_name'
p44
S'bit'
p45
sa(dp46
g30
S''
sg31
L0L
sg32
Nsg33
S'BTREE'
p47
sg35
S'name'
p48
sg37
S'A'
sg38
S''
sg39
L1L
sg40
S'groups'
p49
sg42
L7L
sg43
Nsg44
S'name'
p50
satp51
sS'profiles_activity'
p52
((lp53
(dp54
S'Extra'
p55
S''
sS'Default'
p56
S'0'
sS'Field'
p57
S'userid'
p58
sS'Key'
p59
S'MUL'
p60
sS'Null'
p61
S''
sS'Type'
p62
S'mediumint(9)'
p63
sa(dp64
g55
S''
sg56
S'0'
sg57
S'who'
p65
sg59
S''
sg61
S''
sg62
S'mediumint(9)'
p66
sa(dp67
g55
S''
sg56
S'0000-00-00 00:00:00'
p68
sg57
S'profiles_when'
p69
sg59
S'MUL'
p70
sg61
S''
sg62
S'datetime'
p71
sa(dp72
g55
S''
sg56
S'0'
sg57
S'fieldid'
p73
sg59
S'MUL'
p74
sg61
S''
sg62
S'mediumint(9)'
p75
sa(dp76
g55
S''
sg56
Nsg57
S'oldvalue'
p77
sg59
S''
sg61
S'YES'
p78
sg62
S'tinytext'
p79
sa(dp80
g55
S''
sg56
Nsg57
S'newvalue'
p81
sg59
S''
sg61
S'YES'
p82
sg62
S'tinytext'
p83
sa(lp84
(dp85
S'Comment'
p86
S''
sS'Non_unique'
p87
L1L
sS'Sub_part'
p88
NsS'Index_type'
p89
S'BTREE'
p90
sS'Key_name'
p91
S'userid'
p92
sS'Collation'
p93
S'A'
sS'Null'
p94
S''
sS'Seq_in_index'
p95
L1L
sS'Table'
p96
S'profiles_activity'
p97
sS'Cardinality'
p98
NsS'Packed'
p99
NsS'Column_name'
p100
S'userid'
p101
sa(dp102
g86
S''
sg87
L1L
sg88
Nsg89
S'BTREE'
p103
sg91
S'profiles_when'
p104
sg93
S'A'
sg94
S''
sg95
L1L
sg96
S'profiles_activity'
p105
sg98
Nsg99
Nsg100
S'profiles_when'
p106
sa(dp107
g86
S''
sg87
L1L
sg88
Nsg89
S'BTREE'
p108
sg91
S'fieldid'
p109
sg93
S'A'
sg94
S''
sg95
L1L
sg96
S'profiles_activity'
p110
sg98
Nsg99
Nsg100
S'fieldid'
p111
satp112
sS'milestones'
p113
((lp114
(dp115
S'Extra'
p116
S''
sS'Default'
p117
S''
sS'Field'
p118
S'value'
p119
sS'Key'
p120
S'PRI'
p121
sS'Null'
p122
S''
sS'Type'
p123
S'varchar(20)'
p124
sa(dp125
g116
S''
sg117
S''
sg118
S'product'
p126
sg120
S'PRI'
p127
sg122
S''
sg123
S'varchar(64)'
p128
sa(dp129
g116
S''
sg117
S'0'
sg118
S'sortkey'
p130
sg120
S''
sg122
S''
sg123
S'smallint(6)'
p131
sa(lp132
(dp133
S'Comment'
p134
S''
sS'Non_unique'
p135
L0L
sS'Sub_part'
p136
NsS'Index_type'
p137
S'BTREE'
p138
sS'Key_name'
p139
S'product'
p140
sS'Collation'
p141
S'A'
sS'Null'
p142
S''
sS'Seq_in_index'
p143
L1L
sS'Table'
p144
S'milestones'
p145
sS'Cardinality'
p146
NsS'Packed'
p147
NsS'Column_name'
p148
S'product'
p149
sa(dp150
g134
S''
sg135
L0L
sg136
Nsg137
S'BTREE'
p151
sg139
S'product'
p152
sg141
S'A'
sg142
S''
sg143
L2L
sg144
S'milestones'
p153
sg146
L0L
sg147
Nsg148
S'value'
p154
satp155
sS'attachments'
p156
((lp157
(dp158
S'Extra'
p159
S'auto_increment'
p160
sS'Default'
p161
NsS'Field'
p162
S'attach_id'
p163
sS'Key'
p164
S'PRI'
p165
sS'Null'
p166
S''
sS'Type'
p167
S'mediumint(9)'
p168
sa(dp169
g159
S''
sg161
S'0'
sg162
S'bug_id'
p170
sg164
S'MUL'
p171
sg166
S''
sg167
S'mediumint(9)'
p172
sa(dp173
g159
S''
sg161
Nsg162
S'creation_ts'
p174
sg164
S'MUL'
p175
sg166
S'YES'
p176
sg167
S'timestamp(14)'
p177
sa(dp178
g159
S''
sg161
S''
sg162
S'description'
p179
sg164
S''
sg166
S''
sg167
S'mediumtext'
p180
sa(dp181
g159
S''
sg161
S''
sg162
S'mimetype'
p182
sg164
S''
sg166
S''
sg167
S'mediumtext'
p183
sa(dp184
g159
S''
sg161
Nsg162
S'ispatch'
p185
sg164
S''
sg166
S'YES'
p186
sg167
S'tinyint(4)'
p187
sa(dp188
g159
S''
sg161
S''
sg162
S'filename'
p189
sg164
S''
sg166
S''
sg167
S'mediumtext'
p190
sa(dp191
g159
S''
sg161
S''
sg162
S'thedata'
p192
sg164
S''
sg166
S''
sg167
S'longblob'
p193
sa(dp194
g159
S''
sg161
S'0'
sg162
S'submitter_id'
p195
sg164
S''
sg166
S''
sg167
S'mediumint(9)'
p196
sa(lp197
(dp198
S'Comment'
p199
S''
sS'Non_unique'
p200
L0L
sS'Sub_part'
p201
NsS'Index_type'
p202
S'BTREE'
p203
sS'Key_name'
p204
S'PRIMARY'
p205
sS'Collation'
p206
S'A'
sS'Null'
p207
S''
sS'Seq_in_index'
p208
L1L
sS'Table'
p209
S'attachments'
p210
sS'Cardinality'
p211
L0L
sS'Packed'
p212
NsS'Column_name'
p213
S'attach_id'
p214
sa(dp215
g199
S''
sg200
L1L
sg201
Nsg202
S'BTREE'
p216
sg204
S'bug_id'
p217
sg206
S'A'
sg207
S''
sg208
L1L
sg209
S'attachments'
p218
sg211
Nsg212
Nsg213
S'bug_id'
p219
sa(dp220
g199
S''
sg200
L1L
sg201
Nsg202
S'BTREE'
p221
sg204
S'creation_ts'
p222
sg206
S'A'
sg207
S''
sg208
L1L
sg209
S'attachments'
p223
sg211
Nsg212
Nsg213
S'creation_ts'
p224
satp225
sS'versions'
p226
((lp227
(dp228
S'Extra'
p229
S''
sS'Default'
p230
NsS'Field'
p231
S'value'
p232
sS'Key'
p233
S''
sS'Null'
p234
S'YES'
p235
sS'Type'
p236
S'tinytext'
p237
sa(dp238
g229
S''
sg230
S''
sg231
S'program'
p239
sg233
S''
sg234
S''
sg236
S'varchar(64)'
p240
sa(ltp241
sS'cc'
p242
((lp243
(dp244
S'Extra'
p245
S''
sS'Default'
p246
S'0'
sS'Field'
p247
S'bug_id'
p248
sS'Key'
p249
S'PRI'
p250
sS'Null'
p251
S''
sS'Type'
p252
S'mediumint(9)'
p253
sa(dp254
g245
S''
sg246
S'0'
sg247
S'who'
p255
sg249
S'PRI'
p256
sg251
S''
sg252
S'mediumint(9)'
p257
sa(lp258
(dp259
S'Comment'
p260
S''
sS'Non_unique'
p261
L0L
sS'Sub_part'
p262
NsS'Index_type'
p263
S'BTREE'
p264
sS'Key_name'
p265
S'bug_id'
p266
sS'Collation'
p267
S'A'
sS'Null'
p268
S''
sS'Seq_in_index'
p269
L1L
sS'Table'
p270
S'cc'
p271
sS'Cardinality'
p272
NsS'Packed'
p273
NsS'Column_name'
p274
S'bug_id'
p275
sa(dp276
g260
S''
sg261
L0L
sg262
Nsg263
S'BTREE'
p277
sg265
S'bug_id'
p278
sg267
S'A'
sg268
S''
sg269
L2L
sg270
S'cc'
p279
sg272
L0L
sg273
Nsg274
S'who'
p280
sa(dp281
g260
S''
sg261
L1L
sg262
Nsg263
S'BTREE'
p282
sg265
S'who'
p283
sg267
S'A'
sg268
S''
sg269
L1L
sg270
S'cc'
p284
sg272
Nsg273
Nsg274
S'who'
p285
satp286
sS'bugs_activity'
p287
((lp288
(dp289
S'Extra'
p290
S''
sS'Default'
p291
S'0'
sS'Field'
p292
S'bug_id'
p293
sS'Key'
p294
S'MUL'
p295
sS'Null'
p296
S''
sS'Type'
p297
S'mediumint(9)'
p298
sa(dp299
g290
S''
sg291
S'0'
sg292
S'who'
p300
sg294
S''
sg296
S''
sg297
S'mediumint(9)'
p301
sa(dp302
g290
S''
sg291
S'0000-00-00 00:00:00'
p303
sg292
S'bug_when'
p304
sg294
S'MUL'
p305
sg296
S''
sg297
S'datetime'
p306
sa(dp307
g290
S''
sg291
S'0'
sg292
S'fieldid'
p308
sg294
S'MUL'
p309
sg296
S''
sg297
S'mediumint(9)'
p310
sa(dp311
g290
S''
sg291
Nsg292
S'oldvalue'
p312
sg294
S''
sg296
S'YES'
p313
sg297
S'tinytext'
p314
sa(dp315
g290
S''
sg291
Nsg292
S'newvalue'
p316
sg294
S''
sg296
S'YES'
p317
sg297
S'tinytext'
p318
sa(lp319
(dp320
S'Comment'
p321
S''
sS'Non_unique'
p322
L1L
sS'Sub_part'
p323
NsS'Index_type'
p324
S'BTREE'
p325
sS'Key_name'
p326
S'bug_id'
p327
sS'Collation'
p328
S'A'
sS'Null'
p329
S''
sS'Seq_in_index'
p330
L1L
sS'Table'
p331
S'bugs_activity'
p332
sS'Cardinality'
p333
NsS'Packed'
p334
NsS'Column_name'
p335
S'bug_id'
p336
sa(dp337
g321
S''
sg322
L1L
sg323
Nsg324
S'BTREE'
p338
sg326
S'bug_when'
p339
sg328
S'A'
sg329
S''
sg330
L1L
sg331
S'bugs_activity'
p340
sg333
Nsg334
Nsg335
S'bug_when'
p341
sa(dp342
g321
S''
sg322
L1L
sg323
Nsg324
S'BTREE'
p343
sg326
S'fieldid'
p344
sg328
S'A'
sg329
S''
sg330
L1L
sg331
S'bugs_activity'
p345
sg333
Nsg334
Nsg335
S'fieldid'
p346
satp347
sS'votes'
p348
((lp349
(dp350
S'Extra'
p351
S''
sS'Default'
p352
S'0'
sS'Field'
p353
S'who'
p354
sS'Key'
p355
S'MUL'
p356
sS'Null'
p357
S''
sS'Type'
p358
S'mediumint(9)'
p359
sa(dp360
g351
S''
sg352
S'0'
sg353
S'bug_id'
p361
sg355
S'MUL'
p362
sg357
S''
sg358
S'mediumint(9)'
p363
sa(dp364
g351
S''
sg352
S'0'
sg353
S'count'
p365
sg355
S''
sg357
S''
sg358
S'smallint(6)'
p366
sa(lp367
(dp368
S'Comment'
p369
S''
sS'Non_unique'
p370
L1L
sS'Sub_part'
p371
NsS'Index_type'
p372
S'BTREE'
p373
sS'Key_name'
p374
S'who'
p375
sS'Collation'
p376
S'A'
sS'Null'
p377
S''
sS'Seq_in_index'
p378
L1L
sS'Table'
p379
S'votes'
p380
sS'Cardinality'
p381
NsS'Packed'
p382
NsS'Column_name'
p383
S'who'
p384
sa(dp385
g369
S''
sg370
L1L
sg371
Nsg372
S'BTREE'
p386
sg374
S'bug_id'
p387
sg376
S'A'
sg377
S''
sg378
L1L
sg379
S'votes'
p388
sg381
Nsg382
Nsg383
S'bug_id'
p389
satp390
sS'bugs'
p391
((lp392
(dp393
S'Extra'
p394
S'auto_increment'
p395
sS'Default'
p396
NsS'Field'
p397
S'bug_id'
p398
sS'Key'
p399
S'PRI'
p400
sS'Null'
p401
S''
sS'Type'
p402
S'mediumint(9)'
p403
sa(dp404
g394
S''
sg396
S'0'
sg397
S'groupset'
p405
sg399
S''
sg401
S''
sg402
S'bigint(20)'
p406
sa(dp407
g394
S''
sg396
S'0'
sg397
S'assigned_to'
p408
sg399
S'MUL'
p409
sg401
S''
sg402
S'mediumint(9)'
p410
sa(dp411
g394
S''
sg396
Nsg397
S'bug_file_loc'
p412
sg399
S''
sg401
S'YES'
p413
sg402
S'text'
p414
sa(dp415
g394
S''
sg396
S'blocker'
p416
sg397
S'bug_severity'
p417
sg399
S'MUL'
p418
sg401
S''
sg402
S"enum('blocker','critical','major','normal','minor','trivial','enhancement')"
p419
sa(dp420
g394
S''
sg396
S'UNCONFIRMED'
p421
sg397
S'bug_status'
p422
sg399
S'MUL'
p423
sg401
S''
sg402
S"enum('UNCONFIRMED','NEW','ASSIGNED','REOPENED','RESOLVED','VERIFIED','CLOSED')"
p424
sa(dp425
g394
S''
sg396
S'0000-00-00 00:00:00'
p426
sg397
S'creation_ts'
p427
sg399
S'MUL'
p428
sg401
S''
sg402
S'datetime'
p429
sa(dp430
g394
S''
sg396
Nsg397
S'delta_ts'
p431
sg399
S'MUL'
p432
sg401
S'YES'
p433
sg402
S'timestamp(14)'
p434
sa(dp435
g394
S''
sg396
Nsg397
S'short_desc'
p436
sg399
S''
sg401
S'YES'
p437
sg402
S'mediumtext'
p438
sa(dp439
g394
S''
sg396
S'All'
p440
sg397
S'op_sys'
p441
sg399
S'MUL'
p442
sg401
S''
sg402
S"enum('All','Windows 3.1','Windows 95','Windows 98','Windows 2000','Windows NT','Mac System 7','Mac System 7.5','Mac System 7.6.1','Mac System 8.0','Mac System 8.5','Mac System 8.6','Mac System 9.0','AIX','BSDI','HP-UX','IRIX','Linux','FreeBSD','OSF/1','Solaris','SunOS','Neutrino','OS/2','BeOS','OpenVMS','other')"
p443
sa(dp444
g394
S''
sg396
S'P1'
p445
sg397
S'priority'
p446
sg399
S'MUL'
p447
sg401
S''
sg402
S"enum('P1','P2','P3','P4','P5')"
p448
sa(dp449
g394
S''
sg396
S''
sg397
S'product'
p450
sg399
S'MUL'
p451
sg401
S''
sg402
S'varchar(64)'
p452
sa(dp453
g394
S''
sg396
Nsg397
S'rep_platform'
p454
sg399
S''
sg401
S'YES'
p455
sg402
S"enum('All','DEC','HP','Macintosh','PC','SGI','Sun','Other')"
p456
sa(dp457
g394
S''
sg396
S'0'
sg397
S'reporter'
p458
sg399
S'MUL'
p459
sg401
S''
sg402
S'mediumint(9)'
p460
sa(dp461
g394
S''
sg396
S''
sg397
S'version'
p462
sg399
S'MUL'
p463
sg401
S''
sg402
S'varchar(16)'
p464
sa(dp465
g394
S''
sg396
S''
sg397
S'component'
p466
sg399
S'MUL'
p467
sg401
S''
sg402
S'varchar(50)'
p468
sa(dp469
g394
S''
sg396
S''
sg397
S'resolution'
p470
sg399
S'MUL'
p471
sg401
S''
sg402
S"enum('','FIXED','INVALID','WONTFIX','LATER','REMIND','DUPLICATE','WORKSFORME')"
p472
sa(dp473
g394
S''
sg396
S'---'
p474
sg397
S'target_milestone'
p475
sg399
S'MUL'
p476
sg401
S''
sg402
S'varchar(20)'
p477
sa(dp478
g394
S''
sg396
S'0'
sg397
S'qa_contact'
p479
sg399
S'MUL'
p480
sg401
S''
sg402
S'mediumint(9)'
p481
sa(dp482
g394
S''
sg396
S''
sg397
S'status_whiteboard'
p483
sg399
S''
sg401
S''
sg402
S'mediumtext'
p484
sa(dp485
g394
S''
sg396
S'0'
sg397
S'votes'
p486
sg399
S'MUL'
p487
sg401
S''
sg402
S'mediumint(9)'
p488
sa(dp489
g394
S''
sg396
S''
sg397
S'keywords'
p490
sg399
S''
sg401
S''
sg402
S'mediumtext'
p491
sa(dp492
g394
S''
sg396
S'0000-00-00 00:00:00'
p493
sg397
S'lastdiffed'
p494
sg399
S''
sg401
S''
sg402
S'datetime'
p495
sa(dp496
g394
S''
sg396
S'0'
sg397
S'everconfirmed'
p497
sg399
S''
sg401
S''
sg402
S'tinyint(4)'
p498
sa(lp499
(dp500
S'Comment'
p501
S''
sS'Non_unique'
p502
L0L
sS'Sub_part'
p503
NsS'Index_type'
p504
S'BTREE'
p505
sS'Key_name'
p506
S'PRIMARY'
p507
sS'Collation'
p508
S'A'
sS'Null'
p509
S''
sS'Seq_in_index'
p510
L1L
sS'Table'
p511
S'bugs'
p512
sS'Cardinality'
p513
L0L
sS'Packed'
p514
NsS'Column_name'
p515
S'bug_id'
p516
sa(dp517
g501
S''
sg502
L1L
sg503
Nsg504
S'BTREE'
p518
sg506
S'assigned_to'
p519
sg508
S'A'
sg509
S''
sg510
L1L
sg511
S'bugs'
p520
sg513
Nsg514
Nsg515
S'assigned_to'
p521
sa(dp522
g501
S''
sg502
L1L
sg503
Nsg504
S'BTREE'
p523
sg506
S'creation_ts'
p524
sg508
S'A'
sg509
S''
sg510
L1L
sg511
S'bugs'
p525
sg513
Nsg514
Nsg515
S'creation_ts'
p526
sa(dp527
g501
S''
sg502
L1L
sg503
Nsg504
S'BTREE'
p528
sg506
S'delta_ts'
p529
sg508
S'A'
sg509
S''
sg510
L1L
sg511
S'bugs'
p530
sg513
Nsg514
Nsg515
S'delta_ts'
p531
sa(dp532
g501
S''
sg502
L1L
sg503
Nsg504
S'BTREE'
p533
sg506
S'bug_severity'
p534
sg508
S'A'
sg509
S''
sg510
L1L
sg511
S'bugs'
p535
sg513
Nsg514
Nsg515
S'bug_severity'
p536
sa(dp537
g501
S''
sg502
L1L
sg503
Nsg504
S'BTREE'
p538
sg506
S'bug_status'
p539
sg508
S'A'
sg509
S''
sg510
L1L
sg511
S'bugs'
p540
sg513
Nsg514
Nsg515
S'bug_status'
p541
sa(dp542
g501
S''
sg502
L1L
sg503
Nsg504
S'BTREE'
p543
sg506
S'op_sys'
p544
sg508
S'A'
sg509
S''
sg510
L1L
sg511
S'bugs'
p545
sg513
Nsg514
Nsg515
S'op_sys'
p546
sa(dp547
g501
S''
sg502
L1L
sg503
Nsg504
S'BTREE'
p548
sg506
S'priority'
p549
sg508
S'A'
sg509
S''
sg510
L1L
sg511
S'bugs'
p550
sg513
Nsg514
Nsg515
S'priority'
p551
sa(dp552
g501
S''
sg502
L1L
sg503
Nsg504
S'BTREE'
p553
sg506
S'product'
p554
sg508
S'A'
sg509
S''
sg510
L1L
sg511
S'bugs'
p555
sg513
Nsg514
Nsg515
S'product'
p556
sa(dp557
g501
S''
sg502
L1L
sg503
Nsg504
S'BTREE'
p558
sg506
S'reporter'
p559
sg508
S'A'
sg509
S''
sg510
L1L
sg511
S'bugs'
p560
sg513
Nsg514
Nsg515
S'reporter'
p561
sa(dp562
g501
S''
sg502
L1L
sg503
Nsg504
S'BTREE'
p563
sg506
S'version'
p564
sg508
S'A'
sg509
S''
sg510
L1L
sg511
S'bugs'
p565
sg513
Nsg514
Nsg515
S'version'
p566
sa(dp567
g501
S''
sg502
L1L
sg503
Nsg504
S'BTREE'
p568
sg506
S'component'
p569
sg508
S'A'
sg509
S''
sg510
L1L
sg511
S'bugs'
p570
sg513
Nsg514
Nsg515
S'component'
p571
sa(dp572
g501
S''
sg502
L1L
sg503
Nsg504
S'BTREE'
p573
sg506
S'resolution'
p574
sg508
S'A'
sg509
S''
sg510
L1L
sg511
S'bugs'
p575
sg513
Nsg514
Nsg515
S'resolution'
p576
sa(dp577
g501
S''
sg502
L1L
sg503
Nsg504
S'BTREE'
p578
sg506
S'target_milestone'
p579
sg508
S'A'
sg509
S''
sg510
L1L
sg511
S'bugs'
p580
sg513
Nsg514
Nsg515
S'target_milestone'
p581
sa(dp582
g501
S''
sg502
L1L
sg503
Nsg504
S'BTREE'
p583
sg506
S'qa_contact'
p584
sg508
S'A'
sg509
S''
sg510
L1L
sg511
S'bugs'
p585
sg513
Nsg514
Nsg515
S'qa_contact'
p586
sa(dp587
g501
S''
sg502
L1L
sg503
Nsg504
S'BTREE'
p588
sg506
S'votes'
p589
sg508
S'A'
sg509
S''
sg510
L1L
sg511
S'bugs'
p590
sg513
Nsg514
Nsg515
S'votes'
p591
satp592
sS'profiles'
p593
((lp594
(dp595
S'Extra'
p596
S'auto_increment'
p597
sS'Default'
p598
NsS'Field'
p599
S'userid'
p600
sS'Key'
p601
S'PRI'
p602
sS'Null'
p603
S''
sS'Type'
p604
S'mediumint(9)'
p605
sa(dp606
g596
S''
sg598
S''
sg599
S'login_name'
p607
sg601
S'UNI'
p608
sg603
S''
sg604
S'varchar(255)'
p609
sa(dp610
g596
S''
sg598
Nsg599
S'password'
p611
sg601
S''
sg603
S'YES'
p612
sg604
S'varchar(16)'
p613
sa(dp614
g596
S''
sg598
Nsg599
S'cryptpassword'
p615
sg601
S''
sg603
S'YES'
p616
sg604
S'varchar(64)'
p617
sa(dp618
g596
S''
sg598
Nsg599
S'realname'
p619
sg601
S''
sg603
S'YES'
p620
sg604
S'varchar(255)'
p621
sa(dp622
g596
S''
sg598
S'0'
sg599
S'groupset'
p623
sg601
S''
sg603
S''
sg604
S'bigint(20)'
p624
sa(dp625
g596
S''
sg598
S'ExcludeSelfChanges'
p626
sg599
S'emailnotification'
p627
sg601
S''
sg603
S''
sg604
S"enum('ExcludeSelfChanges','CConly','All')"
p628
sa(dp629
g596
S''
sg598
S''
sg599
S'disabledtext'
p630
sg601
S''
sg603
S''
sg604
S'mediumtext'
p631
sa(dp632
g596
S''
sg598
S'0'
sg599
S'newemailtech'
p633
sg601
S''
sg603
S''
sg604
S'tinyint(4)'
p634
sa(dp635
g596
S''
sg598
S'1'
sg599
S'mybugslink'
p636
sg601
S''
sg603
S''
sg604
S'tinyint(4)'
p637
sa(dp638
g596
S''
sg598
S'0'
sg599
S'blessgroupset'
p639
sg601
S''
sg603
S''
sg604
S'bigint(20)'
p640
sa(lp641
(dp642
S'Comment'
p643
S''
sS'Non_unique'
p644
L0L
sS'Sub_part'
p645
NsS'Index_type'
p646
S'BTREE'
p647
sS'Key_name'
p648
S'PRIMARY'
p649
sS'Collation'
p650
S'A'
sS'Null'
p651
S''
sS'Seq_in_index'
p652
L1L
sS'Table'
p653
S'profiles'
p654
sS'Cardinality'
p655
L0L
sS'Packed'
p656
NsS'Column_name'
p657
S'userid'
p658
sa(dp659
g643
S''
sg644
L0L
sg645
Nsg646
S'BTREE'
p660
sg648
S'login_name'
p661
sg650
S'A'
sg651
S''
sg652
L1L
sg653
S'profiles'
p662
sg655
L0L
sg656
Nsg657
S'login_name'
p663
satp664
sS'namedqueries'
p665
((lp666
(dp667
S'Extra'
p668
S''
sS'Default'
p669
S'0'
sS'Field'
p670
S'userid'
p671
sS'Key'
p672
S'PRI'
p673
sS'Null'
p674
S''
sS'Type'
p675
S'mediumint(9)'
p676
sa(dp677
g668
S''
sg669
S''
sg670
S'name'
p678
sg672
S'PRI'
p679
sg674
S''
sg675
S'varchar(64)'
p680
sa(dp681
g668
S''
sg669
S'0'
sg670
S'watchfordiffs'
p682
sg672
S'MUL'
p683
sg674
S''
sg675
S'tinyint(4)'
p684
sa(dp685
g668
S''
sg669
S'0'
sg670
S'linkinfooter'
p686
sg672
S''
sg674
S''
sg675
S'tinyint(4)'
p687
sa(dp688
g668
S''
sg669
S''
sg670
S'query'
p689
sg672
S''
sg674
S''
sg675
S'mediumtext'
p690
sa(lp691
(dp692
S'Comment'
p693
S''
sS'Non_unique'
p694
L0L
sS'Sub_part'
p695
NsS'Index_type'
p696
S'BTREE'
p697
sS'Key_name'
p698
S'userid'
p699
sS'Collation'
p700
S'A'
sS'Null'
p701
S''
sS'Seq_in_index'
p702
L1L
sS'Table'
p703
S'namedqueries'
p704
sS'Cardinality'
p705
NsS'Packed'
p706
NsS'Column_name'
p707
S'userid'
p708
sa(dp709
g693
S''
sg694
L0L
sg695
Nsg696
S'BTREE'
p710
sg698
S'userid'
p711
sg700
S'A'
sg701
S''
sg702
L2L
sg703
S'namedqueries'
p712
sg705
L0L
sg706
Nsg707
S'name'
p713
sa(dp714
g693
S''
sg694
L1L
sg695
Nsg696
S'BTREE'
p715
sg698
S'watchfordiffs'
p716
sg700
S'A'
sg701
S''
sg702
L1L
sg703
S'namedqueries'
p717
sg705
Nsg706
Nsg707
S'watchfordiffs'
p718
satp719
sS'watch'
p720
((lp721
(dp722
S'Extra'
p723
S''
sS'Default'
p724
S'0'
sS'Field'
p725
S'watcher'
p726
sS'Key'
p727
S'PRI'
p728
sS'Null'
p729
S''
sS'Type'
p730
S'mediumint(9)'
p731
sa(dp732
g723
S''
sg724
S'0'
sg725
S'watched'
p733
sg727
S'PRI'
p734
sg729
S''
sg730
S'mediumint(9)'
p735
sa(lp736
(dp737
S'Comment'
p738
S''
sS'Non_unique'
p739
L0L
sS'Sub_part'
p740
NsS'Index_type'
p741
S'BTREE'
p742
sS'Key_name'
p743
S'watcher'
p744
sS'Collation'
p745
S'A'
sS'Null'
p746
S''
sS'Seq_in_index'
p747
L1L
sS'Table'
p748
S'watch'
p749
sS'Cardinality'
p750
NsS'Packed'
p751
NsS'Column_name'
p752
S'watcher'
p753
sa(dp754
g738
S''
sg739
L0L
sg740
Nsg741
S'BTREE'
p755
sg743
S'watcher'
p756
sg745
S'A'
sg746
S''
sg747
L2L
sg748
S'watch'
p757
sg750
L0L
sg751
Nsg752
S'watched'
p758
sa(dp759
g738
S''
sg739
L1L
sg740
Nsg741
S'BTREE'
p760
sg743
S'watched'
p761
sg745
S'A'
sg746
S''
sg747
L1L
sg748
S'watch'
p762
sg750
Nsg751
Nsg752
S'watched'
p763
satp764
sS'logincookies'
p765
((lp766
(dp767
S'Extra'
p768
S'auto_increment'
p769
sS'Default'
p770
NsS'Field'
p771
S'cookie'
p772
sS'Key'
p773
S'PRI'
p774
sS'Null'
p775
S''
sS'Type'
p776
S'mediumint(9)'
p777
sa(dp778
g768
S''
sg770
S'0'
sg771
S'userid'
p779
sg773
S''
sg775
S''
sg776
S'mediumint(9)'
p780
sa(dp781
g768
S''
sg770
Nsg771
S'cryptpassword'
p782
sg773
S''
sg775
S'YES'
p783
sg776
S'varchar(64)'
p784
sa(dp785
g768
S''
sg770
Nsg771
S'hostname'
p786
sg773
S''
sg775
S'YES'
p787
sg776
S'varchar(128)'
p788
sa(dp789
g768
S''
sg770
Nsg771
S'lastused'
p790
sg773
S'MUL'
p791
sg775
S'YES'
p792
sg776
S'timestamp(14)'
p793
sa(lp794
(dp795
S'Comment'
p796
S''
sS'Non_unique'
p797
L0L
sS'Sub_part'
p798
NsS'Index_type'
p799
S'BTREE'
p800
sS'Key_name'
p801
S'PRIMARY'
p802
sS'Collation'
p803
S'A'
sS'Null'
p804
S''
sS'Seq_in_index'
p805
L1L
sS'Table'
p806
S'logincookies'
p807
sS'Cardinality'
p808
L0L
sS'Packed'
p809
NsS'Column_name'
p810
S'cookie'
p811
sa(dp812
g796
S''
sg797
L1L
sg798
Nsg799
S'BTREE'
p813
sg801
S'lastused'
p814
sg803
S'A'
sg804
S''
sg805
L1L
sg806
S'logincookies'
p815
sg808
Nsg809
Nsg810
S'lastused'
p816
satp817
sS'dependencies'
p818
((lp819
(dp820
S'Extra'
p821
S''
sS'Default'
p822
S'0'
sS'Field'
p823
S'blocked'
p824
sS'Key'
p825
S'MUL'
p826
sS'Null'
p827
S''
sS'Type'
p828
S'mediumint(9)'
p829
sa(dp830
g821
S''
sg822
S'0'
sg823
S'dependson'
p831
sg825
S'MUL'
p832
sg827
S''
sg828
S'mediumint(9)'
p833
sa(lp834
(dp835
S'Comment'
p836
S''
sS'Non_unique'
p837
L1L
sS'Sub_part'
p838
NsS'Index_type'
p839
S'BTREE'
p840
sS'Key_name'
p841
S'blocked'
p842
sS'Collation'
p843
S'A'
sS'Null'
p844
S''
sS'Seq_in_index'
p845
L1L
sS'Table'
p846
S'dependencies'
p847
sS'Cardinality'
p848
NsS'Packed'
p849
NsS'Column_name'
p850
S'blocked'
p851
sa(dp852
g836
S''
sg837
L1L
sg838
Nsg839
S'BTREE'
p853
sg841
S'dependson'
p854
sg843
S'A'
sg844
S''
sg845
L1L
sg846
S'dependencies'
p855
sg848
Nsg849
Nsg850
S'dependson'
p856
satp857
sS'products'
p858
((lp859
(dp860
S'Extra'
p861
S''
sS'Default'
p862
NsS'Field'
p863
S'product'
p864
sS'Key'
p865
S''
sS'Null'
p866
S'YES'
p867
sS'Type'
p868
S'varchar(64)'
p869
sa(dp870
g861
S''
sg862
Nsg863
S'description'
p871
sg865
S''
sg866
S'YES'
p872
sg868
S'mediumtext'
p873
sa(dp874
g861
S''
sg862
S''
sg863
S'milestoneurl'
p875
sg865
S''
sg866
S''
sg868
S'tinytext'
p876
sa(dp877
g861
S''
sg862
S'0'
sg863
S'disallownew'
p878
sg865
S''
sg866
S''
sg868
S'tinyint(4)'
p879
sa(dp880
g861
S''
sg862
S'0'
sg863
S'votesperuser'
p881
sg865
S''
sg866
S''
sg868
S'smallint(6)'
p882
sa(dp883
g861
S''
sg862
S'10000'
p884
sg863
S'maxvotesperbug'
p885
sg865
S''
sg866
S''
sg868
S'smallint(6)'
p886
sa(dp887
g861
S''
sg862
S'0'
sg863
S'votestoconfirm'
p888
sg865
S''
sg866
S''
sg868
S'smallint(6)'
p889
sa(dp890
g861
S''
sg862
S'---'
p891
sg863
S'defaultmilestone'
p892
sg865
S''
sg866
S''
sg868
S'varchar(20)'
p893
sa(ltp894
sS'components'
p895
((lp896
(dp897
S'Extra'
p898
S''
sS'Default'
p899
NsS'Field'
p900
S'value'
p901
sS'Key'
p902
S''
sS'Null'
p903
S'YES'
p904
sS'Type'
p905
S'tinytext'
p906
sa(dp907
g898
S''
sg899
Nsg900
S'program'
p908
sg902
S''
sg903
S'YES'
p909
sg905
S'varchar(64)'
p910
sa(dp911
g898
S''
sg899
S''
sg900
S'initialowner'
p912
sg902
S''
sg903
S''
sg905
S'tinytext'
p913
sa(dp914
g898
S''
sg899
S''
sg900
S'initialqacontact'
p915
sg902
S''
sg903
S''
sg905
S'tinytext'
p916
sa(dp917
g898
S''
sg899
S''
sg900
S'description'
p918
sg902
S''
sg903
S''
sg905
S'mediumtext'
p919
sa(ltp920
sS'keywords'
p921
((lp922
(dp923
S'Extra'
p924
S''
sS'Default'
p925
S'0'
sS'Field'
p926
S'bug_id'
p927
sS'Key'
p928
S'PRI'
p929
sS'Null'
p930
S''
sS'Type'
p931
S'mediumint(9)'
p932
sa(dp933
g924
S''
sg925
S'0'
sg926
S'keywordid'
p934
sg928
S'PRI'
p935
sg930
S''
sg931
S'smallint(6)'
p936
sa(lp937
(dp938
S'Comment'
p939
S''
sS'Non_unique'
p940
L0L
sS'Sub_part'
p941
NsS'Index_type'
p942
S'BTREE'
p943
sS'Key_name'
p944
S'bug_id'
p945
sS'Collation'
p946
S'A'
sS'Null'
p947
S''
sS'Seq_in_index'
p948
L1L
sS'Table'
p949
S'keywords'
p950
sS'Cardinality'
p951
NsS'Packed'
p952
NsS'Column_name'
p953
S'bug_id'
p954
sa(dp955
g939
S''
sg940
L0L
sg941
Nsg942
S'BTREE'
p956
sg944
S'bug_id'
p957
sg946
S'A'
sg947
S''
sg948
L2L
sg949
S'keywords'
p958
sg951
L0L
sg952
Nsg953
S'keywordid'
p959
sa(dp960
g939
S''
sg940
L1L
sg941
Nsg942
S'BTREE'
p961
sg944
S'keywordid'
p962
sg946
S'A'
sg947
S''
sg948
L1L
sg949
S'keywords'
p963
sg951
Nsg952
Nsg953
S'keywordid'
p964
satp965
sS'fielddefs'
p966
((lp967
(dp968
S'Extra'
p969
S'auto_increment'
p970
sS'Default'
p971
NsS'Field'
p972
S'fieldid'
p973
sS'Key'
p974
S'PRI'
p975
sS'Null'
p976
S''
sS'Type'
p977
S'mediumint(9)'
p978
sa(dp979
g969
S''
sg971
S''
sg972
S'name'
p980
sg974
S'UNI'
p981
sg976
S''
sg977
S'varchar(64)'
p982
sa(dp983
g969
S''
sg971
S''
sg972
S'description'
p984
sg974
S''
sg976
S''
sg977
S'mediumtext'
p985
sa(dp986
g969
S''
sg971
S'0'
sg972
S'mailhead'
p987
sg974
S''
sg976
S''
sg977
S'tinyint(4)'
p988
sa(dp989
g969
S''
sg971
S'0'
sg972
S'sortkey'
p990
sg974
S'MUL'
p991
sg976
S''
sg977
S'smallint(6)'
p992
sa(lp993
(dp994
S'Comment'
p995
S''
sS'Non_unique'
p996
L0L
sS'Sub_part'
p997
NsS'Index_type'
p998
S'BTREE'
p999
sS'Key_name'
p1000
S'PRIMARY'
p1001
sS'Collation'
p1002
S'A'
sS'Null'
p1003
S''
sS'Seq_in_index'
p1004
L1L
sS'Table'
p1005
S'fielddefs'
p1006
sS'Cardinality'
p1007
L29L
sS'Packed'
p1008
NsS'Column_name'
p1009
S'fieldid'
p1010
sa(dp1011
g995
S''
sg996
L0L
sg997
Nsg998
S'BTREE'
p1012
sg1000
S'name'
p1013
sg1002
S'A'
sg1003
S''
sg1004
L1L
sg1005
S'fielddefs'
p1014
sg1007
L29L
sg1008
Nsg1009
S'name'
p1015
sa(dp1016
g995
S''
sg996
L1L
sg997
Nsg998
S'BTREE'
p1017
sg1000
S'sortkey'
p1018
sg1002
S'A'
sg1003
S''
sg1004
L1L
sg1005
S'fielddefs'
p1019
sg1007
Nsg1008
Nsg1009
S'sortkey'
p1020
satp1021
sS'keyworddefs'
p1022
((lp1023
(dp1024
S'Extra'
p1025
S''
sS'Default'
p1026
S'0'
sS'Field'
p1027
S'id'
p1028
sS'Key'
p1029
S'PRI'
p1030
sS'Null'
p1031
S''
sS'Type'
p1032
S'smallint(6)'
p1033
sa(dp1034
g1025
S''
sg1026
S''
sg1027
S'name'
p1035
sg1029
S'UNI'
p1036
sg1031
S''
sg1032
S'varchar(64)'
p1037
sa(dp1038
g1025
S''
sg1026
Nsg1027
S'description'
p1039
sg1029
S''
sg1031
S'YES'
p1040
sg1032
S'mediumtext'
p1041
sa(lp1042
(dp1043
S'Comment'
p1044
S''
sS'Non_unique'
p1045
L0L
sS'Sub_part'
p1046
NsS'Index_type'
p1047
S'BTREE'
p1048
sS'Key_name'
p1049
S'PRIMARY'
p1050
sS'Collation'
p1051
S'A'
sS'Null'
p1052
S''
sS'Seq_in_index'
p1053
L1L
sS'Table'
p1054
S'keyworddefs'
p1055
sS'Cardinality'
p1056
L0L
sS'Packed'
p1057
NsS'Column_name'
p1058
S'id'
p1059
sa(dp1060
g1044
S''
sg1045
L0L
sg1046
Nsg1047
S'BTREE'
p1061
sg1049
S'name'
p1062
sg1051
S'A'
sg1052
S''
sg1053
L1L
sg1054
S'keyworddefs'
p1063
sg1056
L0L
sg1057
Nsg1058
S'name'
p1064
satp1065
sS'shadowlog'
p1066
((lp1067
(dp1068
S'Extra'
p1069
S'auto_increment'
p1070
sS'Default'
p1071
NsS'Field'
p1072
S'id'
p1073
sS'Key'
p1074
S'PRI'
p1075
sS'Null'
p1076
S''
sS'Type'
p1077
S'int(11)'
p1078
sa(dp1079
g1069
S''
sg1071
Nsg1072
S'ts'
p1080
sg1074
S''
sg1076
S'YES'
p1081
sg1077
S'timestamp(14)'
p1082
sa(dp1083
g1069
S''
sg1071
S'0'
sg1072
S'reflected'
p1084
sg1074
S'MUL'
p1085
sg1076
S''
sg1077
S'tinyint(4)'
p1086
sa(dp1087
g1069
S''
sg1071
S''
sg1072
S'command'
p1088
sg1074
S''
sg1076
S''
sg1077
S'mediumtext'
p1089
sa(lp1090
(dp1091
S'Comment'
p1092
S''
sS'Non_unique'
p1093
L0L
sS'Sub_part'
p1094
NsS'Index_type'
p1095
S'BTREE'
p1096
sS'Key_name'
p1097
S'PRIMARY'
p1098
sS'Collation'
p1099
S'A'
sS'Null'
p1100
S''
sS'Seq_in_index'
p1101
L1L
sS'Table'
p1102
S'shadowlog'
p1103
sS'Cardinality'
p1104
L0L
sS'Packed'
p1105
NsS'Column_name'
p1106
S'id'
p1107
sa(dp1108
g1092
S''
sg1093
L1L
sg1094
Nsg1095
S'BTREE'
p1109
sg1097
S'reflected'
p1110
sg1099
S'A'
sg1100
S''
sg1101
L1L
sg1102
S'shadowlog'
p1111
sg1104
Nsg1105
Nsg1106
S'reflected'
p1112
satp1113
sS'longdescs'
p1114
((lp1115
(dp1116
S'Extra'
p1117
S''
sS'Default'
p1118
S'0'
sS'Field'
p1119
S'bug_id'
p1120
sS'Key'
p1121
S'MUL'
p1122
sS'Null'
p1123
S''
sS'Type'
p1124
S'mediumint(9)'
p1125
sa(dp1126
g1117
S''
sg1118
S'0'
sg1119
S'who'
p1127
sg1121
S''
sg1123
S''
sg1124
S'mediumint(9)'
p1128
sa(dp1129
g1117
S''
sg1118
S'0000-00-00 00:00:00'
p1130
sg1119
S'bug_when'
p1131
sg1121
S'MUL'
p1132
sg1123
S''
sg1124
S'datetime'
p1133
sa(dp1134
g1117
S''
sg1118
Nsg1119
S'thetext'
p1135
sg1121
S''
sg1123
S'YES'
p1136
sg1124
S'mediumtext'
p1137
sa(lp1138
(dp1139
S'Comment'
p1140
S''
sS'Non_unique'
p1141
L1L
sS'Sub_part'
p1142
NsS'Index_type'
p1143
S'BTREE'
p1144
sS'Key_name'
p1145
S'bug_id'
p1146
sS'Collation'
p1147
S'A'
sS'Null'
p1148
S''
sS'Seq_in_index'
p1149
L1L
sS'Table'
p1150
S'longdescs'
p1151
sS'Cardinality'
p1152
NsS'Packed'
p1153
NsS'Column_name'
p1154
S'bug_id'
p1155
sa(dp1156
g1140
S''
sg1141
L1L
sg1142
Nsg1143
S'BTREE'
p1157
sg1145
S'bug_when'
p1158
sg1147
S'A'
sg1148
S''
sg1149
L1L
sg1150
S'longdescs'
p1159
sg1152
Nsg1153
Nsg1154
S'bug_when'
p1160
satp1161
st.