(S'2.12'
p1
(dp2
S'attachments'
p3
((lp4
(dp5
S'Extra'
p6
S'auto_increment'
p7
sS'Default'
p8
NsS'Field'
p9
S'attach_id'
p10
sS'Key'
p11
S'PRI'
p12
sS'Null'
p13
S''
sS'Type'
p14
S'mediumint(9)'
p15
sa(dp16
g6
S''
sg8
S'0'
sg9
S'bug_id'
p17
sg11
S'MUL'
p18
sg13
S''
sg14
S'mediumint(9)'
p19
sa(dp20
g6
S''
sg8
Nsg9
S'creation_ts'
p21
sg11
S'MUL'
p22
sg13
S'YES'
p23
sg14
S'timestamp(14)'
p24
sa(dp25
g6
S''
sg8
S''
sg9
S'description'
p26
sg11
S''
sg13
S''
sg14
S'mediumtext'
p27
sa(dp28
g6
S''
sg8
S''
sg9
S'mimetype'
p29
sg11
S''
sg13
S''
sg14
S'mediumtext'
p30
sa(dp31
g6
S''
sg8
Nsg9
S'ispatch'
p32
sg11
S''
sg13
S'YES'
p33
sg14
S'tinyint(4)'
p34
sa(dp35
g6
S''
sg8
S''
sg9
S'filename'
p36
sg11
S''
sg13
S''
sg14
S'mediumtext'
p37
sa(dp38
g6
S''
sg8
S''
sg9
S'thedata'
p39
sg11
S''
sg13
S''
sg14
S'longblob'
p40
sa(dp41
g6
S''
sg8
S'0'
sg9
S'submitter_id'
p42
sg11
S''
sg13
S''
sg14
S'mediumint(9)'
p43
sa(lp44
(dp45
S'Comment'
p46
S''
sS'Non_unique'
p47
L0L
sS'Sub_part'
p48
NsS'Index_type'
p49
S'BTREE'
p50
sS'Key_name'
p51
S'PRIMARY'
p52
sS'Collation'
p53
S'A'
sS'Null'
p54
S''
sS'Seq_in_index'
p55
L1L
sS'Table'
p56
S'attachments'
p57
sS'Cardinality'
p58
L0L
sS'Packed'
p59
NsS'Column_name'
p60
S'attach_id'
p61
sa(dp62
g46
S''
sg47
L1L
sg48
Nsg49
S'BTREE'
p63
sg51
S'bug_id'
p64
sg53
S'A'
sg54
S''
sg55
L1L
sg56
S'attachments'
p65
sg58
Nsg59
Nsg60
S'bug_id'
p66
sa(dp67
g46
S''
sg47
L1L
sg48
Nsg49
S'BTREE'
p68
sg51
S'creation_ts'
p69
sg53
S'A'
sg54
S''
sg55
L1L
sg56
S'attachments'
p70
sg58
Nsg59
Nsg60
S'creation_ts'
p71
satp72
sS'cc'
p73
((lp74
(dp75
S'Extra'
p76
S''
sS'Default'
p77
S'0'
sS'Field'
p78
S'bug_id'
p79
sS'Key'
p80
S'PRI'
p81
sS'Null'
p82
S''
sS'Type'
p83
S'mediumint(9)'
p84
sa(dp85
g76
S''
sg77
S'0'
sg78
S'who'
p86
sg80
S'PRI'
p87
sg82
S''
sg83
S'mediumint(9)'
p88
sa(lp89
(dp90
S'Comment'
p91
S''
sS'Non_unique'
p92
L0L
sS'Sub_part'
p93
NsS'Index_type'
p94
S'BTREE'
p95
sS'Key_name'
p96
S'bug_id'
p97
sS'Collation'
p98
S'A'
sS'Null'
p99
S''
sS'Seq_in_index'
p100
L1L
sS'Table'
p101
S'cc'
p102
sS'Cardinality'
p103
NsS'Packed'
p104
NsS'Column_name'
p105
S'bug_id'
p106
sa(dp107
g91
S''
sg92
L0L
sg93
Nsg94
S'BTREE'
p108
sg96
S'bug_id'
p109
sg98
S'A'
sg99
S''
sg100
L2L
sg101
S'cc'
p110
sg103
L0L
sg104
Nsg105
S'who'
p111
sa(dp112
g91
S''
sg92
L1L
sg93
Nsg94
S'BTREE'
p113
sg96
S'who'
p114
sg98
S'A'
sg99
S''
sg100
L1L
sg101
S'cc'
p115
sg103
Nsg104
Nsg105
S'who'
p116
satp117
sS'keywords'
p118
((lp119
(dp120
S'Extra'
p121
S''
sS'Default'
p122
S'0'
sS'Field'
p123
S'bug_id'
p124
sS'Key'
p125
S'PRI'
p126
sS'Null'
p127
S''
sS'Type'
p128
S'mediumint(9)'
p129
sa(dp130
g121
S''
sg122
S'0'
sg123
S'keywordid'
p131
sg125
S'PRI'
p132
sg127
S''
sg128
S'smallint(6)'
p133
sa(lp134
(dp135
S'Comment'
p136
S''
sS'Non_unique'
p137
L0L
sS'Sub_part'
p138
NsS'Index_type'
p139
S'BTREE'
p140
sS'Key_name'
p141
S'bug_id'
p142
sS'Collation'
p143
S'A'
sS'Null'
p144
S''
sS'Seq_in_index'
p145
L1L
sS'Table'
p146
S'keywords'
p147
sS'Cardinality'
p148
NsS'Packed'
p149
NsS'Column_name'
p150
S'bug_id'
p151
sa(dp152
g136
S''
sg137
L0L
sg138
Nsg139
S'BTREE'
p153
sg141
S'bug_id'
p154
sg143
S'A'
sg144
S''
sg145
L2L
sg146
S'keywords'
p155
sg148
L0L
sg149
Nsg150
S'keywordid'
p156
sa(dp157
g136
S''
sg137
L1L
sg138
Nsg139
S'BTREE'
p158
sg141
S'keywordid'
p159
sg143
S'A'
sg144
S''
sg145
L1L
sg146
S'keywords'
p160
sg148
Nsg149
Nsg150
S'keywordid'
p161
satp162
sS'keyworddefs'
p163
((lp164
(dp165
S'Extra'
p166
S''
sS'Default'
p167
S'0'
sS'Field'
p168
S'id'
p169
sS'Key'
p170
S'PRI'
p171
sS'Null'
p172
S''
sS'Type'
p173
S'smallint(6)'
p174
sa(dp175
g166
S''
sg167
S''
sg168
S'name'
p176
sg170
S'UNI'
p177
sg172
S''
sg173
S'varchar(64)'
p178
sa(dp179
g166
S''
sg167
Nsg168
S'description'
p180
sg170
S''
sg172
S'YES'
p181
sg173
S'mediumtext'
p182
sa(lp183
(dp184
S'Comment'
p185
S''
sS'Non_unique'
p186
L0L
sS'Sub_part'
p187
NsS'Index_type'
p188
S'BTREE'
p189
sS'Key_name'
p190
S'PRIMARY'
p191
sS'Collation'
p192
S'A'
sS'Null'
p193
S''
sS'Seq_in_index'
p194
L1L
sS'Table'
p195
S'keyworddefs'
p196
sS'Cardinality'
p197
L0L
sS'Packed'
p198
NsS'Column_name'
p199
S'id'
p200
sa(dp201
g185
S''
sg186
L0L
sg187
Nsg188
S'BTREE'
p202
sg190
S'name'
p203
sg192
S'A'
sg193
S''
sg194
L1L
sg195
S'keyworddefs'
p204
sg197
L0L
sg198
Nsg199
S'name'
p205
satp206
sS'votes'
p207
((lp208
(dp209
S'Extra'
p210
S''
sS'Default'
p211
S'0'
sS'Field'
p212
S'who'
p213
sS'Key'
p214
S'MUL'
p215
sS'Null'
p216
S''
sS'Type'
p217
S'mediumint(9)'
p218
sa(dp219
g210
S''
sg211
S'0'
sg212
S'bug_id'
p220
sg214
S'MUL'
p221
sg216
S''
sg217
S'mediumint(9)'
p222
sa(dp223
g210
S''
sg211
S'0'
sg212
S'count'
p224
sg214
S''
sg216
S''
sg217
S'smallint(6)'
p225
sa(lp226
(dp227
S'Comment'
p228
S''
sS'Non_unique'
p229
L1L
sS'Sub_part'
p230
NsS'Index_type'
p231
S'BTREE'
p232
sS'Key_name'
p233
S'who'
p234
sS'Collation'
p235
S'A'
sS'Null'
p236
S''
sS'Seq_in_index'
p237
L1L
sS'Table'
p238
S'votes'
p239
sS'Cardinality'
p240
NsS'Packed'
p241
NsS'Column_name'
p242
S'who'
p243
sa(dp244
g228
S''
sg229
L1L
sg230
Nsg231
S'BTREE'
p245
sg233
S'bug_id'
p246
sg235
S'A'
sg236
S''
sg237
L1L
sg238
S'votes'
p247
sg240
Nsg241
Nsg242
S'bug_id'
p248
satp249
sS'duplicates'
p250
((lp251
(dp252
S'Extra'
p253
S''
sS'Default'
p254
S'0'
sS'Field'
p255
S'dupe_of'
p256
sS'Key'
p257
S''
sS'Null'
p258
S''
sS'Type'
p259
S'mediumint(9)'
p260
sa(dp261
g253
S''
sg254
S'0'
sg255
S'dupe'
p262
sg257
S'PRI'
p263
sg258
S''
sg259
S'mediumint(9)'
p264
sa(lp265
(dp266
S'Comment'
p267
S''
sS'Non_unique'
p268
L0L
sS'Sub_part'
p269
NsS'Index_type'
p270
S'BTREE'
p271
sS'Key_name'
p272
S'PRIMARY'
p273
sS'Collation'
p274
S'A'
sS'Null'
p275
S''
sS'Seq_in_index'
p276
L1L
sS'Table'
p277
S'duplicates'
p278
sS'Cardinality'
p279
L0L
sS'Packed'
p280
NsS'Column_name'
p281
S'dupe'
p282
satp283
sS'logincookies'
p284
((lp285
(dp286
S'Extra'
p287
S'auto_increment'
p288
sS'Default'
p289
NsS'Field'
p290
S'cookie'
p291
sS'Key'
p292
S'PRI'
p293
sS'Null'
p294
S''
sS'Type'
p295
S'mediumint(9)'
p296
sa(dp297
g287
S''
sg289
S'0'
sg290
S'userid'
p298
sg292
S''
sg294
S''
sg295
S'mediumint(9)'
p299
sa(dp300
g287
S''
sg289
Nsg290
S'cryptpassword'
p301
sg292
S''
sg294
S'YES'
p302
sg295
S'varchar(64)'
p303
sa(dp304
g287
S''
sg289
Nsg290
S'hostname'
p305
sg292
S''
sg294
S'YES'
p306
sg295
S'varchar(128)'
p307
sa(dp308
g287
S''
sg289
Nsg290
S'lastused'
p309
sg292
S'MUL'
p310
sg294
S'YES'
p311
sg295
S'timestamp(14)'
p312
sa(lp313
(dp314
S'Comment'
p315
S''
sS'Non_unique'
p316
L0L
sS'Sub_part'
p317
NsS'Index_type'
p318
S'BTREE'
p319
sS'Key_name'
p320
S'PRIMARY'
p321
sS'Collation'
p322
S'A'
sS'Null'
p323
S''
sS'Seq_in_index'
p324
L1L
sS'Table'
p325
S'logincookies'
p326
sS'Cardinality'
p327
L0L
sS'Packed'
p328
NsS'Column_name'
p329
S'cookie'
p330
sa(dp331
g315
S''
sg316
L1L
sg317
Nsg318
S'BTREE'
p332
sg320
S'lastused'
p333
sg322
S'A'
sg323
S''
sg324
L1L
sg325
S'logincookies'
p334
sg327
Nsg328
Nsg329
S'lastused'
p335
satp336
sS'fielddefs'
p337
((lp338
(dp339
S'Extra'
p340
S'auto_increment'
p341
sS'Default'
p342
NsS'Field'
p343
S'fieldid'
p344
sS'Key'
p345
S'PRI'
p346
sS'Null'
p347
S''
sS'Type'
p348
S'mediumint(9)'
p349
sa(dp350
g340
S''
sg342
S''
sg343
S'name'
p351
sg345
S'UNI'
p352
sg347
S''
sg348
S'varchar(64)'
p353
sa(dp354
g340
S''
sg342
S''
sg343
S'description'
p355
sg345
S''
sg347
S''
sg348
S'mediumtext'
p356
sa(dp357
g340
S''
sg342
S'0'
sg343
S'mailhead'
p358
sg345
S''
sg347
S''
sg348
S'tinyint(4)'
p359
sa(dp360
g340
S''
sg342
S'0'
sg343
S'sortkey'
p361
sg345
S'MUL'
p362
sg347
S''
sg348
S'smallint(6)'
p363
sa(lp364
(dp365
S'Comment'
p366
S''
sS'Non_unique'
p367
L0L
sS'Sub_part'
p368
NsS'Index_type'
p369
S'BTREE'
p370
sS'Key_name'
p371
S'PRIMARY'
p372
sS'Collation'
p373
S'A'
sS'Null'
p374
S''
sS'Seq_in_index'
p375
L1L
sS'Table'
p376
S'fielddefs'
p377
sS'Cardinality'
p378
L29L
sS'Packed'
p379
NsS'Column_name'
p380
S'fieldid'
p381
sa(dp382
g366
S''
sg367
L0L
sg368
Nsg369
S'BTREE'
p383
sg371
S'name'
p384
sg373
S'A'
sg374
S''
sg375
L1L
sg376
S'fielddefs'
p385
sg378
L29L
sg379
Nsg380
S'name'
p386
sa(dp387
g366
S''
sg367
L1L
sg368
Nsg369
S'BTREE'
p388
sg371
S'sortkey'
p389
sg373
S'A'
sg374
S''
sg375
L1L
sg376
S'fielddefs'
p390
sg378
Nsg379
Nsg380
S'sortkey'
p391
satp392
sS'shadowlog'
p393
((lp394
(dp395
S'Extra'
p396
S'auto_increment'
p397
sS'Default'
p398
NsS'Field'
p399
S'id'
p400
sS'Key'
p401
S'PRI'
p402
sS'Null'
p403
S''
sS'Type'
p404
S'int(11)'
p405
sa(dp406
g396
S''
sg398
Nsg399
S'ts'
p407
sg401
S''
sg403
S'YES'
p408
sg404
S'timestamp(14)'
p409
sa(dp410
g396
S''
sg398
S'0'
sg399
S'reflected'
p411
sg401
S'MUL'
p412
sg403
S''
sg404
S'tinyint(4)'
p413
sa(dp414
g396
S''
sg398
S''
sg399
S'command'
p415
sg401
S''
sg403
S''
sg404
S'mediumtext'
p416
sa(lp417
(dp418
S'Comment'
p419
S''
sS'Non_unique'
p420
L0L
sS'Sub_part'
p421
NsS'Index_type'
p422
S'BTREE'
p423
sS'Key_name'
p424
S'PRIMARY'
p425
sS'Collation'
p426
S'A'
sS'Null'
p427
S''
sS'Seq_in_index'
p428
L1L
sS'Table'
p429
S'shadowlog'
p430
sS'Cardinality'
p431
L0L
sS'Packed'
p432
NsS'Column_name'
p433
S'id'
p434
sa(dp435
g419
S''
sg420
L1L
sg421
Nsg422
S'BTREE'
p436
sg424
S'reflected'
p437
sg426
S'A'
sg427
S''
sg428
L1L
sg429
S'shadowlog'
p438
sg431
Nsg432
Nsg433
S'reflected'
p439
satp440
sS'profiles_activity'
p441
((lp442
(dp443
S'Extra'
p444
S''
sS'Default'
p445
S'0'
sS'Field'
p446
S'userid'
p447
sS'Key'
p448
S'MUL'
p449
sS'Null'
p450
S''
sS'Type'
p451
S'mediumint(9)'
p452
sa(dp453
g444
S''
sg445
S'0'
sg446
S'who'
p454
sg448
S''
sg450
S''
sg451
S'mediumint(9)'
p455
sa(dp456
g444
S''
sg445
S'0000-00-00 00:00:00'
p457
sg446
S'profiles_when'
p458
sg448
S'MUL'
p459
sg450
S''
sg451
S'datetime'
p460
sa(dp461
g444
S''
sg445
S'0'
sg446
S'fieldid'
p462
sg448
S'MUL'
p463
sg450
S''
sg451
S'mediumint(9)'
p464
sa(dp465
g444
S''
sg445
Nsg446
S'oldvalue'
p466
sg448
S''
sg450
S'YES'
p467
sg451
S'tinytext'
p468
sa(dp469
g444
S''
sg445
Nsg446
S'newvalue'
p470
sg448
S''
sg450
S'YES'
p471
sg451
S'tinytext'
p472
sa(lp473
(dp474
S'Comment'
p475
S''
sS'Non_unique'
p476
L1L
sS'Sub_part'
p477
NsS'Index_type'
p478
S'BTREE'
p479
sS'Key_name'
p480
S'userid'
p481
sS'Collation'
p482
S'A'
sS'Null'
p483
S''
sS'Seq_in_index'
p484
L1L
sS'Table'
p485
S'profiles_activity'
p486
sS'Cardinality'
p487
NsS'Packed'
p488
NsS'Column_name'
p489
S'userid'
p490
sa(dp491
g475
S''
sg476
L1L
sg477
Nsg478
S'BTREE'
p492
sg480
S'profiles_when'
p493
sg482
S'A'
sg483
S''
sg484
L1L
sg485
S'profiles_activity'
p494
sg487
Nsg488
Nsg489
S'profiles_when'
p495
sa(dp496
g475
S''
sg476
L1L
sg477
Nsg478
S'BTREE'
p497
sg480
S'fieldid'
p498
sg482
S'A'
sg483
S''
sg484
L1L
sg485
S'profiles_activity'
p499
sg487
Nsg488
Nsg489
S'fieldid'
p500
satp501
sS'components'
p502
((lp503
(dp504
S'Extra'
p505
S''
sS'Default'
p506
NsS'Field'
p507
S'value'
p508
sS'Key'
p509
S''
sS'Null'
p510
S'YES'
p511
sS'Type'
p512
S'tinytext'
p513
sa(dp514
g505
S''
sg506
Nsg507
S'program'
p515
sg509
S''
sg510
S'YES'
p516
sg512
S'varchar(64)'
p517
sa(dp518
g505
S''
sg506
S'0'
sg507
S'initialowner'
p519
sg509
S''
sg510
S''
sg512
S'mediumint(9)'
p520
sa(dp521
g505
S''
sg506
S'0'
sg507
S'initialqacontact'
p522
sg509
S''
sg510
S''
sg512
S'mediumint(9)'
p523
sa(dp524
g505
S''
sg506
S''
sg507
S'description'
p525
sg509
S''
sg510
S''
sg512
S'mediumtext'
p526
sa(ltp527
sS'watch'
p528
((lp529
(dp530
S'Extra'
p531
S''
sS'Default'
p532
S'0'
sS'Field'
p533
S'watcher'
p534
sS'Key'
p535
S'PRI'
p536
sS'Null'
p537
S''
sS'Type'
p538
S'mediumint(9)'
p539
sa(dp540
g531
S''
sg532
S'0'
sg533
S'watched'
p541
sg535
S'PRI'
p542
sg537
S''
sg538
S'mediumint(9)'
p543
sa(lp544
(dp545
S'Comment'
p546
S''
sS'Non_unique'
p547
L0L
sS'Sub_part'
p548
NsS'Index_type'
p549
S'BTREE'
p550
sS'Key_name'
p551
S'watcher'
p552
sS'Collation'
p553
S'A'
sS'Null'
p554
S''
sS'Seq_in_index'
p555
L1L
sS'Table'
p556
S'watch'
p557
sS'Cardinality'
p558
NsS'Packed'
p559
NsS'Column_name'
p560
S'watcher'
p561
sa(dp562
g546
S''
sg547
L0L
sg548
Nsg549
S'BTREE'
p563
sg551
S'watcher'
p564
sg553
S'A'
sg554
S''
sg555
L2L
sg556
S'watch'
p565
sg558
L0L
sg559
Nsg560
S'watched'
p566
sa(dp567
g546
S''
sg547
L1L
sg548
Nsg549
S'BTREE'
p568
sg551
S'watched'
p569
sg553
S'A'
sg554
S''
sg555
L1L
sg556
S'watch'
p570
sg558
Nsg559
Nsg560
S'watched'
p571
satp572
sS'namedqueries'
p573
((lp574
(dp575
S'Extra'
p576
S''
sS'Default'
p577
S'0'
sS'Field'
p578
S'userid'
p579
sS'Key'
p580
S'PRI'
p581
sS'Null'
p582
S''
sS'Type'
p583
S'mediumint(9)'
p584
sa(dp585
g576
S''
sg577
S''
sg578
S'name'
p586
sg580
S'PRI'
p587
sg582
S''
sg583
S'varchar(64)'
p588
sa(dp589
g576
S''
sg577
S'0'
sg578
S'watchfordiffs'
p590
sg580
S'MUL'
p591
sg582
S''
sg583
S'tinyint(4)'
p592
sa(dp593
g576
S''
sg577
S'0'
sg578
S'linkinfooter'
p594
sg580
S''
sg582
S''
sg583
S'tinyint(4)'
p595
sa(dp596
g576
S''
sg577
S''
sg578
S'query'
p597
sg580
S''
sg582
S''
sg583
S'mediumtext'
p598
sa(lp599
(dp600
S'Comment'
p601
S''
sS'Non_unique'
p602
L0L
sS'Sub_part'
p603
NsS'Index_type'
p604
S'BTREE'
p605
sS'Key_name'
p606
S'userid'
p607
sS'Collation'
p608
S'A'
sS'Null'
p609
S''
sS'Seq_in_index'
p610
L1L
sS'Table'
p611
S'namedqueries'
p612
sS'Cardinality'
p613
NsS'Packed'
p614
NsS'Column_name'
p615
S'userid'
p616
sa(dp617
g601
S''
sg602
L0L
sg603
Nsg604
S'BTREE'
p618
sg606
S'userid'
p619
sg608
S'A'
sg609
S''
sg610
L2L
sg611
S'namedqueries'
p620
sg613
L0L
sg614
Nsg615
S'name'
p621
sa(dp622
g601
S''
sg602
L1L
sg603
Nsg604
S'BTREE'
p623
sg606
S'watchfordiffs'
p624
sg608
S'A'
sg609
S''
sg610
L1L
sg611
S'namedqueries'
p625
sg613
Nsg614
Nsg615
S'watchfordiffs'
p626
satp627
sS'dependencies'
p628
((lp629
(dp630
S'Extra'
p631
S''
sS'Default'
p632
S'0'
sS'Field'
p633
S'blocked'
p634
sS'Key'
p635
S'MUL'
p636
sS'Null'
p637
S''
sS'Type'
p638
S'mediumint(9)'
p639
sa(dp640
g631
S''
sg632
S'0'
sg633
S'dependson'
p641
sg635
S'MUL'
p642
sg637
S''
sg638
S'mediumint(9)'
p643
sa(lp644
(dp645
S'Comment'
p646
S''
sS'Non_unique'
p647
L1L
sS'Sub_part'
p648
NsS'Index_type'
p649
S'BTREE'
p650
sS'Key_name'
p651
S'blocked'
p652
sS'Collation'
p653
S'A'
sS'Null'
p654
S''
sS'Seq_in_index'
p655
L1L
sS'Table'
p656
S'dependencies'
p657
sS'Cardinality'
p658
NsS'Packed'
p659
NsS'Column_name'
p660
S'blocked'
p661
sa(dp662
g646
S''
sg647
L1L
sg648
Nsg649
S'BTREE'
p663
sg651
S'dependson'
p664
sg653
S'A'
sg654
S''
sg655
L1L
sg656
S'dependencies'
p665
sg658
Nsg659
Nsg660
S'dependson'
p666
satp667
sS'groups'
p668
((lp669
(dp670
S'Extra'
p671
S''
sS'Default'
p672
S'0'
sS'Field'
p673
S'bit'
p674
sS'Key'
p675
S'PRI'
p676
sS'Null'
p677
S''
sS'Type'
p678
S'bigint(20)'
p679
sa(dp680
g671
S''
sg672
S''
sg673
S'name'
p681
sg675
S'UNI'
p682
sg677
S''
sg678
S'varchar(255)'
p683
sa(dp684
g671
S''
sg672
S''
sg673
S'description'
p685
sg675
S''
sg677
S''
sg678
S'text'
p686
sa(dp687
g671
S''
sg672
S'0'
sg673
S'isbuggroup'
p688
sg675
S''
sg677
S''
sg678
S'tinyint(4)'
p689
sa(dp690
g671
S''
sg672
S''
sg673
S'userregexp'
p691
sg675
S''
sg677
S''
sg678
S'tinytext'
p692
sa(lp693
(dp694
S'Comment'
p695
S''
sS'Non_unique'
p696
L0L
sS'Sub_part'
p697
NsS'Index_type'
p698
S'BTREE'
p699
sS'Key_name'
p700
S'bit'
p701
sS'Collation'
p702
S'A'
sS'Null'
p703
S''
sS'Seq_in_index'
p704
L1L
sS'Table'
p705
S'groups'
p706
sS'Cardinality'
p707
L7L
sS'Packed'
p708
NsS'Column_name'
p709
S'bit'
p710
sa(dp711
g695
S''
sg696
L0L
sg697
Nsg698
S'BTREE'
p712
sg700
S'name'
p713
sg702
S'A'
sg703
S''
sg704
L1L
sg705
S'groups'
p714
sg707
L7L
sg708
Nsg709
S'name'
p715
satp716
sS'milestones'
p717
((lp718
(dp719
S'Extra'
p720
S''
sS'Default'
p721
S''
sS'Field'
p722
S'value'
p723
sS'Key'
p724
S'PRI'
p725
sS'Null'
p726
S''
sS'Type'
p727
S'varchar(20)'
p728
sa(dp729
g720
S''
sg721
S''
sg722
S'product'
p730
sg724
S'PRI'
p731
sg726
S''
sg727
S'varchar(64)'
p732
sa(dp733
g720
S''
sg721
S'0'
sg722
S'sortkey'
p734
sg724
S''
sg726
S''
sg727
S'smallint(6)'
p735
sa(lp736
(dp737
S'Comment'
p738
S''
sS'Non_unique'
p739
L0L
sS'Sub_part'
p740
NsS'Index_type'
p741
S'BTREE'
p742
sS'Key_name'
p743
S'product'
p744
sS'Collation'
p745
S'A'
sS'Null'
p746
S''
sS'Seq_in_index'
p747
L1L
sS'Table'
p748
S'milestones'
p749
sS'Cardinality'
p750
NsS'Packed'
p751
NsS'Column_name'
p752
S'product'
p753
sa(dp754
g738
S''
sg739
L0L
sg740
Nsg741
S'BTREE'
p755
sg743
S'product'
p756
sg745
S'A'
sg746
S''
sg747
L2L
sg748
S'milestones'
p757
sg750
L0L
sg751
Nsg752
S'value'
p758
satp759
sS'longdescs'
p760
((lp761
(dp762
S'Extra'
p763
S''
sS'Default'
p764
S'0'
sS'Field'
p765
S'bug_id'
p766
sS'Key'
p767
S'MUL'
p768
sS'Null'
p769
S''
sS'Type'
p770
S'mediumint(9)'
p771
sa(dp772
g763
S''
sg764
S'0'
sg765
S'who'
p773
sg767
S''
sg769
S''
sg770
S'mediumint(9)'
p774
sa(dp775
g763
S''
sg764
S'0000-00-00 00:00:00'
p776
sg765
S'bug_when'
p777
sg767
S'MUL'
p778
sg769
S''
sg770
S'datetime'
p779
sa(dp780
g763
S''
sg764
Nsg765
S'thetext'
p781
sg767
S''
sg769
S'YES'
p782
sg770
S'mediumtext'
p783
sa(lp784
(dp785
S'Comment'
p786
S''
sS'Non_unique'
p787
L1L
sS'Sub_part'
p788
NsS'Index_type'
p789
S'BTREE'
p790
sS'Key_name'
p791
S'bug_id'
p792
sS'Collation'
p793
S'A'
sS'Null'
p794
S''
sS'Seq_in_index'
p795
L1L
sS'Table'
p796
S'longdescs'
p797
sS'Cardinality'
p798
NsS'Packed'
p799
NsS'Column_name'
p800
S'bug_id'
p801
sa(dp802
g786
S''
sg787
L1L
sg788
Nsg789
S'BTREE'
p803
sg791
S'bug_when'
p804
sg793
S'A'
sg794
S''
sg795
L1L
sg796
S'longdescs'
p805
sg798
Nsg799
Nsg800
S'bug_when'
p806
satp807
sS'versions'
p808
((lp809
(dp810
S'Extra'
p811
S''
sS'Default'
p812
NsS'Field'
p813
S'value'
p814
sS'Key'
p815
S''
sS'Null'
p816
S'YES'
p817
sS'Type'
p818
S'tinytext'
p819
sa(dp820
g811
S''
sg812
S''
sg813
S'program'
p821
sg815
S''
sg816
S''
sg818
S'varchar(64)'
p822
sa(ltp823
sS'bugs'
p824
((lp825
(dp826
S'Extra'
p827
S'auto_increment'
p828
sS'Default'
p829
NsS'Field'
p830
S'bug_id'
p831
sS'Key'
p832
S'PRI'
p833
sS'Null'
p834
S''
sS'Type'
p835
S'mediumint(9)'
p836
sa(dp837
g827
S''
sg829
S'0'
sg830
S'groupset'
p838
sg832
S''
sg834
S''
sg835
S'bigint(20)'
p839
sa(dp840
g827
S''
sg829
S'0'
sg830
S'assigned_to'
p841
sg832
S'MUL'
p842
sg834
S''
sg835
S'mediumint(9)'
p843
sa(dp844
g827
S''
sg829
Nsg830
S'bug_file_loc'
p845
sg832
S''
sg834
S'YES'
p846
sg835
S'text'
p847
sa(dp848
g827
S''
sg829
S'blocker'
p849
sg830
S'bug_severity'
p850
sg832
S'MUL'
p851
sg834
S''
sg835
S"enum('blocker','critical','major','normal','minor','trivial','enhancement')"
p852
sa(dp853
g827
S''
sg829
S'UNCONFIRMED'
p854
sg830
S'bug_status'
p855
sg832
S'MUL'
p856
sg834
S''
sg835
S"enum('UNCONFIRMED','NEW','ASSIGNED','REOPENED','RESOLVED','VERIFIED','CLOSED')"
p857
sa(dp858
g827
S''
sg829
S'0000-00-00 00:00:00'
p859
sg830
S'creation_ts'
p860
sg832
S'MUL'
p861
sg834
S''
sg835
S'datetime'
p862
sa(dp863
g827
S''
sg829
Nsg830
S'delta_ts'
p864
sg832
S'MUL'
p865
sg834
S'YES'
p866
sg835
S'timestamp(14)'
p867
sa(dp868
g827
S''
sg829
Nsg830
S'short_desc'
p869
sg832
S''
sg834
S'YES'
p870
sg835
S'mediumtext'
p871
sa(dp872
g827
S''
sg829
S'All'
p873
sg830
S'op_sys'
p874
sg832
S'MUL'
p875
sg834
S''
sg835
S"enum('All','Windows 3.1','Windows 95','Windows 98','Windows ME','Windows 2000','Windows NT','Mac System 7','Mac System 7.5','Mac System 7.6.1','Mac System 8.0','Mac System 8.5','Mac System 8.6','Mac System 9.0','Linux','BSDI','FreeBSD','NetBSD','OpenBSD','AIX','BeOS','HP-UX','IRIX','Neutrino','OpenVMS','OS/2','OSF/1','Solaris','SunOS','other')"
p876
sa(dp877
g827
S''
sg829
S'P1'
p878
sg830
S'priority'
p879
sg832
S'MUL'
p880
sg834
S''
sg835
S"enum('P1','P2','P3','P4','P5')"
p881
sa(dp882
g827
S''
sg829
S''
sg830
S'product'
p883
sg832
S'MUL'
p884
sg834
S''
sg835
S'varchar(64)'
p885
sa(dp886
g827
S''
sg829
Nsg830
S'rep_platform'
p887
sg832
S''
sg834
S'YES'
p888
sg835
S"enum('All','DEC','HP','Macintosh','PC','SGI','Sun','Other')"
p889
sa(dp890
g827
S''
sg829
S'0'
sg830
S'reporter'
p891
sg832
S'MUL'
p892
sg834
S''
sg835
S'mediumint(9)'
p893
sa(dp894
g827
S''
sg829
S''
sg830
S'version'
p895
sg832
S'MUL'
p896
sg834
S''
sg835
S'varchar(16)'
p897
sa(dp898
g827
S''
sg829
S''
sg830
S'component'
p899
sg832
S'MUL'
p900
sg834
S''
sg835
S'varchar(50)'
p901
sa(dp902
g827
S''
sg829
S''
sg830
S'resolution'
p903
sg832
S'MUL'
p904
sg834
S''
sg835
S"enum('','FIXED','INVALID','WONTFIX','LATER','REMIND','DUPLICATE','WORKSFORME','MOVED')"
p905
sa(dp906
g827
S''
sg829
S'---'
p907
sg830
S'target_milestone'
p908
sg832
S'MUL'
p909
sg834
S''
sg835
S'varchar(20)'
p910
sa(dp911
g827
S''
sg829
S'0'
sg830
S'qa_contact'
p912
sg832
S'MUL'
p913
sg834
S''
sg835
S'mediumint(9)'
p914
sa(dp915
g827
S''
sg829
S''
sg830
S'status_whiteboard'
p916
sg832
S''
sg834
S''
sg835
S'mediumtext'
p917
sa(dp918
g827
S''
sg829
S'0'
sg830
S'votes'
p919
sg832
S'MUL'
p920
sg834
S''
sg835
S'mediumint(9)'
p921
sa(dp922
g827
S''
sg829
S''
sg830
S'keywords'
p923
sg832
S''
sg834
S''
sg835
S'mediumtext'
p924
sa(dp925
g827
S''
sg829
S'0000-00-00 00:00:00'
p926
sg830
S'lastdiffed'
p927
sg832
S''
sg834
S''
sg835
S'datetime'
p928
sa(dp929
g827
S''
sg829
S'0'
sg830
S'everconfirmed'
p930
sg832
S''
sg834
S''
sg835
S'tinyint(4)'
p931
sa(lp932
(dp933
S'Comment'
p934
S''
sS'Non_unique'
p935
L0L
sS'Sub_part'
p936
NsS'Index_type'
p937
S'BTREE'
p938
sS'Key_name'
p939
S'PRIMARY'
p940
sS'Collation'
p941
S'A'
sS'Null'
p942
S''
sS'Seq_in_index'
p943
L1L
sS'Table'
p944
S'bugs'
p945
sS'Cardinality'
p946
L0L
sS'Packed'
p947
NsS'Column_name'
p948
S'bug_id'
p949
sa(dp950
g934
S''
sg935
L1L
sg936
Nsg937
S'BTREE'
p951
sg939
S'assigned_to'
p952
sg941
S'A'
sg942
S''
sg943
L1L
sg944
S'bugs'
p953
sg946
Nsg947
Nsg948
S'assigned_to'
p954
sa(dp955
g934
S''
sg935
L1L
sg936
Nsg937
S'BTREE'
p956
sg939
S'creation_ts'
p957
sg941
S'A'
sg942
S''
sg943
L1L
sg944
S'bugs'
p958
sg946
Nsg947
Nsg948
S'creation_ts'
p959
sa(dp960
g934
S''
sg935
L1L
sg936
Nsg937
S'BTREE'
p961
sg939
S'delta_ts'
p962
sg941
S'A'
sg942
S''
sg943
L1L
sg944
S'bugs'
p963
sg946
Nsg947
Nsg948
S'delta_ts'
p964
sa(dp965
g934
S''
sg935
L1L
sg936
Nsg937
S'BTREE'
p966
sg939
S'bug_severity'
p967
sg941
S'A'
sg942
S''
sg943
L1L
sg944
S'bugs'
p968
sg946
Nsg947
Nsg948
S'bug_severity'
p969
sa(dp970
g934
S''
sg935
L1L
sg936
Nsg937
S'BTREE'
p971
sg939
S'bug_status'
p972
sg941
S'A'
sg942
S''
sg943
L1L
sg944
S'bugs'
p973
sg946
Nsg947
Nsg948
S'bug_status'
p974
sa(dp975
g934
S''
sg935
L1L
sg936
Nsg937
S'BTREE'
p976
sg939
S'op_sys'
p977
sg941
S'A'
sg942
S''
sg943
L1L
sg944
S'bugs'
p978
sg946
Nsg947
Nsg948
S'op_sys'
p979
sa(dp980
g934
S''
sg935
L1L
sg936
Nsg937
S'BTREE'
p981
sg939
S'priority'
p982
sg941
S'A'
sg942
S''
sg943
L1L
sg944
S'bugs'
p983
sg946
Nsg947
Nsg948
S'priority'
p984
sa(dp985
g934
S''
sg935
L1L
sg936
Nsg937
S'BTREE'
p986
sg939
S'product'
p987
sg941
S'A'
sg942
S''
sg943
L1L
sg944
S'bugs'
p988
sg946
Nsg947
Nsg948
S'product'
p989
sa(dp990
g934
S''
sg935
L1L
sg936
Nsg937
S'BTREE'
p991
sg939
S'reporter'
p992
sg941
S'A'
sg942
S''
sg943
L1L
sg944
S'bugs'
p993
sg946
Nsg947
Nsg948
S'reporter'
p994
sa(dp995
g934
S''
sg935
L1L
sg936
Nsg937
S'BTREE'
p996
sg939
S'version'
p997
sg941
S'A'
sg942
S''
sg943
L1L
sg944
S'bugs'
p998
sg946
Nsg947
Nsg948
S'version'
p999
sa(dp1000
g934
S''
sg935
L1L
sg936
Nsg937
S'BTREE'
p1001
sg939
S'component'
p1002
sg941
S'A'
sg942
S''
sg943
L1L
sg944
S'bugs'
p1003
sg946
Nsg947
Nsg948
S'component'
p1004
sa(dp1005
g934
S''
sg935
L1L
sg936
Nsg937
S'BTREE'
p1006
sg939
S'resolution'
p1007
sg941
S'A'
sg942
S''
sg943
L1L
sg944
S'bugs'
p1008
sg946
Nsg947
Nsg948
S'resolution'
p1009
sa(dp1010
g934
S''
sg935
L1L
sg936
Nsg937
S'BTREE'
p1011
sg939
S'target_milestone'
p1012
sg941
S'A'
sg942
S''
sg943
L1L
sg944
S'bugs'
p1013
sg946
Nsg947
Nsg948
S'target_milestone'
p1014
sa(dp1015
g934
S''
sg935
L1L
sg936
Nsg937
S'BTREE'
p1016
sg939
S'qa_contact'
p1017
sg941
S'A'
sg942
S''
sg943
L1L
sg944
S'bugs'
p1018
sg946
Nsg947
Nsg948
S'qa_contact'
p1019
sa(dp1020
g934
S''
sg935
L1L
sg936
Nsg937
S'BTREE'
p1021
sg939
S'votes'
p1022
sg941
S'A'
sg942
S''
sg943
L1L
sg944
S'bugs'
p1023
sg946
Nsg947
Nsg948
S'votes'
p1024
satp1025
sS'profiles'
p1026
((lp1027
(dp1028
S'Extra'
p1029
S'auto_increment'
p1030
sS'Default'
p1031
NsS'Field'
p1032
S'userid'
p1033
sS'Key'
p1034
S'PRI'
p1035
sS'Null'
p1036
S''
sS'Type'
p1037
S'mediumint(9)'
p1038
sa(dp1039
g1029
S''
sg1031
S''
sg1032
S'login_name'
p1040
sg1034
S'UNI'
p1041
sg1036
S''
sg1037
S'varchar(255)'
p1042
sa(dp1043
g1029
S''
sg1031
Nsg1032
S'password'
p1044
sg1034
S''
sg1036
S'YES'
p1045
sg1037
S'varchar(16)'
p1046
sa(dp1047
g1029
S''
sg1031
Nsg1032
S'cryptpassword'
p1048
sg1034
S''
sg1036
S'YES'
p1049
sg1037
S'varchar(64)'
p1050
sa(dp1051
g1029
S''
sg1031
Nsg1032
S'realname'
p1052
sg1034
S''
sg1036
S'YES'
p1053
sg1037
S'varchar(255)'
p1054
sa(dp1055
g1029
S''
sg1031
S'0'
sg1032
S'groupset'
p1056
sg1034
S''
sg1036
S''
sg1037
S'bigint(20)'
p1057
sa(dp1058
g1029
S''
sg1031
S'ExcludeSelfChanges'
p1059
sg1032
S'emailnotification'
p1060
sg1034
S''
sg1036
S''
sg1037
S"enum('ExcludeSelfChanges','CConly','All')"
p1061
sa(dp1062
g1029
S''
sg1031
Nsg1032
S'disabledtext'
p1063
sg1034
S''
sg1036
S'YES'
p1064
sg1037
S'mediumtext'
p1065
sa(dp1066
g1029
S''
sg1031
S'1'
sg1032
S'newemailtech'
p1067
sg1034
S''
sg1036
S''
sg1037
S'tinyint(4)'
p1068
sa(dp1069
g1029
S''
sg1031
S'1'
sg1032
S'mybugslink'
p1070
sg1034
S''
sg1036
S''
sg1037
S'tinyint(4)'
p1071
sa(dp1072
g1029
S''
sg1031
S'0'
sg1032
S'blessgroupset'
p1073
sg1034
S''
sg1036
S''
sg1037
S'bigint(20)'
p1074
sa(dp1075
g1029
S''
sg1031
Nsg1032
S'emailflags'
p1076
sg1034
S''
sg1036
S'YES'
p1077
sg1037
S'mediumtext'
p1078
sa(lp1079
(dp1080
S'Comment'
p1081
S''
sS'Non_unique'
p1082
L0L
sS'Sub_part'
p1083
NsS'Index_type'
p1084
S'BTREE'
p1085
sS'Key_name'
p1086
S'PRIMARY'
p1087
sS'Collation'
p1088
S'A'
sS'Null'
p1089
S''
sS'Seq_in_index'
p1090
L1L
sS'Table'
p1091
S'profiles'
p1092
sS'Cardinality'
p1093
L0L
sS'Packed'
p1094
NsS'Column_name'
p1095
S'userid'
p1096
sa(dp1097
g1081
S''
sg1082
L0L
sg1083
Nsg1084
S'BTREE'
p1098
sg1086
S'login_name'
p1099
sg1088
S'A'
sg1089
S''
sg1090
L1L
sg1091
S'profiles'
p1100
sg1093
L0L
sg1094
Nsg1095
S'login_name'
p1101
satp1102
sS'products'
p1103
((lp1104
(dp1105
S'Extra'
p1106
S''
sS'Default'
p1107
NsS'Field'
p1108
S'product'
p1109
sS'Key'
p1110
S''
sS'Null'
p1111
S'YES'
p1112
sS'Type'
p1113
S'varchar(64)'
p1114
sa(dp1115
g1106
S''
sg1107
Nsg1108
S'description'
p1116
sg1110
S''
sg1111
S'YES'
p1117
sg1113
S'mediumtext'
p1118
sa(dp1119
g1106
S''
sg1107
S''
sg1108
S'milestoneurl'
p1120
sg1110
S''
sg1111
S''
sg1113
S'tinytext'
p1121
sa(dp1122
g1106
S''
sg1107
S'0'
sg1108
S'disallownew'
p1123
sg1110
S''
sg1111
S''
sg1113
S'tinyint(4)'
p1124
sa(dp1125
g1106
S''
sg1107
S'0'
sg1108
S'votesperuser'
p1126
sg1110
S''
sg1111
S''
sg1113
S'smallint(6)'
p1127
sa(dp1128
g1106
S''
sg1107
S'10000'
p1129
sg1108
S'maxvotesperbug'
p1130
sg1110
S''
sg1111
S''
sg1113
S'smallint(6)'
p1131
sa(dp1132
g1106
S''
sg1107
S'0'
sg1108
S'votestoconfirm'
p1133
sg1110
S''
sg1111
S''
sg1113
S'smallint(6)'
p1134
sa(dp1135
g1106
S''
sg1107
S'---'
p1136
sg1108
S'defaultmilestone'
p1137
sg1110
S''
sg1111
S''
sg1113
S'varchar(20)'
p1138
sa(ltp1139
sS'bugs_activity'
p1140
((lp1141
(dp1142
S'Extra'
p1143
S''
sS'Default'
p1144
S'0'
sS'Field'
p1145
S'bug_id'
p1146
sS'Key'
p1147
S'MUL'
p1148
sS'Null'
p1149
S''
sS'Type'
p1150
S'mediumint(9)'
p1151
sa(dp1152
g1143
S''
sg1144
S'0'
sg1145
S'who'
p1153
sg1147
S''
sg1149
S''
sg1150
S'mediumint(9)'
p1154
sa(dp1155
g1143
S''
sg1144
S'0000-00-00 00:00:00'
p1156
sg1145
S'bug_when'
p1157
sg1147
S'MUL'
p1158
sg1149
S''
sg1150
S'datetime'
p1159
sa(dp1160
g1143
S''
sg1144
S'0'
sg1145
S'fieldid'
p1161
sg1147
S'MUL'
p1162
sg1149
S''
sg1150
S'mediumint(9)'
p1163
sa(dp1164
g1143
S''
sg1144
Nsg1145
S'oldvalue'
p1165
sg1147
S''
sg1149
S'YES'
p1166
sg1150
S'tinytext'
p1167
sa(dp1168
g1143
S''
sg1144
Nsg1145
S'newvalue'
p1169
sg1147
S''
sg1149
S'YES'
p1170
sg1150
S'tinytext'
p1171
sa(lp1172
(dp1173
S'Comment'
p1174
S''
sS'Non_unique'
p1175
L1L
sS'Sub_part'
p1176
NsS'Index_type'
p1177
S'BTREE'
p1178
sS'Key_name'
p1179
S'bug_id'
p1180
sS'Collation'
p1181
S'A'
sS'Null'
p1182
S''
sS'Seq_in_index'
p1183
L1L
sS'Table'
p1184
S'bugs_activity'
p1185
sS'Cardinality'
p1186
NsS'Packed'
p1187
NsS'Column_name'
p1188
S'bug_id'
p1189
sa(dp1190
g1174
S''
sg1175
L1L
sg1176
Nsg1177
S'BTREE'
p1191
sg1179
S'bug_when'
p1192
sg1181
S'A'
sg1182
S''
sg1183
L1L
sg1184
S'bugs_activity'
p1193
sg1186
Nsg1187
Nsg1188
S'bug_when'
p1194
sa(dp1195
g1174
S''
sg1175
L1L
sg1176
Nsg1177
S'BTREE'
p1196
sg1179
S'fieldid'
p1197
sg1181
S'A'
sg1182
S''
sg1183
L1L
sg1184
S'bugs_activity'
p1198
sg1186
Nsg1187
Nsg1188
S'fieldid'
p1199
satp1200
st.