(S'2.14.2'
p1
(dp2
S'attachments'
p3
((lp4
(dp5
S'Extra'
p6
S'auto_increment'
p7
sS'Default'
p8
NsS'Field'
p9
S'attach_id'
p10
sS'Key'
p11
S'PRI'
p12
sS'Null'
p13
S''
sS'Type'
p14
S'mediumint(9)'
p15
sa(dp16
g6
S''
sg8
S'0'
sg9
S'bug_id'
p17
sg11
S'MUL'
p18
sg13
S''
sg14
S'mediumint(9)'
p19
sa(dp20
g6
S''
sg8
Nsg9
S'creation_ts'
p21
sg11
S'MUL'
p22
sg13
S'YES'
p23
sg14
S'timestamp(14)'
p24
sa(dp25
g6
S''
sg8
S''
sg9
S'description'
p26
sg11
S''
sg13
S''
sg14
S'mediumtext'
p27
sa(dp28
g6
S''
sg8
S''
sg9
S'mimetype'
p29
sg11
S''
sg13
S''
sg14
S'mediumtext'
p30
sa(dp31
g6
S''
sg8
Nsg9
S'ispatch'
p32
sg11
S''
sg13
S'YES'
p33
sg14
S'tinyint(4)'
p34
sa(dp35
g6
S''
sg8
S''
sg9
S'filename'
p36
sg11
S''
sg13
S''
sg14
S'mediumtext'
p37
sa(dp38
g6
S''
sg8
S''
sg9
S'thedata'
p39
sg11
S''
sg13
S''
sg14
S'longblob'
p40
sa(dp41
g6
S''
sg8
S'0'
sg9
S'submitter_id'
p42
sg11
S''
sg13
S''
sg14
S'mediumint(9)'
p43
sa(lp44
(dp45
S'Comment'
p46
S''
sS'Non_unique'
p47
L0L
sS'Sub_part'
p48
NsS'Index_type'
p49
S'BTREE'
p50
sS'Key_name'
p51
S'PRIMARY'
p52
sS'Collation'
p53
S'A'
sS'Null'
p54
S''
sS'Seq_in_index'
p55
L1L
sS'Table'
p56
S'attachments'
p57
sS'Cardinality'
p58
L0L
sS'Packed'
p59
NsS'Column_name'
p60
S'attach_id'
p61
sa(dp62
g46
S''
sg47
L1L
sg48
Nsg49
S'BTREE'
p63
sg51
S'bug_id'
p64
sg53
S'A'
sg54
S''
sg55
L1L
sg56
S'attachments'
p65
sg58
Nsg59
Nsg60
S'bug_id'
p66
sa(dp67
g46
S''
sg47
L1L
sg48
Nsg49
S'BTREE'
p68
sg51
S'creation_ts'
p69
sg53
S'A'
sg54
S''
sg55
L1L
sg56
S'attachments'
p70
sg58
Nsg59
Nsg60
S'creation_ts'
p71
satp72
sS'cc'
p73
((lp74
(dp75
S'Extra'
p76
S''
sS'Default'
p77
S'0'
sS'Field'
p78
S'bug_id'
p79
sS'Key'
p80
S'PRI'
p81
sS'Null'
p82
S''
sS'Type'
p83
S'mediumint(9)'
p84
sa(dp85
g76
S''
sg77
S'0'
sg78
S'who'
p86
sg80
S'PRI'
p87
sg82
S''
sg83
S'mediumint(9)'
p88
sa(lp89
(dp90
S'Comment'
p91
S''
sS'Non_unique'
p92
L0L
sS'Sub_part'
p93
NsS'Index_type'
p94
S'BTREE'
p95
sS'Key_name'
p96
S'bug_id'
p97
sS'Collation'
p98
S'A'
sS'Null'
p99
S''
sS'Seq_in_index'
p100
L1L
sS'Table'
p101
S'cc'
p102
sS'Cardinality'
p103
NsS'Packed'
p104
NsS'Column_name'
p105
S'bug_id'
p106
sa(dp107
g91
S''
sg92
L0L
sg93
Nsg94
S'BTREE'
p108
sg96
S'bug_id'
p109
sg98
S'A'
sg99
S''
sg100
L2L
sg101
S'cc'
p110
sg103
L0L
sg104
Nsg105
S'who'
p111
sa(dp112
g91
S''
sg92
L1L
sg93
Nsg94
S'BTREE'
p113
sg96
S'who'
p114
sg98
S'A'
sg99
S''
sg100
L1L
sg101
S'cc'
p115
sg103
Nsg104
Nsg105
S'who'
p116
satp117
sS'keywords'
p118
((lp119
(dp120
S'Extra'
p121
S''
sS'Default'
p122
S'0'
sS'Field'
p123
S'bug_id'
p124
sS'Key'
p125
S'PRI'
p126
sS'Null'
p127
S''
sS'Type'
p128
S'mediumint(9)'
p129
sa(dp130
g121
S''
sg122
S'0'
sg123
S'keywordid'
p131
sg125
S'PRI'
p132
sg127
S''
sg128
S'smallint(6)'
p133
sa(lp134
(dp135
S'Comment'
p136
S''
sS'Non_unique'
p137
L0L
sS'Sub_part'
p138
NsS'Index_type'
p139
S'BTREE'
p140
sS'Key_name'
p141
S'bug_id'
p142
sS'Collation'
p143
S'A'
sS'Null'
p144
S''
sS'Seq_in_index'
p145
L1L
sS'Table'
p146
S'keywords'
p147
sS'Cardinality'
p148
NsS'Packed'
p149
NsS'Column_name'
p150
S'bug_id'
p151
sa(dp152
g136
S''
sg137
L0L
sg138
Nsg139
S'BTREE'
p153
sg141
S'bug_id'
p154
sg143
S'A'
sg144
S''
sg145
L2L
sg146
S'keywords'
p155
sg148
L0L
sg149
Nsg150
S'keywordid'
p156
sa(dp157
g136
S''
sg137
L1L
sg138
Nsg139
S'BTREE'
p158
sg141
S'keywordid'
p159
sg143
S'A'
sg144
S''
sg145
L1L
sg146
S'keywords'
p160
sg148
Nsg149
Nsg150
S'keywordid'
p161
satp162
sS'keyworddefs'
p163
((lp164
(dp165
S'Extra'
p166
S''
sS'Default'
p167
S'0'
sS'Field'
p168
S'id'
p169
sS'Key'
p170
S'PRI'
p171
sS'Null'
p172
S''
sS'Type'
p173
S'smallint(6)'
p174
sa(dp175
g166
S''
sg167
S''
sg168
S'name'
p176
sg170
S'UNI'
p177
sg172
S''
sg173
S'varchar(64)'
p178
sa(dp179
g166
S''
sg167
Nsg168
S'description'
p180
sg170
S''
sg172
S'YES'
p181
sg173
S'mediumtext'
p182
sa(lp183
(dp184
S'Comment'
p185
S''
sS'Non_unique'
p186
L0L
sS'Sub_part'
p187
NsS'Index_type'
p188
S'BTREE'
p189
sS'Key_name'
p190
S'PRIMARY'
p191
sS'Collation'
p192
S'A'
sS'Null'
p193
S''
sS'Seq_in_index'
p194
L1L
sS'Table'
p195
S'keyworddefs'
p196
sS'Cardinality'
p197
L0L
sS'Packed'
p198
NsS'Column_name'
p199
S'id'
p200
sa(dp201
g185
S''
sg186
L0L
sg187
Nsg188
S'BTREE'
p202
sg190
S'name'
p203
sg192
S'A'
sg193
S''
sg194
L1L
sg195
S'keyworddefs'
p204
sg197
L0L
sg198
Nsg199
S'name'
p205
satp206
sS'votes'
p207
((lp208
(dp209
S'Extra'
p210
S''
sS'Default'
p211
S'0'
sS'Field'
p212
S'who'
p213
sS'Key'
p214
S'MUL'
p215
sS'Null'
p216
S''
sS'Type'
p217
S'mediumint(9)'
p218
sa(dp219
g210
S''
sg211
S'0'
sg212
S'bug_id'
p220
sg214
S'MUL'
p221
sg216
S''
sg217
S'mediumint(9)'
p222
sa(dp223
g210
S''
sg211
S'0'
sg212
S'count'
p224
sg214
S''
sg216
S''
sg217
S'smallint(6)'
p225
sa(lp226
(dp227
S'Comment'
p228
S''
sS'Non_unique'
p229
L1L
sS'Sub_part'
p230
NsS'Index_type'
p231
S'BTREE'
p232
sS'Key_name'
p233
S'who'
p234
sS'Collation'
p235
S'A'
sS'Null'
p236
S''
sS'Seq_in_index'
p237
L1L
sS'Table'
p238
S'votes'
p239
sS'Cardinality'
p240
NsS'Packed'
p241
NsS'Column_name'
p242
S'who'
p243
sa(dp244
g228
S''
sg229
L1L
sg230
Nsg231
S'BTREE'
p245
sg233
S'bug_id'
p246
sg235
S'A'
sg236
S''
sg237
L1L
sg238
S'votes'
p247
sg240
Nsg241
Nsg242
S'bug_id'
p248
satp249
sS'duplicates'
p250
((lp251
(dp252
S'Extra'
p253
S''
sS'Default'
p254
S'0'
sS'Field'
p255
S'dupe_of'
p256
sS'Key'
p257
S''
sS'Null'
p258
S''
sS'Type'
p259
S'mediumint(9)'
p260
sa(dp261
g253
S''
sg254
S'0'
sg255
S'dupe'
p262
sg257
S'PRI'
p263
sg258
S''
sg259
S'mediumint(9)'
p264
sa(lp265
(dp266
S'Comment'
p267
S''
sS'Non_unique'
p268
L0L
sS'Sub_part'
p269
NsS'Index_type'
p270
S'BTREE'
p271
sS'Key_name'
p272
S'PRIMARY'
p273
sS'Collation'
p274
S'A'
sS'Null'
p275
S''
sS'Seq_in_index'
p276
L1L
sS'Table'
p277
S'duplicates'
p278
sS'Cardinality'
p279
L0L
sS'Packed'
p280
NsS'Column_name'
p281
S'dupe'
p282
satp283
sS'logincookies'
p284
((lp285
(dp286
S'Extra'
p287
S'auto_increment'
p288
sS'Default'
p289
NsS'Field'
p290
S'cookie'
p291
sS'Key'
p292
S'PRI'
p293
sS'Null'
p294
S''
sS'Type'
p295
S'mediumint(9)'
p296
sa(dp297
g287
S''
sg289
S'0'
sg290
S'userid'
p298
sg292
S''
sg294
S''
sg295
S'mediumint(9)'
p299
sa(dp300
g287
S''
sg289
Nsg290
S'cryptpassword'
p301
sg292
S''
sg294
S'YES'
p302
sg295
S'varchar(34)'
p303
sa(dp304
g287
S''
sg289
S''
sg290
S'ipaddr'
p305
sg292
S''
sg294
S''
sg295
S'varchar(40)'
p306
sa(dp307
g287
S''
sg289
Nsg290
S'lastused'
p308
sg292
S'MUL'
p309
sg294
S'YES'
p310
sg295
S'timestamp(14)'
p311
sa(lp312
(dp313
S'Comment'
p314
S''
sS'Non_unique'
p315
L0L
sS'Sub_part'
p316
NsS'Index_type'
p317
S'BTREE'
p318
sS'Key_name'
p319
S'PRIMARY'
p320
sS'Collation'
p321
S'A'
sS'Null'
p322
S''
sS'Seq_in_index'
p323
L1L
sS'Table'
p324
S'logincookies'
p325
sS'Cardinality'
p326
L0L
sS'Packed'
p327
NsS'Column_name'
p328
S'cookie'
p329
sa(dp330
g314
S''
sg315
L1L
sg316
Nsg317
S'BTREE'
p331
sg319
S'lastused'
p332
sg321
S'A'
sg322
S''
sg323
L1L
sg324
S'logincookies'
p333
sg326
Nsg327
Nsg328
S'lastused'
p334
satp335
sS'fielddefs'
p336
((lp337
(dp338
S'Extra'
p339
S'auto_increment'
p340
sS'Default'
p341
NsS'Field'
p342
S'fieldid'
p343
sS'Key'
p344
S'PRI'
p345
sS'Null'
p346
S''
sS'Type'
p347
S'mediumint(9)'
p348
sa(dp349
g339
S''
sg341
S''
sg342
S'name'
p350
sg344
S'UNI'
p351
sg346
S''
sg347
S'varchar(64)'
p352
sa(dp353
g339
S''
sg341
S''
sg342
S'description'
p354
sg344
S''
sg346
S''
sg347
S'mediumtext'
p355
sa(dp356
g339
S''
sg341
S'0'
sg342
S'mailhead'
p357
sg344
S''
sg346
S''
sg347
S'tinyint(4)'
p358
sa(dp359
g339
S''
sg341
S'0'
sg342
S'sortkey'
p360
sg344
S'MUL'
p361
sg346
S''
sg347
S'smallint(6)'
p362
sa(lp363
(dp364
S'Comment'
p365
S''
sS'Non_unique'
p366
L0L
sS'Sub_part'
p367
NsS'Index_type'
p368
S'BTREE'
p369
sS'Key_name'
p370
S'PRIMARY'
p371
sS'Collation'
p372
S'A'
sS'Null'
p373
S''
sS'Seq_in_index'
p374
L1L
sS'Table'
p375
S'fielddefs'
p376
sS'Cardinality'
p377
L29L
sS'Packed'
p378
NsS'Column_name'
p379
S'fieldid'
p380
sa(dp381
g365
S''
sg366
L0L
sg367
Nsg368
S'BTREE'
p382
sg370
S'name'
p383
sg372
S'A'
sg373
S''
sg374
L1L
sg375
S'fielddefs'
p384
sg377
L29L
sg378
Nsg379
S'name'
p385
sa(dp386
g365
S''
sg366
L1L
sg367
Nsg368
S'BTREE'
p387
sg370
S'sortkey'
p388
sg372
S'A'
sg373
S''
sg374
L1L
sg375
S'fielddefs'
p389
sg377
Nsg378
Nsg379
S'sortkey'
p390
satp391
sS'shadowlog'
p392
((lp393
(dp394
S'Extra'
p395
S'auto_increment'
p396
sS'Default'
p397
NsS'Field'
p398
S'id'
p399
sS'Key'
p400
S'PRI'
p401
sS'Null'
p402
S''
sS'Type'
p403
S'int(11)'
p404
sa(dp405
g395
S''
sg397
Nsg398
S'ts'
p406
sg400
S''
sg402
S'YES'
p407
sg403
S'timestamp(14)'
p408
sa(dp409
g395
S''
sg397
S'0'
sg398
S'reflected'
p410
sg400
S'MUL'
p411
sg402
S''
sg403
S'tinyint(4)'
p412
sa(dp413
g395
S''
sg397
S''
sg398
S'command'
p414
sg400
S''
sg402
S''
sg403
S'mediumtext'
p415
sa(lp416
(dp417
S'Comment'
p418
S''
sS'Non_unique'
p419
L0L
sS'Sub_part'
p420
NsS'Index_type'
p421
S'BTREE'
p422
sS'Key_name'
p423
S'PRIMARY'
p424
sS'Collation'
p425
S'A'
sS'Null'
p426
S''
sS'Seq_in_index'
p427
L1L
sS'Table'
p428
S'shadowlog'
p429
sS'Cardinality'
p430
L0L
sS'Packed'
p431
NsS'Column_name'
p432
S'id'
p433
sa(dp434
g418
S''
sg419
L1L
sg420
Nsg421
S'BTREE'
p435
sg423
S'reflected'
p436
sg425
S'A'
sg426
S''
sg427
L1L
sg428
S'shadowlog'
p437
sg430
Nsg431
Nsg432
S'reflected'
p438
satp439
sS'profiles_activity'
p440
((lp441
(dp442
S'Extra'
p443
S''
sS'Default'
p444
S'0'
sS'Field'
p445
S'userid'
p446
sS'Key'
p447
S'MUL'
p448
sS'Null'
p449
S''
sS'Type'
p450
S'mediumint(9)'
p451
sa(dp452
g443
S''
sg444
S'0'
sg445
S'who'
p453
sg447
S''
sg449
S''
sg450
S'mediumint(9)'
p454
sa(dp455
g443
S''
sg444
S'0000-00-00 00:00:00'
p456
sg445
S'profiles_when'
p457
sg447
S'MUL'
p458
sg449
S''
sg450
S'datetime'
p459
sa(dp460
g443
S''
sg444
S'0'
sg445
S'fieldid'
p461
sg447
S'MUL'
p462
sg449
S''
sg450
S'mediumint(9)'
p463
sa(dp464
g443
S''
sg444
Nsg445
S'oldvalue'
p465
sg447
S''
sg449
S'YES'
p466
sg450
S'tinytext'
p467
sa(dp468
g443
S''
sg444
Nsg445
S'newvalue'
p469
sg447
S''
sg449
S'YES'
p470
sg450
S'tinytext'
p471
sa(lp472
(dp473
S'Comment'
p474
S''
sS'Non_unique'
p475
L1L
sS'Sub_part'
p476
NsS'Index_type'
p477
S'BTREE'
p478
sS'Key_name'
p479
S'userid'
p480
sS'Collation'
p481
S'A'
sS'Null'
p482
S''
sS'Seq_in_index'
p483
L1L
sS'Table'
p484
S'profiles_activity'
p485
sS'Cardinality'
p486
NsS'Packed'
p487
NsS'Column_name'
p488
S'userid'
p489
sa(dp490
g474
S''
sg475
L1L
sg476
Nsg477
S'BTREE'
p491
sg479
S'profiles_when'
p492
sg481
S'A'
sg482
S''
sg483
L1L
sg484
S'profiles_activity'
p493
sg486
Nsg487
Nsg488
S'profiles_when'
p494
sa(dp495
g474
S''
sg475
L1L
sg476
Nsg477
S'BTREE'
p496
sg479
S'fieldid'
p497
sg481
S'A'
sg482
S''
sg483
L1L
sg484
S'profiles_activity'
p498
sg486
Nsg487
Nsg488
S'fieldid'
p499
satp500
sS'components'
p501
((lp502
(dp503
S'Extra'
p504
S''
sS'Default'
p505
NsS'Field'
p506
S'value'
p507
sS'Key'
p508
S''
sS'Null'
p509
S'YES'
p510
sS'Type'
p511
S'tinytext'
p512
sa(dp513
g504
S''
sg505
Nsg506
S'program'
p514
sg508
S''
sg509
S'YES'
p515
sg511
S'varchar(64)'
p516
sa(dp517
g504
S''
sg505
S'0'
sg506
S'initialowner'
p518
sg508
S''
sg509
S''
sg511
S'mediumint(9)'
p519
sa(dp520
g504
S''
sg505
S'0'
sg506
S'initialqacontact'
p521
sg508
S''
sg509
S''
sg511
S'mediumint(9)'
p522
sa(dp523
g504
S''
sg505
S''
sg506
S'description'
p524
sg508
S''
sg509
S''
sg511
S'mediumtext'
p525
sa(ltp526
sS'watch'
p527
((lp528
(dp529
S'Extra'
p530
S''
sS'Default'
p531
S'0'
sS'Field'
p532
S'watcher'
p533
sS'Key'
p534
S'PRI'
p535
sS'Null'
p536
S''
sS'Type'
p537
S'mediumint(9)'
p538
sa(dp539
g530
S''
sg531
S'0'
sg532
S'watched'
p540
sg534
S'PRI'
p541
sg536
S''
sg537
S'mediumint(9)'
p542
sa(lp543
(dp544
S'Comment'
p545
S''
sS'Non_unique'
p546
L0L
sS'Sub_part'
p547
NsS'Index_type'
p548
S'BTREE'
p549
sS'Key_name'
p550
S'watcher'
p551
sS'Collation'
p552
S'A'
sS'Null'
p553
S''
sS'Seq_in_index'
p554
L1L
sS'Table'
p555
S'watch'
p556
sS'Cardinality'
p557
NsS'Packed'
p558
NsS'Column_name'
p559
S'watcher'
p560
sa(dp561
g545
S''
sg546
L0L
sg547
Nsg548
S'BTREE'
p562
sg550
S'watcher'
p563
sg552
S'A'
sg553
S''
sg554
L2L
sg555
S'watch'
p564
sg557
L0L
sg558
Nsg559
S'watched'
p565
sa(dp566
g545
S''
sg546
L1L
sg547
Nsg548
S'BTREE'
p567
sg550
S'watched'
p568
sg552
S'A'
sg553
S''
sg554
L1L
sg555
S'watch'
p569
sg557
Nsg558
Nsg559
S'watched'
p570
satp571
sS'namedqueries'
p572
((lp573
(dp574
S'Extra'
p575
S''
sS'Default'
p576
S'0'
sS'Field'
p577
S'userid'
p578
sS'Key'
p579
S'PRI'
p580
sS'Null'
p581
S''
sS'Type'
p582
S'mediumint(9)'
p583
sa(dp584
g575
S''
sg576
S''
sg577
S'name'
p585
sg579
S'PRI'
p586
sg581
S''
sg582
S'varchar(64)'
p587
sa(dp588
g575
S''
sg576
S'0'
sg577
S'watchfordiffs'
p589
sg579
S'MUL'
p590
sg581
S''
sg582
S'tinyint(4)'
p591
sa(dp592
g575
S''
sg576
S'0'
sg577
S'linkinfooter'
p593
sg579
S''
sg581
S''
sg582
S'tinyint(4)'
p594
sa(dp595
g575
S''
sg576
S''
sg577
S'query'
p596
sg579
S''
sg581
S''
sg582
S'mediumtext'
p597
sa(lp598
(dp599
S'Comment'
p600
S''
sS'Non_unique'
p601
L0L
sS'Sub_part'
p602
NsS'Index_type'
p603
S'BTREE'
p604
sS'Key_name'
p605
S'userid'
p606
sS'Collation'
p607
S'A'
sS'Null'
p608
S''
sS'Seq_in_index'
p609
L1L
sS'Table'
p610
S'namedqueries'
p611
sS'Cardinality'
p612
NsS'Packed'
p613
NsS'Column_name'
p614
S'userid'
p615
sa(dp616
g600
S''
sg601
L0L
sg602
Nsg603
S'BTREE'
p617
sg605
S'userid'
p618
sg607
S'A'
sg608
S''
sg609
L2L
sg610
S'namedqueries'
p619
sg612
L0L
sg613
Nsg614
S'name'
p620
sa(dp621
g600
S''
sg601
L1L
sg602
Nsg603
S'BTREE'
p622
sg605
S'watchfordiffs'
p623
sg607
S'A'
sg608
S''
sg609
L1L
sg610
S'namedqueries'
p624
sg612
Nsg613
Nsg614
S'watchfordiffs'
p625
satp626
sS'tokens'
p627
((lp628
(dp629
S'Extra'
p630
S''
sS'Default'
p631
S'0'
sS'Field'
p632
S'userid'
p633
sS'Key'
p634
S'MUL'
p635
sS'Null'
p636
S''
sS'Type'
p637
S'mediumint(9)'
p638
sa(dp639
g630
S''
sg631
S'0000-00-00 00:00:00'
p640
sg632
S'issuedate'
p641
sg634
S''
sg636
S''
sg637
S'datetime'
p642
sa(dp643
g630
S''
sg631
S''
sg632
S'token'
p644
sg634
S'PRI'
p645
sg636
S''
sg637
S'varchar(16)'
p646
sa(dp647
g630
S''
sg631
S''
sg632
S'tokentype'
p648
sg634
S''
sg636
S''
sg637
S'varchar(8)'
p649
sa(dp650
g630
S''
sg631
Nsg632
S'eventdata'
p651
sg634
S''
sg636
S'YES'
p652
sg637
S'tinytext'
p653
sa(lp654
(dp655
S'Comment'
p656
S''
sS'Non_unique'
p657
L0L
sS'Sub_part'
p658
NsS'Index_type'
p659
S'BTREE'
p660
sS'Key_name'
p661
S'PRIMARY'
p662
sS'Collation'
p663
S'A'
sS'Null'
p664
S''
sS'Seq_in_index'
p665
L1L
sS'Table'
p666
S'tokens'
p667
sS'Cardinality'
p668
L0L
sS'Packed'
p669
NsS'Column_name'
p670
S'token'
p671
sa(dp672
g656
S''
sg657
L1L
sg658
Nsg659
S'BTREE'
p673
sg661
S'userid'
p674
sg663
S'A'
sg664
S''
sg665
L1L
sg666
S'tokens'
p675
sg668
Nsg669
Nsg670
S'userid'
p676
satp677
sS'dependencies'
p678
((lp679
(dp680
S'Extra'
p681
S''
sS'Default'
p682
S'0'
sS'Field'
p683
S'blocked'
p684
sS'Key'
p685
S'MUL'
p686
sS'Null'
p687
S''
sS'Type'
p688
S'mediumint(9)'
p689
sa(dp690
g681
S''
sg682
S'0'
sg683
S'dependson'
p691
sg685
S'MUL'
p692
sg687
S''
sg688
S'mediumint(9)'
p693
sa(lp694
(dp695
S'Comment'
p696
S''
sS'Non_unique'
p697
L1L
sS'Sub_part'
p698
NsS'Index_type'
p699
S'BTREE'
p700
sS'Key_name'
p701
S'blocked'
p702
sS'Collation'
p703
S'A'
sS'Null'
p704
S''
sS'Seq_in_index'
p705
L1L
sS'Table'
p706
S'dependencies'
p707
sS'Cardinality'
p708
NsS'Packed'
p709
NsS'Column_name'
p710
S'blocked'
p711
sa(dp712
g696
S''
sg697
L1L
sg698
Nsg699
S'BTREE'
p713
sg701
S'dependson'
p714
sg703
S'A'
sg704
S''
sg705
L1L
sg706
S'dependencies'
p715
sg708
Nsg709
Nsg710
S'dependson'
p716
satp717
sS'groups'
p718
((lp719
(dp720
S'Extra'
p721
S''
sS'Default'
p722
S'0'
sS'Field'
p723
S'bit'
p724
sS'Key'
p725
S'PRI'
p726
sS'Null'
p727
S''
sS'Type'
p728
S'bigint(20)'
p729
sa(dp730
g721
S''
sg722
S''
sg723
S'name'
p731
sg725
S'UNI'
p732
sg727
S''
sg728
S'varchar(255)'
p733
sa(dp734
g721
S''
sg722
S''
sg723
S'description'
p735
sg725
S''
sg727
S''
sg728
S'text'
p736
sa(dp737
g721
S''
sg722
S'0'
sg723
S'isbuggroup'
p738
sg725
S''
sg727
S''
sg728
S'tinyint(4)'
p739
sa(dp740
g721
S''
sg722
S''
sg723
S'userregexp'
p741
sg725
S''
sg727
S''
sg728
S'tinytext'
p742
sa(dp743
g721
S''
sg722
S'1'
sg723
S'isactive'
p744
sg725
S''
sg727
S''
sg728
S'tinyint(4)'
p745
sa(lp746
(dp747
S'Comment'
p748
S''
sS'Non_unique'
p749
L0L
sS'Sub_part'
p750
NsS'Index_type'
p751
S'BTREE'
p752
sS'Key_name'
p753
S'bit'
p754
sS'Collation'
p755
S'A'
sS'Null'
p756
S''
sS'Seq_in_index'
p757
L1L
sS'Table'
p758
S'groups'
p759
sS'Cardinality'
p760
L7L
sS'Packed'
p761
NsS'Column_name'
p762
S'bit'
p763
sa(dp764
g748
S''
sg749
L0L
sg750
Nsg751
S'BTREE'
p765
sg753
S'name'
p766
sg755
S'A'
sg756
S''
sg757
L1L
sg758
S'groups'
p767
sg760
L7L
sg761
Nsg762
S'name'
p768
satp769
sS'milestones'
p770
((lp771
(dp772
S'Extra'
p773
S''
sS'Default'
p774
S''
sS'Field'
p775
S'value'
p776
sS'Key'
p777
S'PRI'
p778
sS'Null'
p779
S''
sS'Type'
p780
S'varchar(20)'
p781
sa(dp782
g773
S''
sg774
S''
sg775
S'product'
p783
sg777
S'PRI'
p784
sg779
S''
sg780
S'varchar(64)'
p785
sa(dp786
g773
S''
sg774
S'0'
sg775
S'sortkey'
p787
sg777
S''
sg779
S''
sg780
S'smallint(6)'
p788
sa(lp789
(dp790
S'Comment'
p791
S''
sS'Non_unique'
p792
L0L
sS'Sub_part'
p793
NsS'Index_type'
p794
S'BTREE'
p795
sS'Key_name'
p796
S'product'
p797
sS'Collation'
p798
S'A'
sS'Null'
p799
S''
sS'Seq_in_index'
p800
L1L
sS'Table'
p801
S'milestones'
p802
sS'Cardinality'
p803
NsS'Packed'
p804
NsS'Column_name'
p805
S'product'
p806
sa(dp807
g791
S''
sg792
L0L
sg793
Nsg794
S'BTREE'
p808
sg796
S'product'
p809
sg798
S'A'
sg799
S''
sg800
L2L
sg801
S'milestones'
p810
sg803
L0L
sg804
Nsg805
S'value'
p811
satp812
sS'longdescs'
p813
((lp814
(dp815
S'Extra'
p816
S''
sS'Default'
p817
S'0'
sS'Field'
p818
S'bug_id'
p819
sS'Key'
p820
S'MUL'
p821
sS'Null'
p822
S''
sS'Type'
p823
S'mediumint(9)'
p824
sa(dp825
g816
S''
sg817
S'0'
sg818
S'who'
p826
sg820
S'MUL'
p827
sg822
S''
sg823
S'mediumint(9)'
p828
sa(dp829
g816
S''
sg817
S'0000-00-00 00:00:00'
p830
sg818
S'bug_when'
p831
sg820
S'MUL'
p832
sg822
S''
sg823
S'datetime'
p833
sa(dp834
g816
S''
sg817
Nsg818
S'thetext'
p835
sg820
S''
sg822
S'YES'
p836
sg823
S'mediumtext'
p837
sa(lp838
(dp839
S'Comment'
p840
S''
sS'Non_unique'
p841
L1L
sS'Sub_part'
p842
NsS'Index_type'
p843
S'BTREE'
p844
sS'Key_name'
p845
S'bug_id'
p846
sS'Collation'
p847
S'A'
sS'Null'
p848
S''
sS'Seq_in_index'
p849
L1L
sS'Table'
p850
S'longdescs'
p851
sS'Cardinality'
p852
NsS'Packed'
p853
NsS'Column_name'
p854
S'bug_id'
p855
sa(dp856
g840
S''
sg841
L1L
sg842
Nsg843
S'BTREE'
p857
sg845
S'who'
p858
sg847
S'A'
sg848
S''
sg849
L1L
sg850
S'longdescs'
p859
sg852
Nsg853
Nsg854
S'who'
p860
sa(dp861
g840
S''
sg841
L1L
sg842
Nsg843
S'BTREE'
p862
sg845
S'bug_when'
p863
sg847
S'A'
sg848
S''
sg849
L1L
sg850
S'longdescs'
p864
sg852
Nsg853
Nsg854
S'bug_when'
p865
satp866
sS'versions'
p867
((lp868
(dp869
S'Extra'
p870
S''
sS'Default'
p871
NsS'Field'
p872
S'value'
p873
sS'Key'
p874
S''
sS'Null'
p875
S'YES'
p876
sS'Type'
p877
S'tinytext'
p878
sa(dp879
g870
S''
sg871
S''
sg872
S'program'
p880
sg874
S''
sg875
S''
sg877
S'varchar(64)'
p881
sa(ltp882
sS'bugs'
p883
((lp884
(dp885
S'Extra'
p886
S'auto_increment'
p887
sS'Default'
p888
NsS'Field'
p889
S'bug_id'
p890
sS'Key'
p891
S'PRI'
p892
sS'Null'
p893
S''
sS'Type'
p894
S'mediumint(9)'
p895
sa(dp896
g886
S''
sg888
S'0'
sg889
S'groupset'
p897
sg891
S''
sg893
S''
sg894
S'bigint(20)'
p898
sa(dp899
g886
S''
sg888
S'0'
sg889
S'assigned_to'
p900
sg891
S'MUL'
p901
sg893
S''
sg894
S'mediumint(9)'
p902
sa(dp903
g886
S''
sg888
Nsg889
S'bug_file_loc'
p904
sg891
S''
sg893
S'YES'
p905
sg894
S'text'
p906
sa(dp907
g886
S''
sg888
S'blocker'
p908
sg889
S'bug_severity'
p909
sg891
S'MUL'
p910
sg893
S''
sg894
S"enum('blocker','critical','major','normal','minor','trivial','enhancement')"
p911
sa(dp912
g886
S''
sg888
S'UNCONFIRMED'
p913
sg889
S'bug_status'
p914
sg891
S'MUL'
p915
sg893
S''
sg894
S"enum('UNCONFIRMED','NEW','ASSIGNED','REOPENED','RESOLVED','VERIFIED','CLOSED')"
p916
sa(dp917
g886
S''
sg888
S'0000-00-00 00:00:00'
p918
sg889
S'creation_ts'
p919
sg891
S'MUL'
p920
sg893
S''
sg894
S'datetime'
p921
sa(dp922
g886
S''
sg888
Nsg889
S'delta_ts'
p923
sg891
S'MUL'
p924
sg893
S'YES'
p925
sg894
S'timestamp(14)'
p926
sa(dp927
g886
S''
sg888
Nsg889
S'short_desc'
p928
sg891
S''
sg893
S'YES'
p929
sg894
S'mediumtext'
p930
sa(dp931
g886
S''
sg888
S'All'
p932
sg889
S'op_sys'
p933
sg891
S'MUL'
p934
sg893
S''
sg894
S"enum('All','Windows 3.1','Windows 95','Windows 98','Windows ME','Windows 2000','Windows NT','Mac System 7','Mac System 7.5','Mac System 7.6.1','Mac System 8.0','Mac System 8.5','Mac System 8.6','Mac System 9.0','Linux','BSDI','FreeBSD','NetBSD','OpenBSD','AIX','BeOS','HP-UX','IRIX','Neutrino','OpenVMS','OS/2','OSF/1','Solaris','SunOS','other')"
p935
sa(dp936
g886
S''
sg888
S'P1'
p937
sg889
S'priority'
p938
sg891
S'MUL'
p939
sg893
S''
sg894
S"enum('P1','P2','P3','P4','P5')"
p940
sa(dp941
g886
S''
sg888
S''
sg889
S'product'
p942
sg891
S'MUL'
p943
sg893
S''
sg894
S'varchar(64)'
p944
sa(dp945
g886
S''
sg888
Nsg889
S'rep_platform'
p946
sg891
S''
sg893
S'YES'
p947
sg894
S"enum('All','DEC','HP','Macintosh','PC','SGI','Sun','Other')"
p948
sa(dp949
g886
S''
sg888
S'0'
sg889
S'reporter'
p950
sg891
S'MUL'
p951
sg893
S''
sg894
S'mediumint(9)'
p952
sa(dp953
g886
S''
sg888
S''
sg889
S'version'
p954
sg891
S'MUL'
p955
sg893
S''
sg894
S'varchar(64)'
p956
sa(dp957
g886
S''
sg888
S''
sg889
S'component'
p958
sg891
S'MUL'
p959
sg893
S''
sg894
S'varchar(50)'
p960
sa(dp961
g886
S''
sg888
S''
sg889
S'resolution'
p962
sg891
S'MUL'
p963
sg893
S''
sg894
S"enum('','FIXED','INVALID','WONTFIX','LATER','REMIND','DUPLICATE','WORKSFORME','MOVED')"
p964
sa(dp965
g886
S''
sg888
S'---'
p966
sg889
S'target_milestone'
p967
sg891
S'MUL'
p968
sg893
S''
sg894
S'varchar(20)'
p969
sa(dp970
g886
S''
sg888
S'0'
sg889
S'qa_contact'
p971
sg891
S'MUL'
p972
sg893
S''
sg894
S'mediumint(9)'
p973
sa(dp974
g886
S''
sg888
S''
sg889
S'status_whiteboard'
p975
sg891
S''
sg893
S''
sg894
S'mediumtext'
p976
sa(dp977
g886
S''
sg888
S'0'
sg889
S'votes'
p978
sg891
S'MUL'
p979
sg893
S''
sg894
S'mediumint(9)'
p980
sa(dp981
g886
S''
sg888
S''
sg889
S'keywords'
p982
sg891
S''
sg893
S''
sg894
S'mediumtext'
p983
sa(dp984
g886
S''
sg888
S'0000-00-00 00:00:00'
p985
sg889
S'lastdiffed'
p986
sg891
S''
sg893
S''
sg894
S'datetime'
p987
sa(dp988
g886
S''
sg888
S'0'
sg889
S'everconfirmed'
p989
sg891
S''
sg893
S''
sg894
S'tinyint(4)'
p990
sa(dp991
g886
S''
sg888
S'1'
sg889
S'reporter_accessible'
p992
sg891
S''
sg893
S''
sg894
S'tinyint(4)'
p993
sa(dp994
g886
S''
sg888
S'1'
sg889
S'assignee_accessible'
p995
sg891
S''
sg893
S''
sg894
S'tinyint(4)'
p996
sa(dp997
g886
S''
sg888
S'1'
sg889
S'qacontact_accessible'
p998
sg891
S''
sg893
S''
sg894
S'tinyint(4)'
p999
sa(dp1000
g886
S''
sg888
S'1'
sg889
S'cclist_accessible'
p1001
sg891
S''
sg893
S''
sg894
S'tinyint(4)'
p1002
sa(lp1003
(dp1004
S'Comment'
p1005
S''
sS'Non_unique'
p1006
L0L
sS'Sub_part'
p1007
NsS'Index_type'
p1008
S'BTREE'
p1009
sS'Key_name'
p1010
S'PRIMARY'
p1011
sS'Collation'
p1012
S'A'
sS'Null'
p1013
S''
sS'Seq_in_index'
p1014
L1L
sS'Table'
p1015
S'bugs'
p1016
sS'Cardinality'
p1017
L0L
sS'Packed'
p1018
NsS'Column_name'
p1019
S'bug_id'
p1020
sa(dp1021
g1005
S''
sg1006
L1L
sg1007
Nsg1008
S'BTREE'
p1022
sg1010
S'assigned_to'
p1023
sg1012
S'A'
sg1013
S''
sg1014
L1L
sg1015
S'bugs'
p1024
sg1017
Nsg1018
Nsg1019
S'assigned_to'
p1025
sa(dp1026
g1005
S''
sg1006
L1L
sg1007
Nsg1008
S'BTREE'
p1027
sg1010
S'creation_ts'
p1028
sg1012
S'A'
sg1013
S''
sg1014
L1L
sg1015
S'bugs'
p1029
sg1017
Nsg1018
Nsg1019
S'creation_ts'
p1030
sa(dp1031
g1005
S''
sg1006
L1L
sg1007
Nsg1008
S'BTREE'
p1032
sg1010
S'delta_ts'
p1033
sg1012
S'A'
sg1013
S''
sg1014
L1L
sg1015
S'bugs'
p1034
sg1017
Nsg1018
Nsg1019
S'delta_ts'
p1035
sa(dp1036
g1005
S''
sg1006
L1L
sg1007
Nsg1008
S'BTREE'
p1037
sg1010
S'bug_severity'
p1038
sg1012
S'A'
sg1013
S''
sg1014
L1L
sg1015
S'bugs'
p1039
sg1017
Nsg1018
Nsg1019
S'bug_severity'
p1040
sa(dp1041
g1005
S''
sg1006
L1L
sg1007
Nsg1008
S'BTREE'
p1042
sg1010
S'bug_status'
p1043
sg1012
S'A'
sg1013
S''
sg1014
L1L
sg1015
S'bugs'
p1044
sg1017
Nsg1018
Nsg1019
S'bug_status'
p1045
sa(dp1046
g1005
S''
sg1006
L1L
sg1007
Nsg1008
S'BTREE'
p1047
sg1010
S'op_sys'
p1048
sg1012
S'A'
sg1013
S''
sg1014
L1L
sg1015
S'bugs'
p1049
sg1017
Nsg1018
Nsg1019
S'op_sys'
p1050
sa(dp1051
g1005
S''
sg1006
L1L
sg1007
Nsg1008
S'BTREE'
p1052
sg1010
S'priority'
p1053
sg1012
S'A'
sg1013
S''
sg1014
L1L
sg1015
S'bugs'
p1054
sg1017
Nsg1018
Nsg1019
S'priority'
p1055
sa(dp1056
g1005
S''
sg1006
L1L
sg1007
Nsg1008
S'BTREE'
p1057
sg1010
S'product'
p1058
sg1012
S'A'
sg1013
S''
sg1014
L1L
sg1015
S'bugs'
p1059
sg1017
Nsg1018
Nsg1019
S'product'
p1060
sa(dp1061
g1005
S''
sg1006
L1L
sg1007
Nsg1008
S'BTREE'
p1062
sg1010
S'reporter'
p1063
sg1012
S'A'
sg1013
S''
sg1014
L1L
sg1015
S'bugs'
p1064
sg1017
Nsg1018
Nsg1019
S'reporter'
p1065
sa(dp1066
g1005
S''
sg1006
L1L
sg1007
Nsg1008
S'BTREE'
p1067
sg1010
S'version'
p1068
sg1012
S'A'
sg1013
S''
sg1014
L1L
sg1015
S'bugs'
p1069
sg1017
Nsg1018
Nsg1019
S'version'
p1070
sa(dp1071
g1005
S''
sg1006
L1L
sg1007
Nsg1008
S'BTREE'
p1072
sg1010
S'component'
p1073
sg1012
S'A'
sg1013
S''
sg1014
L1L
sg1015
S'bugs'
p1074
sg1017
Nsg1018
Nsg1019
S'component'
p1075
sa(dp1076
g1005
S''
sg1006
L1L
sg1007
Nsg1008
S'BTREE'
p1077
sg1010
S'resolution'
p1078
sg1012
S'A'
sg1013
S''
sg1014
L1L
sg1015
S'bugs'
p1079
sg1017
Nsg1018
Nsg1019
S'resolution'
p1080
sa(dp1081
g1005
S''
sg1006
L1L
sg1007
Nsg1008
S'BTREE'
p1082
sg1010
S'target_milestone'
p1083
sg1012
S'A'
sg1013
S''
sg1014
L1L
sg1015
S'bugs'
p1084
sg1017
Nsg1018
Nsg1019
S'target_milestone'
p1085
sa(dp1086
g1005
S''
sg1006
L1L
sg1007
Nsg1008
S'BTREE'
p1087
sg1010
S'qa_contact'
p1088
sg1012
S'A'
sg1013
S''
sg1014
L1L
sg1015
S'bugs'
p1089
sg1017
Nsg1018
Nsg1019
S'qa_contact'
p1090
sa(dp1091
g1005
S''
sg1006
L1L
sg1007
Nsg1008
S'BTREE'
p1092
sg1010
S'votes'
p1093
sg1012
S'A'
sg1013
S''
sg1014
L1L
sg1015
S'bugs'
p1094
sg1017
Nsg1018
Nsg1019
S'votes'
p1095
satp1096
sS'profiles'
p1097
((lp1098
(dp1099
S'Extra'
p1100
S'auto_increment'
p1101
sS'Default'
p1102
NsS'Field'
p1103
S'userid'
p1104
sS'Key'
p1105
S'PRI'
p1106
sS'Null'
p1107
S''
sS'Type'
p1108
S'mediumint(9)'
p1109
sa(dp1110
g1100
S''
sg1102
S''
sg1103
S'login_name'
p1111
sg1105
S'UNI'
p1112
sg1107
S''
sg1108
S'varchar(255)'
p1113
sa(dp1114
g1100
S''
sg1102
Nsg1103
S'cryptpassword'
p1115
sg1105
S''
sg1107
S'YES'
p1116
sg1108
S'varchar(34)'
p1117
sa(dp1118
g1100
S''
sg1102
Nsg1103
S'realname'
p1119
sg1105
S''
sg1107
S'YES'
p1120
sg1108
S'varchar(255)'
p1121
sa(dp1122
g1100
S''
sg1102
S'0'
sg1103
S'groupset'
p1123
sg1105
S''
sg1107
S''
sg1108
S'bigint(20)'
p1124
sa(dp1125
g1100
S''
sg1102
S''
sg1103
S'disabledtext'
p1126
sg1105
S''
sg1107
S''
sg1108
S'mediumtext'
p1127
sa(dp1128
g1100
S''
sg1102
S'1'
sg1103
S'mybugslink'
p1129
sg1105
S''
sg1107
S''
sg1108
S'tinyint(4)'
p1130
sa(dp1131
g1100
S''
sg1102
S'0'
sg1103
S'blessgroupset'
p1132
sg1105
S''
sg1107
S''
sg1108
S'bigint(20)'
p1133
sa(dp1134
g1100
S''
sg1102
Nsg1103
S'emailflags'
p1135
sg1105
S''
sg1107
S'YES'
p1136
sg1108
S'mediumtext'
p1137
sa(lp1138
(dp1139
S'Comment'
p1140
S''
sS'Non_unique'
p1141
L0L
sS'Sub_part'
p1142
NsS'Index_type'
p1143
S'BTREE'
p1144
sS'Key_name'
p1145
S'PRIMARY'
p1146
sS'Collation'
p1147
S'A'
sS'Null'
p1148
S''
sS'Seq_in_index'
p1149
L1L
sS'Table'
p1150
S'profiles'
p1151
sS'Cardinality'
p1152
L0L
sS'Packed'
p1153
NsS'Column_name'
p1154
S'userid'
p1155
sa(dp1156
g1140
S''
sg1141
L0L
sg1142
Nsg1143
S'BTREE'
p1157
sg1145
S'login_name'
p1158
sg1147
S'A'
sg1148
S''
sg1149
L1L
sg1150
S'profiles'
p1159
sg1152
L0L
sg1153
Nsg1154
S'login_name'
p1160
satp1161
sS'products'
p1162
((lp1163
(dp1164
S'Extra'
p1165
S''
sS'Default'
p1166
NsS'Field'
p1167
S'product'
p1168
sS'Key'
p1169
S''
sS'Null'
p1170
S'YES'
p1171
sS'Type'
p1172
S'varchar(64)'
p1173
sa(dp1174
g1165
S''
sg1166
Nsg1167
S'description'
p1175
sg1169
S''
sg1170
S'YES'
p1176
sg1172
S'mediumtext'
p1177
sa(dp1178
g1165
S''
sg1166
S''
sg1167
S'milestoneurl'
p1179
sg1169
S''
sg1170
S''
sg1172
S'tinytext'
p1180
sa(dp1181
g1165
S''
sg1166
S'0'
sg1167
S'disallownew'
p1182
sg1169
S''
sg1170
S''
sg1172
S'tinyint(4)'
p1183
sa(dp1184
g1165
S''
sg1166
S'0'
sg1167
S'votesperuser'
p1185
sg1169
S''
sg1170
S''
sg1172
S'smallint(6)'
p1186
sa(dp1187
g1165
S''
sg1166
S'10000'
p1188
sg1167
S'maxvotesperbug'
p1189
sg1169
S''
sg1170
S''
sg1172
S'smallint(6)'
p1190
sa(dp1191
g1165
S''
sg1166
S'0'
sg1167
S'votestoconfirm'
p1192
sg1169
S''
sg1170
S''
sg1172
S'smallint(6)'
p1193
sa(dp1194
g1165
S''
sg1166
S'---'
p1195
sg1167
S'defaultmilestone'
p1196
sg1169
S''
sg1170
S''
sg1172
S'varchar(20)'
p1197
sa(ltp1198
sS'bugs_activity'
p1199
((lp1200
(dp1201
S'Extra'
p1202
S''
sS'Default'
p1203
S'0'
sS'Field'
p1204
S'bug_id'
p1205
sS'Key'
p1206
S'MUL'
p1207
sS'Null'
p1208
S''
sS'Type'
p1209
S'mediumint(9)'
p1210
sa(dp1211
g1202
S''
sg1203
S'0'
sg1204
S'who'
p1212
sg1206
S''
sg1208
S''
sg1209
S'mediumint(9)'
p1213
sa(dp1214
g1202
S''
sg1203
S'0000-00-00 00:00:00'
p1215
sg1204
S'bug_when'
p1216
sg1206
S'MUL'
p1217
sg1208
S''
sg1209
S'datetime'
p1218
sa(dp1219
g1202
S''
sg1203
S'0'
sg1204
S'fieldid'
p1220
sg1206
S'MUL'
p1221
sg1208
S''
sg1209
S'mediumint(9)'
p1222
sa(dp1223
g1202
S''
sg1203
Nsg1204
S'added'
p1224
sg1206
S''
sg1208
S'YES'
p1225
sg1209
S'tinytext'
p1226
sa(dp1227
g1202
S''
sg1203
Nsg1204
S'removed'
p1228
sg1206
S''
sg1208
S'YES'
p1229
sg1209
S'tinytext'
p1230
sa(lp1231
(dp1232
S'Comment'
p1233
S''
sS'Non_unique'
p1234
L1L
sS'Sub_part'
p1235
NsS'Index_type'
p1236
S'BTREE'
p1237
sS'Key_name'
p1238
S'bug_id'
p1239
sS'Collation'
p1240
S'A'
sS'Null'
p1241
S''
sS'Seq_in_index'
p1242
L1L
sS'Table'
p1243
S'bugs_activity'
p1244
sS'Cardinality'
p1245
NsS'Packed'
p1246
NsS'Column_name'
p1247
S'bug_id'
p1248
sa(dp1249
g1233
S''
sg1234
L1L
sg1235
Nsg1236
S'BTREE'
p1250
sg1238
S'bug_when'
p1251
sg1240
S'A'
sg1241
S''
sg1242
L1L
sg1243
S'bugs_activity'
p1252
sg1245
Nsg1246
Nsg1247
S'bug_when'
p1253
sa(dp1254
g1233
S''
sg1234
L1L
sg1235
Nsg1236
S'BTREE'
p1255
sg1238
S'fieldid'
p1256
sg1240
S'A'
sg1241
S''
sg1242
L1L
sg1243
S'bugs_activity'
p1257
sg1245
Nsg1246
Nsg1247
S'fieldid'
p1258
satp1259
st.