(S'2.14'
p1
(dp2
S'attachments'
p3
((lp4
(dp5
S'Extra'
p6
S'auto_increment'
p7
sS'Default'
p8
NsS'Field'
p9
S'attach_id'
p10
sS'Key'
p11
S'PRI'
p12
sS'Null'
p13
S''
sS'Type'
p14
S'mediumint(9)'
p15
sa(dp16
g6
S''
sg8
S'0'
sg9
S'bug_id'
p17
sg11
S'MUL'
p18
sg13
S''
sg14
S'mediumint(9)'
p19
sa(dp20
g6
S''
sg8
Nsg9
S'creation_ts'
p21
sg11
S'MUL'
p22
sg13
S'YES'
p23
sg14
S'timestamp(14)'
p24
sa(dp25
g6
S''
sg8
S''
sg9
S'description'
p26
sg11
S''
sg13
S''
sg14
S'mediumtext'
p27
sa(dp28
g6
S''
sg8
S''
sg9
S'mimetype'
p29
sg11
S''
sg13
S''
sg14
S'mediumtext'
p30
sa(dp31
g6
S''
sg8
Nsg9
S'ispatch'
p32
sg11
S''
sg13
S'YES'
p33
sg14
S'tinyint(4)'
p34
sa(dp35
g6
S''
sg8
S''
sg9
S'filename'
p36
sg11
S''
sg13
S''
sg14
S'mediumtext'
p37
sa(dp38
g6
S''
sg8
S''
sg9
S'thedata'
p39
sg11
S''
sg13
S''
sg14
S'longblob'
p40
sa(dp41
g6
S''
sg8
S'0'
sg9
S'submitter_id'
p42
sg11
S''
sg13
S''
sg14
S'mediumint(9)'
p43
sa(lp44
(dp45
S'Comment'
p46
S''
sS'Non_unique'
p47
L0L
sS'Sub_part'
p48
NsS'Index_type'
p49
S'BTREE'
p50
sS'Key_name'
p51
S'PRIMARY'
p52
sS'Collation'
p53
S'A'
sS'Null'
p54
S''
sS'Seq_in_index'
p55
L1L
sS'Table'
p56
S'attachments'
p57
sS'Cardinality'
p58
L0L
sS'Packed'
p59
NsS'Column_name'
p60
S'attach_id'
p61
sa(dp62
g46
S''
sg47
L1L
sg48
Nsg49
S'BTREE'
p63
sg51
S'bug_id'
p64
sg53
S'A'
sg54
S''
sg55
L1L
sg56
S'attachments'
p65
sg58
Nsg59
Nsg60
S'bug_id'
p66
sa(dp67
g46
S''
sg47
L1L
sg48
Nsg49
S'BTREE'
p68
sg51
S'creation_ts'
p69
sg53
S'A'
sg54
S''
sg55
L1L
sg56
S'attachments'
p70
sg58
Nsg59
Nsg60
S'creation_ts'
p71
satp72
sS'cc'
p73
((lp74
(dp75
S'Extra'
p76
S''
sS'Default'
p77
S'0'
sS'Field'
p78
S'bug_id'
p79
sS'Key'
p80
S'PRI'
p81
sS'Null'
p82
S''
sS'Type'
p83
S'mediumint(9)'
p84
sa(dp85
g76
S''
sg77
S'0'
sg78
S'who'
p86
sg80
S'PRI'
p87
sg82
S''
sg83
S'mediumint(9)'
p88
sa(lp89
(dp90
S'Comment'
p91
S''
sS'Non_unique'
p92
L0L
sS'Sub_part'
p93
NsS'Index_type'
p94
S'BTREE'
p95
sS'Key_name'
p96
S'bug_id'
p97
sS'Collation'
p98
S'A'
sS'Null'
p99
S''
sS'Seq_in_index'
p100
L1L
sS'Table'
p101
S'cc'
p102
sS'Cardinality'
p103
NsS'Packed'
p104
NsS'Column_name'
p105
S'bug_id'
p106
sa(dp107
g91
S''
sg92
L0L
sg93
Nsg94
S'BTREE'
p108
sg96
S'bug_id'
p109
sg98
S'A'
sg99
S''
sg100
L2L
sg101
S'cc'
p110
sg103
L0L
sg104
Nsg105
S'who'
p111
sa(dp112
g91
S''
sg92
L1L
sg93
Nsg94
S'BTREE'
p113
sg96
S'who'
p114
sg98
S'A'
sg99
S''
sg100
L1L
sg101
S'cc'
p115
sg103
Nsg104
Nsg105
S'who'
p116
satp117
sS'keywords'
p118
((lp119
(dp120
S'Extra'
p121
S''
sS'Default'
p122
S'0'
sS'Field'
p123
S'bug_id'
p124
sS'Key'
p125
S'PRI'
p126
sS'Null'
p127
S''
sS'Type'
p128
S'mediumint(9)'
p129
sa(dp130
g121
S''
sg122
S'0'
sg123
S'keywordid'
p131
sg125
S'PRI'
p132
sg127
S''
sg128
S'smallint(6)'
p133
sa(lp134
(dp135
S'Comment'
p136
S''
sS'Non_unique'
p137
L0L
sS'Sub_part'
p138
NsS'Index_type'
p139
S'BTREE'
p140
sS'Key_name'
p141
S'bug_id'
p142
sS'Collation'
p143
S'A'
sS'Null'
p144
S''
sS'Seq_in_index'
p145
L1L
sS'Table'
p146
S'keywords'
p147
sS'Cardinality'
p148
NsS'Packed'
p149
NsS'Column_name'
p150
S'bug_id'
p151
sa(dp152
g136
S''
sg137
L0L
sg138
Nsg139
S'BTREE'
p153
sg141
S'bug_id'
p154
sg143
S'A'
sg144
S''
sg145
L2L
sg146
S'keywords'
p155
sg148
L0L
sg149
Nsg150
S'keywordid'
p156
sa(dp157
g136
S''
sg137
L1L
sg138
Nsg139
S'BTREE'
p158
sg141
S'keywordid'
p159
sg143
S'A'
sg144
S''
sg145
L1L
sg146
S'keywords'
p160
sg148
Nsg149
Nsg150
S'keywordid'
p161
satp162
sS'keyworddefs'
p163
((lp164
(dp165
S'Extra'
p166
S''
sS'Default'
p167
S'0'
sS'Field'
p168
S'id'
p169
sS'Key'
p170
S'PRI'
p171
sS'Null'
p172
S''
sS'Type'
p173
S'smallint(6)'
p174
sa(dp175
g166
S''
sg167
S''
sg168
S'name'
p176
sg170
S'UNI'
p177
sg172
S''
sg173
S'varchar(64)'
p178
sa(dp179
g166
S''
sg167
Nsg168
S'description'
p180
sg170
S''
sg172
S'YES'
p181
sg173
S'mediumtext'
p182
sa(lp183
(dp184
S'Comment'
p185
S''
sS'Non_unique'
p186
L0L
sS'Sub_part'
p187
NsS'Index_type'
p188
S'BTREE'
p189
sS'Key_name'
p190
S'PRIMARY'
p191
sS'Collation'
p192
S'A'
sS'Null'
p193
S''
sS'Seq_in_index'
p194
L1L
sS'Table'
p195
S'keyworddefs'
p196
sS'Cardinality'
p197
L0L
sS'Packed'
p198
NsS'Column_name'
p199
S'id'
p200
sa(dp201
g185
S''
sg186
L0L
sg187
Nsg188
S'BTREE'
p202
sg190
S'name'
p203
sg192
S'A'
sg193
S''
sg194
L1L
sg195
S'keyworddefs'
p204
sg197
L0L
sg198
Nsg199
S'name'
p205
satp206
sS'votes'
p207
((lp208
(dp209
S'Extra'
p210
S''
sS'Default'
p211
S'0'
sS'Field'
p212
S'who'
p213
sS'Key'
p214
S'MUL'
p215
sS'Null'
p216
S''
sS'Type'
p217
S'mediumint(9)'
p218
sa(dp219
g210
S''
sg211
S'0'
sg212
S'bug_id'
p220
sg214
S'MUL'
p221
sg216
S''
sg217
S'mediumint(9)'
p222
sa(dp223
g210
S''
sg211
S'0'
sg212
S'count'
p224
sg214
S''
sg216
S''
sg217
S'smallint(6)'
p225
sa(lp226
(dp227
S'Comment'
p228
S''
sS'Non_unique'
p229
L1L
sS'Sub_part'
p230
NsS'Index_type'
p231
S'BTREE'
p232
sS'Key_name'
p233
S'who'
p234
sS'Collation'
p235
S'A'
sS'Null'
p236
S''
sS'Seq_in_index'
p237
L1L
sS'Table'
p238
S'votes'
p239
sS'Cardinality'
p240
NsS'Packed'
p241
NsS'Column_name'
p242
S'who'
p243
sa(dp244
g228
S''
sg229
L1L
sg230
Nsg231
S'BTREE'
p245
sg233
S'bug_id'
p246
sg235
S'A'
sg236
S''
sg237
L1L
sg238
S'votes'
p247
sg240
Nsg241
Nsg242
S'bug_id'
p248
satp249
sS'duplicates'
p250
((lp251
(dp252
S'Extra'
p253
S''
sS'Default'
p254
S'0'
sS'Field'
p255
S'dupe_of'
p256
sS'Key'
p257
S''
sS'Null'
p258
S''
sS'Type'
p259
S'mediumint(9)'
p260
sa(dp261
g253
S''
sg254
S'0'
sg255
S'dupe'
p262
sg257
S'PRI'
p263
sg258
S''
sg259
S'mediumint(9)'
p264
sa(lp265
(dp266
S'Comment'
p267
S''
sS'Non_unique'
p268
L0L
sS'Sub_part'
p269
NsS'Index_type'
p270
S'BTREE'
p271
sS'Key_name'
p272
S'PRIMARY'
p273
sS'Collation'
p274
S'A'
sS'Null'
p275
S''
sS'Seq_in_index'
p276
L1L
sS'Table'
p277
S'duplicates'
p278
sS'Cardinality'
p279
L0L
sS'Packed'
p280
NsS'Column_name'
p281
S'dupe'
p282
satp283
sS'logincookies'
p284
((lp285
(dp286
S'Extra'
p287
S'auto_increment'
p288
sS'Default'
p289
NsS'Field'
p290
S'cookie'
p291
sS'Key'
p292
S'PRI'
p293
sS'Null'
p294
S''
sS'Type'
p295
S'mediumint(9)'
p296
sa(dp297
g287
S''
sg289
S'0'
sg290
S'userid'
p298
sg292
S''
sg294
S''
sg295
S'mediumint(9)'
p299
sa(dp300
g287
S''
sg289
Nsg290
S'cryptpassword'
p301
sg292
S''
sg294
S'YES'
p302
sg295
S'varchar(34)'
p303
sa(dp304
g287
S''
sg289
Nsg290
S'hostname'
p305
sg292
S''
sg294
S'YES'
p306
sg295
S'varchar(128)'
p307
sa(dp308
g287
S''
sg289
Nsg290
S'lastused'
p309
sg292
S'MUL'
p310
sg294
S'YES'
p311
sg295
S'timestamp(14)'
p312
sa(lp313
(dp314
S'Comment'
p315
S''
sS'Non_unique'
p316
L0L
sS'Sub_part'
p317
NsS'Index_type'
p318
S'BTREE'
p319
sS'Key_name'
p320
S'PRIMARY'
p321
sS'Collation'
p322
S'A'
sS'Null'
p323
S''
sS'Seq_in_index'
p324
L1L
sS'Table'
p325
S'logincookies'
p326
sS'Cardinality'
p327
L0L
sS'Packed'
p328
NsS'Column_name'
p329
S'cookie'
p330
sa(dp331
g315
S''
sg316
L1L
sg317
Nsg318
S'BTREE'
p332
sg320
S'lastused'
p333
sg322
S'A'
sg323
S''
sg324
L1L
sg325
S'logincookies'
p334
sg327
Nsg328
Nsg329
S'lastused'
p335
satp336
sS'fielddefs'
p337
((lp338
(dp339
S'Extra'
p340
S'auto_increment'
p341
sS'Default'
p342
NsS'Field'
p343
S'fieldid'
p344
sS'Key'
p345
S'PRI'
p346
sS'Null'
p347
S''
sS'Type'
p348
S'mediumint(9)'
p349
sa(dp350
g340
S''
sg342
S''
sg343
S'name'
p351
sg345
S'UNI'
p352
sg347
S''
sg348
S'varchar(64)'
p353
sa(dp354
g340
S''
sg342
S''
sg343
S'description'
p355
sg345
S''
sg347
S''
sg348
S'mediumtext'
p356
sa(dp357
g340
S''
sg342
S'0'
sg343
S'mailhead'
p358
sg345
S''
sg347
S''
sg348
S'tinyint(4)'
p359
sa(dp360
g340
S''
sg342
S'0'
sg343
S'sortkey'
p361
sg345
S'MUL'
p362
sg347
S''
sg348
S'smallint(6)'
p363
sa(lp364
(dp365
S'Comment'
p366
S''
sS'Non_unique'
p367
L0L
sS'Sub_part'
p368
NsS'Index_type'
p369
S'BTREE'
p370
sS'Key_name'
p371
S'PRIMARY'
p372
sS'Collation'
p373
S'A'
sS'Null'
p374
S''
sS'Seq_in_index'
p375
L1L
sS'Table'
p376
S'fielddefs'
p377
sS'Cardinality'
p378
L29L
sS'Packed'
p379
NsS'Column_name'
p380
S'fieldid'
p381
sa(dp382
g366
S''
sg367
L0L
sg368
Nsg369
S'BTREE'
p383
sg371
S'name'
p384
sg373
S'A'
sg374
S''
sg375
L1L
sg376
S'fielddefs'
p385
sg378
L29L
sg379
Nsg380
S'name'
p386
sa(dp387
g366
S''
sg367
L1L
sg368
Nsg369
S'BTREE'
p388
sg371
S'sortkey'
p389
sg373
S'A'
sg374
S''
sg375
L1L
sg376
S'fielddefs'
p390
sg378
Nsg379
Nsg380
S'sortkey'
p391
satp392
sS'shadowlog'
p393
((lp394
(dp395
S'Extra'
p396
S'auto_increment'
p397
sS'Default'
p398
NsS'Field'
p399
S'id'
p400
sS'Key'
p401
S'PRI'
p402
sS'Null'
p403
S''
sS'Type'
p404
S'int(11)'
p405
sa(dp406
g396
S''
sg398
Nsg399
S'ts'
p407
sg401
S''
sg403
S'YES'
p408
sg404
S'timestamp(14)'
p409
sa(dp410
g396
S''
sg398
S'0'
sg399
S'reflected'
p411
sg401
S'MUL'
p412
sg403
S''
sg404
S'tinyint(4)'
p413
sa(dp414
g396
S''
sg398
S''
sg399
S'command'
p415
sg401
S''
sg403
S''
sg404
S'mediumtext'
p416
sa(lp417
(dp418
S'Comment'
p419
S''
sS'Non_unique'
p420
L0L
sS'Sub_part'
p421
NsS'Index_type'
p422
S'BTREE'
p423
sS'Key_name'
p424
S'PRIMARY'
p425
sS'Collation'
p426
S'A'
sS'Null'
p427
S''
sS'Seq_in_index'
p428
L1L
sS'Table'
p429
S'shadowlog'
p430
sS'Cardinality'
p431
L0L
sS'Packed'
p432
NsS'Column_name'
p433
S'id'
p434
sa(dp435
g419
S''
sg420
L1L
sg421
Nsg422
S'BTREE'
p436
sg424
S'reflected'
p437
sg426
S'A'
sg427
S''
sg428
L1L
sg429
S'shadowlog'
p438
sg431
Nsg432
Nsg433
S'reflected'
p439
satp440
sS'profiles_activity'
p441
((lp442
(dp443
S'Extra'
p444
S''
sS'Default'
p445
S'0'
sS'Field'
p446
S'userid'
p447
sS'Key'
p448
S'MUL'
p449
sS'Null'
p450
S''
sS'Type'
p451
S'mediumint(9)'
p452
sa(dp453
g444
S''
sg445
S'0'
sg446
S'who'
p454
sg448
S''
sg450
S''
sg451
S'mediumint(9)'
p455
sa(dp456
g444
S''
sg445
S'0000-00-00 00:00:00'
p457
sg446
S'profiles_when'
p458
sg448
S'MUL'
p459
sg450
S''
sg451
S'datetime'
p460
sa(dp461
g444
S''
sg445
S'0'
sg446
S'fieldid'
p462
sg448
S'MUL'
p463
sg450
S''
sg451
S'mediumint(9)'
p464
sa(dp465
g444
S''
sg445
Nsg446
S'oldvalue'
p466
sg448
S''
sg450
S'YES'
p467
sg451
S'tinytext'
p468
sa(dp469
g444
S''
sg445
Nsg446
S'newvalue'
p470
sg448
S''
sg450
S'YES'
p471
sg451
S'tinytext'
p472
sa(lp473
(dp474
S'Comment'
p475
S''
sS'Non_unique'
p476
L1L
sS'Sub_part'
p477
NsS'Index_type'
p478
S'BTREE'
p479
sS'Key_name'
p480
S'userid'
p481
sS'Collation'
p482
S'A'
sS'Null'
p483
S''
sS'Seq_in_index'
p484
L1L
sS'Table'
p485
S'profiles_activity'
p486
sS'Cardinality'
p487
NsS'Packed'
p488
NsS'Column_name'
p489
S'userid'
p490
sa(dp491
g475
S''
sg476
L1L
sg477
Nsg478
S'BTREE'
p492
sg480
S'profiles_when'
p493
sg482
S'A'
sg483
S''
sg484
L1L
sg485
S'profiles_activity'
p494
sg487
Nsg488
Nsg489
S'profiles_when'
p495
sa(dp496
g475
S''
sg476
L1L
sg477
Nsg478
S'BTREE'
p497
sg480
S'fieldid'
p498
sg482
S'A'
sg483
S''
sg484
L1L
sg485
S'profiles_activity'
p499
sg487
Nsg488
Nsg489
S'fieldid'
p500
satp501
sS'components'
p502
((lp503
(dp504
S'Extra'
p505
S''
sS'Default'
p506
NsS'Field'
p507
S'value'
p508
sS'Key'
p509
S''
sS'Null'
p510
S'YES'
p511
sS'Type'
p512
S'tinytext'
p513
sa(dp514
g505
S''
sg506
Nsg507
S'program'
p515
sg509
S''
sg510
S'YES'
p516
sg512
S'varchar(64)'
p517
sa(dp518
g505
S''
sg506
S'0'
sg507
S'initialowner'
p519
sg509
S''
sg510
S''
sg512
S'mediumint(9)'
p520
sa(dp521
g505
S''
sg506
S'0'
sg507
S'initialqacontact'
p522
sg509
S''
sg510
S''
sg512
S'mediumint(9)'
p523
sa(dp524
g505
S''
sg506
S''
sg507
S'description'
p525
sg509
S''
sg510
S''
sg512
S'mediumtext'
p526
sa(ltp527
sS'watch'
p528
((lp529
(dp530
S'Extra'
p531
S''
sS'Default'
p532
S'0'
sS'Field'
p533
S'watcher'
p534
sS'Key'
p535
S'PRI'
p536
sS'Null'
p537
S''
sS'Type'
p538
S'mediumint(9)'
p539
sa(dp540
g531
S''
sg532
S'0'
sg533
S'watched'
p541
sg535
S'PRI'
p542
sg537
S''
sg538
S'mediumint(9)'
p543
sa(lp544
(dp545
S'Comment'
p546
S''
sS'Non_unique'
p547
L0L
sS'Sub_part'
p548
NsS'Index_type'
p549
S'BTREE'
p550
sS'Key_name'
p551
S'watcher'
p552
sS'Collation'
p553
S'A'
sS'Null'
p554
S''
sS'Seq_in_index'
p555
L1L
sS'Table'
p556
S'watch'
p557
sS'Cardinality'
p558
NsS'Packed'
p559
NsS'Column_name'
p560
S'watcher'
p561
sa(dp562
g546
S''
sg547
L0L
sg548
Nsg549
S'BTREE'
p563
sg551
S'watcher'
p564
sg553
S'A'
sg554
S''
sg555
L2L
sg556
S'watch'
p565
sg558
L0L
sg559
Nsg560
S'watched'
p566
sa(dp567
g546
S''
sg547
L1L
sg548
Nsg549
S'BTREE'
p568
sg551
S'watched'
p569
sg553
S'A'
sg554
S''
sg555
L1L
sg556
S'watch'
p570
sg558
Nsg559
Nsg560
S'watched'
p571
satp572
sS'namedqueries'
p573
((lp574
(dp575
S'Extra'
p576
S''
sS'Default'
p577
S'0'
sS'Field'
p578
S'userid'
p579
sS'Key'
p580
S'PRI'
p581
sS'Null'
p582
S''
sS'Type'
p583
S'mediumint(9)'
p584
sa(dp585
g576
S''
sg577
S''
sg578
S'name'
p586
sg580
S'PRI'
p587
sg582
S''
sg583
S'varchar(64)'
p588
sa(dp589
g576
S''
sg577
S'0'
sg578
S'watchfordiffs'
p590
sg580
S'MUL'
p591
sg582
S''
sg583
S'tinyint(4)'
p592
sa(dp593
g576
S''
sg577
S'0'
sg578
S'linkinfooter'
p594
sg580
S''
sg582
S''
sg583
S'tinyint(4)'
p595
sa(dp596
g576
S''
sg577
S''
sg578
S'query'
p597
sg580
S''
sg582
S''
sg583
S'mediumtext'
p598
sa(lp599
(dp600
S'Comment'
p601
S''
sS'Non_unique'
p602
L0L
sS'Sub_part'
p603
NsS'Index_type'
p604
S'BTREE'
p605
sS'Key_name'
p606
S'userid'
p607
sS'Collation'
p608
S'A'
sS'Null'
p609
S''
sS'Seq_in_index'
p610
L1L
sS'Table'
p611
S'namedqueries'
p612
sS'Cardinality'
p613
NsS'Packed'
p614
NsS'Column_name'
p615
S'userid'
p616
sa(dp617
g601
S''
sg602
L0L
sg603
Nsg604
S'BTREE'
p618
sg606
S'userid'
p619
sg608
S'A'
sg609
S''
sg610
L2L
sg611
S'namedqueries'
p620
sg613
L0L
sg614
Nsg615
S'name'
p621
sa(dp622
g601
S''
sg602
L1L
sg603
Nsg604
S'BTREE'
p623
sg606
S'watchfordiffs'
p624
sg608
S'A'
sg609
S''
sg610
L1L
sg611
S'namedqueries'
p625
sg613
Nsg614
Nsg615
S'watchfordiffs'
p626
satp627
sS'tokens'
p628
((lp629
(dp630
S'Extra'
p631
S''
sS'Default'
p632
S'0'
sS'Field'
p633
S'userid'
p634
sS'Key'
p635
S'MUL'
p636
sS'Null'
p637
S''
sS'Type'
p638
S'mediumint(9)'
p639
sa(dp640
g631
S''
sg632
S'0000-00-00 00:00:00'
p641
sg633
S'issuedate'
p642
sg635
S''
sg637
S''
sg638
S'datetime'
p643
sa(dp644
g631
S''
sg632
S''
sg633
S'token'
p645
sg635
S'PRI'
p646
sg637
S''
sg638
S'varchar(16)'
p647
sa(dp648
g631
S''
sg632
S''
sg633
S'tokentype'
p649
sg635
S''
sg637
S''
sg638
S'varchar(8)'
p650
sa(dp651
g631
S''
sg632
Nsg633
S'eventdata'
p652
sg635
S''
sg637
S'YES'
p653
sg638
S'tinytext'
p654
sa(lp655
(dp656
S'Comment'
p657
S''
sS'Non_unique'
p658
L0L
sS'Sub_part'
p659
NsS'Index_type'
p660
S'BTREE'
p661
sS'Key_name'
p662
S'PRIMARY'
p663
sS'Collation'
p664
S'A'
sS'Null'
p665
S''
sS'Seq_in_index'
p666
L1L
sS'Table'
p667
S'tokens'
p668
sS'Cardinality'
p669
L0L
sS'Packed'
p670
NsS'Column_name'
p671
S'token'
p672
sa(dp673
g657
S''
sg658
L1L
sg659
Nsg660
S'BTREE'
p674
sg662
S'userid'
p675
sg664
S'A'
sg665
S''
sg666
L1L
sg667
S'tokens'
p676
sg669
Nsg670
Nsg671
S'userid'
p677
satp678
sS'dependencies'
p679
((lp680
(dp681
S'Extra'
p682
S''
sS'Default'
p683
S'0'
sS'Field'
p684
S'blocked'
p685
sS'Key'
p686
S'MUL'
p687
sS'Null'
p688
S''
sS'Type'
p689
S'mediumint(9)'
p690
sa(dp691
g682
S''
sg683
S'0'
sg684
S'dependson'
p692
sg686
S'MUL'
p693
sg688
S''
sg689
S'mediumint(9)'
p694
sa(lp695
(dp696
S'Comment'
p697
S''
sS'Non_unique'
p698
L1L
sS'Sub_part'
p699
NsS'Index_type'
p700
S'BTREE'
p701
sS'Key_name'
p702
S'blocked'
p703
sS'Collation'
p704
S'A'
sS'Null'
p705
S''
sS'Seq_in_index'
p706
L1L
sS'Table'
p707
S'dependencies'
p708
sS'Cardinality'
p709
NsS'Packed'
p710
NsS'Column_name'
p711
S'blocked'
p712
sa(dp713
g697
S''
sg698
L1L
sg699
Nsg700
S'BTREE'
p714
sg702
S'dependson'
p715
sg704
S'A'
sg705
S''
sg706
L1L
sg707
S'dependencies'
p716
sg709
Nsg710
Nsg711
S'dependson'
p717
satp718
sS'groups'
p719
((lp720
(dp721
S'Extra'
p722
S''
sS'Default'
p723
S'0'
sS'Field'
p724
S'bit'
p725
sS'Key'
p726
S'PRI'
p727
sS'Null'
p728
S''
sS'Type'
p729
S'bigint(20)'
p730
sa(dp731
g722
S''
sg723
S''
sg724
S'name'
p732
sg726
S'UNI'
p733
sg728
S''
sg729
S'varchar(255)'
p734
sa(dp735
g722
S''
sg723
S''
sg724
S'description'
p736
sg726
S''
sg728
S''
sg729
S'text'
p737
sa(dp738
g722
S''
sg723
S'0'
sg724
S'isbuggroup'
p739
sg726
S''
sg728
S''
sg729
S'tinyint(4)'
p740
sa(dp741
g722
S''
sg723
S''
sg724
S'userregexp'
p742
sg726
S''
sg728
S''
sg729
S'tinytext'
p743
sa(dp744
g722
S''
sg723
S'1'
sg724
S'isactive'
p745
sg726
S''
sg728
S''
sg729
S'tinyint(4)'
p746
sa(lp747
(dp748
S'Comment'
p749
S''
sS'Non_unique'
p750
L0L
sS'Sub_part'
p751
NsS'Index_type'
p752
S'BTREE'
p753
sS'Key_name'
p754
S'bit'
p755
sS'Collation'
p756
S'A'
sS'Null'
p757
S''
sS'Seq_in_index'
p758
L1L
sS'Table'
p759
S'groups'
p760
sS'Cardinality'
p761
L7L
sS'Packed'
p762
NsS'Column_name'
p763
S'bit'
p764
sa(dp765
g749
S''
sg750
L0L
sg751
Nsg752
S'BTREE'
p766
sg754
S'name'
p767
sg756
S'A'
sg757
S''
sg758
L1L
sg759
S'groups'
p768
sg761
L7L
sg762
Nsg763
S'name'
p769
satp770
sS'milestones'
p771
((lp772
(dp773
S'Extra'
p774
S''
sS'Default'
p775
S''
sS'Field'
p776
S'value'
p777
sS'Key'
p778
S'PRI'
p779
sS'Null'
p780
S''
sS'Type'
p781
S'varchar(20)'
p782
sa(dp783
g774
S''
sg775
S''
sg776
S'product'
p784
sg778
S'PRI'
p785
sg780
S''
sg781
S'varchar(64)'
p786
sa(dp787
g774
S''
sg775
S'0'
sg776
S'sortkey'
p788
sg778
S''
sg780
S''
sg781
S'smallint(6)'
p789
sa(lp790
(dp791
S'Comment'
p792
S''
sS'Non_unique'
p793
L0L
sS'Sub_part'
p794
NsS'Index_type'
p795
S'BTREE'
p796
sS'Key_name'
p797
S'product'
p798
sS'Collation'
p799
S'A'
sS'Null'
p800
S''
sS'Seq_in_index'
p801
L1L
sS'Table'
p802
S'milestones'
p803
sS'Cardinality'
p804
NsS'Packed'
p805
NsS'Column_name'
p806
S'product'
p807
sa(dp808
g792
S''
sg793
L0L
sg794
Nsg795
S'BTREE'
p809
sg797
S'product'
p810
sg799
S'A'
sg800
S''
sg801
L2L
sg802
S'milestones'
p811
sg804
L0L
sg805
Nsg806
S'value'
p812
satp813
sS'longdescs'
p814
((lp815
(dp816
S'Extra'
p817
S''
sS'Default'
p818
S'0'
sS'Field'
p819
S'bug_id'
p820
sS'Key'
p821
S'MUL'
p822
sS'Null'
p823
S''
sS'Type'
p824
S'mediumint(9)'
p825
sa(dp826
g817
S''
sg818
S'0'
sg819
S'who'
p827
sg821
S'MUL'
p828
sg823
S''
sg824
S'mediumint(9)'
p829
sa(dp830
g817
S''
sg818
S'0000-00-00 00:00:00'
p831
sg819
S'bug_when'
p832
sg821
S'MUL'
p833
sg823
S''
sg824
S'datetime'
p834
sa(dp835
g817
S''
sg818
Nsg819
S'thetext'
p836
sg821
S''
sg823
S'YES'
p837
sg824
S'mediumtext'
p838
sa(lp839
(dp840
S'Comment'
p841
S''
sS'Non_unique'
p842
L1L
sS'Sub_part'
p843
NsS'Index_type'
p844
S'BTREE'
p845
sS'Key_name'
p846
S'bug_id'
p847
sS'Collation'
p848
S'A'
sS'Null'
p849
S''
sS'Seq_in_index'
p850
L1L
sS'Table'
p851
S'longdescs'
p852
sS'Cardinality'
p853
NsS'Packed'
p854
NsS'Column_name'
p855
S'bug_id'
p856
sa(dp857
g841
S''
sg842
L1L
sg843
Nsg844
S'BTREE'
p858
sg846
S'who'
p859
sg848
S'A'
sg849
S''
sg850
L1L
sg851
S'longdescs'
p860
sg853
Nsg854
Nsg855
S'who'
p861
sa(dp862
g841
S''
sg842
L1L
sg843
Nsg844
S'BTREE'
p863
sg846
S'bug_when'
p864
sg848
S'A'
sg849
S''
sg850
L1L
sg851
S'longdescs'
p865
sg853
Nsg854
Nsg855
S'bug_when'
p866
satp867
sS'versions'
p868
((lp869
(dp870
S'Extra'
p871
S''
sS'Default'
p872
NsS'Field'
p873
S'value'
p874
sS'Key'
p875
S''
sS'Null'
p876
S'YES'
p877
sS'Type'
p878
S'tinytext'
p879
sa(dp880
g871
S''
sg872
S''
sg873
S'program'
p881
sg875
S''
sg876
S''
sg878
S'varchar(64)'
p882
sa(ltp883
sS'bugs'
p884
((lp885
(dp886
S'Extra'
p887
S'auto_increment'
p888
sS'Default'
p889
NsS'Field'
p890
S'bug_id'
p891
sS'Key'
p892
S'PRI'
p893
sS'Null'
p894
S''
sS'Type'
p895
S'mediumint(9)'
p896
sa(dp897
g887
S''
sg889
S'0'
sg890
S'groupset'
p898
sg892
S''
sg894
S''
sg895
S'bigint(20)'
p899
sa(dp900
g887
S''
sg889
S'0'
sg890
S'assigned_to'
p901
sg892
S'MUL'
p902
sg894
S''
sg895
S'mediumint(9)'
p903
sa(dp904
g887
S''
sg889
Nsg890
S'bug_file_loc'
p905
sg892
S''
sg894
S'YES'
p906
sg895
S'text'
p907
sa(dp908
g887
S''
sg889
S'blocker'
p909
sg890
S'bug_severity'
p910
sg892
S'MUL'
p911
sg894
S''
sg895
S"enum('blocker','critical','major','normal','minor','trivial','enhancement')"
p912
sa(dp913
g887
S''
sg889
S'UNCONFIRMED'
p914
sg890
S'bug_status'
p915
sg892
S'MUL'
p916
sg894
S''
sg895
S"enum('UNCONFIRMED','NEW','ASSIGNED','REOPENED','RESOLVED','VERIFIED','CLOSED')"
p917
sa(dp918
g887
S''
sg889
S'0000-00-00 00:00:00'
p919
sg890
S'creation_ts'
p920
sg892
S'MUL'
p921
sg894
S''
sg895
S'datetime'
p922
sa(dp923
g887
S''
sg889
Nsg890
S'delta_ts'
p924
sg892
S'MUL'
p925
sg894
S'YES'
p926
sg895
S'timestamp(14)'
p927
sa(dp928
g887
S''
sg889
Nsg890
S'short_desc'
p929
sg892
S''
sg894
S'YES'
p930
sg895
S'mediumtext'
p931
sa(dp932
g887
S''
sg889
S'All'
p933
sg890
S'op_sys'
p934
sg892
S'MUL'
p935
sg894
S''
sg895
S"enum('All','Windows 3.1','Windows 95','Windows 98','Windows ME','Windows 2000','Windows NT','Mac System 7','Mac System 7.5','Mac System 7.6.1','Mac System 8.0','Mac System 8.5','Mac System 8.6','Mac System 9.0','Linux','BSDI','FreeBSD','NetBSD','OpenBSD','AIX','BeOS','HP-UX','IRIX','Neutrino','OpenVMS','OS/2','OSF/1','Solaris','SunOS','other')"
p936
sa(dp937
g887
S''
sg889
S'P1'
p938
sg890
S'priority'
p939
sg892
S'MUL'
p940
sg894
S''
sg895
S"enum('P1','P2','P3','P4','P5')"
p941
sa(dp942
g887
S''
sg889
S''
sg890
S'product'
p943
sg892
S'MUL'
p944
sg894
S''
sg895
S'varchar(64)'
p945
sa(dp946
g887
S''
sg889
Nsg890
S'rep_platform'
p947
sg892
S''
sg894
S'YES'
p948
sg895
S"enum('All','DEC','HP','Macintosh','PC','SGI','Sun','Other')"
p949
sa(dp950
g887
S''
sg889
S'0'
sg890
S'reporter'
p951
sg892
S'MUL'
p952
sg894
S''
sg895
S'mediumint(9)'
p953
sa(dp954
g887
S''
sg889
S''
sg890
S'version'
p955
sg892
S'MUL'
p956
sg894
S''
sg895
S'varchar(64)'
p957
sa(dp958
g887
S''
sg889
S''
sg890
S'component'
p959
sg892
S'MUL'
p960
sg894
S''
sg895
S'varchar(50)'
p961
sa(dp962
g887
S''
sg889
S''
sg890
S'resolution'
p963
sg892
S'MUL'
p964
sg894
S''
sg895
S"enum('','FIXED','INVALID','WONTFIX','LATER','REMIND','DUPLICATE','WORKSFORME','MOVED')"
p965
sa(dp966
g887
S''
sg889
S'---'
p967
sg890
S'target_milestone'
p968
sg892
S'MUL'
p969
sg894
S''
sg895
S'varchar(20)'
p970
sa(dp971
g887
S''
sg889
S'0'
sg890
S'qa_contact'
p972
sg892
S'MUL'
p973
sg894
S''
sg895
S'mediumint(9)'
p974
sa(dp975
g887
S''
sg889
S''
sg890
S'status_whiteboard'
p976
sg892
S''
sg894
S''
sg895
S'mediumtext'
p977
sa(dp978
g887
S''
sg889
S'0'
sg890
S'votes'
p979
sg892
S'MUL'
p980
sg894
S''
sg895
S'mediumint(9)'
p981
sa(dp982
g887
S''
sg889
S''
sg890
S'keywords'
p983
sg892
S''
sg894
S''
sg895
S'mediumtext'
p984
sa(dp985
g887
S''
sg889
S'0000-00-00 00:00:00'
p986
sg890
S'lastdiffed'
p987
sg892
S''
sg894
S''
sg895
S'datetime'
p988
sa(dp989
g887
S''
sg889
S'0'
sg890
S'everconfirmed'
p990
sg892
S''
sg894
S''
sg895
S'tinyint(4)'
p991
sa(dp992
g887
S''
sg889
S'1'
sg890
S'reporter_accessible'
p993
sg892
S''
sg894
S''
sg895
S'tinyint(4)'
p994
sa(dp995
g887
S''
sg889
S'1'
sg890
S'assignee_accessible'
p996
sg892
S''
sg894
S''
sg895
S'tinyint(4)'
p997
sa(dp998
g887
S''
sg889
S'1'
sg890
S'qacontact_accessible'
p999
sg892
S''
sg894
S''
sg895
S'tinyint(4)'
p1000
sa(dp1001
g887
S''
sg889
S'1'
sg890
S'cclist_accessible'
p1002
sg892
S''
sg894
S''
sg895
S'tinyint(4)'
p1003
sa(lp1004
(dp1005
S'Comment'
p1006
S''
sS'Non_unique'
p1007
L0L
sS'Sub_part'
p1008
NsS'Index_type'
p1009
S'BTREE'
p1010
sS'Key_name'
p1011
S'PRIMARY'
p1012
sS'Collation'
p1013
S'A'
sS'Null'
p1014
S''
sS'Seq_in_index'
p1015
L1L
sS'Table'
p1016
S'bugs'
p1017
sS'Cardinality'
p1018
L0L
sS'Packed'
p1019
NsS'Column_name'
p1020
S'bug_id'
p1021
sa(dp1022
g1006
S''
sg1007
L1L
sg1008
Nsg1009
S'BTREE'
p1023
sg1011
S'assigned_to'
p1024
sg1013
S'A'
sg1014
S''
sg1015
L1L
sg1016
S'bugs'
p1025
sg1018
Nsg1019
Nsg1020
S'assigned_to'
p1026
sa(dp1027
g1006
S''
sg1007
L1L
sg1008
Nsg1009
S'BTREE'
p1028
sg1011
S'creation_ts'
p1029
sg1013
S'A'
sg1014
S''
sg1015
L1L
sg1016
S'bugs'
p1030
sg1018
Nsg1019
Nsg1020
S'creation_ts'
p1031
sa(dp1032
g1006
S''
sg1007
L1L
sg1008
Nsg1009
S'BTREE'
p1033
sg1011
S'delta_ts'
p1034
sg1013
S'A'
sg1014
S''
sg1015
L1L
sg1016
S'bugs'
p1035
sg1018
Nsg1019
Nsg1020
S'delta_ts'
p1036
sa(dp1037
g1006
S''
sg1007
L1L
sg1008
Nsg1009
S'BTREE'
p1038
sg1011
S'bug_severity'
p1039
sg1013
S'A'
sg1014
S''
sg1015
L1L
sg1016
S'bugs'
p1040
sg1018
Nsg1019
Nsg1020
S'bug_severity'
p1041
sa(dp1042
g1006
S''
sg1007
L1L
sg1008
Nsg1009
S'BTREE'
p1043
sg1011
S'bug_status'
p1044
sg1013
S'A'
sg1014
S''
sg1015
L1L
sg1016
S'bugs'
p1045
sg1018
Nsg1019
Nsg1020
S'bug_status'
p1046
sa(dp1047
g1006
S''
sg1007
L1L
sg1008
Nsg1009
S'BTREE'
p1048
sg1011
S'op_sys'
p1049
sg1013
S'A'
sg1014
S''
sg1015
L1L
sg1016
S'bugs'
p1050
sg1018
Nsg1019
Nsg1020
S'op_sys'
p1051
sa(dp1052
g1006
S''
sg1007
L1L
sg1008
Nsg1009
S'BTREE'
p1053
sg1011
S'priority'
p1054
sg1013
S'A'
sg1014
S''
sg1015
L1L
sg1016
S'bugs'
p1055
sg1018
Nsg1019
Nsg1020
S'priority'
p1056
sa(dp1057
g1006
S''
sg1007
L1L
sg1008
Nsg1009
S'BTREE'
p1058
sg1011
S'product'
p1059
sg1013
S'A'
sg1014
S''
sg1015
L1L
sg1016
S'bugs'
p1060
sg1018
Nsg1019
Nsg1020
S'product'
p1061
sa(dp1062
g1006
S''
sg1007
L1L
sg1008
Nsg1009
S'BTREE'
p1063
sg1011
S'reporter'
p1064
sg1013
S'A'
sg1014
S''
sg1015
L1L
sg1016
S'bugs'
p1065
sg1018
Nsg1019
Nsg1020
S'reporter'
p1066
sa(dp1067
g1006
S''
sg1007
L1L
sg1008
Nsg1009
S'BTREE'
p1068
sg1011
S'version'
p1069
sg1013
S'A'
sg1014
S''
sg1015
L1L
sg1016
S'bugs'
p1070
sg1018
Nsg1019
Nsg1020
S'version'
p1071
sa(dp1072
g1006
S''
sg1007
L1L
sg1008
Nsg1009
S'BTREE'
p1073
sg1011
S'component'
p1074
sg1013
S'A'
sg1014
S''
sg1015
L1L
sg1016
S'bugs'
p1075
sg1018
Nsg1019
Nsg1020
S'component'
p1076
sa(dp1077
g1006
S''
sg1007
L1L
sg1008
Nsg1009
S'BTREE'
p1078
sg1011
S'resolution'
p1079
sg1013
S'A'
sg1014
S''
sg1015
L1L
sg1016
S'bugs'
p1080
sg1018
Nsg1019
Nsg1020
S'resolution'
p1081
sa(dp1082
g1006
S''
sg1007
L1L
sg1008
Nsg1009
S'BTREE'
p1083
sg1011
S'target_milestone'
p1084
sg1013
S'A'
sg1014
S''
sg1015
L1L
sg1016
S'bugs'
p1085
sg1018
Nsg1019
Nsg1020
S'target_milestone'
p1086
sa(dp1087
g1006
S''
sg1007
L1L
sg1008
Nsg1009
S'BTREE'
p1088
sg1011
S'qa_contact'
p1089
sg1013
S'A'
sg1014
S''
sg1015
L1L
sg1016
S'bugs'
p1090
sg1018
Nsg1019
Nsg1020
S'qa_contact'
p1091
sa(dp1092
g1006
S''
sg1007
L1L
sg1008
Nsg1009
S'BTREE'
p1093
sg1011
S'votes'
p1094
sg1013
S'A'
sg1014
S''
sg1015
L1L
sg1016
S'bugs'
p1095
sg1018
Nsg1019
Nsg1020
S'votes'
p1096
satp1097
sS'profiles'
p1098
((lp1099
(dp1100
S'Extra'
p1101
S'auto_increment'
p1102
sS'Default'
p1103
NsS'Field'
p1104
S'userid'
p1105
sS'Key'
p1106
S'PRI'
p1107
sS'Null'
p1108
S''
sS'Type'
p1109
S'mediumint(9)'
p1110
sa(dp1111
g1101
S''
sg1103
S''
sg1104
S'login_name'
p1112
sg1106
S'UNI'
p1113
sg1108
S''
sg1109
S'varchar(255)'
p1114
sa(dp1115
g1101
S''
sg1103
Nsg1104
S'cryptpassword'
p1116
sg1106
S''
sg1108
S'YES'
p1117
sg1109
S'varchar(34)'
p1118
sa(dp1119
g1101
S''
sg1103
Nsg1104
S'realname'
p1120
sg1106
S''
sg1108
S'YES'
p1121
sg1109
S'varchar(255)'
p1122
sa(dp1123
g1101
S''
sg1103
S'0'
sg1104
S'groupset'
p1124
sg1106
S''
sg1108
S''
sg1109
S'bigint(20)'
p1125
sa(dp1126
g1101
S''
sg1103
S''
sg1104
S'disabledtext'
p1127
sg1106
S''
sg1108
S''
sg1109
S'mediumtext'
p1128
sa(dp1129
g1101
S''
sg1103
S'1'
sg1104
S'mybugslink'
p1130
sg1106
S''
sg1108
S''
sg1109
S'tinyint(4)'
p1131
sa(dp1132
g1101
S''
sg1103
S'0'
sg1104
S'blessgroupset'
p1133
sg1106
S''
sg1108
S''
sg1109
S'bigint(20)'
p1134
sa(dp1135
g1101
S''
sg1103
Nsg1104
S'emailflags'
p1136
sg1106
S''
sg1108
S'YES'
p1137
sg1109
S'mediumtext'
p1138
sa(lp1139
(dp1140
S'Comment'
p1141
S''
sS'Non_unique'
p1142
L0L
sS'Sub_part'
p1143
NsS'Index_type'
p1144
S'BTREE'
p1145
sS'Key_name'
p1146
S'PRIMARY'
p1147
sS'Collation'
p1148
S'A'
sS'Null'
p1149
S''
sS'Seq_in_index'
p1150
L1L
sS'Table'
p1151
S'profiles'
p1152
sS'Cardinality'
p1153
L0L
sS'Packed'
p1154
NsS'Column_name'
p1155
S'userid'
p1156
sa(dp1157
g1141
S''
sg1142
L0L
sg1143
Nsg1144
S'BTREE'
p1158
sg1146
S'login_name'
p1159
sg1148
S'A'
sg1149
S''
sg1150
L1L
sg1151
S'profiles'
p1160
sg1153
L0L
sg1154
Nsg1155
S'login_name'
p1161
satp1162
sS'products'
p1163
((lp1164
(dp1165
S'Extra'
p1166
S''
sS'Default'
p1167
NsS'Field'
p1168
S'product'
p1169
sS'Key'
p1170
S''
sS'Null'
p1171
S'YES'
p1172
sS'Type'
p1173
S'varchar(64)'
p1174
sa(dp1175
g1166
S''
sg1167
Nsg1168
S'description'
p1176
sg1170
S''
sg1171
S'YES'
p1177
sg1173
S'mediumtext'
p1178
sa(dp1179
g1166
S''
sg1167
S''
sg1168
S'milestoneurl'
p1180
sg1170
S''
sg1171
S''
sg1173
S'tinytext'
p1181
sa(dp1182
g1166
S''
sg1167
S'0'
sg1168
S'disallownew'
p1183
sg1170
S''
sg1171
S''
sg1173
S'tinyint(4)'
p1184
sa(dp1185
g1166
S''
sg1167
S'0'
sg1168
S'votesperuser'
p1186
sg1170
S''
sg1171
S''
sg1173
S'smallint(6)'
p1187
sa(dp1188
g1166
S''
sg1167
S'10000'
p1189
sg1168
S'maxvotesperbug'
p1190
sg1170
S''
sg1171
S''
sg1173
S'smallint(6)'
p1191
sa(dp1192
g1166
S''
sg1167
S'0'
sg1168
S'votestoconfirm'
p1193
sg1170
S''
sg1171
S''
sg1173
S'smallint(6)'
p1194
sa(dp1195
g1166
S''
sg1167
S'---'
p1196
sg1168
S'defaultmilestone'
p1197
sg1170
S''
sg1171
S''
sg1173
S'varchar(20)'
p1198
sa(ltp1199
sS'bugs_activity'
p1200
((lp1201
(dp1202
S'Extra'
p1203
S''
sS'Default'
p1204
S'0'
sS'Field'
p1205
S'bug_id'
p1206
sS'Key'
p1207
S'MUL'
p1208
sS'Null'
p1209
S''
sS'Type'
p1210
S'mediumint(9)'
p1211
sa(dp1212
g1203
S''
sg1204
S'0'
sg1205
S'who'
p1213
sg1207
S''
sg1209
S''
sg1210
S'mediumint(9)'
p1214
sa(dp1215
g1203
S''
sg1204
S'0000-00-00 00:00:00'
p1216
sg1205
S'bug_when'
p1217
sg1207
S'MUL'
p1218
sg1209
S''
sg1210
S'datetime'
p1219
sa(dp1220
g1203
S''
sg1204
S'0'
sg1205
S'fieldid'
p1221
sg1207
S'MUL'
p1222
sg1209
S''
sg1210
S'mediumint(9)'
p1223
sa(dp1224
g1203
S''
sg1204
Nsg1205
S'added'
p1225
sg1207
S''
sg1209
S'YES'
p1226
sg1210
S'tinytext'
p1227
sa(dp1228
g1203
S''
sg1204
Nsg1205
S'removed'
p1229
sg1207
S''
sg1209
S'YES'
p1230
sg1210
S'tinytext'
p1231
sa(lp1232
(dp1233
S'Comment'
p1234
S''
sS'Non_unique'
p1235
L1L
sS'Sub_part'
p1236
NsS'Index_type'
p1237
S'BTREE'
p1238
sS'Key_name'
p1239
S'bug_id'
p1240
sS'Collation'
p1241
S'A'
sS'Null'
p1242
S''
sS'Seq_in_index'
p1243
L1L
sS'Table'
p1244
S'bugs_activity'
p1245
sS'Cardinality'
p1246
NsS'Packed'
p1247
NsS'Column_name'
p1248
S'bug_id'
p1249
sa(dp1250
g1234
S''
sg1235
L1L
sg1236
Nsg1237
S'BTREE'
p1251
sg1239
S'bug_when'
p1252
sg1241
S'A'
sg1242
S''
sg1243
L1L
sg1244
S'bugs_activity'
p1253
sg1246
Nsg1247
Nsg1248
S'bug_when'
p1254
sa(dp1255
g1234
S''
sg1235
L1L
sg1236
Nsg1237
S'BTREE'
p1256
sg1239
S'fieldid'
p1257
sg1241
S'A'
sg1242
S''
sg1243
L1L
sg1244
S'bugs_activity'
p1258
sg1246
Nsg1247
Nsg1248
S'fieldid'
p1259
satp1260
st.