(S'2.16'
p1
(dp2
S'attachments'
p3
((lp4
(dp5
S'Extra'
p6
S'auto_increment'
p7
sS'Default'
p8
NsS'Field'
p9
S'attach_id'
p10
sS'Key'
p11
S'PRI'
p12
sS'Null'
p13
S''
sS'Type'
p14
S'mediumint(9)'
p15
sa(dp16
g6
S''
sg8
S'0'
sg9
S'bug_id'
p17
sg11
S'MUL'
p18
sg13
S''
sg14
S'mediumint(9)'
p19
sa(dp20
g6
S''
sg8
Nsg9
S'creation_ts'
p21
sg11
S'MUL'
p22
sg13
S'YES'
p23
sg14
S'timestamp(14)'
p24
sa(dp25
g6
S''
sg8
S''
sg9
S'description'
p26
sg11
S''
sg13
S''
sg14
S'mediumtext'
p27
sa(dp28
g6
S''
sg8
S''
sg9
S'mimetype'
p29
sg11
S''
sg13
S''
sg14
S'mediumtext'
p30
sa(dp31
g6
S''
sg8
Nsg9
S'ispatch'
p32
sg11
S''
sg13
S'YES'
p33
sg14
S'tinyint(4)'
p34
sa(dp35
g6
S''
sg8
S''
sg9
S'filename'
p36
sg11
S''
sg13
S''
sg14
S'mediumtext'
p37
sa(dp38
g6
S''
sg8
S''
sg9
S'thedata'
p39
sg11
S''
sg13
S''
sg14
S'longblob'
p40
sa(dp41
g6
S''
sg8
S'0'
sg9
S'submitter_id'
p42
sg11
S''
sg13
S''
sg14
S'mediumint(9)'
p43
sa(dp44
g6
S''
sg8
S'0'
sg9
S'isobsolete'
p45
sg11
S''
sg13
S''
sg14
S'tinyint(4)'
p46
sa(lp47
(dp48
S'Comment'
p49
S''
sS'Non_unique'
p50
L0L
sS'Sub_part'
p51
NsS'Index_type'
p52
S'BTREE'
p53
sS'Key_name'
p54
S'PRIMARY'
p55
sS'Collation'
p56
S'A'
sS'Null'
p57
S''
sS'Seq_in_index'
p58
L1L
sS'Table'
p59
S'attachments'
p60
sS'Cardinality'
p61
L0L
sS'Packed'
p62
NsS'Column_name'
p63
S'attach_id'
p64
sa(dp65
g49
S''
sg50
L1L
sg51
Nsg52
S'BTREE'
p66
sg54
S'bug_id'
p67
sg56
S'A'
sg57
S''
sg58
L1L
sg59
S'attachments'
p68
sg61
Nsg62
Nsg63
S'bug_id'
p69
sa(dp70
g49
S''
sg50
L1L
sg51
Nsg52
S'BTREE'
p71
sg54
S'creation_ts'
p72
sg56
S'A'
sg57
S''
sg58
L1L
sg59
S'attachments'
p73
sg61
Nsg62
Nsg63
S'creation_ts'
p74
satp75
sS'cc'
p76
((lp77
(dp78
S'Extra'
p79
S''
sS'Default'
p80
S'0'
sS'Field'
p81
S'bug_id'
p82
sS'Key'
p83
S'PRI'
p84
sS'Null'
p85
S''
sS'Type'
p86
S'mediumint(9)'
p87
sa(dp88
g79
S''
sg80
S'0'
sg81
S'who'
p89
sg83
S'PRI'
p90
sg85
S''
sg86
S'mediumint(9)'
p91
sa(lp92
(dp93
S'Comment'
p94
S''
sS'Non_unique'
p95
L0L
sS'Sub_part'
p96
NsS'Index_type'
p97
S'BTREE'
p98
sS'Key_name'
p99
S'bug_id'
p100
sS'Collation'
p101
S'A'
sS'Null'
p102
S''
sS'Seq_in_index'
p103
L1L
sS'Table'
p104
S'cc'
p105
sS'Cardinality'
p106
NsS'Packed'
p107
NsS'Column_name'
p108
S'bug_id'
p109
sa(dp110
g94
S''
sg95
L0L
sg96
Nsg97
S'BTREE'
p111
sg99
S'bug_id'
p112
sg101
S'A'
sg102
S''
sg103
L2L
sg104
S'cc'
p113
sg106
L0L
sg107
Nsg108
S'who'
p114
sa(dp115
g94
S''
sg95
L1L
sg96
Nsg97
S'BTREE'
p116
sg99
S'who'
p117
sg101
S'A'
sg102
S''
sg103
L1L
sg104
S'cc'
p118
sg106
Nsg107
Nsg108
S'who'
p119
satp120
sS'attachstatusdefs'
p121
((lp122
(dp123
S'Extra'
p124
S''
sS'Default'
p125
S'0'
sS'Field'
p126
S'id'
p127
sS'Key'
p128
S'PRI'
p129
sS'Null'
p130
S''
sS'Type'
p131
S'smallint(6)'
p132
sa(dp133
g124
S''
sg125
S''
sg126
S'name'
p134
sg128
S''
sg130
S''
sg131
S'varchar(50)'
p135
sa(dp136
g124
S''
sg125
Nsg126
S'description'
p137
sg128
S''
sg130
S'YES'
p138
sg131
S'mediumtext'
p139
sa(dp140
g124
S''
sg125
S'0'
sg126
S'sortkey'
p141
sg128
S''
sg130
S''
sg131
S'smallint(6)'
p142
sa(dp143
g124
S''
sg125
S''
sg126
S'product'
p144
sg128
S''
sg130
S''
sg131
S'varchar(64)'
p145
sa(lp146
(dp147
S'Comment'
p148
S''
sS'Non_unique'
p149
L0L
sS'Sub_part'
p150
NsS'Index_type'
p151
S'BTREE'
p152
sS'Key_name'
p153
S'PRIMARY'
p154
sS'Collation'
p155
S'A'
sS'Null'
p156
S''
sS'Seq_in_index'
p157
L1L
sS'Table'
p158
S'attachstatusdefs'
p159
sS'Cardinality'
p160
L0L
sS'Packed'
p161
NsS'Column_name'
p162
S'id'
p163
satp164
sS'keywords'
p165
((lp166
(dp167
S'Extra'
p168
S''
sS'Default'
p169
S'0'
sS'Field'
p170
S'bug_id'
p171
sS'Key'
p172
S'PRI'
p173
sS'Null'
p174
S''
sS'Type'
p175
S'mediumint(9)'
p176
sa(dp177
g168
S''
sg169
S'0'
sg170
S'keywordid'
p178
sg172
S'PRI'
p179
sg174
S''
sg175
S'smallint(6)'
p180
sa(lp181
(dp182
S'Comment'
p183
S''
sS'Non_unique'
p184
L0L
sS'Sub_part'
p185
NsS'Index_type'
p186
S'BTREE'
p187
sS'Key_name'
p188
S'bug_id'
p189
sS'Collation'
p190
S'A'
sS'Null'
p191
S''
sS'Seq_in_index'
p192
L1L
sS'Table'
p193
S'keywords'
p194
sS'Cardinality'
p195
NsS'Packed'
p196
NsS'Column_name'
p197
S'bug_id'
p198
sa(dp199
g183
S''
sg184
L0L
sg185
Nsg186
S'BTREE'
p200
sg188
S'bug_id'
p201
sg190
S'A'
sg191
S''
sg192
L2L
sg193
S'keywords'
p202
sg195
L0L
sg196
Nsg197
S'keywordid'
p203
sa(dp204
g183
S''
sg184
L1L
sg185
Nsg186
S'BTREE'
p205
sg188
S'keywordid'
p206
sg190
S'A'
sg191
S''
sg192
L1L
sg193
S'keywords'
p207
sg195
Nsg196
Nsg197
S'keywordid'
p208
satp209
sS'keyworddefs'
p210
((lp211
(dp212
S'Extra'
p213
S''
sS'Default'
p214
S'0'
sS'Field'
p215
S'id'
p216
sS'Key'
p217
S'PRI'
p218
sS'Null'
p219
S''
sS'Type'
p220
S'smallint(6)'
p221
sa(dp222
g213
S''
sg214
S''
sg215
S'name'
p223
sg217
S'UNI'
p224
sg219
S''
sg220
S'varchar(64)'
p225
sa(dp226
g213
S''
sg214
Nsg215
S'description'
p227
sg217
S''
sg219
S'YES'
p228
sg220
S'mediumtext'
p229
sa(lp230
(dp231
S'Comment'
p232
S''
sS'Non_unique'
p233
L0L
sS'Sub_part'
p234
NsS'Index_type'
p235
S'BTREE'
p236
sS'Key_name'
p237
S'PRIMARY'
p238
sS'Collation'
p239
S'A'
sS'Null'
p240
S''
sS'Seq_in_index'
p241
L1L
sS'Table'
p242
S'keyworddefs'
p243
sS'Cardinality'
p244
L0L
sS'Packed'
p245
NsS'Column_name'
p246
S'id'
p247
sa(dp248
g232
S''
sg233
L0L
sg234
Nsg235
S'BTREE'
p249
sg237
S'name'
p250
sg239
S'A'
sg240
S''
sg241
L1L
sg242
S'keyworddefs'
p251
sg244
L0L
sg245
Nsg246
S'name'
p252
satp253
sS'votes'
p254
((lp255
(dp256
S'Extra'
p257
S''
sS'Default'
p258
S'0'
sS'Field'
p259
S'who'
p260
sS'Key'
p261
S'MUL'
p262
sS'Null'
p263
S''
sS'Type'
p264
S'mediumint(9)'
p265
sa(dp266
g257
S''
sg258
S'0'
sg259
S'bug_id'
p267
sg261
S'MUL'
p268
sg263
S''
sg264
S'mediumint(9)'
p269
sa(dp270
g257
S''
sg258
S'0'
sg259
S'count'
p271
sg261
S''
sg263
S''
sg264
S'smallint(6)'
p272
sa(lp273
(dp274
S'Comment'
p275
S''
sS'Non_unique'
p276
L1L
sS'Sub_part'
p277
NsS'Index_type'
p278
S'BTREE'
p279
sS'Key_name'
p280
S'who'
p281
sS'Collation'
p282
S'A'
sS'Null'
p283
S''
sS'Seq_in_index'
p284
L1L
sS'Table'
p285
S'votes'
p286
sS'Cardinality'
p287
NsS'Packed'
p288
NsS'Column_name'
p289
S'who'
p290
sa(dp291
g275
S''
sg276
L1L
sg277
Nsg278
S'BTREE'
p292
sg280
S'bug_id'
p293
sg282
S'A'
sg283
S''
sg284
L1L
sg285
S'votes'
p294
sg287
Nsg288
Nsg289
S'bug_id'
p295
satp296
sS'duplicates'
p297
((lp298
(dp299
S'Extra'
p300
S''
sS'Default'
p301
S'0'
sS'Field'
p302
S'dupe_of'
p303
sS'Key'
p304
S''
sS'Null'
p305
S''
sS'Type'
p306
S'mediumint(9)'
p307
sa(dp308
g300
S''
sg301
S'0'
sg302
S'dupe'
p309
sg304
S'PRI'
p310
sg305
S''
sg306
S'mediumint(9)'
p311
sa(lp312
(dp313
S'Comment'
p314
S''
sS'Non_unique'
p315
L0L
sS'Sub_part'
p316
NsS'Index_type'
p317
S'BTREE'
p318
sS'Key_name'
p319
S'PRIMARY'
p320
sS'Collation'
p321
S'A'
sS'Null'
p322
S''
sS'Seq_in_index'
p323
L1L
sS'Table'
p324
S'duplicates'
p325
sS'Cardinality'
p326
L0L
sS'Packed'
p327
NsS'Column_name'
p328
S'dupe'
p329
satp330
sS'logincookies'
p331
((lp332
(dp333
S'Extra'
p334
S'auto_increment'
p335
sS'Default'
p336
NsS'Field'
p337
S'cookie'
p338
sS'Key'
p339
S'PRI'
p340
sS'Null'
p341
S''
sS'Type'
p342
S'mediumint(9)'
p343
sa(dp344
g334
S''
sg336
S'0'
sg337
S'userid'
p345
sg339
S''
sg341
S''
sg342
S'mediumint(9)'
p346
sa(dp347
g334
S''
sg336
S''
sg337
S'ipaddr'
p348
sg339
S''
sg341
S''
sg342
S'varchar(40)'
p349
sa(dp350
g334
S''
sg336
Nsg337
S'lastused'
p351
sg339
S'MUL'
p352
sg341
S'YES'
p353
sg342
S'timestamp(14)'
p354
sa(lp355
(dp356
S'Comment'
p357
S''
sS'Non_unique'
p358
L0L
sS'Sub_part'
p359
NsS'Index_type'
p360
S'BTREE'
p361
sS'Key_name'
p362
S'PRIMARY'
p363
sS'Collation'
p364
S'A'
sS'Null'
p365
S''
sS'Seq_in_index'
p366
L1L
sS'Table'
p367
S'logincookies'
p368
sS'Cardinality'
p369
L0L
sS'Packed'
p370
NsS'Column_name'
p371
S'cookie'
p372
sa(dp373
g357
S''
sg358
L1L
sg359
Nsg360
S'BTREE'
p374
sg362
S'lastused'
p375
sg364
S'A'
sg365
S''
sg366
L1L
sg367
S'logincookies'
p376
sg369
Nsg370
Nsg371
S'lastused'
p377
satp378
sS'fielddefs'
p379
((lp380
(dp381
S'Extra'
p382
S'auto_increment'
p383
sS'Default'
p384
NsS'Field'
p385
S'fieldid'
p386
sS'Key'
p387
S'PRI'
p388
sS'Null'
p389
S''
sS'Type'
p390
S'mediumint(9)'
p391
sa(dp392
g382
S''
sg384
S''
sg385
S'name'
p393
sg387
S'UNI'
p394
sg389
S''
sg390
S'varchar(64)'
p395
sa(dp396
g382
S''
sg384
S''
sg385
S'description'
p397
sg387
S''
sg389
S''
sg390
S'mediumtext'
p398
sa(dp399
g382
S''
sg384
S'0'
sg385
S'mailhead'
p400
sg387
S''
sg389
S''
sg390
S'tinyint(4)'
p401
sa(dp402
g382
S''
sg384
S'0'
sg385
S'sortkey'
p403
sg387
S'MUL'
p404
sg389
S''
sg390
S'smallint(6)'
p405
sa(lp406
(dp407
S'Comment'
p408
S''
sS'Non_unique'
p409
L0L
sS'Sub_part'
p410
NsS'Index_type'
p411
S'BTREE'
p412
sS'Key_name'
p413
S'PRIMARY'
p414
sS'Collation'
p415
S'A'
sS'Null'
p416
S''
sS'Seq_in_index'
p417
L1L
sS'Table'
p418
S'fielddefs'
p419
sS'Cardinality'
p420
L31L
sS'Packed'
p421
NsS'Column_name'
p422
S'fieldid'
p423
sa(dp424
g408
S''
sg409
L0L
sg410
Nsg411
S'BTREE'
p425
sg413
S'name'
p426
sg415
S'A'
sg416
S''
sg417
L1L
sg418
S'fielddefs'
p427
sg420
L31L
sg421
Nsg422
S'name'
p428
sa(dp429
g408
S''
sg409
L1L
sg410
Nsg411
S'BTREE'
p430
sg413
S'sortkey'
p431
sg415
S'A'
sg416
S''
sg417
L1L
sg418
S'fielddefs'
p432
sg420
Nsg421
Nsg422
S'sortkey'
p433
satp434
sS'shadowlog'
p435
((lp436
(dp437
S'Extra'
p438
S'auto_increment'
p439
sS'Default'
p440
NsS'Field'
p441
S'id'
p442
sS'Key'
p443
S'PRI'
p444
sS'Null'
p445
S''
sS'Type'
p446
S'int(11)'
p447
sa(dp448
g438
S''
sg440
Nsg441
S'ts'
p449
sg443
S''
sg445
S'YES'
p450
sg446
S'timestamp(14)'
p451
sa(dp452
g438
S''
sg440
S'0'
sg441
S'reflected'
p453
sg443
S'MUL'
p454
sg445
S''
sg446
S'tinyint(4)'
p455
sa(dp456
g438
S''
sg440
S''
sg441
S'command'
p457
sg443
S''
sg445
S''
sg446
S'mediumtext'
p458
sa(lp459
(dp460
S'Comment'
p461
S''
sS'Non_unique'
p462
L0L
sS'Sub_part'
p463
NsS'Index_type'
p464
S'BTREE'
p465
sS'Key_name'
p466
S'PRIMARY'
p467
sS'Collation'
p468
S'A'
sS'Null'
p469
S''
sS'Seq_in_index'
p470
L1L
sS'Table'
p471
S'shadowlog'
p472
sS'Cardinality'
p473
L0L
sS'Packed'
p474
NsS'Column_name'
p475
S'id'
p476
sa(dp477
g461
S''
sg462
L1L
sg463
Nsg464
S'BTREE'
p478
sg466
S'reflected'
p479
sg468
S'A'
sg469
S''
sg470
L1L
sg471
S'shadowlog'
p480
sg473
Nsg474
Nsg475
S'reflected'
p481
satp482
sS'profiles_activity'
p483
((lp484
(dp485
S'Extra'
p486
S''
sS'Default'
p487
S'0'
sS'Field'
p488
S'userid'
p489
sS'Key'
p490
S'MUL'
p491
sS'Null'
p492
S''
sS'Type'
p493
S'mediumint(9)'
p494
sa(dp495
g486
S''
sg487
S'0'
sg488
S'who'
p496
sg490
S''
sg492
S''
sg493
S'mediumint(9)'
p497
sa(dp498
g486
S''
sg487
S'0000-00-00 00:00:00'
p499
sg488
S'profiles_when'
p500
sg490
S'MUL'
p501
sg492
S''
sg493
S'datetime'
p502
sa(dp503
g486
S''
sg487
S'0'
sg488
S'fieldid'
p504
sg490
S'MUL'
p505
sg492
S''
sg493
S'mediumint(9)'
p506
sa(dp507
g486
S''
sg487
Nsg488
S'oldvalue'
p508
sg490
S''
sg492
S'YES'
p509
sg493
S'tinytext'
p510
sa(dp511
g486
S''
sg487
Nsg488
S'newvalue'
p512
sg490
S''
sg492
S'YES'
p513
sg493
S'tinytext'
p514
sa(lp515
(dp516
S'Comment'
p517
S''
sS'Non_unique'
p518
L1L
sS'Sub_part'
p519
NsS'Index_type'
p520
S'BTREE'
p521
sS'Key_name'
p522
S'userid'
p523
sS'Collation'
p524
S'A'
sS'Null'
p525
S''
sS'Seq_in_index'
p526
L1L
sS'Table'
p527
S'profiles_activity'
p528
sS'Cardinality'
p529
NsS'Packed'
p530
NsS'Column_name'
p531
S'userid'
p532
sa(dp533
g517
S''
sg518
L1L
sg519
Nsg520
S'BTREE'
p534
sg522
S'profiles_when'
p535
sg524
S'A'
sg525
S''
sg526
L1L
sg527
S'profiles_activity'
p536
sg529
Nsg530
Nsg531
S'profiles_when'
p537
sa(dp538
g517
S''
sg518
L1L
sg519
Nsg520
S'BTREE'
p539
sg522
S'fieldid'
p540
sg524
S'A'
sg525
S''
sg526
L1L
sg527
S'profiles_activity'
p541
sg529
Nsg530
Nsg531
S'fieldid'
p542
satp543
sS'bugs_activity'
p544
((lp545
(dp546
S'Extra'
p547
S''
sS'Default'
p548
S'0'
sS'Field'
p549
S'bug_id'
p550
sS'Key'
p551
S'MUL'
p552
sS'Null'
p553
S''
sS'Type'
p554
S'mediumint(9)'
p555
sa(dp556
g547
S''
sg548
Nsg549
S'attach_id'
p557
sg551
S''
sg553
S'YES'
p558
sg554
S'mediumint(9)'
p559
sa(dp560
g547
S''
sg548
S'0'
sg549
S'who'
p561
sg551
S''
sg553
S''
sg554
S'mediumint(9)'
p562
sa(dp563
g547
S''
sg548
S'0000-00-00 00:00:00'
p564
sg549
S'bug_when'
p565
sg551
S'MUL'
p566
sg553
S''
sg554
S'datetime'
p567
sa(dp568
g547
S''
sg548
S'0'
sg549
S'fieldid'
p569
sg551
S'MUL'
p570
sg553
S''
sg554
S'mediumint(9)'
p571
sa(dp572
g547
S''
sg548
Nsg549
S'added'
p573
sg551
S''
sg553
S'YES'
p574
sg554
S'tinytext'
p575
sa(dp576
g547
S''
sg548
Nsg549
S'removed'
p577
sg551
S''
sg553
S'YES'
p578
sg554
S'tinytext'
p579
sa(lp580
(dp581
S'Comment'
p582
S''
sS'Non_unique'
p583
L1L
sS'Sub_part'
p584
NsS'Index_type'
p585
S'BTREE'
p586
sS'Key_name'
p587
S'bug_id'
p588
sS'Collation'
p589
S'A'
sS'Null'
p590
S''
sS'Seq_in_index'
p591
L1L
sS'Table'
p592
S'bugs_activity'
p593
sS'Cardinality'
p594
NsS'Packed'
p595
NsS'Column_name'
p596
S'bug_id'
p597
sa(dp598
g582
S''
sg583
L1L
sg584
Nsg585
S'BTREE'
p599
sg587
S'bug_when'
p600
sg589
S'A'
sg590
S''
sg591
L1L
sg592
S'bugs_activity'
p601
sg594
Nsg595
Nsg596
S'bug_when'
p602
sa(dp603
g582
S''
sg583
L1L
sg584
Nsg585
S'BTREE'
p604
sg587
S'fieldid'
p605
sg589
S'A'
sg590
S''
sg591
L1L
sg592
S'bugs_activity'
p606
sg594
Nsg595
Nsg596
S'fieldid'
p607
satp608
sS'watch'
p609
((lp610
(dp611
S'Extra'
p612
S''
sS'Default'
p613
S'0'
sS'Field'
p614
S'watcher'
p615
sS'Key'
p616
S'PRI'
p617
sS'Null'
p618
S''
sS'Type'
p619
S'mediumint(9)'
p620
sa(dp621
g612
S''
sg613
S'0'
sg614
S'watched'
p622
sg616
S'PRI'
p623
sg618
S''
sg619
S'mediumint(9)'
p624
sa(lp625
(dp626
S'Comment'
p627
S''
sS'Non_unique'
p628
L0L
sS'Sub_part'
p629
NsS'Index_type'
p630
S'BTREE'
p631
sS'Key_name'
p632
S'watcher'
p633
sS'Collation'
p634
S'A'
sS'Null'
p635
S''
sS'Seq_in_index'
p636
L1L
sS'Table'
p637
S'watch'
p638
sS'Cardinality'
p639
NsS'Packed'
p640
NsS'Column_name'
p641
S'watcher'
p642
sa(dp643
g627
S''
sg628
L0L
sg629
Nsg630
S'BTREE'
p644
sg632
S'watcher'
p645
sg634
S'A'
sg635
S''
sg636
L2L
sg637
S'watch'
p646
sg639
L0L
sg640
Nsg641
S'watched'
p647
sa(dp648
g627
S''
sg628
L1L
sg629
Nsg630
S'BTREE'
p649
sg632
S'watched'
p650
sg634
S'A'
sg635
S''
sg636
L1L
sg637
S'watch'
p651
sg639
Nsg640
Nsg641
S'watched'
p652
satp653
sS'namedqueries'
p654
((lp655
(dp656
S'Extra'
p657
S''
sS'Default'
p658
S'0'
sS'Field'
p659
S'userid'
p660
sS'Key'
p661
S'PRI'
p662
sS'Null'
p663
S''
sS'Type'
p664
S'mediumint(9)'
p665
sa(dp666
g657
S''
sg658
S''
sg659
S'name'
p667
sg661
S'PRI'
p668
sg663
S''
sg664
S'varchar(64)'
p669
sa(dp670
g657
S''
sg658
S'0'
sg659
S'watchfordiffs'
p671
sg661
S'MUL'
p672
sg663
S''
sg664
S'tinyint(4)'
p673
sa(dp674
g657
S''
sg658
S'0'
sg659
S'linkinfooter'
p675
sg661
S''
sg663
S''
sg664
S'tinyint(4)'
p676
sa(dp677
g657
S''
sg658
S''
sg659
S'query'
p678
sg661
S''
sg663
S''
sg664
S'mediumtext'
p679
sa(lp680
(dp681
S'Comment'
p682
S''
sS'Non_unique'
p683
L0L
sS'Sub_part'
p684
NsS'Index_type'
p685
S'BTREE'
p686
sS'Key_name'
p687
S'userid'
p688
sS'Collation'
p689
S'A'
sS'Null'
p690
S''
sS'Seq_in_index'
p691
L1L
sS'Table'
p692
S'namedqueries'
p693
sS'Cardinality'
p694
NsS'Packed'
p695
NsS'Column_name'
p696
S'userid'
p697
sa(dp698
g682
S''
sg683
L0L
sg684
Nsg685
S'BTREE'
p699
sg687
S'userid'
p700
sg689
S'A'
sg690
S''
sg691
L2L
sg692
S'namedqueries'
p701
sg694
L0L
sg695
Nsg696
S'name'
p702
sa(dp703
g682
S''
sg683
L1L
sg684
Nsg685
S'BTREE'
p704
sg687
S'watchfordiffs'
p705
sg689
S'A'
sg690
S''
sg691
L1L
sg692
S'namedqueries'
p706
sg694
Nsg695
Nsg696
S'watchfordiffs'
p707
satp708
sS'tokens'
p709
((lp710
(dp711
S'Extra'
p712
S''
sS'Default'
p713
S'0'
sS'Field'
p714
S'userid'
p715
sS'Key'
p716
S'MUL'
p717
sS'Null'
p718
S''
sS'Type'
p719
S'mediumint(9)'
p720
sa(dp721
g712
S''
sg713
S'0000-00-00 00:00:00'
p722
sg714
S'issuedate'
p723
sg716
S''
sg718
S''
sg719
S'datetime'
p724
sa(dp725
g712
S''
sg713
S''
sg714
S'token'
p726
sg716
S'PRI'
p727
sg718
S''
sg719
S'varchar(16)'
p728
sa(dp729
g712
S''
sg713
S''
sg714
S'tokentype'
p730
sg716
S''
sg718
S''
sg719
S'varchar(8)'
p731
sa(dp732
g712
S''
sg713
Nsg714
S'eventdata'
p733
sg716
S''
sg718
S'YES'
p734
sg719
S'tinytext'
p735
sa(lp736
(dp737
S'Comment'
p738
S''
sS'Non_unique'
p739
L0L
sS'Sub_part'
p740
NsS'Index_type'
p741
S'BTREE'
p742
sS'Key_name'
p743
S'PRIMARY'
p744
sS'Collation'
p745
S'A'
sS'Null'
p746
S''
sS'Seq_in_index'
p747
L1L
sS'Table'
p748
S'tokens'
p749
sS'Cardinality'
p750
L0L
sS'Packed'
p751
NsS'Column_name'
p752
S'token'
p753
sa(dp754
g738
S''
sg739
L1L
sg740
Nsg741
S'BTREE'
p755
sg743
S'userid'
p756
sg745
S'A'
sg746
S''
sg747
L1L
sg748
S'tokens'
p757
sg750
Nsg751
Nsg752
S'userid'
p758
satp759
sS'attachstatuses'
p760
((lp761
(dp762
S'Extra'
p763
S''
sS'Default'
p764
S'0'
sS'Field'
p765
S'attach_id'
p766
sS'Key'
p767
S'PRI'
p768
sS'Null'
p769
S''
sS'Type'
p770
S'mediumint(9)'
p771
sa(dp772
g763
S''
sg764
S'0'
sg765
S'statusid'
p773
sg767
S'PRI'
p774
sg769
S''
sg770
S'smallint(6)'
p775
sa(lp776
(dp777
S'Comment'
p778
S''
sS'Non_unique'
p779
L0L
sS'Sub_part'
p780
NsS'Index_type'
p781
S'BTREE'
p782
sS'Key_name'
p783
S'PRIMARY'
p784
sS'Collation'
p785
S'A'
sS'Null'
p786
S''
sS'Seq_in_index'
p787
L1L
sS'Table'
p788
S'attachstatuses'
p789
sS'Cardinality'
p790
NsS'Packed'
p791
NsS'Column_name'
p792
S'attach_id'
p793
sa(dp794
g778
S''
sg779
L0L
sg780
Nsg781
S'BTREE'
p795
sg783
S'PRIMARY'
p796
sg785
S'A'
sg786
S''
sg787
L2L
sg788
S'attachstatuses'
p797
sg790
L0L
sg791
Nsg792
S'statusid'
p798
satp799
sS'groups'
p800
((lp801
(dp802
S'Extra'
p803
S''
sS'Default'
p804
S'0'
sS'Field'
p805
S'bit'
p806
sS'Key'
p807
S'PRI'
p808
sS'Null'
p809
S''
sS'Type'
p810
S'bigint(20)'
p811
sa(dp812
g803
S''
sg804
S''
sg805
S'name'
p813
sg807
S'UNI'
p814
sg809
S''
sg810
S'varchar(255)'
p815
sa(dp816
g803
S''
sg804
S''
sg805
S'description'
p817
sg807
S''
sg809
S''
sg810
S'text'
p818
sa(dp819
g803
S''
sg804
S'0'
sg805
S'isbuggroup'
p820
sg807
S''
sg809
S''
sg810
S'tinyint(4)'
p821
sa(dp822
g803
S''
sg804
S''
sg805
S'userregexp'
p823
sg807
S''
sg809
S''
sg810
S'tinytext'
p824
sa(dp825
g803
S''
sg804
S'1'
sg805
S'isactive'
p826
sg807
S''
sg809
S''
sg810
S'tinyint(4)'
p827
sa(lp828
(dp829
S'Comment'
p830
S''
sS'Non_unique'
p831
L0L
sS'Sub_part'
p832
NsS'Index_type'
p833
S'BTREE'
p834
sS'Key_name'
p835
S'bit'
p836
sS'Collation'
p837
S'A'
sS'Null'
p838
S''
sS'Seq_in_index'
p839
L1L
sS'Table'
p840
S'groups'
p841
sS'Cardinality'
p842
L7L
sS'Packed'
p843
NsS'Column_name'
p844
S'bit'
p845
sa(dp846
g830
S''
sg831
L0L
sg832
Nsg833
S'BTREE'
p847
sg835
S'name'
p848
sg837
S'A'
sg838
S''
sg839
L1L
sg840
S'groups'
p849
sg842
L7L
sg843
Nsg844
S'name'
p850
satp851
sS'milestones'
p852
((lp853
(dp854
S'Extra'
p855
S''
sS'Default'
p856
S''
sS'Field'
p857
S'value'
p858
sS'Key'
p859
S'PRI'
p860
sS'Null'
p861
S''
sS'Type'
p862
S'varchar(20)'
p863
sa(dp864
g855
S''
sg856
S''
sg857
S'product'
p865
sg859
S'PRI'
p866
sg861
S''
sg862
S'varchar(64)'
p867
sa(dp868
g855
S''
sg856
S'0'
sg857
S'sortkey'
p869
sg859
S''
sg861
S''
sg862
S'smallint(6)'
p870
sa(lp871
(dp872
S'Comment'
p873
S''
sS'Non_unique'
p874
L0L
sS'Sub_part'
p875
NsS'Index_type'
p876
S'BTREE'
p877
sS'Key_name'
p878
S'product'
p879
sS'Collation'
p880
S'A'
sS'Null'
p881
S''
sS'Seq_in_index'
p882
L1L
sS'Table'
p883
S'milestones'
p884
sS'Cardinality'
p885
NsS'Packed'
p886
NsS'Column_name'
p887
S'product'
p888
sa(dp889
g873
S''
sg874
L0L
sg875
Nsg876
S'BTREE'
p890
sg878
S'product'
p891
sg880
S'A'
sg881
S''
sg882
L2L
sg883
S'milestones'
p892
sg885
L0L
sg886
Nsg887
S'value'
p893
satp894
sS'longdescs'
p895
((lp896
(dp897
S'Extra'
p898
S''
sS'Default'
p899
S'0'
sS'Field'
p900
S'bug_id'
p901
sS'Key'
p902
S'MUL'
p903
sS'Null'
p904
S''
sS'Type'
p905
S'mediumint(9)'
p906
sa(dp907
g898
S''
sg899
S'0'
sg900
S'who'
p908
sg902
S'MUL'
p909
sg904
S''
sg905
S'mediumint(9)'
p910
sa(dp911
g898
S''
sg899
S'0000-00-00 00:00:00'
p912
sg900
S'bug_when'
p913
sg902
S'MUL'
p914
sg904
S''
sg905
S'datetime'
p915
sa(dp916
g898
S''
sg899
Nsg900
S'thetext'
p917
sg902
S''
sg904
S'YES'
p918
sg905
S'mediumtext'
p919
sa(lp920
(dp921
S'Comment'
p922
S''
sS'Non_unique'
p923
L1L
sS'Sub_part'
p924
NsS'Index_type'
p925
S'BTREE'
p926
sS'Key_name'
p927
S'bug_id'
p928
sS'Collation'
p929
S'A'
sS'Null'
p930
S''
sS'Seq_in_index'
p931
L1L
sS'Table'
p932
S'longdescs'
p933
sS'Cardinality'
p934
NsS'Packed'
p935
NsS'Column_name'
p936
S'bug_id'
p937
sa(dp938
g922
S''
sg923
L1L
sg924
Nsg925
S'BTREE'
p939
sg927
S'who'
p940
sg929
S'A'
sg930
S''
sg931
L1L
sg932
S'longdescs'
p941
sg934
Nsg935
Nsg936
S'who'
p942
sa(dp943
g922
S''
sg923
L1L
sg924
Nsg925
S'BTREE'
p944
sg927
S'bug_when'
p945
sg929
S'A'
sg930
S''
sg931
L1L
sg932
S'longdescs'
p946
sg934
Nsg935
Nsg936
S'bug_when'
p947
satp948
sS'versions'
p949
((lp950
(dp951
S'Extra'
p952
S''
sS'Default'
p953
NsS'Field'
p954
S'value'
p955
sS'Key'
p956
S''
sS'Null'
p957
S'YES'
p958
sS'Type'
p959
S'tinytext'
p960
sa(dp961
g952
S''
sg953
S''
sg954
S'program'
p962
sg956
S''
sg957
S''
sg959
S'varchar(64)'
p963
sa(ltp964
sS'bugs'
p965
((lp966
(dp967
S'Extra'
p968
S'auto_increment'
p969
sS'Default'
p970
NsS'Field'
p971
S'bug_id'
p972
sS'Key'
p973
S'PRI'
p974
sS'Null'
p975
S''
sS'Type'
p976
S'mediumint(9)'
p977
sa(dp978
g968
S''
sg970
S'0'
sg971
S'groupset'
p979
sg973
S''
sg975
S''
sg976
S'bigint(20)'
p980
sa(dp981
g968
S''
sg970
S'0'
sg971
S'assigned_to'
p982
sg973
S'MUL'
p983
sg975
S''
sg976
S'mediumint(9)'
p984
sa(dp985
g968
S''
sg970
Nsg971
S'bug_file_loc'
p986
sg973
S''
sg975
S'YES'
p987
sg976
S'text'
p988
sa(dp989
g968
S''
sg970
S'blocker'
p990
sg971
S'bug_severity'
p991
sg973
S'MUL'
p992
sg975
S''
sg976
S"enum('blocker','critical','major','normal','minor','trivial','enhancement')"
p993
sa(dp994
g968
S''
sg970
S'UNCONFIRMED'
p995
sg971
S'bug_status'
p996
sg973
S'MUL'
p997
sg975
S''
sg976
S"enum('UNCONFIRMED','NEW','ASSIGNED','REOPENED','RESOLVED','VERIFIED','CLOSED')"
p998
sa(dp999
g968
S''
sg970
S'0000-00-00 00:00:00'
p1000
sg971
S'creation_ts'
p1001
sg973
S'MUL'
p1002
sg975
S''
sg976
S'datetime'
p1003
sa(dp1004
g968
S''
sg970
Nsg971
S'delta_ts'
p1005
sg973
S'MUL'
p1006
sg975
S'YES'
p1007
sg976
S'timestamp(14)'
p1008
sa(dp1009
g968
S''
sg970
Nsg971
S'short_desc'
p1010
sg973
S''
sg975
S'YES'
p1011
sg976
S'mediumtext'
p1012
sa(dp1013
g968
S''
sg970
S'All'
p1014
sg971
S'op_sys'
p1015
sg973
S'MUL'
p1016
sg975
S''
sg976
S"enum('All','Windows 3.1','Windows 95','Windows 98','Windows ME','Windows 2000','Windows NT','Windows XP','Mac System 7','Mac System 7.5','Mac System 7.6.1','Mac System 8.0','Mac System 8.5','Mac System 8.6','Mac System 9.x','MacOS X','Linux','BSDI','FreeBSD','NetBSD','OpenBSD','AIX','BeOS','HP-UX','IRIX','Neutrino','OpenVMS','OS/2','OSF/1','Solaris','SunOS','other')"
p1017
sa(dp1018
g968
S''
sg970
S'P1'
p1019
sg971
S'priority'
p1020
sg973
S'MUL'
p1021
sg975
S''
sg976
S"enum('P1','P2','P3','P4','P5')"
p1022
sa(dp1023
g968
S''
sg970
S''
sg971
S'product'
p1024
sg973
S'MUL'
p1025
sg975
S''
sg976
S'varchar(64)'
p1026
sa(dp1027
g968
S''
sg970
Nsg971
S'rep_platform'
p1028
sg973
S''
sg975
S'YES'
p1029
sg976
S"enum('All','DEC','HP','Macintosh','PC','SGI','Sun','Other')"
p1030
sa(dp1031
g968
S''
sg970
S'0'
sg971
S'reporter'
p1032
sg973
S'MUL'
p1033
sg975
S''
sg976
S'mediumint(9)'
p1034
sa(dp1035
g968
S''
sg970
S''
sg971
S'version'
p1036
sg973
S'MUL'
p1037
sg975
S''
sg976
S'varchar(64)'
p1038
sa(dp1039
g968
S''
sg970
S''
sg971
S'component'
p1040
sg973
S'MUL'
p1041
sg975
S''
sg976
S'varchar(50)'
p1042
sa(dp1043
g968
S''
sg970
S''
sg971
S'resolution'
p1044
sg973
S'MUL'
p1045
sg975
S''
sg976
S"enum('','FIXED','INVALID','WONTFIX','LATER','REMIND','DUPLICATE','WORKSFORME','MOVED')"
p1046
sa(dp1047
g968
S''
sg970
S'---'
p1048
sg971
S'target_milestone'
p1049
sg973
S'MUL'
p1050
sg975
S''
sg976
S'varchar(20)'
p1051
sa(dp1052
g968
S''
sg970
S'0'
sg971
S'qa_contact'
p1053
sg973
S'MUL'
p1054
sg975
S''
sg976
S'mediumint(9)'
p1055
sa(dp1056
g968
S''
sg970
S''
sg971
S'status_whiteboard'
p1057
sg973
S''
sg975
S''
sg976
S'mediumtext'
p1058
sa(dp1059
g968
S''
sg970
S'0'
sg971
S'votes'
p1060
sg973
S'MUL'
p1061
sg975
S''
sg976
S'mediumint(9)'
p1062
sa(dp1063
g968
S''
sg970
S''
sg971
S'keywords'
p1064
sg973
S''
sg975
S''
sg976
S'mediumtext'
p1065
sa(dp1066
g968
S''
sg970
S'0000-00-00 00:00:00'
p1067
sg971
S'lastdiffed'
p1068
sg973
S''
sg975
S''
sg976
S'datetime'
p1069
sa(dp1070
g968
S''
sg970
S'0'
sg971
S'everconfirmed'
p1071
sg973
S''
sg975
S''
sg976
S'tinyint(4)'
p1072
sa(dp1073
g968
S''
sg970
S'1'
sg971
S'reporter_accessible'
p1074
sg973
S''
sg975
S''
sg976
S'tinyint(4)'
p1075
sa(dp1076
g968
S''
sg970
S'1'
sg971
S'cclist_accessible'
p1077
sg973
S''
sg975
S''
sg976
S'tinyint(4)'
p1078
sa(lp1079
(dp1080
S'Comment'
p1081
S''
sS'Non_unique'
p1082
L0L
sS'Sub_part'
p1083
NsS'Index_type'
p1084
S'BTREE'
p1085
sS'Key_name'
p1086
S'PRIMARY'
p1087
sS'Collation'
p1088
S'A'
sS'Null'
p1089
S''
sS'Seq_in_index'
p1090
L1L
sS'Table'
p1091
S'bugs'
p1092
sS'Cardinality'
p1093
L0L
sS'Packed'
p1094
NsS'Column_name'
p1095
S'bug_id'
p1096
sa(dp1097
g1081
S''
sg1082
L1L
sg1083
Nsg1084
S'BTREE'
p1098
sg1086
S'assigned_to'
p1099
sg1088
S'A'
sg1089
S''
sg1090
L1L
sg1091
S'bugs'
p1100
sg1093
Nsg1094
Nsg1095
S'assigned_to'
p1101
sa(dp1102
g1081
S''
sg1082
L1L
sg1083
Nsg1084
S'BTREE'
p1103
sg1086
S'creation_ts'
p1104
sg1088
S'A'
sg1089
S''
sg1090
L1L
sg1091
S'bugs'
p1105
sg1093
Nsg1094
Nsg1095
S'creation_ts'
p1106
sa(dp1107
g1081
S''
sg1082
L1L
sg1083
Nsg1084
S'BTREE'
p1108
sg1086
S'delta_ts'
p1109
sg1088
S'A'
sg1089
S''
sg1090
L1L
sg1091
S'bugs'
p1110
sg1093
Nsg1094
Nsg1095
S'delta_ts'
p1111
sa(dp1112
g1081
S''
sg1082
L1L
sg1083
Nsg1084
S'BTREE'
p1113
sg1086
S'bug_severity'
p1114
sg1088
S'A'
sg1089
S''
sg1090
L1L
sg1091
S'bugs'
p1115
sg1093
Nsg1094
Nsg1095
S'bug_severity'
p1116
sa(dp1117
g1081
S''
sg1082
L1L
sg1083
Nsg1084
S'BTREE'
p1118
sg1086
S'bug_status'
p1119
sg1088
S'A'
sg1089
S''
sg1090
L1L
sg1091
S'bugs'
p1120
sg1093
Nsg1094
Nsg1095
S'bug_status'
p1121
sa(dp1122
g1081
S''
sg1082
L1L
sg1083
Nsg1084
S'BTREE'
p1123
sg1086
S'op_sys'
p1124
sg1088
S'A'
sg1089
S''
sg1090
L1L
sg1091
S'bugs'
p1125
sg1093
Nsg1094
Nsg1095
S'op_sys'
p1126
sa(dp1127
g1081
S''
sg1082
L1L
sg1083
Nsg1084
S'BTREE'
p1128
sg1086
S'priority'
p1129
sg1088
S'A'
sg1089
S''
sg1090
L1L
sg1091
S'bugs'
p1130
sg1093
Nsg1094
Nsg1095
S'priority'
p1131
sa(dp1132
g1081
S''
sg1082
L1L
sg1083
Nsg1084
S'BTREE'
p1133
sg1086
S'product'
p1134
sg1088
S'A'
sg1089
S''
sg1090
L1L
sg1091
S'bugs'
p1135
sg1093
Nsg1094
Nsg1095
S'product'
p1136
sa(dp1137
g1081
S''
sg1082
L1L
sg1083
Nsg1084
S'BTREE'
p1138
sg1086
S'reporter'
p1139
sg1088
S'A'
sg1089
S''
sg1090
L1L
sg1091
S'bugs'
p1140
sg1093
Nsg1094
Nsg1095
S'reporter'
p1141
sa(dp1142
g1081
S''
sg1082
L1L
sg1083
Nsg1084
S'BTREE'
p1143
sg1086
S'version'
p1144
sg1088
S'A'
sg1089
S''
sg1090
L1L
sg1091
S'bugs'
p1145
sg1093
Nsg1094
Nsg1095
S'version'
p1146
sa(dp1147
g1081
S''
sg1082
L1L
sg1083
Nsg1084
S'BTREE'
p1148
sg1086
S'component'
p1149
sg1088
S'A'
sg1089
S''
sg1090
L1L
sg1091
S'bugs'
p1150
sg1093
Nsg1094
Nsg1095
S'component'
p1151
sa(dp1152
g1081
S''
sg1082
L1L
sg1083
Nsg1084
S'BTREE'
p1153
sg1086
S'resolution'
p1154
sg1088
S'A'
sg1089
S''
sg1090
L1L
sg1091
S'bugs'
p1155
sg1093
Nsg1094
Nsg1095
S'resolution'
p1156
sa(dp1157
g1081
S''
sg1082
L1L
sg1083
Nsg1084
S'BTREE'
p1158
sg1086
S'target_milestone'
p1159
sg1088
S'A'
sg1089
S''
sg1090
L1L
sg1091
S'bugs'
p1160
sg1093
Nsg1094
Nsg1095
S'target_milestone'
p1161
sa(dp1162
g1081
S''
sg1082
L1L
sg1083
Nsg1084
S'BTREE'
p1163
sg1086
S'qa_contact'
p1164
sg1088
S'A'
sg1089
S''
sg1090
L1L
sg1091
S'bugs'
p1165
sg1093
Nsg1094
Nsg1095
S'qa_contact'
p1166
sa(dp1167
g1081
S''
sg1082
L1L
sg1083
Nsg1084
S'BTREE'
p1168
sg1086
S'votes'
p1169
sg1088
S'A'
sg1089
S''
sg1090
L1L
sg1091
S'bugs'
p1170
sg1093
Nsg1094
Nsg1095
S'votes'
p1171
satp1172
sS'profiles'
p1173
((lp1174
(dp1175
S'Extra'
p1176
S'auto_increment'
p1177
sS'Default'
p1178
NsS'Field'
p1179
S'userid'
p1180
sS'Key'
p1181
S'PRI'
p1182
sS'Null'
p1183
S''
sS'Type'
p1184
S'mediumint(9)'
p1185
sa(dp1186
g1176
S''
sg1178
S''
sg1179
S'login_name'
p1187
sg1181
S'UNI'
p1188
sg1183
S''
sg1184
S'varchar(255)'
p1189
sa(dp1190
g1176
S''
sg1178
Nsg1179
S'cryptpassword'
p1191
sg1181
S''
sg1183
S'YES'
p1192
sg1184
S'varchar(34)'
p1193
sa(dp1194
g1176
S''
sg1178
Nsg1179
S'realname'
p1195
sg1181
S''
sg1183
S'YES'
p1196
sg1184
S'varchar(255)'
p1197
sa(dp1198
g1176
S''
sg1178
S'0'
sg1179
S'groupset'
p1199
sg1181
S''
sg1183
S''
sg1184
S'bigint(20)'
p1200
sa(dp1201
g1176
S''
sg1178
S''
sg1179
S'disabledtext'
p1202
sg1181
S''
sg1183
S''
sg1184
S'mediumtext'
p1203
sa(dp1204
g1176
S''
sg1178
S'1'
sg1179
S'mybugslink'
p1205
sg1181
S''
sg1183
S''
sg1184
S'tinyint(4)'
p1206
sa(dp1207
g1176
S''
sg1178
S'0'
sg1179
S'blessgroupset'
p1208
sg1181
S''
sg1183
S''
sg1184
S'bigint(20)'
p1209
sa(dp1210
g1176
S''
sg1178
Nsg1179
S'emailflags'
p1211
sg1181
S''
sg1183
S'YES'
p1212
sg1184
S'mediumtext'
p1213
sa(lp1214
(dp1215
S'Comment'
p1216
S''
sS'Non_unique'
p1217
L0L
sS'Sub_part'
p1218
NsS'Index_type'
p1219
S'BTREE'
p1220
sS'Key_name'
p1221
S'PRIMARY'
p1222
sS'Collation'
p1223
S'A'
sS'Null'
p1224
S''
sS'Seq_in_index'
p1225
L1L
sS'Table'
p1226
S'profiles'
p1227
sS'Cardinality'
p1228
L0L
sS'Packed'
p1229
NsS'Column_name'
p1230
S'userid'
p1231
sa(dp1232
g1216
S''
sg1217
L0L
sg1218
Nsg1219
S'BTREE'
p1233
sg1221
S'login_name'
p1234
sg1223
S'A'
sg1224
S''
sg1225
L1L
sg1226
S'profiles'
p1235
sg1228
L0L
sg1229
Nsg1230
S'login_name'
p1236
satp1237
sS'dependencies'
p1238
((lp1239
(dp1240
S'Extra'
p1241
S''
sS'Default'
p1242
S'0'
sS'Field'
p1243
S'blocked'
p1244
sS'Key'
p1245
S'MUL'
p1246
sS'Null'
p1247
S''
sS'Type'
p1248
S'mediumint(9)'
p1249
sa(dp1250
g1241
S''
sg1242
S'0'
sg1243
S'dependson'
p1251
sg1245
S'MUL'
p1252
sg1247
S''
sg1248
S'mediumint(9)'
p1253
sa(lp1254
(dp1255
S'Comment'
p1256
S''
sS'Non_unique'
p1257
L1L
sS'Sub_part'
p1258
NsS'Index_type'
p1259
S'BTREE'
p1260
sS'Key_name'
p1261
S'blocked'
p1262
sS'Collation'
p1263
S'A'
sS'Null'
p1264
S''
sS'Seq_in_index'
p1265
L1L
sS'Table'
p1266
S'dependencies'
p1267
sS'Cardinality'
p1268
NsS'Packed'
p1269
NsS'Column_name'
p1270
S'blocked'
p1271
sa(dp1272
g1256
S''
sg1257
L1L
sg1258
Nsg1259
S'BTREE'
p1273
sg1261
S'dependson'
p1274
sg1263
S'A'
sg1264
S''
sg1265
L1L
sg1266
S'dependencies'
p1275
sg1268
Nsg1269
Nsg1270
S'dependson'
p1276
satp1277
sS'products'
p1278
((lp1279
(dp1280
S'Extra'
p1281
S''
sS'Default'
p1282
NsS'Field'
p1283
S'product'
p1284
sS'Key'
p1285
S''
sS'Null'
p1286
S'YES'
p1287
sS'Type'
p1288
S'varchar(64)'
p1289
sa(dp1290
g1281
S''
sg1282
Nsg1283
S'description'
p1291
sg1285
S''
sg1286
S'YES'
p1292
sg1288
S'mediumtext'
p1293
sa(dp1294
g1281
S''
sg1282
S''
sg1283
S'milestoneurl'
p1295
sg1285
S''
sg1286
S''
sg1288
S'tinytext'
p1296
sa(dp1297
g1281
S''
sg1282
S'0'
sg1283
S'disallownew'
p1298
sg1285
S''
sg1286
S''
sg1288
S'tinyint(4)'
p1299
sa(dp1300
g1281
S''
sg1282
S'0'
sg1283
S'votesperuser'
p1301
sg1285
S''
sg1286
S''
sg1288
S'smallint(6)'
p1302
sa(dp1303
g1281
S''
sg1282
S'10000'
p1304
sg1283
S'maxvotesperbug'
p1305
sg1285
S''
sg1286
S''
sg1288
S'smallint(6)'
p1306
sa(dp1307
g1281
S''
sg1282
S'0'
sg1283
S'votestoconfirm'
p1308
sg1285
S''
sg1286
S''
sg1288
S'smallint(6)'
p1309
sa(dp1310
g1281
S''
sg1282
S'---'
p1311
sg1283
S'defaultmilestone'
p1312
sg1285
S''
sg1286
S''
sg1288
S'varchar(20)'
p1313
sa(ltp1314
sS'components'
p1315
((lp1316
(dp1317
S'Extra'
p1318
S''
sS'Default'
p1319
NsS'Field'
p1320
S'value'
p1321
sS'Key'
p1322
S''
sS'Null'
p1323
S'YES'
p1324
sS'Type'
p1325
S'tinytext'
p1326
sa(dp1327
g1318
S''
sg1319
Nsg1320
S'program'
p1328
sg1322
S''
sg1323
S'YES'
p1329
sg1325
S'varchar(64)'
p1330
sa(dp1331
g1318
S''
sg1319
S'0'
sg1320
S'initialowner'
p1332
sg1322
S''
sg1323
S''
sg1325
S'mediumint(9)'
p1333
sa(dp1334
g1318
S''
sg1319
S'0'
sg1320
S'initialqacontact'
p1335
sg1322
S''
sg1323
S''
sg1325
S'mediumint(9)'
p1336
sa(dp1337
g1318
S''
sg1319
S''
sg1320
S'description'
p1338
sg1322
S''
sg1323
S''
sg1325
S'mediumtext'
p1339
sa(ltp1340
st.