(S'2.17.1'
p1
(dp2
S'bug_group_map'
p3
((lp4
(dp5
S'Extra'
p6
S''
sS'Default'
p7
S'0'
sS'Field'
p8
S'bug_id'
p9
sS'Key'
p10
S'PRI'
p11
sS'Null'
p12
S''
sS'Type'
p13
S'mediumint(9)'
p14
sa(dp15
g6
S''
sg7
S'0'
sg8
S'group_id'
p16
sg10
S'PRI'
p17
sg12
S''
sg13
S'mediumint(9)'
p18
sa(lp19
(dp20
S'Comment'
p21
S''
sS'Non_unique'
p22
L0L
sS'Sub_part'
p23
NsS'Index_type'
p24
S'BTREE'
p25
sS'Key_name'
p26
S'bug_id'
p27
sS'Collation'
p28
S'A'
sS'Null'
p29
S''
sS'Seq_in_index'
p30
L1L
sS'Table'
p31
S'bug_group_map'
p32
sS'Cardinality'
p33
NsS'Packed'
p34
NsS'Column_name'
p35
S'bug_id'
p36
sa(dp37
g21
S''
sg22
L0L
sg23
Nsg24
S'BTREE'
p38
sg26
S'bug_id'
p39
sg28
S'A'
sg29
S''
sg30
L2L
sg31
S'bug_group_map'
p40
sg33
L0L
sg34
Nsg35
S'group_id'
p41
sa(dp42
g21
S''
sg22
L1L
sg23
Nsg24
S'BTREE'
p43
sg26
S'group_id'
p44
sg28
S'A'
sg29
S''
sg30
L1L
sg31
S'bug_group_map'
p45
sg33
Nsg34
Nsg35
S'group_id'
p46
satp47
sS'attachments'
p48
((lp49
(dp50
S'Extra'
p51
S'auto_increment'
p52
sS'Default'
p53
NsS'Field'
p54
S'attach_id'
p55
sS'Key'
p56
S'PRI'
p57
sS'Null'
p58
S''
sS'Type'
p59
S'mediumint(9)'
p60
sa(dp61
g51
S''
sg53
S'0'
sg54
S'bug_id'
p62
sg56
S'MUL'
p63
sg58
S''
sg59
S'mediumint(9)'
p64
sa(dp65
g51
S''
sg53
S'0000-00-00 00:00:00'
p66
sg54
S'creation_ts'
p67
sg56
S'MUL'
p68
sg58
S''
sg59
S'datetime'
p69
sa(dp70
g51
S''
sg53
S''
sg54
S'description'
p71
sg56
S''
sg58
S''
sg59
S'mediumtext'
p72
sa(dp73
g51
S''
sg53
S''
sg54
S'mimetype'
p74
sg56
S''
sg58
S''
sg59
S'mediumtext'
p75
sa(dp76
g51
S''
sg53
Nsg54
S'ispatch'
p77
sg56
S''
sg58
S'YES'
p78
sg59
S'tinyint(4)'
p79
sa(dp80
g51
S''
sg53
S''
sg54
S'filename'
p81
sg56
S''
sg58
S''
sg59
S'varchar(100)'
p82
sa(dp83
g51
S''
sg53
S''
sg54
S'thedata'
p84
sg56
S''
sg58
S''
sg59
S'longblob'
p85
sa(dp86
g51
S''
sg53
S'0'
sg54
S'submitter_id'
p87
sg56
S''
sg58
S''
sg59
S'mediumint(9)'
p88
sa(dp89
g51
S''
sg53
S'0'
sg54
S'isobsolete'
p90
sg56
S''
sg58
S''
sg59
S'tinyint(4)'
p91
sa(dp92
g51
S''
sg53
S'0'
sg54
S'isprivate'
p93
sg56
S''
sg58
S''
sg59
S'tinyint(4)'
p94
sa(lp95
(dp96
S'Comment'
p97
S''
sS'Non_unique'
p98
L0L
sS'Sub_part'
p99
NsS'Index_type'
p100
S'BTREE'
p101
sS'Key_name'
p102
S'PRIMARY'
p103
sS'Collation'
p104
S'A'
sS'Null'
p105
S''
sS'Seq_in_index'
p106
L1L
sS'Table'
p107
S'attachments'
p108
sS'Cardinality'
p109
L0L
sS'Packed'
p110
NsS'Column_name'
p111
S'attach_id'
p112
sa(dp113
g97
S''
sg98
L1L
sg99
Nsg100
S'BTREE'
p114
sg102
S'bug_id'
p115
sg104
S'A'
sg105
S''
sg106
L1L
sg107
S'attachments'
p116
sg109
Nsg110
Nsg111
S'bug_id'
p117
sa(dp118
g97
S''
sg98
L1L
sg99
Nsg100
S'BTREE'
p119
sg102
S'creation_ts'
p120
sg104
S'A'
sg105
S''
sg106
L1L
sg107
S'attachments'
p121
sg109
Nsg110
Nsg111
S'creation_ts'
p122
satp123
sS'cc'
p124
((lp125
(dp126
S'Extra'
p127
S''
sS'Default'
p128
S'0'
sS'Field'
p129
S'bug_id'
p130
sS'Key'
p131
S'PRI'
p132
sS'Null'
p133
S''
sS'Type'
p134
S'mediumint(9)'
p135
sa(dp136
g127
S''
sg128
S'0'
sg129
S'who'
p137
sg131
S'PRI'
p138
sg133
S''
sg134
S'mediumint(9)'
p139
sa(lp140
(dp141
S'Comment'
p142
S''
sS'Non_unique'
p143
L0L
sS'Sub_part'
p144
NsS'Index_type'
p145
S'BTREE'
p146
sS'Key_name'
p147
S'bug_id'
p148
sS'Collation'
p149
S'A'
sS'Null'
p150
S''
sS'Seq_in_index'
p151
L1L
sS'Table'
p152
S'cc'
p153
sS'Cardinality'
p154
NsS'Packed'
p155
NsS'Column_name'
p156
S'bug_id'
p157
sa(dp158
g142
S''
sg143
L0L
sg144
Nsg145
S'BTREE'
p159
sg147
S'bug_id'
p160
sg149
S'A'
sg150
S''
sg151
L2L
sg152
S'cc'
p161
sg154
L0L
sg155
Nsg156
S'who'
p162
sa(dp163
g142
S''
sg143
L1L
sg144
Nsg145
S'BTREE'
p164
sg147
S'who'
p165
sg149
S'A'
sg150
S''
sg151
L1L
sg152
S'cc'
p166
sg154
Nsg155
Nsg156
S'who'
p167
satp168
sS'group_group_map'
p169
((lp170
(dp171
S'Extra'
p172
S''
sS'Default'
p173
S'0'
sS'Field'
p174
S'member_id'
p175
sS'Key'
p176
S'PRI'
p177
sS'Null'
p178
S''
sS'Type'
p179
S'mediumint(9)'
p180
sa(dp181
g172
S''
sg173
S'0'
sg174
S'grantor_id'
p182
sg176
S'PRI'
p183
sg178
S''
sg179
S'mediumint(9)'
p184
sa(dp185
g172
S''
sg173
S'0'
sg174
S'isbless'
p186
sg176
S'PRI'
p187
sg178
S''
sg179
S'tinyint(4)'
p188
sa(lp189
(dp190
S'Comment'
p191
S''
sS'Non_unique'
p192
L0L
sS'Sub_part'
p193
NsS'Index_type'
p194
S'BTREE'
p195
sS'Key_name'
p196
S'member_id'
p197
sS'Collation'
p198
S'A'
sS'Null'
p199
S''
sS'Seq_in_index'
p200
L1L
sS'Table'
p201
S'group_group_map'
p202
sS'Cardinality'
p203
NsS'Packed'
p204
NsS'Column_name'
p205
S'member_id'
p206
sa(dp207
g191
S''
sg192
L0L
sg193
Nsg194
S'BTREE'
p208
sg196
S'member_id'
p209
sg198
S'A'
sg199
S''
sg200
L2L
sg201
S'group_group_map'
p210
sg203
Nsg204
Nsg205
S'grantor_id'
p211
sa(dp212
g191
S''
sg192
L0L
sg193
Nsg194
S'BTREE'
p213
sg196
S'member_id'
p214
sg198
S'A'
sg199
S''
sg200
L3L
sg201
S'group_group_map'
p215
sg203
L0L
sg204
Nsg205
S'isbless'
p216
satp217
sS'keywords'
p218
((lp219
(dp220
S'Extra'
p221
S''
sS'Default'
p222
S'0'
sS'Field'
p223
S'bug_id'
p224
sS'Key'
p225
S'PRI'
p226
sS'Null'
p227
S''
sS'Type'
p228
S'mediumint(9)'
p229
sa(dp230
g221
S''
sg222
S'0'
sg223
S'keywordid'
p231
sg225
S'PRI'
p232
sg227
S''
sg228
S'smallint(6)'
p233
sa(lp234
(dp235
S'Comment'
p236
S''
sS'Non_unique'
p237
L0L
sS'Sub_part'
p238
NsS'Index_type'
p239
S'BTREE'
p240
sS'Key_name'
p241
S'bug_id'
p242
sS'Collation'
p243
S'A'
sS'Null'
p244
S''
sS'Seq_in_index'
p245
L1L
sS'Table'
p246
S'keywords'
p247
sS'Cardinality'
p248
NsS'Packed'
p249
NsS'Column_name'
p250
S'bug_id'
p251
sa(dp252
g236
S''
sg237
L0L
sg238
Nsg239
S'BTREE'
p253
sg241
S'bug_id'
p254
sg243
S'A'
sg244
S''
sg245
L2L
sg246
S'keywords'
p255
sg248
L0L
sg249
Nsg250
S'keywordid'
p256
sa(dp257
g236
S''
sg237
L1L
sg238
Nsg239
S'BTREE'
p258
sg241
S'keywordid'
p259
sg243
S'A'
sg244
S''
sg245
L1L
sg246
S'keywords'
p260
sg248
Nsg249
Nsg250
S'keywordid'
p261
satp262
sS'user_group_map'
p263
((lp264
(dp265
S'Extra'
p266
S''
sS'Default'
p267
S'0'
sS'Field'
p268
S'user_id'
p269
sS'Key'
p270
S'PRI'
p271
sS'Null'
p272
S''
sS'Type'
p273
S'mediumint(9)'
p274
sa(dp275
g266
S''
sg267
S'0'
sg268
S'group_id'
p276
sg270
S'PRI'
p277
sg272
S''
sg273
S'mediumint(9)'
p278
sa(dp279
g266
S''
sg267
S'0'
sg268
S'isbless'
p280
sg270
S'PRI'
p281
sg272
S''
sg273
S'tinyint(4)'
p282
sa(dp283
g266
S''
sg267
S'0'
sg268
S'isderived'
p284
sg270
S'PRI'
p285
sg272
S''
sg273
S'tinyint(4)'
p286
sa(lp287
(dp288
S'Comment'
p289
S''
sS'Non_unique'
p290
L0L
sS'Sub_part'
p291
NsS'Index_type'
p292
S'BTREE'
p293
sS'Key_name'
p294
S'user_id'
p295
sS'Collation'
p296
S'A'
sS'Null'
p297
S''
sS'Seq_in_index'
p298
L1L
sS'Table'
p299
S'user_group_map'
p300
sS'Cardinality'
p301
NsS'Packed'
p302
NsS'Column_name'
p303
S'user_id'
p304
sa(dp305
g289
S''
sg290
L0L
sg291
Nsg292
S'BTREE'
p306
sg294
S'user_id'
p307
sg296
S'A'
sg297
S''
sg298
L2L
sg299
S'user_group_map'
p308
sg301
Nsg302
Nsg303
S'group_id'
p309
sa(dp310
g289
S''
sg290
L0L
sg291
Nsg292
S'BTREE'
p311
sg294
S'user_id'
p312
sg296
S'A'
sg297
S''
sg298
L3L
sg299
S'user_group_map'
p313
sg301
Nsg302
Nsg303
S'isderived'
p314
sa(dp315
g289
S''
sg290
L0L
sg291
Nsg292
S'BTREE'
p316
sg294
S'user_id'
p317
sg296
S'A'
sg297
S''
sg298
L4L
sg299
S'user_group_map'
p318
sg301
L0L
sg302
Nsg303
S'isbless'
p319
satp320
sS'keyworddefs'
p321
((lp322
(dp323
S'Extra'
p324
S''
sS'Default'
p325
S'0'
sS'Field'
p326
S'id'
p327
sS'Key'
p328
S'PRI'
p329
sS'Null'
p330
S''
sS'Type'
p331
S'smallint(6)'
p332
sa(dp333
g324
S''
sg325
S''
sg326
S'name'
p334
sg328
S'UNI'
p335
sg330
S''
sg331
S'varchar(64)'
p336
sa(dp337
g324
S''
sg325
Nsg326
S'description'
p338
sg328
S''
sg330
S'YES'
p339
sg331
S'mediumtext'
p340
sa(lp341
(dp342
S'Comment'
p343
S''
sS'Non_unique'
p344
L0L
sS'Sub_part'
p345
NsS'Index_type'
p346
S'BTREE'
p347
sS'Key_name'
p348
S'PRIMARY'
p349
sS'Collation'
p350
S'A'
sS'Null'
p351
S''
sS'Seq_in_index'
p352
L1L
sS'Table'
p353
S'keyworddefs'
p354
sS'Cardinality'
p355
L0L
sS'Packed'
p356
NsS'Column_name'
p357
S'id'
p358
sa(dp359
g343
S''
sg344
L0L
sg345
Nsg346
S'BTREE'
p360
sg348
S'name'
p361
sg350
S'A'
sg351
S''
sg352
L1L
sg353
S'keyworddefs'
p362
sg355
L0L
sg356
Nsg357
S'name'
p363
satp364
sS'flagexclusions'
p365
((lp366
(dp367
S'Extra'
p368
S''
sS'Default'
p369
S'0'
sS'Field'
p370
S'type_id'
p371
sS'Key'
p372
S'MUL'
p373
sS'Null'
p374
S''
sS'Type'
p375
S'smallint(6)'
p376
sa(dp377
g368
S''
sg369
Nsg370
S'product_id'
p378
sg372
S''
sg374
S'YES'
p379
sg375
S'smallint(6)'
p380
sa(dp381
g368
S''
sg369
Nsg370
S'component_id'
p382
sg372
S''
sg374
S'YES'
p383
sg375
S'smallint(6)'
p384
sa(lp385
(dp386
S'Comment'
p387
S''
sS'Non_unique'
p388
L1L
sS'Sub_part'
p389
NsS'Index_type'
p390
S'BTREE'
p391
sS'Key_name'
p392
S'type_id'
p393
sS'Collation'
p394
S'A'
sS'Null'
p395
S''
sS'Seq_in_index'
p396
L1L
sS'Table'
p397
S'flagexclusions'
p398
sS'Cardinality'
p399
NsS'Packed'
p400
NsS'Column_name'
p401
S'type_id'
p402
sa(dp403
g387
S''
sg388
L1L
sg389
Nsg390
S'BTREE'
p404
sg392
S'type_id'
p405
sg394
S'A'
sg395
S'YES'
p406
sg396
L2L
sg397
S'flagexclusions'
p407
sg399
Nsg400
Nsg401
S'product_id'
p408
sa(dp409
g387
S''
sg388
L1L
sg389
Nsg390
S'BTREE'
p410
sg392
S'type_id'
p411
sg394
S'A'
sg395
S'YES'
p412
sg396
L3L
sg397
S'flagexclusions'
p413
sg399
Nsg400
Nsg401
S'component_id'
p414
satp415
sS'votes'
p416
((lp417
(dp418
S'Extra'
p419
S''
sS'Default'
p420
S'0'
sS'Field'
p421
S'who'
p422
sS'Key'
p423
S'MUL'
p424
sS'Null'
p425
S''
sS'Type'
p426
S'mediumint(9)'
p427
sa(dp428
g419
S''
sg420
S'0'
sg421
S'bug_id'
p429
sg423
S'MUL'
p430
sg425
S''
sg426
S'mediumint(9)'
p431
sa(dp432
g419
S''
sg420
S'0'
sg421
S'count'
p433
sg423
S''
sg425
S''
sg426
S'smallint(6)'
p434
sa(lp435
(dp436
S'Comment'
p437
S''
sS'Non_unique'
p438
L1L
sS'Sub_part'
p439
NsS'Index_type'
p440
S'BTREE'
p441
sS'Key_name'
p442
S'who'
p443
sS'Collation'
p444
S'A'
sS'Null'
p445
S''
sS'Seq_in_index'
p446
L1L
sS'Table'
p447
S'votes'
p448
sS'Cardinality'
p449
NsS'Packed'
p450
NsS'Column_name'
p451
S'who'
p452
sa(dp453
g437
S''
sg438
L1L
sg439
Nsg440
S'BTREE'
p454
sg442
S'bug_id'
p455
sg444
S'A'
sg445
S''
sg446
L1L
sg447
S'votes'
p456
sg449
Nsg450
Nsg451
S'bug_id'
p457
satp458
sS'products'
p459
((lp460
(dp461
S'Extra'
p462
S'auto_increment'
p463
sS'Default'
p464
NsS'Field'
p465
S'id'
p466
sS'Key'
p467
S'PRI'
p468
sS'Null'
p469
S''
sS'Type'
p470
S'smallint(6)'
p471
sa(dp472
g462
S''
sg464
S''
sg465
S'name'
p473
sg467
S'UNI'
p474
sg469
S''
sg470
S'varchar(64)'
p475
sa(dp476
g462
S''
sg464
Nsg465
S'description'
p477
sg467
S''
sg469
S'YES'
p478
sg470
S'mediumtext'
p479
sa(dp480
g462
S''
sg464
S''
sg465
S'milestoneurl'
p481
sg467
S''
sg469
S''
sg470
S'tinytext'
p482
sa(dp483
g462
S''
sg464
S'0'
sg465
S'disallownew'
p484
sg467
S''
sg469
S''
sg470
S'tinyint(4)'
p485
sa(dp486
g462
S''
sg464
S'0'
sg465
S'votesperuser'
p487
sg467
S''
sg469
S''
sg470
S'smallint(6)'
p488
sa(dp489
g462
S''
sg464
S'10000'
p490
sg465
S'maxvotesperbug'
p491
sg467
S''
sg469
S''
sg470
S'smallint(6)'
p492
sa(dp493
g462
S''
sg464
S'0'
sg465
S'votestoconfirm'
p494
sg467
S''
sg469
S''
sg470
S'smallint(6)'
p495
sa(dp496
g462
S''
sg464
S'---'
p497
sg465
S'defaultmilestone'
p498
sg467
S''
sg469
S''
sg470
S'varchar(20)'
p499
sa(lp500
(dp501
S'Comment'
p502
S''
sS'Non_unique'
p503
L0L
sS'Sub_part'
p504
NsS'Index_type'
p505
S'BTREE'
p506
sS'Key_name'
p507
S'PRIMARY'
p508
sS'Collation'
p509
S'A'
sS'Null'
p510
S''
sS'Seq_in_index'
p511
L1L
sS'Table'
p512
S'products'
p513
sS'Cardinality'
p514
L1L
sS'Packed'
p515
NsS'Column_name'
p516
S'id'
p517
sa(dp518
g502
S''
sg503
L0L
sg504
Nsg505
S'BTREE'
p519
sg507
S'name'
p520
sg509
S'A'
sg510
S''
sg511
L1L
sg512
S'products'
p521
sg514
L1L
sg515
Nsg516
S'name'
p522
satp523
sS'duplicates'
p524
((lp525
(dp526
S'Extra'
p527
S''
sS'Default'
p528
S'0'
sS'Field'
p529
S'dupe_of'
p530
sS'Key'
p531
S''
sS'Null'
p532
S''
sS'Type'
p533
S'mediumint(9)'
p534
sa(dp535
g527
S''
sg528
S'0'
sg529
S'dupe'
p536
sg531
S'PRI'
p537
sg532
S''
sg533
S'mediumint(9)'
p538
sa(lp539
(dp540
S'Comment'
p541
S''
sS'Non_unique'
p542
L0L
sS'Sub_part'
p543
NsS'Index_type'
p544
S'BTREE'
p545
sS'Key_name'
p546
S'PRIMARY'
p547
sS'Collation'
p548
S'A'
sS'Null'
p549
S''
sS'Seq_in_index'
p550
L1L
sS'Table'
p551
S'duplicates'
p552
sS'Cardinality'
p553
L0L
sS'Packed'
p554
NsS'Column_name'
p555
S'dupe'
p556
satp557
sS'logincookies'
p558
((lp559
(dp560
S'Extra'
p561
S'auto_increment'
p562
sS'Default'
p563
NsS'Field'
p564
S'cookie'
p565
sS'Key'
p566
S'PRI'
p567
sS'Null'
p568
S''
sS'Type'
p569
S'mediumint(9)'
p570
sa(dp571
g561
S''
sg563
S'0'
sg564
S'userid'
p572
sg566
S''
sg568
S''
sg569
S'mediumint(9)'
p573
sa(dp574
g561
S''
sg563
S''
sg564
S'ipaddr'
p575
sg566
S''
sg568
S''
sg569
S'varchar(40)'
p576
sa(dp577
g561
S''
sg563
Nsg564
S'lastused'
p578
sg566
S'MUL'
p579
sg568
S'YES'
p580
sg569
S'timestamp(14)'
p581
sa(lp582
(dp583
S'Comment'
p584
S''
sS'Non_unique'
p585
L0L
sS'Sub_part'
p586
NsS'Index_type'
p587
S'BTREE'
p588
sS'Key_name'
p589
S'PRIMARY'
p590
sS'Collation'
p591
S'A'
sS'Null'
p592
S''
sS'Seq_in_index'
p593
L1L
sS'Table'
p594
S'logincookies'
p595
sS'Cardinality'
p596
L0L
sS'Packed'
p597
NsS'Column_name'
p598
S'cookie'
p599
sa(dp600
g584
S''
sg585
L1L
sg586
Nsg587
S'BTREE'
p601
sg589
S'lastused'
p602
sg591
S'A'
sg592
S''
sg593
L1L
sg594
S'logincookies'
p603
sg596
Nsg597
Nsg598
S'lastused'
p604
satp605
sS'fielddefs'
p606
((lp607
(dp608
S'Extra'
p609
S'auto_increment'
p610
sS'Default'
p611
NsS'Field'
p612
S'fieldid'
p613
sS'Key'
p614
S'PRI'
p615
sS'Null'
p616
S''
sS'Type'
p617
S'mediumint(9)'
p618
sa(dp619
g609
S''
sg611
S''
sg612
S'name'
p620
sg614
S'UNI'
p621
sg616
S''
sg617
S'varchar(64)'
p622
sa(dp623
g609
S''
sg611
S''
sg612
S'description'
p624
sg614
S''
sg616
S''
sg617
S'mediumtext'
p625
sa(dp626
g609
S''
sg611
S'0'
sg612
S'mailhead'
p627
sg614
S''
sg616
S''
sg617
S'tinyint(4)'
p628
sa(dp629
g609
S''
sg611
S'0'
sg612
S'sortkey'
p630
sg614
S'MUL'
p631
sg616
S''
sg617
S'smallint(6)'
p632
sa(lp633
(dp634
S'Comment'
p635
S''
sS'Non_unique'
p636
L0L
sS'Sub_part'
p637
NsS'Index_type'
p638
S'BTREE'
p639
sS'Key_name'
p640
S'PRIMARY'
p641
sS'Collation'
p642
S'A'
sS'Null'
p643
S''
sS'Seq_in_index'
p644
L1L
sS'Table'
p645
S'fielddefs'
p646
sS'Cardinality'
p647
L44L
sS'Packed'
p648
NsS'Column_name'
p649
S'fieldid'
p650
sa(dp651
g635
S''
sg636
L0L
sg637
Nsg638
S'BTREE'
p652
sg640
S'name'
p653
sg642
S'A'
sg643
S''
sg644
L1L
sg645
S'fielddefs'
p654
sg647
L44L
sg648
Nsg649
S'name'
p655
sa(dp656
g635
S''
sg636
L1L
sg637
Nsg638
S'BTREE'
p657
sg640
S'sortkey'
p658
sg642
S'A'
sg643
S''
sg644
L1L
sg645
S'fielddefs'
p659
sg647
Nsg648
Nsg649
S'sortkey'
p660
satp661
sS'shadowlog'
p662
((lp663
(dp664
S'Extra'
p665
S'auto_increment'
p666
sS'Default'
p667
NsS'Field'
p668
S'id'
p669
sS'Key'
p670
S'PRI'
p671
sS'Null'
p672
S''
sS'Type'
p673
S'int(11)'
p674
sa(dp675
g665
S''
sg667
Nsg668
S'ts'
p676
sg670
S''
sg672
S'YES'
p677
sg673
S'timestamp(14)'
p678
sa(dp679
g665
S''
sg667
S'0'
sg668
S'reflected'
p680
sg670
S'MUL'
p681
sg672
S''
sg673
S'tinyint(4)'
p682
sa(dp683
g665
S''
sg667
S''
sg668
S'command'
p684
sg670
S''
sg672
S''
sg673
S'mediumtext'
p685
sa(lp686
(dp687
S'Comment'
p688
S''
sS'Non_unique'
p689
L0L
sS'Sub_part'
p690
NsS'Index_type'
p691
S'BTREE'
p692
sS'Key_name'
p693
S'PRIMARY'
p694
sS'Collation'
p695
S'A'
sS'Null'
p696
S''
sS'Seq_in_index'
p697
L1L
sS'Table'
p698
S'shadowlog'
p699
sS'Cardinality'
p700
L0L
sS'Packed'
p701
NsS'Column_name'
p702
S'id'
p703
sa(dp704
g688
S''
sg689
L1L
sg690
Nsg691
S'BTREE'
p705
sg693
S'reflected'
p706
sg695
S'A'
sg696
S''
sg697
L1L
sg698
S'shadowlog'
p707
sg700
Nsg701
Nsg702
S'reflected'
p708
satp709
sS'flaginclusions'
p710
((lp711
(dp712
S'Extra'
p713
S''
sS'Default'
p714
S'0'
sS'Field'
p715
S'type_id'
p716
sS'Key'
p717
S'MUL'
p718
sS'Null'
p719
S''
sS'Type'
p720
S'smallint(6)'
p721
sa(dp722
g713
S''
sg714
Nsg715
S'product_id'
p723
sg717
S''
sg719
S'YES'
p724
sg720
S'smallint(6)'
p725
sa(dp726
g713
S''
sg714
Nsg715
S'component_id'
p727
sg717
S''
sg719
S'YES'
p728
sg720
S'smallint(6)'
p729
sa(lp730
(dp731
S'Comment'
p732
S''
sS'Non_unique'
p733
L1L
sS'Sub_part'
p734
NsS'Index_type'
p735
S'BTREE'
p736
sS'Key_name'
p737
S'type_id'
p738
sS'Collation'
p739
S'A'
sS'Null'
p740
S''
sS'Seq_in_index'
p741
L1L
sS'Table'
p742
S'flaginclusions'
p743
sS'Cardinality'
p744
NsS'Packed'
p745
NsS'Column_name'
p746
S'type_id'
p747
sa(dp748
g732
S''
sg733
L1L
sg734
Nsg735
S'BTREE'
p749
sg737
S'type_id'
p750
sg739
S'A'
sg740
S'YES'
p751
sg741
L2L
sg742
S'flaginclusions'
p752
sg744
Nsg745
Nsg746
S'product_id'
p753
sa(dp754
g732
S''
sg733
L1L
sg734
Nsg735
S'BTREE'
p755
sg737
S'type_id'
p756
sg739
S'A'
sg740
S'YES'
p757
sg741
L3L
sg742
S'flaginclusions'
p758
sg744
Nsg745
Nsg746
S'component_id'
p759
satp760
sS'profiles_activity'
p761
((lp762
(dp763
S'Extra'
p764
S''
sS'Default'
p765
S'0'
sS'Field'
p766
S'userid'
p767
sS'Key'
p768
S'MUL'
p769
sS'Null'
p770
S''
sS'Type'
p771
S'mediumint(9)'
p772
sa(dp773
g764
S''
sg765
S'0'
sg766
S'who'
p774
sg768
S''
sg770
S''
sg771
S'mediumint(9)'
p775
sa(dp776
g764
S''
sg765
S'0000-00-00 00:00:00'
p777
sg766
S'profiles_when'
p778
sg768
S'MUL'
p779
sg770
S''
sg771
S'datetime'
p780
sa(dp781
g764
S''
sg765
S'0'
sg766
S'fieldid'
p782
sg768
S'MUL'
p783
sg770
S''
sg771
S'mediumint(9)'
p784
sa(dp785
g764
S''
sg765
Nsg766
S'oldvalue'
p786
sg768
S''
sg770
S'YES'
p787
sg771
S'tinytext'
p788
sa(dp789
g764
S''
sg765
Nsg766
S'newvalue'
p790
sg768
S''
sg770
S'YES'
p791
sg771
S'tinytext'
p792
sa(lp793
(dp794
S'Comment'
p795
S''
sS'Non_unique'
p796
L1L
sS'Sub_part'
p797
NsS'Index_type'
p798
S'BTREE'
p799
sS'Key_name'
p800
S'userid'
p801
sS'Collation'
p802
S'A'
sS'Null'
p803
S''
sS'Seq_in_index'
p804
L1L
sS'Table'
p805
S'profiles_activity'
p806
sS'Cardinality'
p807
NsS'Packed'
p808
NsS'Column_name'
p809
S'userid'
p810
sa(dp811
g795
S''
sg796
L1L
sg797
Nsg798
S'BTREE'
p812
sg800
S'profiles_when'
p813
sg802
S'A'
sg803
S''
sg804
L1L
sg805
S'profiles_activity'
p814
sg807
Nsg808
Nsg809
S'profiles_when'
p815
sa(dp816
g795
S''
sg796
L1L
sg797
Nsg798
S'BTREE'
p817
sg800
S'fieldid'
p818
sg802
S'A'
sg803
S''
sg804
L1L
sg805
S'profiles_activity'
p819
sg807
Nsg808
Nsg809
S'fieldid'
p820
satp821
sS'components'
p822
((lp823
(dp824
S'Extra'
p825
S'auto_increment'
p826
sS'Default'
p827
NsS'Field'
p828
S'id'
p829
sS'Key'
p830
S'PRI'
p831
sS'Null'
p832
S''
sS'Type'
p833
S'smallint(6)'
p834
sa(dp835
g825
S''
sg827
S''
sg828
S'name'
p836
sg830
S'MUL'
p837
sg832
S''
sg833
S'varchar(64)'
p838
sa(dp839
g825
S''
sg827
S'0'
sg828
S'product_id'
p840
sg830
S'MUL'
p841
sg832
S''
sg833
S'smallint(6)'
p842
sa(dp843
g825
S''
sg827
S'0'
sg828
S'initialowner'
p844
sg830
S''
sg832
S''
sg833
S'mediumint(9)'
p845
sa(dp846
g825
S''
sg827
S'0'
sg828
S'initialqacontact'
p847
sg830
S''
sg832
S''
sg833
S'mediumint(9)'
p848
sa(dp849
g825
S''
sg827
S''
sg828
S'description'
p850
sg830
S''
sg832
S''
sg833
S'mediumtext'
p851
sa(lp852
(dp853
S'Comment'
p854
S''
sS'Non_unique'
p855
L0L
sS'Sub_part'
p856
NsS'Index_type'
p857
S'BTREE'
p858
sS'Key_name'
p859
S'PRIMARY'
p860
sS'Collation'
p861
S'A'
sS'Null'
p862
S''
sS'Seq_in_index'
p863
L1L
sS'Table'
p864
S'components'
p865
sS'Cardinality'
p866
L1L
sS'Packed'
p867
NsS'Column_name'
p868
S'id'
p869
sa(dp870
g854
S''
sg855
L0L
sg856
Nsg857
S'BTREE'
p871
sg859
S'product_id'
p872
sg861
S'A'
sg862
S''
sg863
L1L
sg864
S'components'
p873
sg866
Nsg867
Nsg868
S'product_id'
p874
sa(dp875
g854
S''
sg855
L0L
sg856
Nsg857
S'BTREE'
p876
sg859
S'product_id'
p877
sg861
S'A'
sg862
S''
sg863
L2L
sg864
S'components'
p878
sg866
L1L
sg867
Nsg868
S'name'
p879
sa(dp880
g854
S''
sg855
L1L
sg856
Nsg857
S'BTREE'
p881
sg859
S'name'
p882
sg861
S'A'
sg862
S''
sg863
L1L
sg864
S'components'
p883
sg866
Nsg867
Nsg868
S'name'
p884
satp885
sS'watch'
p886
((lp887
(dp888
S'Extra'
p889
S''
sS'Default'
p890
S'0'
sS'Field'
p891
S'watcher'
p892
sS'Key'
p893
S'PRI'
p894
sS'Null'
p895
S''
sS'Type'
p896
S'mediumint(9)'
p897
sa(dp898
g889
S''
sg890
S'0'
sg891
S'watched'
p899
sg893
S'PRI'
p900
sg895
S''
sg896
S'mediumint(9)'
p901
sa(lp902
(dp903
S'Comment'
p904
S''
sS'Non_unique'
p905
L0L
sS'Sub_part'
p906
NsS'Index_type'
p907
S'BTREE'
p908
sS'Key_name'
p909
S'watcher'
p910
sS'Collation'
p911
S'A'
sS'Null'
p912
S''
sS'Seq_in_index'
p913
L1L
sS'Table'
p914
S'watch'
p915
sS'Cardinality'
p916
NsS'Packed'
p917
NsS'Column_name'
p918
S'watcher'
p919
sa(dp920
g904
S''
sg905
L0L
sg906
Nsg907
S'BTREE'
p921
sg909
S'watcher'
p922
sg911
S'A'
sg912
S''
sg913
L2L
sg914
S'watch'
p923
sg916
L0L
sg917
Nsg918
S'watched'
p924
sa(dp925
g904
S''
sg905
L1L
sg906
Nsg907
S'BTREE'
p926
sg909
S'watched'
p927
sg911
S'A'
sg912
S''
sg913
L1L
sg914
S'watch'
p928
sg916
Nsg917
Nsg918
S'watched'
p929
satp930
sS'namedqueries'
p931
((lp932
(dp933
S'Extra'
p934
S''
sS'Default'
p935
S'0'
sS'Field'
p936
S'userid'
p937
sS'Key'
p938
S'PRI'
p939
sS'Null'
p940
S''
sS'Type'
p941
S'mediumint(9)'
p942
sa(dp943
g934
S''
sg935
S''
sg936
S'name'
p944
sg938
S'PRI'
p945
sg940
S''
sg941
S'varchar(64)'
p946
sa(dp947
g934
S''
sg935
S'0'
sg936
S'linkinfooter'
p948
sg938
S''
sg940
S''
sg941
S'tinyint(4)'
p949
sa(dp950
g934
S''
sg935
S''
sg936
S'query'
p951
sg938
S''
sg940
S''
sg941
S'mediumtext'
p952
sa(lp953
(dp954
S'Comment'
p955
S''
sS'Non_unique'
p956
L0L
sS'Sub_part'
p957
NsS'Index_type'
p958
S'BTREE'
p959
sS'Key_name'
p960
S'userid'
p961
sS'Collation'
p962
S'A'
sS'Null'
p963
S''
sS'Seq_in_index'
p964
L1L
sS'Table'
p965
S'namedqueries'
p966
sS'Cardinality'
p967
NsS'Packed'
p968
NsS'Column_name'
p969
S'userid'
p970
sa(dp971
g955
S''
sg956
L0L
sg957
Nsg958
S'BTREE'
p972
sg960
S'userid'
p973
sg962
S'A'
sg963
S''
sg964
L2L
sg965
S'namedqueries'
p974
sg967
L0L
sg968
Nsg969
S'name'
p975
satp976
sS'tokens'
p977
((lp978
(dp979
S'Extra'
p980
S''
sS'Default'
p981
S'0'
sS'Field'
p982
S'userid'
p983
sS'Key'
p984
S'MUL'
p985
sS'Null'
p986
S''
sS'Type'
p987
S'mediumint(9)'
p988
sa(dp989
g980
S''
sg981
S'0000-00-00 00:00:00'
p990
sg982
S'issuedate'
p991
sg984
S''
sg986
S''
sg987
S'datetime'
p992
sa(dp993
g980
S''
sg981
S''
sg982
S'token'
p994
sg984
S'PRI'
p995
sg986
S''
sg987
S'varchar(16)'
p996
sa(dp997
g980
S''
sg981
S''
sg982
S'tokentype'
p998
sg984
S''
sg986
S''
sg987
S'varchar(8)'
p999
sa(dp1000
g980
S''
sg981
Nsg982
S'eventdata'
p1001
sg984
S''
sg986
S'YES'
p1002
sg987
S'tinytext'
p1003
sa(lp1004
(dp1005
S'Comment'
p1006
S''
sS'Non_unique'
p1007
L0L
sS'Sub_part'
p1008
NsS'Index_type'
p1009
S'BTREE'
p1010
sS'Key_name'
p1011
S'PRIMARY'
p1012
sS'Collation'
p1013
S'A'
sS'Null'
p1014
S''
sS'Seq_in_index'
p1015
L1L
sS'Table'
p1016
S'tokens'
p1017
sS'Cardinality'
p1018
L0L
sS'Packed'
p1019
NsS'Column_name'
p1020
S'token'
p1021
sa(dp1022
g1006
S''
sg1007
L1L
sg1008
Nsg1009
S'BTREE'
p1023
sg1011
S'userid'
p1024
sg1013
S'A'
sg1014
S''
sg1015
L1L
sg1016
S'tokens'
p1025
sg1018
Nsg1019
Nsg1020
S'userid'
p1026
satp1027
sS'dependencies'
p1028
((lp1029
(dp1030
S'Extra'
p1031
S''
sS'Default'
p1032
S'0'
sS'Field'
p1033
S'blocked'
p1034
sS'Key'
p1035
S'MUL'
p1036
sS'Null'
p1037
S''
sS'Type'
p1038
S'mediumint(9)'
p1039
sa(dp1040
g1031
S''
sg1032
S'0'
sg1033
S'dependson'
p1041
sg1035
S'MUL'
p1042
sg1037
S''
sg1038
S'mediumint(9)'
p1043
sa(lp1044
(dp1045
S'Comment'
p1046
S''
sS'Non_unique'
p1047
L1L
sS'Sub_part'
p1048
NsS'Index_type'
p1049
S'BTREE'
p1050
sS'Key_name'
p1051
S'blocked'
p1052
sS'Collation'
p1053
S'A'
sS'Null'
p1054
S''
sS'Seq_in_index'
p1055
L1L
sS'Table'
p1056
S'dependencies'
p1057
sS'Cardinality'
p1058
NsS'Packed'
p1059
NsS'Column_name'
p1060
S'blocked'
p1061
sa(dp1062
g1046
S''
sg1047
L1L
sg1048
Nsg1049
S'BTREE'
p1063
sg1051
S'dependson'
p1064
sg1053
S'A'
sg1054
S''
sg1055
L1L
sg1056
S'dependencies'
p1065
sg1058
Nsg1059
Nsg1060
S'dependson'
p1066
satp1067
sS'quips'
p1068
((lp1069
(dp1070
S'Extra'
p1071
S'auto_increment'
p1072
sS'Default'
p1073
NsS'Field'
p1074
S'quipid'
p1075
sS'Key'
p1076
S'PRI'
p1077
sS'Null'
p1078
S''
sS'Type'
p1079
S'mediumint(9)'
p1080
sa(dp1081
g1071
S''
sg1073
S'0'
sg1074
S'userid'
p1082
sg1076
S''
sg1078
S''
sg1079
S'mediumint(9)'
p1083
sa(dp1084
g1071
S''
sg1073
S''
sg1074
S'quip'
p1085
sg1076
S''
sg1078
S''
sg1079
S'text'
p1086
sa(lp1087
(dp1088
S'Comment'
p1089
S''
sS'Non_unique'
p1090
L0L
sS'Sub_part'
p1091
NsS'Index_type'
p1092
S'BTREE'
p1093
sS'Key_name'
p1094
S'PRIMARY'
p1095
sS'Collation'
p1096
S'A'
sS'Null'
p1097
S''
sS'Seq_in_index'
p1098
L1L
sS'Table'
p1099
S'quips'
p1100
sS'Cardinality'
p1101
L0L
sS'Packed'
p1102
NsS'Column_name'
p1103
S'quipid'
p1104
satp1105
sS'groups'
p1106
((lp1107
(dp1108
S'Extra'
p1109
S'auto_increment'
p1110
sS'Default'
p1111
NsS'Field'
p1112
S'id'
p1113
sS'Key'
p1114
S'PRI'
p1115
sS'Null'
p1116
S''
sS'Type'
p1117
S'mediumint(9)'
p1118
sa(dp1119
g1109
S''
sg1111
S''
sg1112
S'name'
p1120
sg1114
S'UNI'
p1121
sg1116
S''
sg1117
S'varchar(255)'
p1122
sa(dp1123
g1109
S''
sg1111
S''
sg1112
S'description'
p1124
sg1114
S''
sg1116
S''
sg1117
S'text'
p1125
sa(dp1126
g1109
S''
sg1111
S'0'
sg1112
S'isbuggroup'
p1127
sg1114
S''
sg1116
S''
sg1117
S'tinyint(4)'
p1128
sa(dp1129
g1109
S''
sg1111
S'0000-00-00 00:00:00'
p1130
sg1112
S'last_changed'
p1131
sg1114
S''
sg1116
S''
sg1117
S'datetime'
p1132
sa(dp1133
g1109
S''
sg1111
S''
sg1112
S'userregexp'
p1134
sg1114
S''
sg1116
S''
sg1117
S'tinytext'
p1135
sa(dp1136
g1109
S''
sg1111
S'1'
sg1112
S'isactive'
p1137
sg1114
S''
sg1116
S''
sg1117
S'tinyint(4)'
p1138
sa(lp1139
(dp1140
S'Comment'
p1141
S''
sS'Non_unique'
p1142
L0L
sS'Sub_part'
p1143
NsS'Index_type'
p1144
S'BTREE'
p1145
sS'Key_name'
p1146
S'PRIMARY'
p1147
sS'Collation'
p1148
S'A'
sS'Null'
p1149
S''
sS'Seq_in_index'
p1150
L1L
sS'Table'
p1151
S'groups'
p1152
sS'Cardinality'
p1153
L8L
sS'Packed'
p1154
NsS'Column_name'
p1155
S'id'
p1156
sa(dp1157
g1141
S''
sg1142
L0L
sg1143
Nsg1144
S'BTREE'
p1158
sg1146
S'name'
p1159
sg1148
S'A'
sg1149
S''
sg1150
L1L
sg1151
S'groups'
p1160
sg1153
L8L
sg1154
Nsg1155
S'name'
p1161
satp1162
sS'milestones'
p1163
((lp1164
(dp1165
S'Extra'
p1166
S''
sS'Default'
p1167
S'0'
sS'Field'
p1168
S'product_id'
p1169
sS'Key'
p1170
S'PRI'
p1171
sS'Null'
p1172
S''
sS'Type'
p1173
S'smallint(6)'
p1174
sa(dp1175
g1166
S''
sg1167
S''
sg1168
S'value'
p1176
sg1170
S'PRI'
p1177
sg1172
S''
sg1173
S'varchar(20)'
p1178
sa(dp1179
g1166
S''
sg1167
S'0'
sg1168
S'sortkey'
p1180
sg1170
S''
sg1172
S''
sg1173
S'smallint(6)'
p1181
sa(lp1182
(dp1183
S'Comment'
p1184
S''
sS'Non_unique'
p1185
L0L
sS'Sub_part'
p1186
NsS'Index_type'
p1187
S'BTREE'
p1188
sS'Key_name'
p1189
S'product_id'
p1190
sS'Collation'
p1191
S'A'
sS'Null'
p1192
S''
sS'Seq_in_index'
p1193
L1L
sS'Table'
p1194
S'milestones'
p1195
sS'Cardinality'
p1196
NsS'Packed'
p1197
NsS'Column_name'
p1198
S'product_id'
p1199
sa(dp1200
g1184
S''
sg1185
L0L
sg1186
Nsg1187
S'BTREE'
p1201
sg1189
S'product_id'
p1202
sg1191
S'A'
sg1192
S''
sg1193
L2L
sg1194
S'milestones'
p1203
sg1196
L1L
sg1197
Nsg1198
S'value'
p1204
satp1205
sS'longdescs'
p1206
((lp1207
(dp1208
S'Extra'
p1209
S''
sS'Default'
p1210
S'0'
sS'Field'
p1211
S'bug_id'
p1212
sS'Key'
p1213
S'MUL'
p1214
sS'Null'
p1215
S''
sS'Type'
p1216
S'mediumint(9)'
p1217
sa(dp1218
g1209
S''
sg1210
S'0'
sg1211
S'who'
p1219
sg1213
S'MUL'
p1220
sg1215
S''
sg1216
S'mediumint(9)'
p1221
sa(dp1222
g1209
S''
sg1210
S'0000-00-00 00:00:00'
p1223
sg1211
S'bug_when'
p1224
sg1213
S'MUL'
p1225
sg1215
S''
sg1216
S'datetime'
p1226
sa(dp1227
g1209
S''
sg1210
S'0.00'
p1228
sg1211
S'work_time'
p1229
sg1213
S''
sg1215
S''
sg1216
S'decimal(5,2)'
p1230
sa(dp1231
g1209
S''
sg1210
Nsg1211
S'thetext'
p1232
sg1213
S''
sg1215
S'YES'
p1233
sg1216
S'mediumtext'
p1234
sa(dp1235
g1209
S''
sg1210
S'0'
sg1211
S'isprivate'
p1236
sg1213
S''
sg1215
S''
sg1216
S'tinyint(4)'
p1237
sa(lp1238
(dp1239
S'Comment'
p1240
S''
sS'Non_unique'
p1241
L1L
sS'Sub_part'
p1242
NsS'Index_type'
p1243
S'BTREE'
p1244
sS'Key_name'
p1245
S'bug_id'
p1246
sS'Collation'
p1247
S'A'
sS'Null'
p1248
S''
sS'Seq_in_index'
p1249
L1L
sS'Table'
p1250
S'longdescs'
p1251
sS'Cardinality'
p1252
NsS'Packed'
p1253
NsS'Column_name'
p1254
S'bug_id'
p1255
sa(dp1256
g1240
S''
sg1241
L1L
sg1242
Nsg1243
S'BTREE'
p1257
sg1245
S'who'
p1258
sg1247
S'A'
sg1248
S''
sg1249
L1L
sg1250
S'longdescs'
p1259
sg1252
Nsg1253
Nsg1254
S'who'
p1260
sa(dp1261
g1240
S''
sg1241
L1L
sg1242
Nsg1243
S'BTREE'
p1262
sg1245
S'bug_when'
p1263
sg1247
S'A'
sg1248
S''
sg1249
L1L
sg1250
S'longdescs'
p1264
sg1252
Nsg1253
Nsg1254
S'bug_when'
p1265
satp1266
sS'versions'
p1267
((lp1268
(dp1269
S'Extra'
p1270
S''
sS'Default'
p1271
NsS'Field'
p1272
S'value'
p1273
sS'Key'
p1274
S''
sS'Null'
p1275
S'YES'
p1276
sS'Type'
p1277
S'tinytext'
p1278
sa(dp1279
g1270
S''
sg1271
S'0'
sg1272
S'product_id'
p1280
sg1274
S''
sg1275
S''
sg1277
S'smallint(6)'
p1281
sa(ltp1282
sS'flagtypes'
p1283
((lp1284
(dp1285
S'Extra'
p1286
S''
sS'Default'
p1287
S'0'
sS'Field'
p1288
S'id'
p1289
sS'Key'
p1290
S'PRI'
p1291
sS'Null'
p1292
S''
sS'Type'
p1293
S'smallint(6)'
p1294
sa(dp1295
g1286
S''
sg1287
S''
sg1288
S'name'
p1296
sg1290
S''
sg1292
S''
sg1293
S'varchar(50)'
p1297
sa(dp1298
g1286
S''
sg1287
Nsg1288
S'description'
p1299
sg1290
S''
sg1292
S'YES'
p1300
sg1293
S'text'
p1301
sa(dp1302
g1286
S''
sg1287
Nsg1288
S'cc_list'
p1303
sg1290
S''
sg1292
S'YES'
p1304
sg1293
S'varchar(200)'
p1305
sa(dp1306
g1286
S''
sg1287
S'b'
sg1288
S'target_type'
p1307
sg1290
S''
sg1292
S''
sg1293
S'char(1)'
p1308
sa(dp1309
g1286
S''
sg1287
S'1'
sg1288
S'is_active'
p1310
sg1290
S''
sg1292
S''
sg1293
S'tinyint(4)'
p1311
sa(dp1312
g1286
S''
sg1287
S'0'
sg1288
S'is_requestable'
p1313
sg1290
S''
sg1292
S''
sg1293
S'tinyint(4)'
p1314
sa(dp1315
g1286
S''
sg1287
S'0'
sg1288
S'is_requesteeble'
p1316
sg1290
S''
sg1292
S''
sg1293
S'tinyint(4)'
p1317
sa(dp1318
g1286
S''
sg1287
S'0'
sg1288
S'is_multiplicable'
p1319
sg1290
S''
sg1292
S''
sg1293
S'tinyint(4)'
p1320
sa(dp1321
g1286
S''
sg1287
S'0'
sg1288
S'sortkey'
p1322
sg1290
S''
sg1292
S''
sg1293
S'smallint(6)'
p1323
sa(lp1324
(dp1325
S'Comment'
p1326
S''
sS'Non_unique'
p1327
L0L
sS'Sub_part'
p1328
NsS'Index_type'
p1329
S'BTREE'
p1330
sS'Key_name'
p1331
S'PRIMARY'
p1332
sS'Collation'
p1333
S'A'
sS'Null'
p1334
S''
sS'Seq_in_index'
p1335
L1L
sS'Table'
p1336
S'flagtypes'
p1337
sS'Cardinality'
p1338
L0L
sS'Packed'
p1339
NsS'Column_name'
p1340
S'id'
p1341
satp1342
sS'bugs'
p1343
((lp1344
(dp1345
S'Extra'
p1346
S'auto_increment'
p1347
sS'Default'
p1348
NsS'Field'
p1349
S'bug_id'
p1350
sS'Key'
p1351
S'PRI'
p1352
sS'Null'
p1353
S''
sS'Type'
p1354
S'mediumint(9)'
p1355
sa(dp1356
g1346
S''
sg1348
S'0'
sg1349
S'assigned_to'
p1357
sg1351
S'MUL'
p1358
sg1353
S''
sg1354
S'mediumint(9)'
p1359
sa(dp1360
g1346
S''
sg1348
Nsg1349
S'bug_file_loc'
p1361
sg1351
S''
sg1353
S'YES'
p1362
sg1354
S'text'
p1363
sa(dp1364
g1346
S''
sg1348
S'blocker'
p1365
sg1349
S'bug_severity'
p1366
sg1351
S'MUL'
p1367
sg1353
S''
sg1354
S"enum('blocker','critical','major','normal','minor','trivial','enhancement')"
p1368
sa(dp1369
g1346
S''
sg1348
S'UNCONFIRMED'
p1370
sg1349
S'bug_status'
p1371
sg1351
S'MUL'
p1372
sg1353
S''
sg1354
S"enum('UNCONFIRMED','NEW','ASSIGNED','REOPENED','RESOLVED','VERIFIED','CLOSED')"
p1373
sa(dp1374
g1346
S''
sg1348
S'0000-00-00 00:00:00'
p1375
sg1349
S'creation_ts'
p1376
sg1351
S'MUL'
p1377
sg1353
S''
sg1354
S'datetime'
p1378
sa(dp1379
g1346
S''
sg1348
Nsg1349
S'delta_ts'
p1380
sg1351
S'MUL'
p1381
sg1353
S'YES'
p1382
sg1354
S'timestamp(14)'
p1383
sa(dp1384
g1346
S''
sg1348
Nsg1349
S'short_desc'
p1385
sg1351
S''
sg1353
S'YES'
p1386
sg1354
S'mediumtext'
p1387
sa(dp1388
g1346
S''
sg1348
S'All'
p1389
sg1349
S'op_sys'
p1390
sg1351
S'MUL'
p1391
sg1353
S''
sg1354
S"enum('All','Windows 3.1','Windows 95','Windows 98','Windows ME','Windows 2000','Windows NT','Windows XP','Mac System 7','Mac System 7.5','Mac System 7.6.1','Mac System 8.0','Mac System 8.5','Mac System 8.6','Mac System 9.x','Mac OS X 10.0','Mac OS X 10.1','Mac OS X 10.2','Linux','BSDI','FreeBSD','NetBSD','OpenBSD','AIX','BeOS','HP-UX','IRIX','Neutrino','OpenVMS','OS/2','OSF/1','Solaris','SunOS','other')"
p1392
sa(dp1393
g1346
S''
sg1348
S'P1'
p1394
sg1349
S'priority'
p1395
sg1351
S'MUL'
p1396
sg1353
S''
sg1354
S"enum('P1','P2','P3','P4','P5')"
p1397
sa(dp1398
g1346
S''
sg1348
S'0'
sg1349
S'product_id'
p1399
sg1351
S'MUL'
p1400
sg1353
S''
sg1354
S'smallint(6)'
p1401
sa(dp1402
g1346
S''
sg1348
Nsg1349
S'rep_platform'
p1403
sg1351
S''
sg1353
S'YES'
p1404
sg1354
S"enum('All','DEC','HP','Macintosh','PC','SGI','Sun','Other')"
p1405
sa(dp1406
g1346
S''
sg1348
S'0'
sg1349
S'reporter'
p1407
sg1351
S'MUL'
p1408
sg1353
S''
sg1354
S'mediumint(9)'
p1409
sa(dp1410
g1346
S''
sg1348
S''
sg1349
S'version'
p1411
sg1351
S'MUL'
p1412
sg1353
S''
sg1354
S'varchar(64)'
p1413
sa(dp1414
g1346
S''
sg1348
S'0'
sg1349
S'component_id'
p1415
sg1351
S'MUL'
p1416
sg1353
S''
sg1354
S'smallint(6)'
p1417
sa(dp1418
g1346
S''
sg1348
S''
sg1349
S'resolution'
p1419
sg1351
S'MUL'
p1420
sg1353
S''
sg1354
S"enum('','FIXED','INVALID','WONTFIX','LATER','REMIND','DUPLICATE','WORKSFORME','MOVED')"
p1421
sa(dp1422
g1346
S''
sg1348
S'---'
p1423
sg1349
S'target_milestone'
p1424
sg1351
S'MUL'
p1425
sg1353
S''
sg1354
S'varchar(20)'
p1426
sa(dp1427
g1346
S''
sg1348
S'0'
sg1349
S'qa_contact'
p1428
sg1351
S'MUL'
p1429
sg1353
S''
sg1354
S'mediumint(9)'
p1430
sa(dp1431
g1346
S''
sg1348
S''
sg1349
S'status_whiteboard'
p1432
sg1351
S''
sg1353
S''
sg1354
S'mediumtext'
p1433
sa(dp1434
g1346
S''
sg1348
S'0'
sg1349
S'votes'
p1435
sg1351
S'MUL'
p1436
sg1353
S''
sg1354
S'mediumint(9)'
p1437
sa(dp1438
g1346
S''
sg1348
S''
sg1349
S'keywords'
p1439
sg1351
S''
sg1353
S''
sg1354
S'mediumtext'
p1440
sa(dp1441
g1346
S''
sg1348
S'0000-00-00 00:00:00'
p1442
sg1349
S'lastdiffed'
p1443
sg1351
S''
sg1353
S''
sg1354
S'datetime'
p1444
sa(dp1445
g1346
S''
sg1348
S'0'
sg1349
S'everconfirmed'
p1446
sg1351
S''
sg1353
S''
sg1354
S'tinyint(4)'
p1447
sa(dp1448
g1346
S''
sg1348
S'1'
sg1349
S'reporter_accessible'
p1449
sg1351
S''
sg1353
S''
sg1354
S'tinyint(4)'
p1450
sa(dp1451
g1346
S''
sg1348
S'1'
sg1349
S'cclist_accessible'
p1452
sg1351
S''
sg1353
S''
sg1354
S'tinyint(4)'
p1453
sa(dp1454
g1346
S''
sg1348
S'0.00'
p1455
sg1349
S'estimated_time'
p1456
sg1351
S''
sg1353
S''
sg1354
S'decimal(5,2)'
p1457
sa(dp1458
g1346
S''
sg1348
S'0.00'
p1459
sg1349
S'remaining_time'
p1460
sg1351
S''
sg1353
S''
sg1354
S'decimal(5,2)'
p1461
sa(dp1462
g1346
S''
sg1348
Nsg1349
S'alias'
p1463
sg1351
S'MUL'
p1464
sg1353
S'YES'
p1465
sg1354
S'varchar(20)'
p1466
sa(lp1467
(dp1468
S'Comment'
p1469
S''
sS'Non_unique'
p1470
L0L
sS'Sub_part'
p1471
NsS'Index_type'
p1472
S'BTREE'
p1473
sS'Key_name'
p1474
S'PRIMARY'
p1475
sS'Collation'
p1476
S'A'
sS'Null'
p1477
S''
sS'Seq_in_index'
p1478
L1L
sS'Table'
p1479
S'bugs'
p1480
sS'Cardinality'
p1481
L0L
sS'Packed'
p1482
NsS'Column_name'
p1483
S'bug_id'
p1484
sa(dp1485
g1469
S''
sg1470
L0L
sg1471
Nsg1472
S'BTREE'
p1486
sg1474
S'alias'
p1487
sg1476
S'A'
sg1477
S'YES'
p1488
sg1478
L1L
sg1479
S'bugs'
p1489
sg1481
Nsg1482
Nsg1483
S'alias'
p1490
sa(dp1491
g1469
S''
sg1470
L1L
sg1471
Nsg1472
S'BTREE'
p1492
sg1474
S'assigned_to'
p1493
sg1476
S'A'
sg1477
S''
sg1478
L1L
sg1479
S'bugs'
p1494
sg1481
Nsg1482
Nsg1483
S'assigned_to'
p1495
sa(dp1496
g1469
S''
sg1470
L1L
sg1471
Nsg1472
S'BTREE'
p1497
sg1474
S'creation_ts'
p1498
sg1476
S'A'
sg1477
S''
sg1478
L1L
sg1479
S'bugs'
p1499
sg1481
Nsg1482
Nsg1483
S'creation_ts'
p1500
sa(dp1501
g1469
S''
sg1470
L1L
sg1471
Nsg1472
S'BTREE'
p1502
sg1474
S'delta_ts'
p1503
sg1476
S'A'
sg1477
S''
sg1478
L1L
sg1479
S'bugs'
p1504
sg1481
Nsg1482
Nsg1483
S'delta_ts'
p1505
sa(dp1506
g1469
S''
sg1470
L1L
sg1471
Nsg1472
S'BTREE'
p1507
sg1474
S'bug_severity'
p1508
sg1476
S'A'
sg1477
S''
sg1478
L1L
sg1479
S'bugs'
p1509
sg1481
Nsg1482
Nsg1483
S'bug_severity'
p1510
sa(dp1511
g1469
S''
sg1470
L1L
sg1471
Nsg1472
S'BTREE'
p1512
sg1474
S'bug_status'
p1513
sg1476
S'A'
sg1477
S''
sg1478
L1L
sg1479
S'bugs'
p1514
sg1481
Nsg1482
Nsg1483
S'bug_status'
p1515
sa(dp1516
g1469
S''
sg1470
L1L
sg1471
Nsg1472
S'BTREE'
p1517
sg1474
S'op_sys'
p1518
sg1476
S'A'
sg1477
S''
sg1478
L1L
sg1479
S'bugs'
p1519
sg1481
Nsg1482
Nsg1483
S'op_sys'
p1520
sa(dp1521
g1469
S''
sg1470
L1L
sg1471
Nsg1472
S'BTREE'
p1522
sg1474
S'priority'
p1523
sg1476
S'A'
sg1477
S''
sg1478
L1L
sg1479
S'bugs'
p1524
sg1481
Nsg1482
Nsg1483
S'priority'
p1525
sa(dp1526
g1469
S''
sg1470
L1L
sg1471
Nsg1472
S'BTREE'
p1527
sg1474
S'product_id'
p1528
sg1476
S'A'
sg1477
S''
sg1478
L1L
sg1479
S'bugs'
p1529
sg1481
Nsg1482
Nsg1483
S'product_id'
p1530
sa(dp1531
g1469
S''
sg1470
L1L
sg1471
Nsg1472
S'BTREE'
p1532
sg1474
S'reporter'
p1533
sg1476
S'A'
sg1477
S''
sg1478
L1L
sg1479
S'bugs'
p1534
sg1481
Nsg1482
Nsg1483
S'reporter'
p1535
sa(dp1536
g1469
S''
sg1470
L1L
sg1471
Nsg1472
S'BTREE'
p1537
sg1474
S'version'
p1538
sg1476
S'A'
sg1477
S''
sg1478
L1L
sg1479
S'bugs'
p1539
sg1481
Nsg1482
Nsg1483
S'version'
p1540
sa(dp1541
g1469
S''
sg1470
L1L
sg1471
Nsg1472
S'BTREE'
p1542
sg1474
S'component_id'
p1543
sg1476
S'A'
sg1477
S''
sg1478
L1L
sg1479
S'bugs'
p1544
sg1481
Nsg1482
Nsg1483
S'component_id'
p1545
sa(dp1546
g1469
S''
sg1470
L1L
sg1471
Nsg1472
S'BTREE'
p1547
sg1474
S'resolution'
p1548
sg1476
S'A'
sg1477
S''
sg1478
L1L
sg1479
S'bugs'
p1549
sg1481
Nsg1482
Nsg1483
S'resolution'
p1550
sa(dp1551
g1469
S''
sg1470
L1L
sg1471
Nsg1472
S'BTREE'
p1552
sg1474
S'target_milestone'
p1553
sg1476
S'A'
sg1477
S''
sg1478
L1L
sg1479
S'bugs'
p1554
sg1481
Nsg1482
Nsg1483
S'target_milestone'
p1555
sa(dp1556
g1469
S''
sg1470
L1L
sg1471
Nsg1472
S'BTREE'
p1557
sg1474
S'qa_contact'
p1558
sg1476
S'A'
sg1477
S''
sg1478
L1L
sg1479
S'bugs'
p1559
sg1481
Nsg1482
Nsg1483
S'qa_contact'
p1560
sa(dp1561
g1469
S''
sg1470
L1L
sg1471
Nsg1472
S'BTREE'
p1562
sg1474
S'votes'
p1563
sg1476
S'A'
sg1477
S''
sg1478
L1L
sg1479
S'bugs'
p1564
sg1481
Nsg1482
Nsg1483
S'votes'
p1565
satp1566
sS'profiles'
p1567
((lp1568
(dp1569
S'Extra'
p1570
S'auto_increment'
p1571
sS'Default'
p1572
NsS'Field'
p1573
S'userid'
p1574
sS'Key'
p1575
S'PRI'
p1576
sS'Null'
p1577
S''
sS'Type'
p1578
S'mediumint(9)'
p1579
sa(dp1580
g1570
S''
sg1572
S''
sg1573
S'login_name'
p1581
sg1575
S'UNI'
p1582
sg1577
S''
sg1578
S'varchar(255)'
p1583
sa(dp1584
g1570
S''
sg1572
Nsg1573
S'cryptpassword'
p1585
sg1575
S''
sg1577
S'YES'
p1586
sg1578
S'varchar(34)'
p1587
sa(dp1588
g1570
S''
sg1572
Nsg1573
S'realname'
p1589
sg1575
S''
sg1577
S'YES'
p1590
sg1578
S'varchar(255)'
p1591
sa(dp1592
g1570
S''
sg1572
S''
sg1573
S'disabledtext'
p1593
sg1575
S''
sg1577
S''
sg1578
S'mediumtext'
p1594
sa(dp1595
g1570
S''
sg1572
S'1'
sg1573
S'mybugslink'
p1596
sg1575
S''
sg1577
S''
sg1578
S'tinyint(4)'
p1597
sa(dp1598
g1570
S''
sg1572
Nsg1573
S'emailflags'
p1599
sg1575
S''
sg1577
S'YES'
p1600
sg1578
S'mediumtext'
p1601
sa(dp1602
g1570
S''
sg1572
S'0000-00-00 00:00:00'
p1603
sg1573
S'refreshed_when'
p1604
sg1575
S''
sg1577
S''
sg1578
S'datetime'
p1605
sa(lp1606
(dp1607
S'Comment'
p1608
S''
sS'Non_unique'
p1609
L0L
sS'Sub_part'
p1610
NsS'Index_type'
p1611
S'BTREE'
p1612
sS'Key_name'
p1613
S'PRIMARY'
p1614
sS'Collation'
p1615
S'A'
sS'Null'
p1616
S''
sS'Seq_in_index'
p1617
L1L
sS'Table'
p1618
S'profiles'
p1619
sS'Cardinality'
p1620
L0L
sS'Packed'
p1621
NsS'Column_name'
p1622
S'userid'
p1623
sa(dp1624
g1608
S''
sg1609
L0L
sg1610
Nsg1611
S'BTREE'
p1625
sg1613
S'login_name'
p1626
sg1615
S'A'
sg1616
S''
sg1617
L1L
sg1618
S'profiles'
p1627
sg1620
L0L
sg1621
Nsg1622
S'login_name'
p1628
satp1629
sS'flags'
p1630
((lp1631
(dp1632
S'Extra'
p1633
S''
sS'Default'
p1634
S'0'
sS'Field'
p1635
S'id'
p1636
sS'Key'
p1637
S'PRI'
p1638
sS'Null'
p1639
S''
sS'Type'
p1640
S'mediumint(9)'
p1641
sa(dp1642
g1633
S''
sg1634
S'0'
sg1635
S'type_id'
p1643
sg1637
S''
sg1639
S''
sg1640
S'smallint(6)'
p1644
sa(dp1645
g1633
S''
sg1634
S''
sg1635
S'status'
p1646
sg1637
S''
sg1639
S''
sg1640
S'char(1)'
p1647
sa(dp1648
g1633
S''
sg1634
S'0'
sg1635
S'bug_id'
p1649
sg1637
S'MUL'
p1650
sg1639
S''
sg1640
S'mediumint(9)'
p1651
sa(dp1652
g1633
S''
sg1634
Nsg1635
S'attach_id'
p1653
sg1637
S''
sg1639
S'YES'
p1654
sg1640
S'mediumint(9)'
p1655
sa(dp1656
g1633
S''
sg1634
S'0000-00-00 00:00:00'
p1657
sg1635
S'creation_date'
p1658
sg1637
S''
sg1639
S''
sg1640
S'datetime'
p1659
sa(dp1660
g1633
S''
sg1634
Nsg1635
S'modification_date'
p1661
sg1637
S''
sg1639
S'YES'
p1662
sg1640
S'datetime'
p1663
sa(dp1664
g1633
S''
sg1634
Nsg1635
S'setter_id'
p1665
sg1637
S'MUL'
p1666
sg1639
S'YES'
p1667
sg1640
S'mediumint(9)'
p1668
sa(dp1669
g1633
S''
sg1634
Nsg1635
S'requestee_id'
p1670
sg1637
S'MUL'
p1671
sg1639
S'YES'
p1672
sg1640
S'mediumint(9)'
p1673
sa(lp1674
(dp1675
S'Comment'
p1676
S''
sS'Non_unique'
p1677
L0L
sS'Sub_part'
p1678
NsS'Index_type'
p1679
S'BTREE'
p1680
sS'Key_name'
p1681
S'PRIMARY'
p1682
sS'Collation'
p1683
S'A'
sS'Null'
p1684
S''
sS'Seq_in_index'
p1685
L1L
sS'Table'
p1686
S'flags'
p1687
sS'Cardinality'
p1688
L0L
sS'Packed'
p1689
NsS'Column_name'
p1690
S'id'
p1691
sa(dp1692
g1676
S''
sg1677
L1L
sg1678
Nsg1679
S'BTREE'
p1693
sg1681
S'bug_id'
p1694
sg1683
S'A'
sg1684
S''
sg1685
L1L
sg1686
S'flags'
p1695
sg1688
Nsg1689
Nsg1690
S'bug_id'
p1696
sa(dp1697
g1676
S''
sg1677
L1L
sg1678
Nsg1679
S'BTREE'
p1698
sg1681
S'bug_id'
p1699
sg1683
S'A'
sg1684
S'YES'
p1700
sg1685
L2L
sg1686
S'flags'
p1701
sg1688
Nsg1689
Nsg1690
S'attach_id'
p1702
sa(dp1703
g1676
S''
sg1677
L1L
sg1678
Nsg1679
S'BTREE'
p1704
sg1681
S'setter_id'
p1705
sg1683
S'A'
sg1684
S'YES'
p1706
sg1685
L1L
sg1686
S'flags'
p1707
sg1688
Nsg1689
Nsg1690
S'setter_id'
p1708
sa(dp1709
g1676
S''
sg1677
L1L
sg1678
Nsg1679
S'BTREE'
p1710
sg1681
S'requestee_id'
p1711
sg1683
S'A'
sg1684
S'YES'
p1712
sg1685
L1L
sg1686
S'flags'
p1713
sg1688
Nsg1689
Nsg1690
S'requestee_id'
p1714
satp1715
sS'bugs_activity'
p1716
((lp1717
(dp1718
S'Extra'
p1719
S''
sS'Default'
p1720
S'0'
sS'Field'
p1721
S'bug_id'
p1722
sS'Key'
p1723
S'MUL'
p1724
sS'Null'
p1725
S''
sS'Type'
p1726
S'mediumint(9)'
p1727
sa(dp1728
g1719
S''
sg1720
Nsg1721
S'attach_id'
p1729
sg1723
S''
sg1725
S'YES'
p1730
sg1726
S'mediumint(9)'
p1731
sa(dp1732
g1719
S''
sg1720
S'0'
sg1721
S'who'
p1733
sg1723
S''
sg1725
S''
sg1726
S'mediumint(9)'
p1734
sa(dp1735
g1719
S''
sg1720
S'0000-00-00 00:00:00'
p1736
sg1721
S'bug_when'
p1737
sg1723
S'MUL'
p1738
sg1725
S''
sg1726
S'datetime'
p1739
sa(dp1740
g1719
S''
sg1720
S'0'
sg1721
S'fieldid'
p1741
sg1723
S'MUL'
p1742
sg1725
S''
sg1726
S'mediumint(9)'
p1743
sa(dp1744
g1719
S''
sg1720
Nsg1721
S'added'
p1745
sg1723
S''
sg1725
S'YES'
p1746
sg1726
S'tinytext'
p1747
sa(dp1748
g1719
S''
sg1720
Nsg1721
S'removed'
p1749
sg1723
S''
sg1725
S'YES'
p1750
sg1726
S'tinytext'
p1751
sa(lp1752
(dp1753
S'Comment'
p1754
S''
sS'Non_unique'
p1755
L1L
sS'Sub_part'
p1756
NsS'Index_type'
p1757
S'BTREE'
p1758
sS'Key_name'
p1759
S'bug_id'
p1760
sS'Collation'
p1761
S'A'
sS'Null'
p1762
S''
sS'Seq_in_index'
p1763
L1L
sS'Table'
p1764
S'bugs_activity'
p1765
sS'Cardinality'
p1766
NsS'Packed'
p1767
NsS'Column_name'
p1768
S'bug_id'
p1769
sa(dp1770
g1754
S''
sg1755
L1L
sg1756
Nsg1757
S'BTREE'
p1771
sg1759
S'bug_when'
p1772
sg1761
S'A'
sg1762
S''
sg1763
L1L
sg1764
S'bugs_activity'
p1773
sg1766
Nsg1767
Nsg1768
S'bug_when'
p1774
sa(dp1775
g1754
S''
sg1755
L1L
sg1756
Nsg1757
S'BTREE'
p1776
sg1759
S'fieldid'
p1777
sg1761
S'A'
sg1762
S''
sg1763
L1L
sg1764
S'bugs_activity'
p1778
sg1766
Nsg1767
Nsg1768
S'fieldid'
p1779
satp1780
st.