(S'2.17.3'
p1
(dp2
S'bug_group_map'
p3
((lp4
(dp5
S'Extra'
p6
S''
sS'Default'
p7
S'0'
sS'Field'
p8
S'bug_id'
p9
sS'Key'
p10
S'PRI'
p11
sS'Null'
p12
S''
sS'Type'
p13
S'mediumint(9)'
p14
sa(dp15
g6
S''
sg7
S'0'
sg8
S'group_id'
p16
sg10
S'PRI'
p17
sg12
S''
sg13
S'mediumint(9)'
p18
sa(lp19
(dp20
S'Comment'
p21
S''
sS'Non_unique'
p22
L0L
sS'Sub_part'
p23
NsS'Index_type'
p24
S'BTREE'
p25
sS'Key_name'
p26
S'bug_id'
p27
sS'Collation'
p28
S'A'
sS'Null'
p29
S''
sS'Seq_in_index'
p30
L1L
sS'Table'
p31
S'bug_group_map'
p32
sS'Cardinality'
p33
NsS'Packed'
p34
NsS'Column_name'
p35
S'bug_id'
p36
sa(dp37
g21
S''
sg22
L0L
sg23
Nsg24
S'BTREE'
p38
sg26
S'bug_id'
p39
sg28
S'A'
sg29
S''
sg30
L2L
sg31
S'bug_group_map'
p40
sg33
L0L
sg34
Nsg35
S'group_id'
p41
sa(dp42
g21
S''
sg22
L1L
sg23
Nsg24
S'BTREE'
p43
sg26
S'group_id'
p44
sg28
S'A'
sg29
S''
sg30
L1L
sg31
S'bug_group_map'
p45
sg33
Nsg34
Nsg35
S'group_id'
p46
satp47
sS'attachments'
p48
((lp49
(dp50
S'Extra'
p51
S'auto_increment'
p52
sS'Default'
p53
NsS'Field'
p54
S'attach_id'
p55
sS'Key'
p56
S'PRI'
p57
sS'Null'
p58
S''
sS'Type'
p59
S'mediumint(9)'
p60
sa(dp61
g51
S''
sg53
S'0'
sg54
S'bug_id'
p62
sg56
S'MUL'
p63
sg58
S''
sg59
S'mediumint(9)'
p64
sa(dp65
g51
S''
sg53
S'0000-00-00 00:00:00'
p66
sg54
S'creation_ts'
p67
sg56
S'MUL'
p68
sg58
S''
sg59
S'datetime'
p69
sa(dp70
g51
S''
sg53
S''
sg54
S'description'
p71
sg56
S''
sg58
S''
sg59
S'mediumtext'
p72
sa(dp73
g51
S''
sg53
S''
sg54
S'mimetype'
p74
sg56
S''
sg58
S''
sg59
S'mediumtext'
p75
sa(dp76
g51
S''
sg53
Nsg54
S'ispatch'
p77
sg56
S''
sg58
S'YES'
p78
sg59
S'tinyint(4)'
p79
sa(dp80
g51
S''
sg53
S''
sg54
S'filename'
p81
sg56
S''
sg58
S''
sg59
S'varchar(100)'
p82
sa(dp83
g51
S''
sg53
S''
sg54
S'thedata'
p84
sg56
S''
sg58
S''
sg59
S'longblob'
p85
sa(dp86
g51
S''
sg53
S'0'
sg54
S'submitter_id'
p87
sg56
S''
sg58
S''
sg59
S'mediumint(9)'
p88
sa(dp89
g51
S''
sg53
S'0'
sg54
S'isobsolete'
p90
sg56
S''
sg58
S''
sg59
S'tinyint(4)'
p91
sa(dp92
g51
S''
sg53
S'0'
sg54
S'isprivate'
p93
sg56
S''
sg58
S''
sg59
S'tinyint(4)'
p94
sa(lp95
(dp96
S'Comment'
p97
S''
sS'Non_unique'
p98
L0L
sS'Sub_part'
p99
NsS'Index_type'
p100
S'BTREE'
p101
sS'Key_name'
p102
S'PRIMARY'
p103
sS'Collation'
p104
S'A'
sS'Null'
p105
S''
sS'Seq_in_index'
p106
L1L
sS'Table'
p107
S'attachments'
p108
sS'Cardinality'
p109
L0L
sS'Packed'
p110
NsS'Column_name'
p111
S'attach_id'
p112
sa(dp113
g97
S''
sg98
L1L
sg99
Nsg100
S'BTREE'
p114
sg102
S'bug_id'
p115
sg104
S'A'
sg105
S''
sg106
L1L
sg107
S'attachments'
p116
sg109
Nsg110
Nsg111
S'bug_id'
p117
sa(dp118
g97
S''
sg98
L1L
sg99
Nsg100
S'BTREE'
p119
sg102
S'creation_ts'
p120
sg104
S'A'
sg105
S''
sg106
L1L
sg107
S'attachments'
p121
sg109
Nsg110
Nsg111
S'creation_ts'
p122
satp123
sS'cc'
p124
((lp125
(dp126
S'Extra'
p127
S''
sS'Default'
p128
S'0'
sS'Field'
p129
S'bug_id'
p130
sS'Key'
p131
S'PRI'
p132
sS'Null'
p133
S''
sS'Type'
p134
S'mediumint(9)'
p135
sa(dp136
g127
S''
sg128
S'0'
sg129
S'who'
p137
sg131
S'PRI'
p138
sg133
S''
sg134
S'mediumint(9)'
p139
sa(lp140
(dp141
S'Comment'
p142
S''
sS'Non_unique'
p143
L0L
sS'Sub_part'
p144
NsS'Index_type'
p145
S'BTREE'
p146
sS'Key_name'
p147
S'bug_id'
p148
sS'Collation'
p149
S'A'
sS'Null'
p150
S''
sS'Seq_in_index'
p151
L1L
sS'Table'
p152
S'cc'
p153
sS'Cardinality'
p154
NsS'Packed'
p155
NsS'Column_name'
p156
S'bug_id'
p157
sa(dp158
g142
S''
sg143
L0L
sg144
Nsg145
S'BTREE'
p159
sg147
S'bug_id'
p160
sg149
S'A'
sg150
S''
sg151
L2L
sg152
S'cc'
p161
sg154
L0L
sg155
Nsg156
S'who'
p162
sa(dp163
g142
S''
sg143
L1L
sg144
Nsg145
S'BTREE'
p164
sg147
S'who'
p165
sg149
S'A'
sg150
S''
sg151
L1L
sg152
S'cc'
p166
sg154
Nsg155
Nsg156
S'who'
p167
satp168
sS'group_control_map'
p169
((lp170
(dp171
S'Extra'
p172
S''
sS'Default'
p173
S'0'
sS'Field'
p174
S'group_id'
p175
sS'Key'
p176
S'PRI'
p177
sS'Null'
p178
S''
sS'Type'
p179
S'mediumint(9)'
p180
sa(dp181
g172
S''
sg173
S'0'
sg174
S'product_id'
p182
sg176
S'PRI'
p183
sg178
S''
sg179
S'mediumint(9)'
p184
sa(dp185
g172
S''
sg173
S'0'
sg174
S'entry'
p186
sg176
S''
sg178
S''
sg179
S'tinyint(4)'
p187
sa(dp188
g172
S''
sg173
S'0'
sg174
S'membercontrol'
p189
sg176
S''
sg178
S''
sg179
S'tinyint(4)'
p190
sa(dp191
g172
S''
sg173
S'0'
sg174
S'othercontrol'
p192
sg176
S''
sg178
S''
sg179
S'tinyint(4)'
p193
sa(dp194
g172
S''
sg173
S'0'
sg174
S'canedit'
p195
sg176
S''
sg178
S''
sg179
S'tinyint(4)'
p196
sa(lp197
(dp198
S'Comment'
p199
S''
sS'Non_unique'
p200
L0L
sS'Sub_part'
p201
NsS'Index_type'
p202
S'BTREE'
p203
sS'Key_name'
p204
S'product_id'
p205
sS'Collation'
p206
S'A'
sS'Null'
p207
S''
sS'Seq_in_index'
p208
L1L
sS'Table'
p209
S'group_control_map'
p210
sS'Cardinality'
p211
NsS'Packed'
p212
NsS'Column_name'
p213
S'product_id'
p214
sa(dp215
g199
S''
sg200
L0L
sg201
Nsg202
S'BTREE'
p216
sg204
S'product_id'
p217
sg206
S'A'
sg207
S''
sg208
L2L
sg209
S'group_control_map'
p218
sg211
L0L
sg212
Nsg213
S'group_id'
p219
sa(dp220
g199
S''
sg200
L1L
sg201
Nsg202
S'BTREE'
p221
sg204
S'group_id'
p222
sg206
S'A'
sg207
S''
sg208
L1L
sg209
S'group_control_map'
p223
sg211
Nsg212
Nsg213
S'group_id'
p224
satp225
sS'keywords'
p226
((lp227
(dp228
S'Extra'
p229
S''
sS'Default'
p230
S'0'
sS'Field'
p231
S'bug_id'
p232
sS'Key'
p233
S'PRI'
p234
sS'Null'
p235
S''
sS'Type'
p236
S'mediumint(9)'
p237
sa(dp238
g229
S''
sg230
S'0'
sg231
S'keywordid'
p239
sg233
S'PRI'
p240
sg235
S''
sg236
S'smallint(6)'
p241
sa(lp242
(dp243
S'Comment'
p244
S''
sS'Non_unique'
p245
L0L
sS'Sub_part'
p246
NsS'Index_type'
p247
S'BTREE'
p248
sS'Key_name'
p249
S'bug_id'
p250
sS'Collation'
p251
S'A'
sS'Null'
p252
S''
sS'Seq_in_index'
p253
L1L
sS'Table'
p254
S'keywords'
p255
sS'Cardinality'
p256
NsS'Packed'
p257
NsS'Column_name'
p258
S'bug_id'
p259
sa(dp260
g244
S''
sg245
L0L
sg246
Nsg247
S'BTREE'
p261
sg249
S'bug_id'
p262
sg251
S'A'
sg252
S''
sg253
L2L
sg254
S'keywords'
p263
sg256
L0L
sg257
Nsg258
S'keywordid'
p264
sa(dp265
g244
S''
sg245
L1L
sg246
Nsg247
S'BTREE'
p266
sg249
S'keywordid'
p267
sg251
S'A'
sg252
S''
sg253
L1L
sg254
S'keywords'
p268
sg256
Nsg257
Nsg258
S'keywordid'
p269
satp270
sS'user_group_map'
p271
((lp272
(dp273
S'Extra'
p274
S''
sS'Default'
p275
S'0'
sS'Field'
p276
S'user_id'
p277
sS'Key'
p278
S'PRI'
p279
sS'Null'
p280
S''
sS'Type'
p281
S'mediumint(9)'
p282
sa(dp283
g274
S''
sg275
S'0'
sg276
S'group_id'
p284
sg278
S'PRI'
p285
sg280
S''
sg281
S'mediumint(9)'
p286
sa(dp287
g274
S''
sg275
S'0'
sg276
S'isbless'
p288
sg278
S'PRI'
p289
sg280
S''
sg281
S'tinyint(4)'
p290
sa(dp291
g274
S''
sg275
S'0'
sg276
S'isderived'
p292
sg278
S'PRI'
p293
sg280
S''
sg281
S'tinyint(4)'
p294
sa(lp295
(dp296
S'Comment'
p297
S''
sS'Non_unique'
p298
L0L
sS'Sub_part'
p299
NsS'Index_type'
p300
S'BTREE'
p301
sS'Key_name'
p302
S'user_id'
p303
sS'Collation'
p304
S'A'
sS'Null'
p305
S''
sS'Seq_in_index'
p306
L1L
sS'Table'
p307
S'user_group_map'
p308
sS'Cardinality'
p309
NsS'Packed'
p310
NsS'Column_name'
p311
S'user_id'
p312
sa(dp313
g297
S''
sg298
L0L
sg299
Nsg300
S'BTREE'
p314
sg302
S'user_id'
p315
sg304
S'A'
sg305
S''
sg306
L2L
sg307
S'user_group_map'
p316
sg309
Nsg310
Nsg311
S'group_id'
p317
sa(dp318
g297
S''
sg298
L0L
sg299
Nsg300
S'BTREE'
p319
sg302
S'user_id'
p320
sg304
S'A'
sg305
S''
sg306
L3L
sg307
S'user_group_map'
p321
sg309
Nsg310
Nsg311
S'isderived'
p322
sa(dp323
g297
S''
sg298
L0L
sg299
Nsg300
S'BTREE'
p324
sg302
S'user_id'
p325
sg304
S'A'
sg305
S''
sg306
L4L
sg307
S'user_group_map'
p326
sg309
L0L
sg310
Nsg311
S'isbless'
p327
satp328
sS'keyworddefs'
p329
((lp330
(dp331
S'Extra'
p332
S''
sS'Default'
p333
S'0'
sS'Field'
p334
S'id'
p335
sS'Key'
p336
S'PRI'
p337
sS'Null'
p338
S''
sS'Type'
p339
S'smallint(6)'
p340
sa(dp341
g332
S''
sg333
S''
sg334
S'name'
p342
sg336
S'UNI'
p343
sg338
S''
sg339
S'varchar(64)'
p344
sa(dp345
g332
S''
sg333
Nsg334
S'description'
p346
sg336
S''
sg338
S'YES'
p347
sg339
S'mediumtext'
p348
sa(lp349
(dp350
S'Comment'
p351
S''
sS'Non_unique'
p352
L0L
sS'Sub_part'
p353
NsS'Index_type'
p354
S'BTREE'
p355
sS'Key_name'
p356
S'PRIMARY'
p357
sS'Collation'
p358
S'A'
sS'Null'
p359
S''
sS'Seq_in_index'
p360
L1L
sS'Table'
p361
S'keyworddefs'
p362
sS'Cardinality'
p363
L0L
sS'Packed'
p364
NsS'Column_name'
p365
S'id'
p366
sa(dp367
g351
S''
sg352
L0L
sg353
Nsg354
S'BTREE'
p368
sg356
S'name'
p369
sg358
S'A'
sg359
S''
sg360
L1L
sg361
S'keyworddefs'
p370
sg363
L0L
sg364
Nsg365
S'name'
p371
satp372
sS'flagexclusions'
p373
((lp374
(dp375
S'Extra'
p376
S''
sS'Default'
p377
S'0'
sS'Field'
p378
S'type_id'
p379
sS'Key'
p380
S'MUL'
p381
sS'Null'
p382
S''
sS'Type'
p383
S'smallint(6)'
p384
sa(dp385
g376
S''
sg377
Nsg378
S'product_id'
p386
sg380
S''
sg382
S'YES'
p387
sg383
S'smallint(6)'
p388
sa(dp389
g376
S''
sg377
Nsg378
S'component_id'
p390
sg380
S''
sg382
S'YES'
p391
sg383
S'smallint(6)'
p392
sa(lp393
(dp394
S'Comment'
p395
S''
sS'Non_unique'
p396
L1L
sS'Sub_part'
p397
NsS'Index_type'
p398
S'BTREE'
p399
sS'Key_name'
p400
S'type_id'
p401
sS'Collation'
p402
S'A'
sS'Null'
p403
S''
sS'Seq_in_index'
p404
L1L
sS'Table'
p405
S'flagexclusions'
p406
sS'Cardinality'
p407
NsS'Packed'
p408
NsS'Column_name'
p409
S'type_id'
p410
sa(dp411
g395
S''
sg396
L1L
sg397
Nsg398
S'BTREE'
p412
sg400
S'type_id'
p413
sg402
S'A'
sg403
S'YES'
p414
sg404
L2L
sg405
S'flagexclusions'
p415
sg407
Nsg408
Nsg409
S'product_id'
p416
sa(dp417
g395
S''
sg396
L1L
sg397
Nsg398
S'BTREE'
p418
sg400
S'type_id'
p419
sg402
S'A'
sg403
S'YES'
p420
sg404
L3L
sg405
S'flagexclusions'
p421
sg407
Nsg408
Nsg409
S'component_id'
p422
satp423
sS'votes'
p424
((lp425
(dp426
S'Extra'
p427
S''
sS'Default'
p428
S'0'
sS'Field'
p429
S'who'
p430
sS'Key'
p431
S'MUL'
p432
sS'Null'
p433
S''
sS'Type'
p434
S'mediumint(9)'
p435
sa(dp436
g427
S''
sg428
S'0'
sg429
S'bug_id'
p437
sg431
S'MUL'
p438
sg433
S''
sg434
S'mediumint(9)'
p439
sa(dp440
g427
S''
sg428
S'0'
sg429
S'count'
p441
sg431
S''
sg433
S''
sg434
S'smallint(6)'
p442
sa(lp443
(dp444
S'Comment'
p445
S''
sS'Non_unique'
p446
L1L
sS'Sub_part'
p447
NsS'Index_type'
p448
S'BTREE'
p449
sS'Key_name'
p450
S'who'
p451
sS'Collation'
p452
S'A'
sS'Null'
p453
S''
sS'Seq_in_index'
p454
L1L
sS'Table'
p455
S'votes'
p456
sS'Cardinality'
p457
NsS'Packed'
p458
NsS'Column_name'
p459
S'who'
p460
sa(dp461
g445
S''
sg446
L1L
sg447
Nsg448
S'BTREE'
p462
sg450
S'bug_id'
p463
sg452
S'A'
sg453
S''
sg454
L1L
sg455
S'votes'
p464
sg457
Nsg458
Nsg459
S'bug_id'
p465
satp466
sS'products'
p467
((lp468
(dp469
S'Extra'
p470
S'auto_increment'
p471
sS'Default'
p472
NsS'Field'
p473
S'id'
p474
sS'Key'
p475
S'PRI'
p476
sS'Null'
p477
S''
sS'Type'
p478
S'smallint(6)'
p479
sa(dp480
g470
S''
sg472
S''
sg473
S'name'
p481
sg475
S'UNI'
p482
sg477
S''
sg478
S'varchar(64)'
p483
sa(dp484
g470
S''
sg472
Nsg473
S'description'
p485
sg475
S''
sg477
S'YES'
p486
sg478
S'mediumtext'
p487
sa(dp488
g470
S''
sg472
S''
sg473
S'milestoneurl'
p489
sg475
S''
sg477
S''
sg478
S'tinytext'
p490
sa(dp491
g470
S''
sg472
S'0'
sg473
S'disallownew'
p492
sg475
S''
sg477
S''
sg478
S'tinyint(4)'
p493
sa(dp494
g470
S''
sg472
S'0'
sg473
S'votesperuser'
p495
sg475
S''
sg477
S''
sg478
S'smallint(6)'
p496
sa(dp497
g470
S''
sg472
S'10000'
p498
sg473
S'maxvotesperbug'
p499
sg475
S''
sg477
S''
sg478
S'smallint(6)'
p500
sa(dp501
g470
S''
sg472
S'0'
sg473
S'votestoconfirm'
p502
sg475
S''
sg477
S''
sg478
S'smallint(6)'
p503
sa(dp504
g470
S''
sg472
S'---'
p505
sg473
S'defaultmilestone'
p506
sg475
S''
sg477
S''
sg478
S'varchar(20)'
p507
sa(lp508
(dp509
S'Comment'
p510
S''
sS'Non_unique'
p511
L0L
sS'Sub_part'
p512
NsS'Index_type'
p513
S'BTREE'
p514
sS'Key_name'
p515
S'PRIMARY'
p516
sS'Collation'
p517
S'A'
sS'Null'
p518
S''
sS'Seq_in_index'
p519
L1L
sS'Table'
p520
S'products'
p521
sS'Cardinality'
p522
L1L
sS'Packed'
p523
NsS'Column_name'
p524
S'id'
p525
sa(dp526
g510
S''
sg511
L0L
sg512
Nsg513
S'BTREE'
p527
sg515
S'name'
p528
sg517
S'A'
sg518
S''
sg519
L1L
sg520
S'products'
p529
sg522
L1L
sg523
Nsg524
S'name'
p530
satp531
sS'duplicates'
p532
((lp533
(dp534
S'Extra'
p535
S''
sS'Default'
p536
S'0'
sS'Field'
p537
S'dupe_of'
p538
sS'Key'
p539
S''
sS'Null'
p540
S''
sS'Type'
p541
S'mediumint(9)'
p542
sa(dp543
g535
S''
sg536
S'0'
sg537
S'dupe'
p544
sg539
S'PRI'
p545
sg540
S''
sg541
S'mediumint(9)'
p546
sa(lp547
(dp548
S'Comment'
p549
S''
sS'Non_unique'
p550
L0L
sS'Sub_part'
p551
NsS'Index_type'
p552
S'BTREE'
p553
sS'Key_name'
p554
S'PRIMARY'
p555
sS'Collation'
p556
S'A'
sS'Null'
p557
S''
sS'Seq_in_index'
p558
L1L
sS'Table'
p559
S'duplicates'
p560
sS'Cardinality'
p561
L0L
sS'Packed'
p562
NsS'Column_name'
p563
S'dupe'
p564
satp565
sS'logincookies'
p566
((lp567
(dp568
S'Extra'
p569
S'auto_increment'
p570
sS'Default'
p571
NsS'Field'
p572
S'cookie'
p573
sS'Key'
p574
S'PRI'
p575
sS'Null'
p576
S''
sS'Type'
p577
S'mediumint(9)'
p578
sa(dp579
g569
S''
sg571
S'0'
sg572
S'userid'
p580
sg574
S''
sg576
S''
sg577
S'mediumint(9)'
p581
sa(dp582
g569
S''
sg571
S''
sg572
S'ipaddr'
p583
sg574
S''
sg576
S''
sg577
S'varchar(40)'
p584
sa(dp585
g569
S''
sg571
Nsg572
S'lastused'
p586
sg574
S'MUL'
p587
sg576
S'YES'
p588
sg577
S'timestamp(14)'
p589
sa(lp590
(dp591
S'Comment'
p592
S''
sS'Non_unique'
p593
L0L
sS'Sub_part'
p594
NsS'Index_type'
p595
S'BTREE'
p596
sS'Key_name'
p597
S'PRIMARY'
p598
sS'Collation'
p599
S'A'
sS'Null'
p600
S''
sS'Seq_in_index'
p601
L1L
sS'Table'
p602
S'logincookies'
p603
sS'Cardinality'
p604
L0L
sS'Packed'
p605
NsS'Column_name'
p606
S'cookie'
p607
sa(dp608
g592
S''
sg593
L1L
sg594
Nsg595
S'BTREE'
p609
sg597
S'lastused'
p610
sg599
S'A'
sg600
S''
sg601
L1L
sg602
S'logincookies'
p611
sg604
Nsg605
Nsg606
S'lastused'
p612
satp613
sS'fielddefs'
p614
((lp615
(dp616
S'Extra'
p617
S'auto_increment'
p618
sS'Default'
p619
NsS'Field'
p620
S'fieldid'
p621
sS'Key'
p622
S'PRI'
p623
sS'Null'
p624
S''
sS'Type'
p625
S'mediumint(9)'
p626
sa(dp627
g617
S''
sg619
S''
sg620
S'name'
p628
sg622
S'UNI'
p629
sg624
S''
sg625
S'varchar(64)'
p630
sa(dp631
g617
S''
sg619
S''
sg620
S'description'
p632
sg622
S''
sg624
S''
sg625
S'mediumtext'
p633
sa(dp634
g617
S''
sg619
S'0'
sg620
S'mailhead'
p635
sg622
S''
sg624
S''
sg625
S'tinyint(4)'
p636
sa(dp637
g617
S''
sg619
S'0'
sg620
S'sortkey'
p638
sg622
S'MUL'
p639
sg624
S''
sg625
S'smallint(6)'
p640
sa(lp641
(dp642
S'Comment'
p643
S''
sS'Non_unique'
p644
L0L
sS'Sub_part'
p645
NsS'Index_type'
p646
S'BTREE'
p647
sS'Key_name'
p648
S'PRIMARY'
p649
sS'Collation'
p650
S'A'
sS'Null'
p651
S''
sS'Seq_in_index'
p652
L1L
sS'Table'
p653
S'fielddefs'
p654
sS'Cardinality'
p655
L44L
sS'Packed'
p656
NsS'Column_name'
p657
S'fieldid'
p658
sa(dp659
g643
S''
sg644
L0L
sg645
Nsg646
S'BTREE'
p660
sg648
S'name'
p661
sg650
S'A'
sg651
S''
sg652
L1L
sg653
S'fielddefs'
p662
sg655
L44L
sg656
Nsg657
S'name'
p663
sa(dp664
g643
S''
sg644
L1L
sg645
Nsg646
S'BTREE'
p665
sg648
S'sortkey'
p666
sg650
S'A'
sg651
S''
sg652
L1L
sg653
S'fielddefs'
p667
sg655
Nsg656
Nsg657
S'sortkey'
p668
satp669
sS'flaginclusions'
p670
((lp671
(dp672
S'Extra'
p673
S''
sS'Default'
p674
S'0'
sS'Field'
p675
S'type_id'
p676
sS'Key'
p677
S'MUL'
p678
sS'Null'
p679
S''
sS'Type'
p680
S'smallint(6)'
p681
sa(dp682
g673
S''
sg674
Nsg675
S'product_id'
p683
sg677
S''
sg679
S'YES'
p684
sg680
S'smallint(6)'
p685
sa(dp686
g673
S''
sg674
Nsg675
S'component_id'
p687
sg677
S''
sg679
S'YES'
p688
sg680
S'smallint(6)'
p689
sa(lp690
(dp691
S'Comment'
p692
S''
sS'Non_unique'
p693
L1L
sS'Sub_part'
p694
NsS'Index_type'
p695
S'BTREE'
p696
sS'Key_name'
p697
S'type_id'
p698
sS'Collation'
p699
S'A'
sS'Null'
p700
S''
sS'Seq_in_index'
p701
L1L
sS'Table'
p702
S'flaginclusions'
p703
sS'Cardinality'
p704
NsS'Packed'
p705
NsS'Column_name'
p706
S'type_id'
p707
sa(dp708
g692
S''
sg693
L1L
sg694
Nsg695
S'BTREE'
p709
sg697
S'type_id'
p710
sg699
S'A'
sg700
S'YES'
p711
sg701
L2L
sg702
S'flaginclusions'
p712
sg704
Nsg705
Nsg706
S'product_id'
p713
sa(dp714
g692
S''
sg693
L1L
sg694
Nsg695
S'BTREE'
p715
sg697
S'type_id'
p716
sg699
S'A'
sg700
S'YES'
p717
sg701
L3L
sg702
S'flaginclusions'
p718
sg704
Nsg705
Nsg706
S'component_id'
p719
satp720
sS'profiles_activity'
p721
((lp722
(dp723
S'Extra'
p724
S''
sS'Default'
p725
S'0'
sS'Field'
p726
S'userid'
p727
sS'Key'
p728
S'MUL'
p729
sS'Null'
p730
S''
sS'Type'
p731
S'mediumint(9)'
p732
sa(dp733
g724
S''
sg725
S'0'
sg726
S'who'
p734
sg728
S''
sg730
S''
sg731
S'mediumint(9)'
p735
sa(dp736
g724
S''
sg725
S'0000-00-00 00:00:00'
p737
sg726
S'profiles_when'
p738
sg728
S'MUL'
p739
sg730
S''
sg731
S'datetime'
p740
sa(dp741
g724
S''
sg725
S'0'
sg726
S'fieldid'
p742
sg728
S'MUL'
p743
sg730
S''
sg731
S'mediumint(9)'
p744
sa(dp745
g724
S''
sg725
Nsg726
S'oldvalue'
p746
sg728
S''
sg730
S'YES'
p747
sg731
S'tinytext'
p748
sa(dp749
g724
S''
sg725
Nsg726
S'newvalue'
p750
sg728
S''
sg730
S'YES'
p751
sg731
S'tinytext'
p752
sa(lp753
(dp754
S'Comment'
p755
S''
sS'Non_unique'
p756
L1L
sS'Sub_part'
p757
NsS'Index_type'
p758
S'BTREE'
p759
sS'Key_name'
p760
S'userid'
p761
sS'Collation'
p762
S'A'
sS'Null'
p763
S''
sS'Seq_in_index'
p764
L1L
sS'Table'
p765
S'profiles_activity'
p766
sS'Cardinality'
p767
NsS'Packed'
p768
NsS'Column_name'
p769
S'userid'
p770
sa(dp771
g755
S''
sg756
L1L
sg757
Nsg758
S'BTREE'
p772
sg760
S'profiles_when'
p773
sg762
S'A'
sg763
S''
sg764
L1L
sg765
S'profiles_activity'
p774
sg767
Nsg768
Nsg769
S'profiles_when'
p775
sa(dp776
g755
S''
sg756
L1L
sg757
Nsg758
S'BTREE'
p777
sg760
S'fieldid'
p778
sg762
S'A'
sg763
S''
sg764
L1L
sg765
S'profiles_activity'
p779
sg767
Nsg768
Nsg769
S'fieldid'
p780
satp781
sS'components'
p782
((lp783
(dp784
S'Extra'
p785
S'auto_increment'
p786
sS'Default'
p787
NsS'Field'
p788
S'id'
p789
sS'Key'
p790
S'PRI'
p791
sS'Null'
p792
S''
sS'Type'
p793
S'smallint(6)'
p794
sa(dp795
g785
S''
sg787
S''
sg788
S'name'
p796
sg790
S'MUL'
p797
sg792
S''
sg793
S'varchar(64)'
p798
sa(dp799
g785
S''
sg787
S'0'
sg788
S'product_id'
p800
sg790
S'MUL'
p801
sg792
S''
sg793
S'smallint(6)'
p802
sa(dp803
g785
S''
sg787
S'0'
sg788
S'initialowner'
p804
sg790
S''
sg792
S''
sg793
S'mediumint(9)'
p805
sa(dp806
g785
S''
sg787
S'0'
sg788
S'initialqacontact'
p807
sg790
S''
sg792
S''
sg793
S'mediumint(9)'
p808
sa(dp809
g785
S''
sg787
S''
sg788
S'description'
p810
sg790
S''
sg792
S''
sg793
S'mediumtext'
p811
sa(lp812
(dp813
S'Comment'
p814
S''
sS'Non_unique'
p815
L0L
sS'Sub_part'
p816
NsS'Index_type'
p817
S'BTREE'
p818
sS'Key_name'
p819
S'PRIMARY'
p820
sS'Collation'
p821
S'A'
sS'Null'
p822
S''
sS'Seq_in_index'
p823
L1L
sS'Table'
p824
S'components'
p825
sS'Cardinality'
p826
L1L
sS'Packed'
p827
NsS'Column_name'
p828
S'id'
p829
sa(dp830
g814
S''
sg815
L0L
sg816
Nsg817
S'BTREE'
p831
sg819
S'product_id'
p832
sg821
S'A'
sg822
S''
sg823
L1L
sg824
S'components'
p833
sg826
Nsg827
Nsg828
S'product_id'
p834
sa(dp835
g814
S''
sg815
L0L
sg816
Nsg817
S'BTREE'
p836
sg819
S'product_id'
p837
sg821
S'A'
sg822
S''
sg823
L2L
sg824
S'components'
p838
sg826
L1L
sg827
Nsg828
S'name'
p839
sa(dp840
g814
S''
sg815
L1L
sg816
Nsg817
S'BTREE'
p841
sg819
S'name'
p842
sg821
S'A'
sg822
S''
sg823
L1L
sg824
S'components'
p843
sg826
Nsg827
Nsg828
S'name'
p844
satp845
sS'watch'
p846
((lp847
(dp848
S'Extra'
p849
S''
sS'Default'
p850
S'0'
sS'Field'
p851
S'watcher'
p852
sS'Key'
p853
S'PRI'
p854
sS'Null'
p855
S''
sS'Type'
p856
S'mediumint(9)'
p857
sa(dp858
g849
S''
sg850
S'0'
sg851
S'watched'
p859
sg853
S'PRI'
p860
sg855
S''
sg856
S'mediumint(9)'
p861
sa(lp862
(dp863
S'Comment'
p864
S''
sS'Non_unique'
p865
L0L
sS'Sub_part'
p866
NsS'Index_type'
p867
S'BTREE'
p868
sS'Key_name'
p869
S'watcher'
p870
sS'Collation'
p871
S'A'
sS'Null'
p872
S''
sS'Seq_in_index'
p873
L1L
sS'Table'
p874
S'watch'
p875
sS'Cardinality'
p876
NsS'Packed'
p877
NsS'Column_name'
p878
S'watcher'
p879
sa(dp880
g864
S''
sg865
L0L
sg866
Nsg867
S'BTREE'
p881
sg869
S'watcher'
p882
sg871
S'A'
sg872
S''
sg873
L2L
sg874
S'watch'
p883
sg876
L0L
sg877
Nsg878
S'watched'
p884
sa(dp885
g864
S''
sg865
L1L
sg866
Nsg867
S'BTREE'
p886
sg869
S'watched'
p887
sg871
S'A'
sg872
S''
sg873
L1L
sg874
S'watch'
p888
sg876
Nsg877
Nsg878
S'watched'
p889
satp890
sS'namedqueries'
p891
((lp892
(dp893
S'Extra'
p894
S''
sS'Default'
p895
S'0'
sS'Field'
p896
S'userid'
p897
sS'Key'
p898
S'PRI'
p899
sS'Null'
p900
S''
sS'Type'
p901
S'mediumint(9)'
p902
sa(dp903
g894
S''
sg895
S''
sg896
S'name'
p904
sg898
S'PRI'
p905
sg900
S''
sg901
S'varchar(64)'
p906
sa(dp907
g894
S''
sg895
S'0'
sg896
S'linkinfooter'
p908
sg898
S''
sg900
S''
sg901
S'tinyint(4)'
p909
sa(dp910
g894
S''
sg895
S''
sg896
S'query'
p911
sg898
S''
sg900
S''
sg901
S'mediumtext'
p912
sa(lp913
(dp914
S'Comment'
p915
S''
sS'Non_unique'
p916
L0L
sS'Sub_part'
p917
NsS'Index_type'
p918
S'BTREE'
p919
sS'Key_name'
p920
S'userid'
p921
sS'Collation'
p922
S'A'
sS'Null'
p923
S''
sS'Seq_in_index'
p924
L1L
sS'Table'
p925
S'namedqueries'
p926
sS'Cardinality'
p927
NsS'Packed'
p928
NsS'Column_name'
p929
S'userid'
p930
sa(dp931
g915
S''
sg916
L0L
sg917
Nsg918
S'BTREE'
p932
sg920
S'userid'
p933
sg922
S'A'
sg923
S''
sg924
L2L
sg925
S'namedqueries'
p934
sg927
L0L
sg928
Nsg929
S'name'
p935
satp936
sS'tokens'
p937
((lp938
(dp939
S'Extra'
p940
S''
sS'Default'
p941
S'0'
sS'Field'
p942
S'userid'
p943
sS'Key'
p944
S'MUL'
p945
sS'Null'
p946
S''
sS'Type'
p947
S'mediumint(9)'
p948
sa(dp949
g940
S''
sg941
S'0000-00-00 00:00:00'
p950
sg942
S'issuedate'
p951
sg944
S''
sg946
S''
sg947
S'datetime'
p952
sa(dp953
g940
S''
sg941
S''
sg942
S'token'
p954
sg944
S'PRI'
p955
sg946
S''
sg947
S'varchar(16)'
p956
sa(dp957
g940
S''
sg941
S''
sg942
S'tokentype'
p958
sg944
S''
sg946
S''
sg947
S'varchar(8)'
p959
sa(dp960
g940
S''
sg941
Nsg942
S'eventdata'
p961
sg944
S''
sg946
S'YES'
p962
sg947
S'tinytext'
p963
sa(lp964
(dp965
S'Comment'
p966
S''
sS'Non_unique'
p967
L0L
sS'Sub_part'
p968
NsS'Index_type'
p969
S'BTREE'
p970
sS'Key_name'
p971
S'PRIMARY'
p972
sS'Collation'
p973
S'A'
sS'Null'
p974
S''
sS'Seq_in_index'
p975
L1L
sS'Table'
p976
S'tokens'
p977
sS'Cardinality'
p978
L0L
sS'Packed'
p979
NsS'Column_name'
p980
S'token'
p981
sa(dp982
g966
S''
sg967
L1L
sg968
Nsg969
S'BTREE'
p983
sg971
S'userid'
p984
sg973
S'A'
sg974
S''
sg975
L1L
sg976
S'tokens'
p985
sg978
Nsg979
Nsg980
S'userid'
p986
satp987
sS'dependencies'
p988
((lp989
(dp990
S'Extra'
p991
S''
sS'Default'
p992
S'0'
sS'Field'
p993
S'blocked'
p994
sS'Key'
p995
S'MUL'
p996
sS'Null'
p997
S''
sS'Type'
p998
S'mediumint(9)'
p999
sa(dp1000
g991
S''
sg992
S'0'
sg993
S'dependson'
p1001
sg995
S'MUL'
p1002
sg997
S''
sg998
S'mediumint(9)'
p1003
sa(lp1004
(dp1005
S'Comment'
p1006
S''
sS'Non_unique'
p1007
L1L
sS'Sub_part'
p1008
NsS'Index_type'
p1009
S'BTREE'
p1010
sS'Key_name'
p1011
S'blocked'
p1012
sS'Collation'
p1013
S'A'
sS'Null'
p1014
S''
sS'Seq_in_index'
p1015
L1L
sS'Table'
p1016
S'dependencies'
p1017
sS'Cardinality'
p1018
NsS'Packed'
p1019
NsS'Column_name'
p1020
S'blocked'
p1021
sa(dp1022
g1006
S''
sg1007
L1L
sg1008
Nsg1009
S'BTREE'
p1023
sg1011
S'dependson'
p1024
sg1013
S'A'
sg1014
S''
sg1015
L1L
sg1016
S'dependencies'
p1025
sg1018
Nsg1019
Nsg1020
S'dependson'
p1026
satp1027
sS'quips'
p1028
((lp1029
(dp1030
S'Extra'
p1031
S'auto_increment'
p1032
sS'Default'
p1033
NsS'Field'
p1034
S'quipid'
p1035
sS'Key'
p1036
S'PRI'
p1037
sS'Null'
p1038
S''
sS'Type'
p1039
S'mediumint(9)'
p1040
sa(dp1041
g1031
S''
sg1033
S'0'
sg1034
S'userid'
p1042
sg1036
S''
sg1038
S''
sg1039
S'mediumint(9)'
p1043
sa(dp1044
g1031
S''
sg1033
S''
sg1034
S'quip'
p1045
sg1036
S''
sg1038
S''
sg1039
S'text'
p1046
sa(lp1047
(dp1048
S'Comment'
p1049
S''
sS'Non_unique'
p1050
L0L
sS'Sub_part'
p1051
NsS'Index_type'
p1052
S'BTREE'
p1053
sS'Key_name'
p1054
S'PRIMARY'
p1055
sS'Collation'
p1056
S'A'
sS'Null'
p1057
S''
sS'Seq_in_index'
p1058
L1L
sS'Table'
p1059
S'quips'
p1060
sS'Cardinality'
p1061
L0L
sS'Packed'
p1062
NsS'Column_name'
p1063
S'quipid'
p1064
satp1065
sS'groups'
p1066
((lp1067
(dp1068
S'Extra'
p1069
S'auto_increment'
p1070
sS'Default'
p1071
NsS'Field'
p1072
S'id'
p1073
sS'Key'
p1074
S'PRI'
p1075
sS'Null'
p1076
S''
sS'Type'
p1077
S'mediumint(9)'
p1078
sa(dp1079
g1069
S''
sg1071
S''
sg1072
S'name'
p1080
sg1074
S'UNI'
p1081
sg1076
S''
sg1077
S'varchar(255)'
p1082
sa(dp1083
g1069
S''
sg1071
S''
sg1072
S'description'
p1084
sg1074
S''
sg1076
S''
sg1077
S'text'
p1085
sa(dp1086
g1069
S''
sg1071
S'0'
sg1072
S'isbuggroup'
p1087
sg1074
S''
sg1076
S''
sg1077
S'tinyint(4)'
p1088
sa(dp1089
g1069
S''
sg1071
S'0000-00-00 00:00:00'
p1090
sg1072
S'last_changed'
p1091
sg1074
S''
sg1076
S''
sg1077
S'datetime'
p1092
sa(dp1093
g1069
S''
sg1071
S''
sg1072
S'userregexp'
p1094
sg1074
S''
sg1076
S''
sg1077
S'tinytext'
p1095
sa(dp1096
g1069
S''
sg1071
S'1'
sg1072
S'isactive'
p1097
sg1074
S''
sg1076
S''
sg1077
S'tinyint(4)'
p1098
sa(lp1099
(dp1100
S'Comment'
p1101
S''
sS'Non_unique'
p1102
L0L
sS'Sub_part'
p1103
NsS'Index_type'
p1104
S'BTREE'
p1105
sS'Key_name'
p1106
S'PRIMARY'
p1107
sS'Collation'
p1108
S'A'
sS'Null'
p1109
S''
sS'Seq_in_index'
p1110
L1L
sS'Table'
p1111
S'groups'
p1112
sS'Cardinality'
p1113
L8L
sS'Packed'
p1114
NsS'Column_name'
p1115
S'id'
p1116
sa(dp1117
g1101
S''
sg1102
L0L
sg1103
Nsg1104
S'BTREE'
p1118
sg1106
S'name'
p1119
sg1108
S'A'
sg1109
S''
sg1110
L1L
sg1111
S'groups'
p1120
sg1113
L8L
sg1114
Nsg1115
S'name'
p1121
satp1122
sS'milestones'
p1123
((lp1124
(dp1125
S'Extra'
p1126
S''
sS'Default'
p1127
S'0'
sS'Field'
p1128
S'product_id'
p1129
sS'Key'
p1130
S'PRI'
p1131
sS'Null'
p1132
S''
sS'Type'
p1133
S'smallint(6)'
p1134
sa(dp1135
g1126
S''
sg1127
S''
sg1128
S'value'
p1136
sg1130
S'PRI'
p1137
sg1132
S''
sg1133
S'varchar(20)'
p1138
sa(dp1139
g1126
S''
sg1127
S'0'
sg1128
S'sortkey'
p1140
sg1130
S''
sg1132
S''
sg1133
S'smallint(6)'
p1141
sa(lp1142
(dp1143
S'Comment'
p1144
S''
sS'Non_unique'
p1145
L0L
sS'Sub_part'
p1146
NsS'Index_type'
p1147
S'BTREE'
p1148
sS'Key_name'
p1149
S'product_id'
p1150
sS'Collation'
p1151
S'A'
sS'Null'
p1152
S''
sS'Seq_in_index'
p1153
L1L
sS'Table'
p1154
S'milestones'
p1155
sS'Cardinality'
p1156
NsS'Packed'
p1157
NsS'Column_name'
p1158
S'product_id'
p1159
sa(dp1160
g1144
S''
sg1145
L0L
sg1146
Nsg1147
S'BTREE'
p1161
sg1149
S'product_id'
p1162
sg1151
S'A'
sg1152
S''
sg1153
L2L
sg1154
S'milestones'
p1163
sg1156
L1L
sg1157
Nsg1158
S'value'
p1164
satp1165
sS'longdescs'
p1166
((lp1167
(dp1168
S'Extra'
p1169
S''
sS'Default'
p1170
S'0'
sS'Field'
p1171
S'bug_id'
p1172
sS'Key'
p1173
S'MUL'
p1174
sS'Null'
p1175
S''
sS'Type'
p1176
S'mediumint(9)'
p1177
sa(dp1178
g1169
S''
sg1170
S'0'
sg1171
S'who'
p1179
sg1173
S'MUL'
p1180
sg1175
S''
sg1176
S'mediumint(9)'
p1181
sa(dp1182
g1169
S''
sg1170
S'0000-00-00 00:00:00'
p1183
sg1171
S'bug_when'
p1184
sg1173
S'MUL'
p1185
sg1175
S''
sg1176
S'datetime'
p1186
sa(dp1187
g1169
S''
sg1170
S'0.00'
p1188
sg1171
S'work_time'
p1189
sg1173
S''
sg1175
S''
sg1176
S'decimal(5,2)'
p1190
sa(dp1191
g1169
S''
sg1170
Nsg1171
S'thetext'
p1192
sg1173
S''
sg1175
S'YES'
p1193
sg1176
S'mediumtext'
p1194
sa(dp1195
g1169
S''
sg1170
S'0'
sg1171
S'isprivate'
p1196
sg1173
S''
sg1175
S''
sg1176
S'tinyint(4)'
p1197
sa(lp1198
(dp1199
S'Comment'
p1200
S''
sS'Non_unique'
p1201
L1L
sS'Sub_part'
p1202
NsS'Index_type'
p1203
S'BTREE'
p1204
sS'Key_name'
p1205
S'bug_id'
p1206
sS'Collation'
p1207
S'A'
sS'Null'
p1208
S''
sS'Seq_in_index'
p1209
L1L
sS'Table'
p1210
S'longdescs'
p1211
sS'Cardinality'
p1212
NsS'Packed'
p1213
NsS'Column_name'
p1214
S'bug_id'
p1215
sa(dp1216
g1200
S''
sg1201
L1L
sg1202
Nsg1203
S'BTREE'
p1217
sg1205
S'who'
p1218
sg1207
S'A'
sg1208
S''
sg1209
L1L
sg1210
S'longdescs'
p1219
sg1212
Nsg1213
Nsg1214
S'who'
p1220
sa(dp1221
g1200
S''
sg1201
L1L
sg1202
Nsg1203
S'BTREE'
p1222
sg1205
S'bug_when'
p1223
sg1207
S'A'
sg1208
S''
sg1209
L1L
sg1210
S'longdescs'
p1224
sg1212
Nsg1213
Nsg1214
S'bug_when'
p1225
satp1226
sS'versions'
p1227
((lp1228
(dp1229
S'Extra'
p1230
S''
sS'Default'
p1231
NsS'Field'
p1232
S'value'
p1233
sS'Key'
p1234
S''
sS'Null'
p1235
S'YES'
p1236
sS'Type'
p1237
S'tinytext'
p1238
sa(dp1239
g1230
S''
sg1231
S'0'
sg1232
S'product_id'
p1240
sg1234
S''
sg1235
S''
sg1237
S'smallint(6)'
p1241
sa(ltp1242
sS'flagtypes'
p1243
((lp1244
(dp1245
S'Extra'
p1246
S''
sS'Default'
p1247
S'0'
sS'Field'
p1248
S'id'
p1249
sS'Key'
p1250
S'PRI'
p1251
sS'Null'
p1252
S''
sS'Type'
p1253
S'smallint(6)'
p1254
sa(dp1255
g1246
S''
sg1247
S''
sg1248
S'name'
p1256
sg1250
S''
sg1252
S''
sg1253
S'varchar(50)'
p1257
sa(dp1258
g1246
S''
sg1247
Nsg1248
S'description'
p1259
sg1250
S''
sg1252
S'YES'
p1260
sg1253
S'text'
p1261
sa(dp1262
g1246
S''
sg1247
Nsg1248
S'cc_list'
p1263
sg1250
S''
sg1252
S'YES'
p1264
sg1253
S'varchar(200)'
p1265
sa(dp1266
g1246
S''
sg1247
S'b'
sg1248
S'target_type'
p1267
sg1250
S''
sg1252
S''
sg1253
S'char(1)'
p1268
sa(dp1269
g1246
S''
sg1247
S'1'
sg1248
S'is_active'
p1270
sg1250
S''
sg1252
S''
sg1253
S'tinyint(4)'
p1271
sa(dp1272
g1246
S''
sg1247
S'0'
sg1248
S'is_requestable'
p1273
sg1250
S''
sg1252
S''
sg1253
S'tinyint(4)'
p1274
sa(dp1275
g1246
S''
sg1247
S'0'
sg1248
S'is_requesteeble'
p1276
sg1250
S''
sg1252
S''
sg1253
S'tinyint(4)'
p1277
sa(dp1278
g1246
S''
sg1247
S'0'
sg1248
S'is_multiplicable'
p1279
sg1250
S''
sg1252
S''
sg1253
S'tinyint(4)'
p1280
sa(dp1281
g1246
S''
sg1247
S'0'
sg1248
S'sortkey'
p1282
sg1250
S''
sg1252
S''
sg1253
S'smallint(6)'
p1283
sa(lp1284
(dp1285
S'Comment'
p1286
S''
sS'Non_unique'
p1287
L0L
sS'Sub_part'
p1288
NsS'Index_type'
p1289
S'BTREE'
p1290
sS'Key_name'
p1291
S'PRIMARY'
p1292
sS'Collation'
p1293
S'A'
sS'Null'
p1294
S''
sS'Seq_in_index'
p1295
L1L
sS'Table'
p1296
S'flagtypes'
p1297
sS'Cardinality'
p1298
L0L
sS'Packed'
p1299
NsS'Column_name'
p1300
S'id'
p1301
satp1302
sS'bugs'
p1303
((lp1304
(dp1305
S'Extra'
p1306
S'auto_increment'
p1307
sS'Default'
p1308
NsS'Field'
p1309
S'bug_id'
p1310
sS'Key'
p1311
S'PRI'
p1312
sS'Null'
p1313
S''
sS'Type'
p1314
S'mediumint(9)'
p1315
sa(dp1316
g1306
S''
sg1308
S'0'
sg1309
S'assigned_to'
p1317
sg1311
S'MUL'
p1318
sg1313
S''
sg1314
S'mediumint(9)'
p1319
sa(dp1320
g1306
S''
sg1308
Nsg1309
S'bug_file_loc'
p1321
sg1311
S''
sg1313
S'YES'
p1322
sg1314
S'text'
p1323
sa(dp1324
g1306
S''
sg1308
S'blocker'
p1325
sg1309
S'bug_severity'
p1326
sg1311
S'MUL'
p1327
sg1313
S''
sg1314
S"enum('blocker','critical','major','normal','minor','trivial','enhancement')"
p1328
sa(dp1329
g1306
S''
sg1308
S'UNCONFIRMED'
p1330
sg1309
S'bug_status'
p1331
sg1311
S'MUL'
p1332
sg1313
S''
sg1314
S"enum('UNCONFIRMED','NEW','ASSIGNED','REOPENED','RESOLVED','VERIFIED','CLOSED')"
p1333
sa(dp1334
g1306
S''
sg1308
S'0000-00-00 00:00:00'
p1335
sg1309
S'creation_ts'
p1336
sg1311
S'MUL'
p1337
sg1313
S''
sg1314
S'datetime'
p1338
sa(dp1339
g1306
S''
sg1308
Nsg1309
S'delta_ts'
p1340
sg1311
S'MUL'
p1341
sg1313
S'YES'
p1342
sg1314
S'timestamp(14)'
p1343
sa(dp1344
g1306
S''
sg1308
Nsg1309
S'short_desc'
p1345
sg1311
S''
sg1313
S'YES'
p1346
sg1314
S'mediumtext'
p1347
sa(dp1348
g1306
S''
sg1308
S'All'
p1349
sg1309
S'op_sys'
p1350
sg1311
S'MUL'
p1351
sg1313
S''
sg1314
S"enum('All','Windows 3.1','Windows 95','Windows 98','Windows ME','Windows 2000','Windows NT','Windows XP','Mac System 7','Mac System 7.5','Mac System 7.6.1','Mac System 8.0','Mac System 8.5','Mac System 8.6','Mac System 9.x','Mac OS X 10.0','Mac OS X 10.1','Mac OS X 10.2','Linux','BSDI','FreeBSD','NetBSD','OpenBSD','AIX','BeOS','HP-UX','IRIX','Neutrino','OpenVMS','OS/2','OSF/1','Solaris','SunOS','other')"
p1352
sa(dp1353
g1306
S''
sg1308
S'P1'
p1354
sg1309
S'priority'
p1355
sg1311
S'MUL'
p1356
sg1313
S''
sg1314
S"enum('P1','P2','P3','P4','P5')"
p1357
sa(dp1358
g1306
S''
sg1308
S'0'
sg1309
S'product_id'
p1359
sg1311
S'MUL'
p1360
sg1313
S''
sg1314
S'smallint(6)'
p1361
sa(dp1362
g1306
S''
sg1308
Nsg1309
S'rep_platform'
p1363
sg1311
S''
sg1313
S'YES'
p1364
sg1314
S"enum('All','DEC','HP','Macintosh','PC','SGI','Sun','Other')"
p1365
sa(dp1366
g1306
S''
sg1308
S'0'
sg1309
S'reporter'
p1367
sg1311
S'MUL'
p1368
sg1313
S''
sg1314
S'mediumint(9)'
p1369
sa(dp1370
g1306
S''
sg1308
S''
sg1309
S'version'
p1371
sg1311
S'MUL'
p1372
sg1313
S''
sg1314
S'varchar(64)'
p1373
sa(dp1374
g1306
S''
sg1308
S'0'
sg1309
S'component_id'
p1375
sg1311
S'MUL'
p1376
sg1313
S''
sg1314
S'smallint(6)'
p1377
sa(dp1378
g1306
S''
sg1308
S''
sg1309
S'resolution'
p1379
sg1311
S'MUL'
p1380
sg1313
S''
sg1314
S"enum('','FIXED','INVALID','WONTFIX','LATER','REMIND','DUPLICATE','WORKSFORME','MOVED')"
p1381
sa(dp1382
g1306
S''
sg1308
S'---'
p1383
sg1309
S'target_milestone'
p1384
sg1311
S'MUL'
p1385
sg1313
S''
sg1314
S'varchar(20)'
p1386
sa(dp1387
g1306
S''
sg1308
S'0'
sg1309
S'qa_contact'
p1388
sg1311
S'MUL'
p1389
sg1313
S''
sg1314
S'mediumint(9)'
p1390
sa(dp1391
g1306
S''
sg1308
S''
sg1309
S'status_whiteboard'
p1392
sg1311
S''
sg1313
S''
sg1314
S'mediumtext'
p1393
sa(dp1394
g1306
S''
sg1308
S'0'
sg1309
S'votes'
p1395
sg1311
S'MUL'
p1396
sg1313
S''
sg1314
S'mediumint(9)'
p1397
sa(dp1398
g1306
S''
sg1308
S''
sg1309
S'keywords'
p1399
sg1311
S''
sg1313
S''
sg1314
S'mediumtext'
p1400
sa(dp1401
g1306
S''
sg1308
S'0000-00-00 00:00:00'
p1402
sg1309
S'lastdiffed'
p1403
sg1311
S''
sg1313
S''
sg1314
S'datetime'
p1404
sa(dp1405
g1306
S''
sg1308
S'0'
sg1309
S'everconfirmed'
p1406
sg1311
S''
sg1313
S''
sg1314
S'tinyint(4)'
p1407
sa(dp1408
g1306
S''
sg1308
S'1'
sg1309
S'reporter_accessible'
p1409
sg1311
S''
sg1313
S''
sg1314
S'tinyint(4)'
p1410
sa(dp1411
g1306
S''
sg1308
S'1'
sg1309
S'cclist_accessible'
p1412
sg1311
S''
sg1313
S''
sg1314
S'tinyint(4)'
p1413
sa(dp1414
g1306
S''
sg1308
S'0.00'
p1415
sg1309
S'estimated_time'
p1416
sg1311
S''
sg1313
S''
sg1314
S'decimal(5,2)'
p1417
sa(dp1418
g1306
S''
sg1308
S'0.00'
p1419
sg1309
S'remaining_time'
p1420
sg1311
S''
sg1313
S''
sg1314
S'decimal(5,2)'
p1421
sa(dp1422
g1306
S''
sg1308
Nsg1309
S'alias'
p1423
sg1311
S'MUL'
p1424
sg1313
S'YES'
p1425
sg1314
S'varchar(20)'
p1426
sa(lp1427
(dp1428
S'Comment'
p1429
S''
sS'Non_unique'
p1430
L0L
sS'Sub_part'
p1431
NsS'Index_type'
p1432
S'BTREE'
p1433
sS'Key_name'
p1434
S'PRIMARY'
p1435
sS'Collation'
p1436
S'A'
sS'Null'
p1437
S''
sS'Seq_in_index'
p1438
L1L
sS'Table'
p1439
S'bugs'
p1440
sS'Cardinality'
p1441
L0L
sS'Packed'
p1442
NsS'Column_name'
p1443
S'bug_id'
p1444
sa(dp1445
g1429
S''
sg1430
L0L
sg1431
Nsg1432
S'BTREE'
p1446
sg1434
S'alias'
p1447
sg1436
S'A'
sg1437
S'YES'
p1448
sg1438
L1L
sg1439
S'bugs'
p1449
sg1441
Nsg1442
Nsg1443
S'alias'
p1450
sa(dp1451
g1429
S''
sg1430
L1L
sg1431
Nsg1432
S'BTREE'
p1452
sg1434
S'assigned_to'
p1453
sg1436
S'A'
sg1437
S''
sg1438
L1L
sg1439
S'bugs'
p1454
sg1441
Nsg1442
Nsg1443
S'assigned_to'
p1455
sa(dp1456
g1429
S''
sg1430
L1L
sg1431
Nsg1432
S'BTREE'
p1457
sg1434
S'creation_ts'
p1458
sg1436
S'A'
sg1437
S''
sg1438
L1L
sg1439
S'bugs'
p1459
sg1441
Nsg1442
Nsg1443
S'creation_ts'
p1460
sa(dp1461
g1429
S''
sg1430
L1L
sg1431
Nsg1432
S'BTREE'
p1462
sg1434
S'delta_ts'
p1463
sg1436
S'A'
sg1437
S''
sg1438
L1L
sg1439
S'bugs'
p1464
sg1441
Nsg1442
Nsg1443
S'delta_ts'
p1465
sa(dp1466
g1429
S''
sg1430
L1L
sg1431
Nsg1432
S'BTREE'
p1467
sg1434
S'bug_severity'
p1468
sg1436
S'A'
sg1437
S''
sg1438
L1L
sg1439
S'bugs'
p1469
sg1441
Nsg1442
Nsg1443
S'bug_severity'
p1470
sa(dp1471
g1429
S''
sg1430
L1L
sg1431
Nsg1432
S'BTREE'
p1472
sg1434
S'bug_status'
p1473
sg1436
S'A'
sg1437
S''
sg1438
L1L
sg1439
S'bugs'
p1474
sg1441
Nsg1442
Nsg1443
S'bug_status'
p1475
sa(dp1476
g1429
S''
sg1430
L1L
sg1431
Nsg1432
S'BTREE'
p1477
sg1434
S'op_sys'
p1478
sg1436
S'A'
sg1437
S''
sg1438
L1L
sg1439
S'bugs'
p1479
sg1441
Nsg1442
Nsg1443
S'op_sys'
p1480
sa(dp1481
g1429
S''
sg1430
L1L
sg1431
Nsg1432
S'BTREE'
p1482
sg1434
S'priority'
p1483
sg1436
S'A'
sg1437
S''
sg1438
L1L
sg1439
S'bugs'
p1484
sg1441
Nsg1442
Nsg1443
S'priority'
p1485
sa(dp1486
g1429
S''
sg1430
L1L
sg1431
Nsg1432
S'BTREE'
p1487
sg1434
S'product_id'
p1488
sg1436
S'A'
sg1437
S''
sg1438
L1L
sg1439
S'bugs'
p1489
sg1441
Nsg1442
Nsg1443
S'product_id'
p1490
sa(dp1491
g1429
S''
sg1430
L1L
sg1431
Nsg1432
S'BTREE'
p1492
sg1434
S'reporter'
p1493
sg1436
S'A'
sg1437
S''
sg1438
L1L
sg1439
S'bugs'
p1494
sg1441
Nsg1442
Nsg1443
S'reporter'
p1495
sa(dp1496
g1429
S''
sg1430
L1L
sg1431
Nsg1432
S'BTREE'
p1497
sg1434
S'version'
p1498
sg1436
S'A'
sg1437
S''
sg1438
L1L
sg1439
S'bugs'
p1499
sg1441
Nsg1442
Nsg1443
S'version'
p1500
sa(dp1501
g1429
S''
sg1430
L1L
sg1431
Nsg1432
S'BTREE'
p1502
sg1434
S'component_id'
p1503
sg1436
S'A'
sg1437
S''
sg1438
L1L
sg1439
S'bugs'
p1504
sg1441
Nsg1442
Nsg1443
S'component_id'
p1505
sa(dp1506
g1429
S''
sg1430
L1L
sg1431
Nsg1432
S'BTREE'
p1507
sg1434
S'resolution'
p1508
sg1436
S'A'
sg1437
S''
sg1438
L1L
sg1439
S'bugs'
p1509
sg1441
Nsg1442
Nsg1443
S'resolution'
p1510
sa(dp1511
g1429
S''
sg1430
L1L
sg1431
Nsg1432
S'BTREE'
p1512
sg1434
S'target_milestone'
p1513
sg1436
S'A'
sg1437
S''
sg1438
L1L
sg1439
S'bugs'
p1514
sg1441
Nsg1442
Nsg1443
S'target_milestone'
p1515
sa(dp1516
g1429
S''
sg1430
L1L
sg1431
Nsg1432
S'BTREE'
p1517
sg1434
S'qa_contact'
p1518
sg1436
S'A'
sg1437
S''
sg1438
L1L
sg1439
S'bugs'
p1519
sg1441
Nsg1442
Nsg1443
S'qa_contact'
p1520
sa(dp1521
g1429
S''
sg1430
L1L
sg1431
Nsg1432
S'BTREE'
p1522
sg1434
S'votes'
p1523
sg1436
S'A'
sg1437
S''
sg1438
L1L
sg1439
S'bugs'
p1524
sg1441
Nsg1442
Nsg1443
S'votes'
p1525
satp1526
sS'profiles'
p1527
((lp1528
(dp1529
S'Extra'
p1530
S'auto_increment'
p1531
sS'Default'
p1532
NsS'Field'
p1533
S'userid'
p1534
sS'Key'
p1535
S'PRI'
p1536
sS'Null'
p1537
S''
sS'Type'
p1538
S'mediumint(9)'
p1539
sa(dp1540
g1530
S''
sg1532
S''
sg1533
S'login_name'
p1541
sg1535
S'UNI'
p1542
sg1537
S''
sg1538
S'varchar(255)'
p1543
sa(dp1544
g1530
S''
sg1532
Nsg1533
S'cryptpassword'
p1545
sg1535
S''
sg1537
S'YES'
p1546
sg1538
S'varchar(34)'
p1547
sa(dp1548
g1530
S''
sg1532
Nsg1533
S'realname'
p1549
sg1535
S''
sg1537
S'YES'
p1550
sg1538
S'varchar(255)'
p1551
sa(dp1552
g1530
S''
sg1532
S''
sg1533
S'disabledtext'
p1553
sg1535
S''
sg1537
S''
sg1538
S'mediumtext'
p1554
sa(dp1555
g1530
S''
sg1532
S'1'
sg1533
S'mybugslink'
p1556
sg1535
S''
sg1537
S''
sg1538
S'tinyint(4)'
p1557
sa(dp1558
g1530
S''
sg1532
Nsg1533
S'emailflags'
p1559
sg1535
S''
sg1537
S'YES'
p1560
sg1538
S'mediumtext'
p1561
sa(dp1562
g1530
S''
sg1532
S'0000-00-00 00:00:00'
p1563
sg1533
S'refreshed_when'
p1564
sg1535
S''
sg1537
S''
sg1538
S'datetime'
p1565
sa(lp1566
(dp1567
S'Comment'
p1568
S''
sS'Non_unique'
p1569
L0L
sS'Sub_part'
p1570
NsS'Index_type'
p1571
S'BTREE'
p1572
sS'Key_name'
p1573
S'PRIMARY'
p1574
sS'Collation'
p1575
S'A'
sS'Null'
p1576
S''
sS'Seq_in_index'
p1577
L1L
sS'Table'
p1578
S'profiles'
p1579
sS'Cardinality'
p1580
L0L
sS'Packed'
p1581
NsS'Column_name'
p1582
S'userid'
p1583
sa(dp1584
g1568
S''
sg1569
L0L
sg1570
Nsg1571
S'BTREE'
p1585
sg1573
S'login_name'
p1586
sg1575
S'A'
sg1576
S''
sg1577
L1L
sg1578
S'profiles'
p1587
sg1580
L0L
sg1581
Nsg1582
S'login_name'
p1588
satp1589
sS'flags'
p1590
((lp1591
(dp1592
S'Extra'
p1593
S''
sS'Default'
p1594
S'0'
sS'Field'
p1595
S'id'
p1596
sS'Key'
p1597
S'PRI'
p1598
sS'Null'
p1599
S''
sS'Type'
p1600
S'mediumint(9)'
p1601
sa(dp1602
g1593
S''
sg1594
S'0'
sg1595
S'type_id'
p1603
sg1597
S''
sg1599
S''
sg1600
S'smallint(6)'
p1604
sa(dp1605
g1593
S''
sg1594
S''
sg1595
S'status'
p1606
sg1597
S''
sg1599
S''
sg1600
S'char(1)'
p1607
sa(dp1608
g1593
S''
sg1594
S'0'
sg1595
S'bug_id'
p1609
sg1597
S'MUL'
p1610
sg1599
S''
sg1600
S'mediumint(9)'
p1611
sa(dp1612
g1593
S''
sg1594
Nsg1595
S'attach_id'
p1613
sg1597
S''
sg1599
S'YES'
p1614
sg1600
S'mediumint(9)'
p1615
sa(dp1616
g1593
S''
sg1594
S'0000-00-00 00:00:00'
p1617
sg1595
S'creation_date'
p1618
sg1597
S''
sg1599
S''
sg1600
S'datetime'
p1619
sa(dp1620
g1593
S''
sg1594
Nsg1595
S'modification_date'
p1621
sg1597
S''
sg1599
S'YES'
p1622
sg1600
S'datetime'
p1623
sa(dp1624
g1593
S''
sg1594
Nsg1595
S'setter_id'
p1625
sg1597
S'MUL'
p1626
sg1599
S'YES'
p1627
sg1600
S'mediumint(9)'
p1628
sa(dp1629
g1593
S''
sg1594
Nsg1595
S'requestee_id'
p1630
sg1597
S'MUL'
p1631
sg1599
S'YES'
p1632
sg1600
S'mediumint(9)'
p1633
sa(lp1634
(dp1635
S'Comment'
p1636
S''
sS'Non_unique'
p1637
L0L
sS'Sub_part'
p1638
NsS'Index_type'
p1639
S'BTREE'
p1640
sS'Key_name'
p1641
S'PRIMARY'
p1642
sS'Collation'
p1643
S'A'
sS'Null'
p1644
S''
sS'Seq_in_index'
p1645
L1L
sS'Table'
p1646
S'flags'
p1647
sS'Cardinality'
p1648
L0L
sS'Packed'
p1649
NsS'Column_name'
p1650
S'id'
p1651
sa(dp1652
g1636
S''
sg1637
L1L
sg1638
Nsg1639
S'BTREE'
p1653
sg1641
S'bug_id'
p1654
sg1643
S'A'
sg1644
S''
sg1645
L1L
sg1646
S'flags'
p1655
sg1648
Nsg1649
Nsg1650
S'bug_id'
p1656
sa(dp1657
g1636
S''
sg1637
L1L
sg1638
Nsg1639
S'BTREE'
p1658
sg1641
S'bug_id'
p1659
sg1643
S'A'
sg1644
S'YES'
p1660
sg1645
L2L
sg1646
S'flags'
p1661
sg1648
Nsg1649
Nsg1650
S'attach_id'
p1662
sa(dp1663
g1636
S''
sg1637
L1L
sg1638
Nsg1639
S'BTREE'
p1664
sg1641
S'setter_id'
p1665
sg1643
S'A'
sg1644
S'YES'
p1666
sg1645
L1L
sg1646
S'flags'
p1667
sg1648
Nsg1649
Nsg1650
S'setter_id'
p1668
sa(dp1669
g1636
S''
sg1637
L1L
sg1638
Nsg1639
S'BTREE'
p1670
sg1641
S'requestee_id'
p1671
sg1643
S'A'
sg1644
S'YES'
p1672
sg1645
L1L
sg1646
S'flags'
p1673
sg1648
Nsg1649
Nsg1650
S'requestee_id'
p1674
satp1675
sS'bugs_activity'
p1676
((lp1677
(dp1678
S'Extra'
p1679
S''
sS'Default'
p1680
S'0'
sS'Field'
p1681
S'bug_id'
p1682
sS'Key'
p1683
S'MUL'
p1684
sS'Null'
p1685
S''
sS'Type'
p1686
S'mediumint(9)'
p1687
sa(dp1688
g1679
S''
sg1680
Nsg1681
S'attach_id'
p1689
sg1683
S''
sg1685
S'YES'
p1690
sg1686
S'mediumint(9)'
p1691
sa(dp1692
g1679
S''
sg1680
S'0'
sg1681
S'who'
p1693
sg1683
S''
sg1685
S''
sg1686
S'mediumint(9)'
p1694
sa(dp1695
g1679
S''
sg1680
S'0000-00-00 00:00:00'
p1696
sg1681
S'bug_when'
p1697
sg1683
S'MUL'
p1698
sg1685
S''
sg1686
S'datetime'
p1699
sa(dp1700
g1679
S''
sg1680
S'0'
sg1681
S'fieldid'
p1701
sg1683
S'MUL'
p1702
sg1685
S''
sg1686
S'mediumint(9)'
p1703
sa(dp1704
g1679
S''
sg1680
Nsg1681
S'added'
p1705
sg1683
S''
sg1685
S'YES'
p1706
sg1686
S'tinytext'
p1707
sa(dp1708
g1679
S''
sg1680
Nsg1681
S'removed'
p1709
sg1683
S''
sg1685
S'YES'
p1710
sg1686
S'tinytext'
p1711
sa(lp1712
(dp1713
S'Comment'
p1714
S''
sS'Non_unique'
p1715
L1L
sS'Sub_part'
p1716
NsS'Index_type'
p1717
S'BTREE'
p1718
sS'Key_name'
p1719
S'bug_id'
p1720
sS'Collation'
p1721
S'A'
sS'Null'
p1722
S''
sS'Seq_in_index'
p1723
L1L
sS'Table'
p1724
S'bugs_activity'
p1725
sS'Cardinality'
p1726
NsS'Packed'
p1727
NsS'Column_name'
p1728
S'bug_id'
p1729
sa(dp1730
g1714
S''
sg1715
L1L
sg1716
Nsg1717
S'BTREE'
p1731
sg1719
S'bug_when'
p1732
sg1721
S'A'
sg1722
S''
sg1723
L1L
sg1724
S'bugs_activity'
p1733
sg1726
Nsg1727
Nsg1728
S'bug_when'
p1734
sa(dp1735
g1714
S''
sg1715
L1L
sg1716
Nsg1717
S'BTREE'
p1736
sg1719
S'fieldid'
p1737
sg1721
S'A'
sg1722
S''
sg1723
L1L
sg1724
S'bugs_activity'
p1738
sg1726
Nsg1727
Nsg1728
S'fieldid'
p1739
satp1740
sS'group_group_map'
p1741
((lp1742
(dp1743
S'Extra'
p1744
S''
sS'Default'
p1745
S'0'
sS'Field'
p1746
S'member_id'
p1747
sS'Key'
p1748
S'PRI'
p1749
sS'Null'
p1750
S''
sS'Type'
p1751
S'mediumint(9)'
p1752
sa(dp1753
g1744
S''
sg1745
S'0'
sg1746
S'grantor_id'
p1754
sg1748
S'PRI'
p1755
sg1750
S''
sg1751
S'mediumint(9)'
p1756
sa(dp1757
g1744
S''
sg1745
S'0'
sg1746
S'isbless'
p1758
sg1748
S'PRI'
p1759
sg1750
S''
sg1751
S'tinyint(4)'
p1760
sa(lp1761
(dp1762
S'Comment'
p1763
S''
sS'Non_unique'
p1764
L0L
sS'Sub_part'
p1765
NsS'Index_type'
p1766
S'BTREE'
p1767
sS'Key_name'
p1768
S'member_id'
p1769
sS'Collation'
p1770
S'A'
sS'Null'
p1771
S''
sS'Seq_in_index'
p1772
L1L
sS'Table'
p1773
S'group_group_map'
p1774
sS'Cardinality'
p1775
NsS'Packed'
p1776
NsS'Column_name'
p1777
S'member_id'
p1778
sa(dp1779
g1763
S''
sg1764
L0L
sg1765
Nsg1766
S'BTREE'
p1780
sg1768
S'member_id'
p1781
sg1770
S'A'
sg1771
S''
sg1772
L2L
sg1773
S'group_group_map'
p1782
sg1775
Nsg1776
Nsg1777
S'grantor_id'
p1783
sa(dp1784
g1763
S''
sg1764
L0L
sg1765
Nsg1766
S'BTREE'
p1785
sg1768
S'member_id'
p1786
sg1770
S'A'
sg1771
S''
sg1772
L3L
sg1773
S'group_group_map'
p1787
sg1775
L0L
sg1776
Nsg1777
S'isbless'
p1788
satp1789
st.