(S'2.17.4'
p1
(dp2
S'bug_group_map'
p3
((lp4
(dp5
S'Extra'
p6
S''
sS'Default'
p7
S'0'
sS'Field'
p8
S'bug_id'
p9
sS'Key'
p10
S'PRI'
p11
sS'Null'
p12
S''
sS'Type'
p13
S'mediumint(9)'
p14
sa(dp15
g6
S''
sg7
S'0'
sg8
S'group_id'
p16
sg10
S'PRI'
p17
sg12
S''
sg13
S'mediumint(9)'
p18
sa(lp19
(dp20
S'Comment'
p21
S''
sS'Non_unique'
p22
L0L
sS'Sub_part'
p23
NsS'Index_type'
p24
S'BTREE'
p25
sS'Key_name'
p26
S'bug_id'
p27
sS'Collation'
p28
S'A'
sS'Null'
p29
S''
sS'Seq_in_index'
p30
L1L
sS'Table'
p31
S'bug_group_map'
p32
sS'Cardinality'
p33
NsS'Packed'
p34
NsS'Column_name'
p35
S'bug_id'
p36
sa(dp37
g21
S''
sg22
L0L
sg23
Nsg24
S'BTREE'
p38
sg26
S'bug_id'
p39
sg28
S'A'
sg29
S''
sg30
L2L
sg31
S'bug_group_map'
p40
sg33
L0L
sg34
Nsg35
S'group_id'
p41
sa(dp42
g21
S''
sg22
L1L
sg23
Nsg24
S'BTREE'
p43
sg26
S'group_id'
p44
sg28
S'A'
sg29
S''
sg30
L1L
sg31
S'bug_group_map'
p45
sg33
Nsg34
Nsg35
S'group_id'
p46
satp47
sS'attachments'
p48
((lp49
(dp50
S'Extra'
p51
S'auto_increment'
p52
sS'Default'
p53
NsS'Field'
p54
S'attach_id'
p55
sS'Key'
p56
S'PRI'
p57
sS'Null'
p58
S''
sS'Type'
p59
S'mediumint(9)'
p60
sa(dp61
g51
S''
sg53
S'0'
sg54
S'bug_id'
p62
sg56
S'MUL'
p63
sg58
S''
sg59
S'mediumint(9)'
p64
sa(dp65
g51
S''
sg53
S'0000-00-00 00:00:00'
p66
sg54
S'creation_ts'
p67
sg56
S'MUL'
p68
sg58
S''
sg59
S'datetime'
p69
sa(dp70
g51
S''
sg53
S''
sg54
S'description'
p71
sg56
S''
sg58
S''
sg59
S'mediumtext'
p72
sa(dp73
g51
S''
sg53
S''
sg54
S'mimetype'
p74
sg56
S''
sg58
S''
sg59
S'mediumtext'
p75
sa(dp76
g51
S''
sg53
Nsg54
S'ispatch'
p77
sg56
S''
sg58
S'YES'
p78
sg59
S'tinyint(4)'
p79
sa(dp80
g51
S''
sg53
S''
sg54
S'filename'
p81
sg56
S''
sg58
S''
sg59
S'varchar(100)'
p82
sa(dp83
g51
S''
sg53
S''
sg54
S'thedata'
p84
sg56
S''
sg58
S''
sg59
S'longblob'
p85
sa(dp86
g51
S''
sg53
S'0'
sg54
S'submitter_id'
p87
sg56
S''
sg58
S''
sg59
S'mediumint(9)'
p88
sa(dp89
g51
S''
sg53
S'0'
sg54
S'isobsolete'
p90
sg56
S''
sg58
S''
sg59
S'tinyint(4)'
p91
sa(dp92
g51
S''
sg53
S'0'
sg54
S'isprivate'
p93
sg56
S''
sg58
S''
sg59
S'tinyint(4)'
p94
sa(lp95
(dp96
S'Comment'
p97
S''
sS'Non_unique'
p98
L0L
sS'Sub_part'
p99
NsS'Index_type'
p100
S'BTREE'
p101
sS'Key_name'
p102
S'PRIMARY'
p103
sS'Collation'
p104
S'A'
sS'Null'
p105
S''
sS'Seq_in_index'
p106
L1L
sS'Table'
p107
S'attachments'
p108
sS'Cardinality'
p109
L0L
sS'Packed'
p110
NsS'Column_name'
p111
S'attach_id'
p112
sa(dp113
g97
S''
sg98
L1L
sg99
Nsg100
S'BTREE'
p114
sg102
S'bug_id'
p115
sg104
S'A'
sg105
S''
sg106
L1L
sg107
S'attachments'
p116
sg109
Nsg110
Nsg111
S'bug_id'
p117
sa(dp118
g97
S''
sg98
L1L
sg99
Nsg100
S'BTREE'
p119
sg102
S'creation_ts'
p120
sg104
S'A'
sg105
S''
sg106
L1L
sg107
S'attachments'
p121
sg109
Nsg110
Nsg111
S'creation_ts'
p122
satp123
sS'cc'
p124
((lp125
(dp126
S'Extra'
p127
S''
sS'Default'
p128
S'0'
sS'Field'
p129
S'bug_id'
p130
sS'Key'
p131
S'PRI'
p132
sS'Null'
p133
S''
sS'Type'
p134
S'mediumint(9)'
p135
sa(dp136
g127
S''
sg128
S'0'
sg129
S'who'
p137
sg131
S'PRI'
p138
sg133
S''
sg134
S'mediumint(9)'
p139
sa(lp140
(dp141
S'Comment'
p142
S''
sS'Non_unique'
p143
L0L
sS'Sub_part'
p144
NsS'Index_type'
p145
S'BTREE'
p146
sS'Key_name'
p147
S'bug_id'
p148
sS'Collation'
p149
S'A'
sS'Null'
p150
S''
sS'Seq_in_index'
p151
L1L
sS'Table'
p152
S'cc'
p153
sS'Cardinality'
p154
NsS'Packed'
p155
NsS'Column_name'
p156
S'bug_id'
p157
sa(dp158
g142
S''
sg143
L0L
sg144
Nsg145
S'BTREE'
p159
sg147
S'bug_id'
p160
sg149
S'A'
sg150
S''
sg151
L2L
sg152
S'cc'
p161
sg154
L0L
sg155
Nsg156
S'who'
p162
sa(dp163
g142
S''
sg143
L1L
sg144
Nsg145
S'BTREE'
p164
sg147
S'who'
p165
sg149
S'A'
sg150
S''
sg151
L1L
sg152
S'cc'
p166
sg154
Nsg155
Nsg156
S'who'
p167
satp168
sS'group_control_map'
p169
((lp170
(dp171
S'Extra'
p172
S''
sS'Default'
p173
S'0'
sS'Field'
p174
S'group_id'
p175
sS'Key'
p176
S'PRI'
p177
sS'Null'
p178
S''
sS'Type'
p179
S'mediumint(9)'
p180
sa(dp181
g172
S''
sg173
S'0'
sg174
S'product_id'
p182
sg176
S'PRI'
p183
sg178
S''
sg179
S'mediumint(9)'
p184
sa(dp185
g172
S''
sg173
S'0'
sg174
S'entry'
p186
sg176
S''
sg178
S''
sg179
S'tinyint(4)'
p187
sa(dp188
g172
S''
sg173
S'0'
sg174
S'membercontrol'
p189
sg176
S''
sg178
S''
sg179
S'tinyint(4)'
p190
sa(dp191
g172
S''
sg173
S'0'
sg174
S'othercontrol'
p192
sg176
S''
sg178
S''
sg179
S'tinyint(4)'
p193
sa(dp194
g172
S''
sg173
S'0'
sg174
S'canedit'
p195
sg176
S''
sg178
S''
sg179
S'tinyint(4)'
p196
sa(lp197
(dp198
S'Comment'
p199
S''
sS'Non_unique'
p200
L0L
sS'Sub_part'
p201
NsS'Index_type'
p202
S'BTREE'
p203
sS'Key_name'
p204
S'product_id'
p205
sS'Collation'
p206
S'A'
sS'Null'
p207
S''
sS'Seq_in_index'
p208
L1L
sS'Table'
p209
S'group_control_map'
p210
sS'Cardinality'
p211
NsS'Packed'
p212
NsS'Column_name'
p213
S'product_id'
p214
sa(dp215
g199
S''
sg200
L0L
sg201
Nsg202
S'BTREE'
p216
sg204
S'product_id'
p217
sg206
S'A'
sg207
S''
sg208
L2L
sg209
S'group_control_map'
p218
sg211
L0L
sg212
Nsg213
S'group_id'
p219
sa(dp220
g199
S''
sg200
L1L
sg201
Nsg202
S'BTREE'
p221
sg204
S'group_id'
p222
sg206
S'A'
sg207
S''
sg208
L1L
sg209
S'group_control_map'
p223
sg211
Nsg212
Nsg213
S'group_id'
p224
satp225
sS'keywords'
p226
((lp227
(dp228
S'Extra'
p229
S''
sS'Default'
p230
S'0'
sS'Field'
p231
S'bug_id'
p232
sS'Key'
p233
S'PRI'
p234
sS'Null'
p235
S''
sS'Type'
p236
S'mediumint(9)'
p237
sa(dp238
g229
S''
sg230
S'0'
sg231
S'keywordid'
p239
sg233
S'PRI'
p240
sg235
S''
sg236
S'smallint(6)'
p241
sa(lp242
(dp243
S'Comment'
p244
S''
sS'Non_unique'
p245
L0L
sS'Sub_part'
p246
NsS'Index_type'
p247
S'BTREE'
p248
sS'Key_name'
p249
S'bug_id'
p250
sS'Collation'
p251
S'A'
sS'Null'
p252
S''
sS'Seq_in_index'
p253
L1L
sS'Table'
p254
S'keywords'
p255
sS'Cardinality'
p256
NsS'Packed'
p257
NsS'Column_name'
p258
S'bug_id'
p259
sa(dp260
g244
S''
sg245
L0L
sg246
Nsg247
S'BTREE'
p261
sg249
S'bug_id'
p262
sg251
S'A'
sg252
S''
sg253
L2L
sg254
S'keywords'
p263
sg256
L0L
sg257
Nsg258
S'keywordid'
p264
sa(dp265
g244
S''
sg245
L1L
sg246
Nsg247
S'BTREE'
p266
sg249
S'keywordid'
p267
sg251
S'A'
sg252
S''
sg253
L1L
sg254
S'keywords'
p268
sg256
Nsg257
Nsg258
S'keywordid'
p269
satp270
sS'user_group_map'
p271
((lp272
(dp273
S'Extra'
p274
S''
sS'Default'
p275
S'0'
sS'Field'
p276
S'user_id'
p277
sS'Key'
p278
S'PRI'
p279
sS'Null'
p280
S''
sS'Type'
p281
S'mediumint(9)'
p282
sa(dp283
g274
S''
sg275
S'0'
sg276
S'group_id'
p284
sg278
S'PRI'
p285
sg280
S''
sg281
S'mediumint(9)'
p286
sa(dp287
g274
S''
sg275
S'0'
sg276
S'isbless'
p288
sg278
S'PRI'
p289
sg280
S''
sg281
S'tinyint(4)'
p290
sa(dp291
g274
S''
sg275
S'0'
sg276
S'isderived'
p292
sg278
S'PRI'
p293
sg280
S''
sg281
S'tinyint(4)'
p294
sa(lp295
(dp296
S'Comment'
p297
S''
sS'Non_unique'
p298
L0L
sS'Sub_part'
p299
NsS'Index_type'
p300
S'BTREE'
p301
sS'Key_name'
p302
S'user_id'
p303
sS'Collation'
p304
S'A'
sS'Null'
p305
S''
sS'Seq_in_index'
p306
L1L
sS'Table'
p307
S'user_group_map'
p308
sS'Cardinality'
p309
NsS'Packed'
p310
NsS'Column_name'
p311
S'user_id'
p312
sa(dp313
g297
S''
sg298
L0L
sg299
Nsg300
S'BTREE'
p314
sg302
S'user_id'
p315
sg304
S'A'
sg305
S''
sg306
L2L
sg307
S'user_group_map'
p316
sg309
Nsg310
Nsg311
S'group_id'
p317
sa(dp318
g297
S''
sg298
L0L
sg299
Nsg300
S'BTREE'
p319
sg302
S'user_id'
p320
sg304
S'A'
sg305
S''
sg306
L3L
sg307
S'user_group_map'
p321
sg309
Nsg310
Nsg311
S'isderived'
p322
sa(dp323
g297
S''
sg298
L0L
sg299
Nsg300
S'BTREE'
p324
sg302
S'user_id'
p325
sg304
S'A'
sg305
S''
sg306
L4L
sg307
S'user_group_map'
p326
sg309
L0L
sg310
Nsg311
S'isbless'
p327
satp328
sS'keyworddefs'
p329
((lp330
(dp331
S'Extra'
p332
S''
sS'Default'
p333
S'0'
sS'Field'
p334
S'id'
p335
sS'Key'
p336
S'PRI'
p337
sS'Null'
p338
S''
sS'Type'
p339
S'smallint(6)'
p340
sa(dp341
g332
S''
sg333
S''
sg334
S'name'
p342
sg336
S'UNI'
p343
sg338
S''
sg339
S'varchar(64)'
p344
sa(dp345
g332
S''
sg333
Nsg334
S'description'
p346
sg336
S''
sg338
S'YES'
p347
sg339
S'mediumtext'
p348
sa(lp349
(dp350
S'Comment'
p351
S''
sS'Non_unique'
p352
L0L
sS'Sub_part'
p353
NsS'Index_type'
p354
S'BTREE'
p355
sS'Key_name'
p356
S'PRIMARY'
p357
sS'Collation'
p358
S'A'
sS'Null'
p359
S''
sS'Seq_in_index'
p360
L1L
sS'Table'
p361
S'keyworddefs'
p362
sS'Cardinality'
p363
L0L
sS'Packed'
p364
NsS'Column_name'
p365
S'id'
p366
sa(dp367
g351
S''
sg352
L0L
sg353
Nsg354
S'BTREE'
p368
sg356
S'name'
p369
sg358
S'A'
sg359
S''
sg360
L1L
sg361
S'keyworddefs'
p370
sg363
L0L
sg364
Nsg365
S'name'
p371
satp372
sS'flagexclusions'
p373
((lp374
(dp375
S'Extra'
p376
S''
sS'Default'
p377
S'0'
sS'Field'
p378
S'type_id'
p379
sS'Key'
p380
S'MUL'
p381
sS'Null'
p382
S''
sS'Type'
p383
S'smallint(6)'
p384
sa(dp385
g376
S''
sg377
Nsg378
S'product_id'
p386
sg380
S''
sg382
S'YES'
p387
sg383
S'smallint(6)'
p388
sa(dp389
g376
S''
sg377
Nsg378
S'component_id'
p390
sg380
S''
sg382
S'YES'
p391
sg383
S'smallint(6)'
p392
sa(lp393
(dp394
S'Comment'
p395
S''
sS'Non_unique'
p396
L1L
sS'Sub_part'
p397
NsS'Index_type'
p398
S'BTREE'
p399
sS'Key_name'
p400
S'type_id'
p401
sS'Collation'
p402
S'A'
sS'Null'
p403
S''
sS'Seq_in_index'
p404
L1L
sS'Table'
p405
S'flagexclusions'
p406
sS'Cardinality'
p407
NsS'Packed'
p408
NsS'Column_name'
p409
S'type_id'
p410
sa(dp411
g395
S''
sg396
L1L
sg397
Nsg398
S'BTREE'
p412
sg400
S'type_id'
p413
sg402
S'A'
sg403
S'YES'
p414
sg404
L2L
sg405
S'flagexclusions'
p415
sg407
Nsg408
Nsg409
S'product_id'
p416
sa(dp417
g395
S''
sg396
L1L
sg397
Nsg398
S'BTREE'
p418
sg400
S'type_id'
p419
sg402
S'A'
sg403
S'YES'
p420
sg404
L3L
sg405
S'flagexclusions'
p421
sg407
Nsg408
Nsg409
S'component_id'
p422
satp423
sS'votes'
p424
((lp425
(dp426
S'Extra'
p427
S''
sS'Default'
p428
S'0'
sS'Field'
p429
S'who'
p430
sS'Key'
p431
S'MUL'
p432
sS'Null'
p433
S''
sS'Type'
p434
S'mediumint(9)'
p435
sa(dp436
g427
S''
sg428
S'0'
sg429
S'bug_id'
p437
sg431
S'MUL'
p438
sg433
S''
sg434
S'mediumint(9)'
p439
sa(dp440
g427
S''
sg428
S'0'
sg429
S'count'
p441
sg431
S''
sg433
S''
sg434
S'smallint(6)'
p442
sa(lp443
(dp444
S'Comment'
p445
S''
sS'Non_unique'
p446
L1L
sS'Sub_part'
p447
NsS'Index_type'
p448
S'BTREE'
p449
sS'Key_name'
p450
S'who'
p451
sS'Collation'
p452
S'A'
sS'Null'
p453
S''
sS'Seq_in_index'
p454
L1L
sS'Table'
p455
S'votes'
p456
sS'Cardinality'
p457
NsS'Packed'
p458
NsS'Column_name'
p459
S'who'
p460
sa(dp461
g445
S''
sg446
L1L
sg447
Nsg448
S'BTREE'
p462
sg450
S'bug_id'
p463
sg452
S'A'
sg453
S''
sg454
L1L
sg455
S'votes'
p464
sg457
Nsg458
Nsg459
S'bug_id'
p465
satp466
sS'products'
p467
((lp468
(dp469
S'Extra'
p470
S'auto_increment'
p471
sS'Default'
p472
NsS'Field'
p473
S'id'
p474
sS'Key'
p475
S'PRI'
p476
sS'Null'
p477
S''
sS'Type'
p478
S'smallint(6)'
p479
sa(dp480
g470
S''
sg472
S''
sg473
S'name'
p481
sg475
S'UNI'
p482
sg477
S''
sg478
S'varchar(64)'
p483
sa(dp484
g470
S''
sg472
Nsg473
S'description'
p485
sg475
S''
sg477
S'YES'
p486
sg478
S'mediumtext'
p487
sa(dp488
g470
S''
sg472
S''
sg473
S'milestoneurl'
p489
sg475
S''
sg477
S''
sg478
S'tinytext'
p490
sa(dp491
g470
S''
sg472
S'0'
sg473
S'disallownew'
p492
sg475
S''
sg477
S''
sg478
S'tinyint(4)'
p493
sa(dp494
g470
S''
sg472
S'0'
sg473
S'votesperuser'
p495
sg475
S''
sg477
S''
sg478
S'smallint(6)'
p496
sa(dp497
g470
S''
sg472
S'10000'
p498
sg473
S'maxvotesperbug'
p499
sg475
S''
sg477
S''
sg478
S'smallint(6)'
p500
sa(dp501
g470
S''
sg472
S'0'
sg473
S'votestoconfirm'
p502
sg475
S''
sg477
S''
sg478
S'smallint(6)'
p503
sa(dp504
g470
S''
sg472
S'---'
p505
sg473
S'defaultmilestone'
p506
sg475
S''
sg477
S''
sg478
S'varchar(20)'
p507
sa(lp508
(dp509
S'Comment'
p510
S''
sS'Non_unique'
p511
L0L
sS'Sub_part'
p512
NsS'Index_type'
p513
S'BTREE'
p514
sS'Key_name'
p515
S'PRIMARY'
p516
sS'Collation'
p517
S'A'
sS'Null'
p518
S''
sS'Seq_in_index'
p519
L1L
sS'Table'
p520
S'products'
p521
sS'Cardinality'
p522
L1L
sS'Packed'
p523
NsS'Column_name'
p524
S'id'
p525
sa(dp526
g510
S''
sg511
L0L
sg512
Nsg513
S'BTREE'
p527
sg515
S'name'
p528
sg517
S'A'
sg518
S''
sg519
L1L
sg520
S'products'
p529
sg522
L1L
sg523
Nsg524
S'name'
p530
satp531
sS'duplicates'
p532
((lp533
(dp534
S'Extra'
p535
S''
sS'Default'
p536
S'0'
sS'Field'
p537
S'dupe_of'
p538
sS'Key'
p539
S''
sS'Null'
p540
S''
sS'Type'
p541
S'mediumint(9)'
p542
sa(dp543
g535
S''
sg536
S'0'
sg537
S'dupe'
p544
sg539
S'PRI'
p545
sg540
S''
sg541
S'mediumint(9)'
p546
sa(lp547
(dp548
S'Comment'
p549
S''
sS'Non_unique'
p550
L0L
sS'Sub_part'
p551
NsS'Index_type'
p552
S'BTREE'
p553
sS'Key_name'
p554
S'PRIMARY'
p555
sS'Collation'
p556
S'A'
sS'Null'
p557
S''
sS'Seq_in_index'
p558
L1L
sS'Table'
p559
S'duplicates'
p560
sS'Cardinality'
p561
L0L
sS'Packed'
p562
NsS'Column_name'
p563
S'dupe'
p564
satp565
sS'logincookies'
p566
((lp567
(dp568
S'Extra'
p569
S'auto_increment'
p570
sS'Default'
p571
NsS'Field'
p572
S'cookie'
p573
sS'Key'
p574
S'PRI'
p575
sS'Null'
p576
S''
sS'Type'
p577
S'mediumint(9)'
p578
sa(dp579
g569
S''
sg571
S'0'
sg572
S'userid'
p580
sg574
S''
sg576
S''
sg577
S'mediumint(9)'
p581
sa(dp582
g569
S''
sg571
S''
sg572
S'ipaddr'
p583
sg574
S''
sg576
S''
sg577
S'varchar(40)'
p584
sa(dp585
g569
S''
sg571
Nsg572
S'lastused'
p586
sg574
S'MUL'
p587
sg576
S'YES'
p588
sg577
S'timestamp(14)'
p589
sa(lp590
(dp591
S'Comment'
p592
S''
sS'Non_unique'
p593
L0L
sS'Sub_part'
p594
NsS'Index_type'
p595
S'BTREE'
p596
sS'Key_name'
p597
S'PRIMARY'
p598
sS'Collation'
p599
S'A'
sS'Null'
p600
S''
sS'Seq_in_index'
p601
L1L
sS'Table'
p602
S'logincookies'
p603
sS'Cardinality'
p604
L0L
sS'Packed'
p605
NsS'Column_name'
p606
S'cookie'
p607
sa(dp608
g592
S''
sg593
L1L
sg594
Nsg595
S'BTREE'
p609
sg597
S'lastused'
p610
sg599
S'A'
sg600
S''
sg601
L1L
sg602
S'logincookies'
p611
sg604
Nsg605
Nsg606
S'lastused'
p612
satp613
sS'fielddefs'
p614
((lp615
(dp616
S'Extra'
p617
S'auto_increment'
p618
sS'Default'
p619
NsS'Field'
p620
S'fieldid'
p621
sS'Key'
p622
S'PRI'
p623
sS'Null'
p624
S''
sS'Type'
p625
S'mediumint(9)'
p626
sa(dp627
g617
S''
sg619
S''
sg620
S'name'
p628
sg622
S'UNI'
p629
sg624
S''
sg625
S'varchar(64)'
p630
sa(dp631
g617
S''
sg619
S''
sg620
S'description'
p632
sg622
S''
sg624
S''
sg625
S'mediumtext'
p633
sa(dp634
g617
S''
sg619
S'0'
sg620
S'mailhead'
p635
sg622
S''
sg624
S''
sg625
S'tinyint(4)'
p636
sa(dp637
g617
S''
sg619
S'0'
sg620
S'sortkey'
p638
sg622
S'MUL'
p639
sg624
S''
sg625
S'smallint(6)'
p640
sa(lp641
(dp642
S'Comment'
p643
S''
sS'Non_unique'
p644
L0L
sS'Sub_part'
p645
NsS'Index_type'
p646
S'BTREE'
p647
sS'Key_name'
p648
S'PRIMARY'
p649
sS'Collation'
p650
S'A'
sS'Null'
p651
S''
sS'Seq_in_index'
p652
L1L
sS'Table'
p653
S'fielddefs'
p654
sS'Cardinality'
p655
L44L
sS'Packed'
p656
NsS'Column_name'
p657
S'fieldid'
p658
sa(dp659
g643
S''
sg644
L0L
sg645
Nsg646
S'BTREE'
p660
sg648
S'name'
p661
sg650
S'A'
sg651
S''
sg652
L1L
sg653
S'fielddefs'
p662
sg655
L44L
sg656
Nsg657
S'name'
p663
sa(dp664
g643
S''
sg644
L1L
sg645
Nsg646
S'BTREE'
p665
sg648
S'sortkey'
p666
sg650
S'A'
sg651
S''
sg652
L1L
sg653
S'fielddefs'
p667
sg655
Nsg656
Nsg657
S'sortkey'
p668
satp669
sS'flaginclusions'
p670
((lp671
(dp672
S'Extra'
p673
S''
sS'Default'
p674
S'0'
sS'Field'
p675
S'type_id'
p676
sS'Key'
p677
S'MUL'
p678
sS'Null'
p679
S''
sS'Type'
p680
S'smallint(6)'
p681
sa(dp682
g673
S''
sg674
Nsg675
S'product_id'
p683
sg677
S''
sg679
S'YES'
p684
sg680
S'smallint(6)'
p685
sa(dp686
g673
S''
sg674
Nsg675
S'component_id'
p687
sg677
S''
sg679
S'YES'
p688
sg680
S'smallint(6)'
p689
sa(lp690
(dp691
S'Comment'
p692
S''
sS'Non_unique'
p693
L1L
sS'Sub_part'
p694
NsS'Index_type'
p695
S'BTREE'
p696
sS'Key_name'
p697
S'type_id'
p698
sS'Collation'
p699
S'A'
sS'Null'
p700
S''
sS'Seq_in_index'
p701
L1L
sS'Table'
p702
S'flaginclusions'
p703
sS'Cardinality'
p704
NsS'Packed'
p705
NsS'Column_name'
p706
S'type_id'
p707
sa(dp708
g692
S''
sg693
L1L
sg694
Nsg695
S'BTREE'
p709
sg697
S'type_id'
p710
sg699
S'A'
sg700
S'YES'
p711
sg701
L2L
sg702
S'flaginclusions'
p712
sg704
Nsg705
Nsg706
S'product_id'
p713
sa(dp714
g692
S''
sg693
L1L
sg694
Nsg695
S'BTREE'
p715
sg697
S'type_id'
p716
sg699
S'A'
sg700
S'YES'
p717
sg701
L3L
sg702
S'flaginclusions'
p718
sg704
Nsg705
Nsg706
S'component_id'
p719
satp720
sS'profiles_activity'
p721
((lp722
(dp723
S'Extra'
p724
S''
sS'Default'
p725
S'0'
sS'Field'
p726
S'userid'
p727
sS'Key'
p728
S'MUL'
p729
sS'Null'
p730
S''
sS'Type'
p731
S'mediumint(9)'
p732
sa(dp733
g724
S''
sg725
S'0'
sg726
S'who'
p734
sg728
S''
sg730
S''
sg731
S'mediumint(9)'
p735
sa(dp736
g724
S''
sg725
S'0000-00-00 00:00:00'
p737
sg726
S'profiles_when'
p738
sg728
S'MUL'
p739
sg730
S''
sg731
S'datetime'
p740
sa(dp741
g724
S''
sg725
S'0'
sg726
S'fieldid'
p742
sg728
S'MUL'
p743
sg730
S''
sg731
S'mediumint(9)'
p744
sa(dp745
g724
S''
sg725
Nsg726
S'oldvalue'
p746
sg728
S''
sg730
S'YES'
p747
sg731
S'tinytext'
p748
sa(dp749
g724
S''
sg725
Nsg726
S'newvalue'
p750
sg728
S''
sg730
S'YES'
p751
sg731
S'tinytext'
p752
sa(lp753
(dp754
S'Comment'
p755
S''
sS'Non_unique'
p756
L1L
sS'Sub_part'
p757
NsS'Index_type'
p758
S'BTREE'
p759
sS'Key_name'
p760
S'userid'
p761
sS'Collation'
p762
S'A'
sS'Null'
p763
S''
sS'Seq_in_index'
p764
L1L
sS'Table'
p765
S'profiles_activity'
p766
sS'Cardinality'
p767
NsS'Packed'
p768
NsS'Column_name'
p769
S'userid'
p770
sa(dp771
g755
S''
sg756
L1L
sg757
Nsg758
S'BTREE'
p772
sg760
S'profiles_when'
p773
sg762
S'A'
sg763
S''
sg764
L1L
sg765
S'profiles_activity'
p774
sg767
Nsg768
Nsg769
S'profiles_when'
p775
sa(dp776
g755
S''
sg756
L1L
sg757
Nsg758
S'BTREE'
p777
sg760
S'fieldid'
p778
sg762
S'A'
sg763
S''
sg764
L1L
sg765
S'profiles_activity'
p779
sg767
Nsg768
Nsg769
S'fieldid'
p780
satp781
sS'components'
p782
((lp783
(dp784
S'Extra'
p785
S'auto_increment'
p786
sS'Default'
p787
NsS'Field'
p788
S'id'
p789
sS'Key'
p790
S'PRI'
p791
sS'Null'
p792
S''
sS'Type'
p793
S'smallint(6)'
p794
sa(dp795
g785
S''
sg787
S''
sg788
S'name'
p796
sg790
S'MUL'
p797
sg792
S''
sg793
S'varchar(64)'
p798
sa(dp799
g785
S''
sg787
S'0'
sg788
S'product_id'
p800
sg790
S'MUL'
p801
sg792
S''
sg793
S'smallint(6)'
p802
sa(dp803
g785
S''
sg787
S'0'
sg788
S'initialowner'
p804
sg790
S''
sg792
S''
sg793
S'mediumint(9)'
p805
sa(dp806
g785
S''
sg787
S'0'
sg788
S'initialqacontact'
p807
sg790
S''
sg792
S''
sg793
S'mediumint(9)'
p808
sa(dp809
g785
S''
sg787
S''
sg788
S'description'
p810
sg790
S''
sg792
S''
sg793
S'mediumtext'
p811
sa(lp812
(dp813
S'Comment'
p814
S''
sS'Non_unique'
p815
L0L
sS'Sub_part'
p816
NsS'Index_type'
p817
S'BTREE'
p818
sS'Key_name'
p819
S'PRIMARY'
p820
sS'Collation'
p821
S'A'
sS'Null'
p822
S''
sS'Seq_in_index'
p823
L1L
sS'Table'
p824
S'components'
p825
sS'Cardinality'
p826
L1L
sS'Packed'
p827
NsS'Column_name'
p828
S'id'
p829
sa(dp830
g814
S''
sg815
L0L
sg816
Nsg817
S'BTREE'
p831
sg819
S'product_id'
p832
sg821
S'A'
sg822
S''
sg823
L1L
sg824
S'components'
p833
sg826
Nsg827
Nsg828
S'product_id'
p834
sa(dp835
g814
S''
sg815
L0L
sg816
Nsg817
S'BTREE'
p836
sg819
S'product_id'
p837
sg821
S'A'
sg822
S''
sg823
L2L
sg824
S'components'
p838
sg826
L1L
sg827
Nsg828
S'name'
p839
sa(dp840
g814
S''
sg815
L1L
sg816
Nsg817
S'BTREE'
p841
sg819
S'name'
p842
sg821
S'A'
sg822
S''
sg823
L1L
sg824
S'components'
p843
sg826
Nsg827
Nsg828
S'name'
p844
satp845
sS'watch'
p846
((lp847
(dp848
S'Extra'
p849
S''
sS'Default'
p850
S'0'
sS'Field'
p851
S'watcher'
p852
sS'Key'
p853
S'PRI'
p854
sS'Null'
p855
S''
sS'Type'
p856
S'mediumint(9)'
p857
sa(dp858
g849
S''
sg850
S'0'
sg851
S'watched'
p859
sg853
S'PRI'
p860
sg855
S''
sg856
S'mediumint(9)'
p861
sa(lp862
(dp863
S'Comment'
p864
S''
sS'Non_unique'
p865
L0L
sS'Sub_part'
p866
NsS'Index_type'
p867
S'BTREE'
p868
sS'Key_name'
p869
S'watcher'
p870
sS'Collation'
p871
S'A'
sS'Null'
p872
S''
sS'Seq_in_index'
p873
L1L
sS'Table'
p874
S'watch'
p875
sS'Cardinality'
p876
NsS'Packed'
p877
NsS'Column_name'
p878
S'watcher'
p879
sa(dp880
g864
S''
sg865
L0L
sg866
Nsg867
S'BTREE'
p881
sg869
S'watcher'
p882
sg871
S'A'
sg872
S''
sg873
L2L
sg874
S'watch'
p883
sg876
L0L
sg877
Nsg878
S'watched'
p884
sa(dp885
g864
S''
sg865
L1L
sg866
Nsg867
S'BTREE'
p886
sg869
S'watched'
p887
sg871
S'A'
sg872
S''
sg873
L1L
sg874
S'watch'
p888
sg876
Nsg877
Nsg878
S'watched'
p889
satp890
sS'namedqueries'
p891
((lp892
(dp893
S'Extra'
p894
S''
sS'Default'
p895
S'0'
sS'Field'
p896
S'userid'
p897
sS'Key'
p898
S'PRI'
p899
sS'Null'
p900
S''
sS'Type'
p901
S'mediumint(9)'
p902
sa(dp903
g894
S''
sg895
S''
sg896
S'name'
p904
sg898
S'PRI'
p905
sg900
S''
sg901
S'varchar(64)'
p906
sa(dp907
g894
S''
sg895
S'0'
sg896
S'linkinfooter'
p908
sg898
S''
sg900
S''
sg901
S'tinyint(4)'
p909
sa(dp910
g894
S''
sg895
S''
sg896
S'query'
p911
sg898
S''
sg900
S''
sg901
S'mediumtext'
p912
sa(lp913
(dp914
S'Comment'
p915
S''
sS'Non_unique'
p916
L0L
sS'Sub_part'
p917
NsS'Index_type'
p918
S'BTREE'
p919
sS'Key_name'
p920
S'userid'
p921
sS'Collation'
p922
S'A'
sS'Null'
p923
S''
sS'Seq_in_index'
p924
L1L
sS'Table'
p925
S'namedqueries'
p926
sS'Cardinality'
p927
NsS'Packed'
p928
NsS'Column_name'
p929
S'userid'
p930
sa(dp931
g915
S''
sg916
L0L
sg917
Nsg918
S'BTREE'
p932
sg920
S'userid'
p933
sg922
S'A'
sg923
S''
sg924
L2L
sg925
S'namedqueries'
p934
sg927
L0L
sg928
Nsg929
S'name'
p935
satp936
sS'tokens'
p937
((lp938
(dp939
S'Extra'
p940
S''
sS'Default'
p941
S'0'
sS'Field'
p942
S'userid'
p943
sS'Key'
p944
S'MUL'
p945
sS'Null'
p946
S''
sS'Type'
p947
S'mediumint(9)'
p948
sa(dp949
g940
S''
sg941
S'0000-00-00 00:00:00'
p950
sg942
S'issuedate'
p951
sg944
S''
sg946
S''
sg947
S'datetime'
p952
sa(dp953
g940
S''
sg941
S''
sg942
S'token'
p954
sg944
S'PRI'
p955
sg946
S''
sg947
S'varchar(16)'
p956
sa(dp957
g940
S''
sg941
S''
sg942
S'tokentype'
p958
sg944
S''
sg946
S''
sg947
S'varchar(8)'
p959
sa(dp960
g940
S''
sg941
Nsg942
S'eventdata'
p961
sg944
S''
sg946
S'YES'
p962
sg947
S'tinytext'
p963
sa(lp964
(dp965
S'Comment'
p966
S''
sS'Non_unique'
p967
L0L
sS'Sub_part'
p968
NsS'Index_type'
p969
S'BTREE'
p970
sS'Key_name'
p971
S'PRIMARY'
p972
sS'Collation'
p973
S'A'
sS'Null'
p974
S''
sS'Seq_in_index'
p975
L1L
sS'Table'
p976
S'tokens'
p977
sS'Cardinality'
p978
L0L
sS'Packed'
p979
NsS'Column_name'
p980
S'token'
p981
sa(dp982
g966
S''
sg967
L1L
sg968
Nsg969
S'BTREE'
p983
sg971
S'userid'
p984
sg973
S'A'
sg974
S''
sg975
L1L
sg976
S'tokens'
p985
sg978
Nsg979
Nsg980
S'userid'
p986
satp987
sS'dependencies'
p988
((lp989
(dp990
S'Extra'
p991
S''
sS'Default'
p992
S'0'
sS'Field'
p993
S'blocked'
p994
sS'Key'
p995
S'MUL'
p996
sS'Null'
p997
S''
sS'Type'
p998
S'mediumint(9)'
p999
sa(dp1000
g991
S''
sg992
S'0'
sg993
S'dependson'
p1001
sg995
S'MUL'
p1002
sg997
S''
sg998
S'mediumint(9)'
p1003
sa(lp1004
(dp1005
S'Comment'
p1006
S''
sS'Non_unique'
p1007
L1L
sS'Sub_part'
p1008
NsS'Index_type'
p1009
S'BTREE'
p1010
sS'Key_name'
p1011
S'blocked'
p1012
sS'Collation'
p1013
S'A'
sS'Null'
p1014
S''
sS'Seq_in_index'
p1015
L1L
sS'Table'
p1016
S'dependencies'
p1017
sS'Cardinality'
p1018
NsS'Packed'
p1019
NsS'Column_name'
p1020
S'blocked'
p1021
sa(dp1022
g1006
S''
sg1007
L1L
sg1008
Nsg1009
S'BTREE'
p1023
sg1011
S'dependson'
p1024
sg1013
S'A'
sg1014
S''
sg1015
L1L
sg1016
S'dependencies'
p1025
sg1018
Nsg1019
Nsg1020
S'dependson'
p1026
satp1027
sS'quips'
p1028
((lp1029
(dp1030
S'Extra'
p1031
S'auto_increment'
p1032
sS'Default'
p1033
NsS'Field'
p1034
S'quipid'
p1035
sS'Key'
p1036
S'PRI'
p1037
sS'Null'
p1038
S''
sS'Type'
p1039
S'mediumint(9)'
p1040
sa(dp1041
g1031
S''
sg1033
S'0'
sg1034
S'userid'
p1042
sg1036
S''
sg1038
S''
sg1039
S'mediumint(9)'
p1043
sa(dp1044
g1031
S''
sg1033
S''
sg1034
S'quip'
p1045
sg1036
S''
sg1038
S''
sg1039
S'text'
p1046
sa(dp1047
g1031
S''
sg1033
S'1'
sg1034
S'approved'
p1048
sg1036
S''
sg1038
S''
sg1039
S'tinyint(1)'
p1049
sa(lp1050
(dp1051
S'Comment'
p1052
S''
sS'Non_unique'
p1053
L0L
sS'Sub_part'
p1054
NsS'Index_type'
p1055
S'BTREE'
p1056
sS'Key_name'
p1057
S'PRIMARY'
p1058
sS'Collation'
p1059
S'A'
sS'Null'
p1060
S''
sS'Seq_in_index'
p1061
L1L
sS'Table'
p1062
S'quips'
p1063
sS'Cardinality'
p1064
L0L
sS'Packed'
p1065
NsS'Column_name'
p1066
S'quipid'
p1067
satp1068
sS'groups'
p1069
((lp1070
(dp1071
S'Extra'
p1072
S'auto_increment'
p1073
sS'Default'
p1074
NsS'Field'
p1075
S'id'
p1076
sS'Key'
p1077
S'PRI'
p1078
sS'Null'
p1079
S''
sS'Type'
p1080
S'mediumint(9)'
p1081
sa(dp1082
g1072
S''
sg1074
S''
sg1075
S'name'
p1083
sg1077
S'UNI'
p1084
sg1079
S''
sg1080
S'varchar(255)'
p1085
sa(dp1086
g1072
S''
sg1074
S''
sg1075
S'description'
p1087
sg1077
S''
sg1079
S''
sg1080
S'text'
p1088
sa(dp1089
g1072
S''
sg1074
S'0'
sg1075
S'isbuggroup'
p1090
sg1077
S''
sg1079
S''
sg1080
S'tinyint(4)'
p1091
sa(dp1092
g1072
S''
sg1074
S'0000-00-00 00:00:00'
p1093
sg1075
S'last_changed'
p1094
sg1077
S''
sg1079
S''
sg1080
S'datetime'
p1095
sa(dp1096
g1072
S''
sg1074
S''
sg1075
S'userregexp'
p1097
sg1077
S''
sg1079
S''
sg1080
S'tinytext'
p1098
sa(dp1099
g1072
S''
sg1074
S'1'
sg1075
S'isactive'
p1100
sg1077
S''
sg1079
S''
sg1080
S'tinyint(4)'
p1101
sa(lp1102
(dp1103
S'Comment'
p1104
S''
sS'Non_unique'
p1105
L0L
sS'Sub_part'
p1106
NsS'Index_type'
p1107
S'BTREE'
p1108
sS'Key_name'
p1109
S'PRIMARY'
p1110
sS'Collation'
p1111
S'A'
sS'Null'
p1112
S''
sS'Seq_in_index'
p1113
L1L
sS'Table'
p1114
S'groups'
p1115
sS'Cardinality'
p1116
L8L
sS'Packed'
p1117
NsS'Column_name'
p1118
S'id'
p1119
sa(dp1120
g1104
S''
sg1105
L0L
sg1106
Nsg1107
S'BTREE'
p1121
sg1109
S'name'
p1122
sg1111
S'A'
sg1112
S''
sg1113
L1L
sg1114
S'groups'
p1123
sg1116
L8L
sg1117
Nsg1118
S'name'
p1124
satp1125
sS'milestones'
p1126
((lp1127
(dp1128
S'Extra'
p1129
S''
sS'Default'
p1130
S'0'
sS'Field'
p1131
S'product_id'
p1132
sS'Key'
p1133
S'PRI'
p1134
sS'Null'
p1135
S''
sS'Type'
p1136
S'smallint(6)'
p1137
sa(dp1138
g1129
S''
sg1130
S''
sg1131
S'value'
p1139
sg1133
S'PRI'
p1140
sg1135
S''
sg1136
S'varchar(20)'
p1141
sa(dp1142
g1129
S''
sg1130
S'0'
sg1131
S'sortkey'
p1143
sg1133
S''
sg1135
S''
sg1136
S'smallint(6)'
p1144
sa(lp1145
(dp1146
S'Comment'
p1147
S''
sS'Non_unique'
p1148
L0L
sS'Sub_part'
p1149
NsS'Index_type'
p1150
S'BTREE'
p1151
sS'Key_name'
p1152
S'product_id'
p1153
sS'Collation'
p1154
S'A'
sS'Null'
p1155
S''
sS'Seq_in_index'
p1156
L1L
sS'Table'
p1157
S'milestones'
p1158
sS'Cardinality'
p1159
NsS'Packed'
p1160
NsS'Column_name'
p1161
S'product_id'
p1162
sa(dp1163
g1147
S''
sg1148
L0L
sg1149
Nsg1150
S'BTREE'
p1164
sg1152
S'product_id'
p1165
sg1154
S'A'
sg1155
S''
sg1156
L2L
sg1157
S'milestones'
p1166
sg1159
L1L
sg1160
Nsg1161
S'value'
p1167
satp1168
sS'longdescs'
p1169
((lp1170
(dp1171
S'Extra'
p1172
S''
sS'Default'
p1173
S'0'
sS'Field'
p1174
S'bug_id'
p1175
sS'Key'
p1176
S'MUL'
p1177
sS'Null'
p1178
S''
sS'Type'
p1179
S'mediumint(9)'
p1180
sa(dp1181
g1172
S''
sg1173
S'0'
sg1174
S'who'
p1182
sg1176
S'MUL'
p1183
sg1178
S''
sg1179
S'mediumint(9)'
p1184
sa(dp1185
g1172
S''
sg1173
S'0000-00-00 00:00:00'
p1186
sg1174
S'bug_when'
p1187
sg1176
S'MUL'
p1188
sg1178
S''
sg1179
S'datetime'
p1189
sa(dp1190
g1172
S''
sg1173
S'0.00'
p1191
sg1174
S'work_time'
p1192
sg1176
S''
sg1178
S''
sg1179
S'decimal(5,2)'
p1193
sa(dp1194
g1172
S''
sg1173
Nsg1174
S'thetext'
p1195
sg1176
S''
sg1178
S'YES'
p1196
sg1179
S'mediumtext'
p1197
sa(dp1198
g1172
S''
sg1173
S'0'
sg1174
S'isprivate'
p1199
sg1176
S''
sg1178
S''
sg1179
S'tinyint(4)'
p1200
sa(lp1201
(dp1202
S'Comment'
p1203
S''
sS'Non_unique'
p1204
L1L
sS'Sub_part'
p1205
NsS'Index_type'
p1206
S'BTREE'
p1207
sS'Key_name'
p1208
S'bug_id'
p1209
sS'Collation'
p1210
S'A'
sS'Null'
p1211
S''
sS'Seq_in_index'
p1212
L1L
sS'Table'
p1213
S'longdescs'
p1214
sS'Cardinality'
p1215
NsS'Packed'
p1216
NsS'Column_name'
p1217
S'bug_id'
p1218
sa(dp1219
g1203
S''
sg1204
L1L
sg1205
Nsg1206
S'BTREE'
p1220
sg1208
S'who'
p1221
sg1210
S'A'
sg1211
S''
sg1212
L1L
sg1213
S'longdescs'
p1222
sg1215
Nsg1216
Nsg1217
S'who'
p1223
sa(dp1224
g1203
S''
sg1204
L1L
sg1205
Nsg1206
S'BTREE'
p1225
sg1208
S'bug_when'
p1226
sg1210
S'A'
sg1211
S''
sg1212
L1L
sg1213
S'longdescs'
p1227
sg1215
Nsg1216
Nsg1217
S'bug_when'
p1228
satp1229
sS'versions'
p1230
((lp1231
(dp1232
S'Extra'
p1233
S''
sS'Default'
p1234
NsS'Field'
p1235
S'value'
p1236
sS'Key'
p1237
S''
sS'Null'
p1238
S'YES'
p1239
sS'Type'
p1240
S'tinytext'
p1241
sa(dp1242
g1233
S''
sg1234
S'0'
sg1235
S'product_id'
p1243
sg1237
S''
sg1238
S''
sg1240
S'smallint(6)'
p1244
sa(ltp1245
sS'flagtypes'
p1246
((lp1247
(dp1248
S'Extra'
p1249
S''
sS'Default'
p1250
S'0'
sS'Field'
p1251
S'id'
p1252
sS'Key'
p1253
S'PRI'
p1254
sS'Null'
p1255
S''
sS'Type'
p1256
S'smallint(6)'
p1257
sa(dp1258
g1249
S''
sg1250
S''
sg1251
S'name'
p1259
sg1253
S''
sg1255
S''
sg1256
S'varchar(50)'
p1260
sa(dp1261
g1249
S''
sg1250
Nsg1251
S'description'
p1262
sg1253
S''
sg1255
S'YES'
p1263
sg1256
S'text'
p1264
sa(dp1265
g1249
S''
sg1250
Nsg1251
S'cc_list'
p1266
sg1253
S''
sg1255
S'YES'
p1267
sg1256
S'varchar(200)'
p1268
sa(dp1269
g1249
S''
sg1250
S'b'
sg1251
S'target_type'
p1270
sg1253
S''
sg1255
S''
sg1256
S'char(1)'
p1271
sa(dp1272
g1249
S''
sg1250
S'1'
sg1251
S'is_active'
p1273
sg1253
S''
sg1255
S''
sg1256
S'tinyint(4)'
p1274
sa(dp1275
g1249
S''
sg1250
S'0'
sg1251
S'is_requestable'
p1276
sg1253
S''
sg1255
S''
sg1256
S'tinyint(4)'
p1277
sa(dp1278
g1249
S''
sg1250
S'0'
sg1251
S'is_requesteeble'
p1279
sg1253
S''
sg1255
S''
sg1256
S'tinyint(4)'
p1280
sa(dp1281
g1249
S''
sg1250
S'0'
sg1251
S'is_multiplicable'
p1282
sg1253
S''
sg1255
S''
sg1256
S'tinyint(4)'
p1283
sa(dp1284
g1249
S''
sg1250
S'0'
sg1251
S'sortkey'
p1285
sg1253
S''
sg1255
S''
sg1256
S'smallint(6)'
p1286
sa(lp1287
(dp1288
S'Comment'
p1289
S''
sS'Non_unique'
p1290
L0L
sS'Sub_part'
p1291
NsS'Index_type'
p1292
S'BTREE'
p1293
sS'Key_name'
p1294
S'PRIMARY'
p1295
sS'Collation'
p1296
S'A'
sS'Null'
p1297
S''
sS'Seq_in_index'
p1298
L1L
sS'Table'
p1299
S'flagtypes'
p1300
sS'Cardinality'
p1301
L0L
sS'Packed'
p1302
NsS'Column_name'
p1303
S'id'
p1304
satp1305
sS'bugs'
p1306
((lp1307
(dp1308
S'Extra'
p1309
S'auto_increment'
p1310
sS'Default'
p1311
NsS'Field'
p1312
S'bug_id'
p1313
sS'Key'
p1314
S'PRI'
p1315
sS'Null'
p1316
S''
sS'Type'
p1317
S'mediumint(9)'
p1318
sa(dp1319
g1309
S''
sg1311
S'0'
sg1312
S'assigned_to'
p1320
sg1314
S'MUL'
p1321
sg1316
S''
sg1317
S'mediumint(9)'
p1322
sa(dp1323
g1309
S''
sg1311
Nsg1312
S'bug_file_loc'
p1324
sg1314
S''
sg1316
S'YES'
p1325
sg1317
S'text'
p1326
sa(dp1327
g1309
S''
sg1311
S'blocker'
p1328
sg1312
S'bug_severity'
p1329
sg1314
S'MUL'
p1330
sg1316
S''
sg1317
S"enum('blocker','critical','major','normal','minor','trivial','enhancement')"
p1331
sa(dp1332
g1309
S''
sg1311
S'UNCONFIRMED'
p1333
sg1312
S'bug_status'
p1334
sg1314
S'MUL'
p1335
sg1316
S''
sg1317
S"enum('UNCONFIRMED','NEW','ASSIGNED','REOPENED','RESOLVED','VERIFIED','CLOSED')"
p1336
sa(dp1337
g1309
S''
sg1311
S'0000-00-00 00:00:00'
p1338
sg1312
S'creation_ts'
p1339
sg1314
S'MUL'
p1340
sg1316
S''
sg1317
S'datetime'
p1341
sa(dp1342
g1309
S''
sg1311
Nsg1312
S'delta_ts'
p1343
sg1314
S'MUL'
p1344
sg1316
S'YES'
p1345
sg1317
S'timestamp(14)'
p1346
sa(dp1347
g1309
S''
sg1311
Nsg1312
S'short_desc'
p1348
sg1314
S''
sg1316
S'YES'
p1349
sg1317
S'mediumtext'
p1350
sa(dp1351
g1309
S''
sg1311
S'All'
p1352
sg1312
S'op_sys'
p1353
sg1314
S'MUL'
p1354
sg1316
S''
sg1317
S"enum('All','Windows 3.1','Windows 95','Windows 98','Windows ME','Windows 2000','Windows NT','Windows XP','Mac System 7','Mac System 7.5','Mac System 7.6.1','Mac System 8.0','Mac System 8.5','Mac System 8.6','Mac System 9.x','Mac OS X 10.0','Mac OS X 10.1','Mac OS X 10.2','Linux','BSDI','FreeBSD','NetBSD','OpenBSD','AIX','BeOS','HP-UX','IRIX','Neutrino','OpenVMS','OS/2','OSF/1','Solaris','SunOS','other')"
p1355
sa(dp1356
g1309
S''
sg1311
S'P1'
p1357
sg1312
S'priority'
p1358
sg1314
S'MUL'
p1359
sg1316
S''
sg1317
S"enum('P1','P2','P3','P4','P5')"
p1360
sa(dp1361
g1309
S''
sg1311
S'0'
sg1312
S'product_id'
p1362
sg1314
S'MUL'
p1363
sg1316
S''
sg1317
S'smallint(6)'
p1364
sa(dp1365
g1309
S''
sg1311
Nsg1312
S'rep_platform'
p1366
sg1314
S''
sg1316
S'YES'
p1367
sg1317
S"enum('All','DEC','HP','Macintosh','PC','SGI','Sun','Other')"
p1368
sa(dp1369
g1309
S''
sg1311
S'0'
sg1312
S'reporter'
p1370
sg1314
S'MUL'
p1371
sg1316
S''
sg1317
S'mediumint(9)'
p1372
sa(dp1373
g1309
S''
sg1311
S''
sg1312
S'version'
p1374
sg1314
S'MUL'
p1375
sg1316
S''
sg1317
S'varchar(64)'
p1376
sa(dp1377
g1309
S''
sg1311
S'0'
sg1312
S'component_id'
p1378
sg1314
S'MUL'
p1379
sg1316
S''
sg1317
S'smallint(6)'
p1380
sa(dp1381
g1309
S''
sg1311
S''
sg1312
S'resolution'
p1382
sg1314
S'MUL'
p1383
sg1316
S''
sg1317
S"enum('','FIXED','INVALID','WONTFIX','LATER','REMIND','DUPLICATE','WORKSFORME','MOVED')"
p1384
sa(dp1385
g1309
S''
sg1311
S'---'
p1386
sg1312
S'target_milestone'
p1387
sg1314
S'MUL'
p1388
sg1316
S''
sg1317
S'varchar(20)'
p1389
sa(dp1390
g1309
S''
sg1311
S'0'
sg1312
S'qa_contact'
p1391
sg1314
S'MUL'
p1392
sg1316
S''
sg1317
S'mediumint(9)'
p1393
sa(dp1394
g1309
S''
sg1311
S''
sg1312
S'status_whiteboard'
p1395
sg1314
S''
sg1316
S''
sg1317
S'mediumtext'
p1396
sa(dp1397
g1309
S''
sg1311
S'0'
sg1312
S'votes'
p1398
sg1314
S'MUL'
p1399
sg1316
S''
sg1317
S'mediumint(9)'
p1400
sa(dp1401
g1309
S''
sg1311
S''
sg1312
S'keywords'
p1402
sg1314
S''
sg1316
S''
sg1317
S'mediumtext'
p1403
sa(dp1404
g1309
S''
sg1311
S'0000-00-00 00:00:00'
p1405
sg1312
S'lastdiffed'
p1406
sg1314
S''
sg1316
S''
sg1317
S'datetime'
p1407
sa(dp1408
g1309
S''
sg1311
S'0'
sg1312
S'everconfirmed'
p1409
sg1314
S''
sg1316
S''
sg1317
S'tinyint(4)'
p1410
sa(dp1411
g1309
S''
sg1311
S'1'
sg1312
S'reporter_accessible'
p1412
sg1314
S''
sg1316
S''
sg1317
S'tinyint(4)'
p1413
sa(dp1414
g1309
S''
sg1311
S'1'
sg1312
S'cclist_accessible'
p1415
sg1314
S''
sg1316
S''
sg1317
S'tinyint(4)'
p1416
sa(dp1417
g1309
S''
sg1311
S'0.00'
p1418
sg1312
S'estimated_time'
p1419
sg1314
S''
sg1316
S''
sg1317
S'decimal(5,2)'
p1420
sa(dp1421
g1309
S''
sg1311
S'0.00'
p1422
sg1312
S'remaining_time'
p1423
sg1314
S''
sg1316
S''
sg1317
S'decimal(5,2)'
p1424
sa(dp1425
g1309
S''
sg1311
Nsg1312
S'alias'
p1426
sg1314
S'MUL'
p1427
sg1316
S'YES'
p1428
sg1317
S'varchar(20)'
p1429
sa(lp1430
(dp1431
S'Comment'
p1432
S''
sS'Non_unique'
p1433
L0L
sS'Sub_part'
p1434
NsS'Index_type'
p1435
S'BTREE'
p1436
sS'Key_name'
p1437
S'PRIMARY'
p1438
sS'Collation'
p1439
S'A'
sS'Null'
p1440
S''
sS'Seq_in_index'
p1441
L1L
sS'Table'
p1442
S'bugs'
p1443
sS'Cardinality'
p1444
L0L
sS'Packed'
p1445
NsS'Column_name'
p1446
S'bug_id'
p1447
sa(dp1448
g1432
S''
sg1433
L0L
sg1434
Nsg1435
S'BTREE'
p1449
sg1437
S'alias'
p1450
sg1439
S'A'
sg1440
S'YES'
p1451
sg1441
L1L
sg1442
S'bugs'
p1452
sg1444
Nsg1445
Nsg1446
S'alias'
p1453
sa(dp1454
g1432
S''
sg1433
L1L
sg1434
Nsg1435
S'BTREE'
p1455
sg1437
S'assigned_to'
p1456
sg1439
S'A'
sg1440
S''
sg1441
L1L
sg1442
S'bugs'
p1457
sg1444
Nsg1445
Nsg1446
S'assigned_to'
p1458
sa(dp1459
g1432
S''
sg1433
L1L
sg1434
Nsg1435
S'BTREE'
p1460
sg1437
S'creation_ts'
p1461
sg1439
S'A'
sg1440
S''
sg1441
L1L
sg1442
S'bugs'
p1462
sg1444
Nsg1445
Nsg1446
S'creation_ts'
p1463
sa(dp1464
g1432
S''
sg1433
L1L
sg1434
Nsg1435
S'BTREE'
p1465
sg1437
S'delta_ts'
p1466
sg1439
S'A'
sg1440
S''
sg1441
L1L
sg1442
S'bugs'
p1467
sg1444
Nsg1445
Nsg1446
S'delta_ts'
p1468
sa(dp1469
g1432
S''
sg1433
L1L
sg1434
Nsg1435
S'BTREE'
p1470
sg1437
S'bug_severity'
p1471
sg1439
S'A'
sg1440
S''
sg1441
L1L
sg1442
S'bugs'
p1472
sg1444
Nsg1445
Nsg1446
S'bug_severity'
p1473
sa(dp1474
g1432
S''
sg1433
L1L
sg1434
Nsg1435
S'BTREE'
p1475
sg1437
S'bug_status'
p1476
sg1439
S'A'
sg1440
S''
sg1441
L1L
sg1442
S'bugs'
p1477
sg1444
Nsg1445
Nsg1446
S'bug_status'
p1478
sa(dp1479
g1432
S''
sg1433
L1L
sg1434
Nsg1435
S'BTREE'
p1480
sg1437
S'op_sys'
p1481
sg1439
S'A'
sg1440
S''
sg1441
L1L
sg1442
S'bugs'
p1482
sg1444
Nsg1445
Nsg1446
S'op_sys'
p1483
sa(dp1484
g1432
S''
sg1433
L1L
sg1434
Nsg1435
S'BTREE'
p1485
sg1437
S'priority'
p1486
sg1439
S'A'
sg1440
S''
sg1441
L1L
sg1442
S'bugs'
p1487
sg1444
Nsg1445
Nsg1446
S'priority'
p1488
sa(dp1489
g1432
S''
sg1433
L1L
sg1434
Nsg1435
S'BTREE'
p1490
sg1437
S'product_id'
p1491
sg1439
S'A'
sg1440
S''
sg1441
L1L
sg1442
S'bugs'
p1492
sg1444
Nsg1445
Nsg1446
S'product_id'
p1493
sa(dp1494
g1432
S''
sg1433
L1L
sg1434
Nsg1435
S'BTREE'
p1495
sg1437
S'reporter'
p1496
sg1439
S'A'
sg1440
S''
sg1441
L1L
sg1442
S'bugs'
p1497
sg1444
Nsg1445
Nsg1446
S'reporter'
p1498
sa(dp1499
g1432
S''
sg1433
L1L
sg1434
Nsg1435
S'BTREE'
p1500
sg1437
S'version'
p1501
sg1439
S'A'
sg1440
S''
sg1441
L1L
sg1442
S'bugs'
p1502
sg1444
Nsg1445
Nsg1446
S'version'
p1503
sa(dp1504
g1432
S''
sg1433
L1L
sg1434
Nsg1435
S'BTREE'
p1505
sg1437
S'component_id'
p1506
sg1439
S'A'
sg1440
S''
sg1441
L1L
sg1442
S'bugs'
p1507
sg1444
Nsg1445
Nsg1446
S'component_id'
p1508
sa(dp1509
g1432
S''
sg1433
L1L
sg1434
Nsg1435
S'BTREE'
p1510
sg1437
S'resolution'
p1511
sg1439
S'A'
sg1440
S''
sg1441
L1L
sg1442
S'bugs'
p1512
sg1444
Nsg1445
Nsg1446
S'resolution'
p1513
sa(dp1514
g1432
S''
sg1433
L1L
sg1434
Nsg1435
S'BTREE'
p1515
sg1437
S'target_milestone'
p1516
sg1439
S'A'
sg1440
S''
sg1441
L1L
sg1442
S'bugs'
p1517
sg1444
Nsg1445
Nsg1446
S'target_milestone'
p1518
sa(dp1519
g1432
S''
sg1433
L1L
sg1434
Nsg1435
S'BTREE'
p1520
sg1437
S'qa_contact'
p1521
sg1439
S'A'
sg1440
S''
sg1441
L1L
sg1442
S'bugs'
p1522
sg1444
Nsg1445
Nsg1446
S'qa_contact'
p1523
sa(dp1524
g1432
S''
sg1433
L1L
sg1434
Nsg1435
S'BTREE'
p1525
sg1437
S'votes'
p1526
sg1439
S'A'
sg1440
S''
sg1441
L1L
sg1442
S'bugs'
p1527
sg1444
Nsg1445
Nsg1446
S'votes'
p1528
satp1529
sS'profiles'
p1530
((lp1531
(dp1532
S'Extra'
p1533
S'auto_increment'
p1534
sS'Default'
p1535
NsS'Field'
p1536
S'userid'
p1537
sS'Key'
p1538
S'PRI'
p1539
sS'Null'
p1540
S''
sS'Type'
p1541
S'mediumint(9)'
p1542
sa(dp1543
g1533
S''
sg1535
S''
sg1536
S'login_name'
p1544
sg1538
S'UNI'
p1545
sg1540
S''
sg1541
S'varchar(255)'
p1546
sa(dp1547
g1533
S''
sg1535
Nsg1536
S'cryptpassword'
p1548
sg1538
S''
sg1540
S'YES'
p1549
sg1541
S'varchar(34)'
p1550
sa(dp1551
g1533
S''
sg1535
Nsg1536
S'realname'
p1552
sg1538
S''
sg1540
S'YES'
p1553
sg1541
S'varchar(255)'
p1554
sa(dp1555
g1533
S''
sg1535
S''
sg1536
S'disabledtext'
p1556
sg1538
S''
sg1540
S''
sg1541
S'mediumtext'
p1557
sa(dp1558
g1533
S''
sg1535
S'1'
sg1536
S'mybugslink'
p1559
sg1538
S''
sg1540
S''
sg1541
S'tinyint(4)'
p1560
sa(dp1561
g1533
S''
sg1535
Nsg1536
S'emailflags'
p1562
sg1538
S''
sg1540
S'YES'
p1563
sg1541
S'mediumtext'
p1564
sa(dp1565
g1533
S''
sg1535
S'0000-00-00 00:00:00'
p1566
sg1536
S'refreshed_when'
p1567
sg1538
S''
sg1540
S''
sg1541
S'datetime'
p1568
sa(lp1569
(dp1570
S'Comment'
p1571
S''
sS'Non_unique'
p1572
L0L
sS'Sub_part'
p1573
NsS'Index_type'
p1574
S'BTREE'
p1575
sS'Key_name'
p1576
S'PRIMARY'
p1577
sS'Collation'
p1578
S'A'
sS'Null'
p1579
S''
sS'Seq_in_index'
p1580
L1L
sS'Table'
p1581
S'profiles'
p1582
sS'Cardinality'
p1583
L0L
sS'Packed'
p1584
NsS'Column_name'
p1585
S'userid'
p1586
sa(dp1587
g1571
S''
sg1572
L0L
sg1573
Nsg1574
S'BTREE'
p1588
sg1576
S'login_name'
p1589
sg1578
S'A'
sg1579
S''
sg1580
L1L
sg1581
S'profiles'
p1590
sg1583
L0L
sg1584
Nsg1585
S'login_name'
p1591
satp1592
sS'flags'
p1593
((lp1594
(dp1595
S'Extra'
p1596
S''
sS'Default'
p1597
S'0'
sS'Field'
p1598
S'id'
p1599
sS'Key'
p1600
S'PRI'
p1601
sS'Null'
p1602
S''
sS'Type'
p1603
S'mediumint(9)'
p1604
sa(dp1605
g1596
S''
sg1597
S'0'
sg1598
S'type_id'
p1606
sg1600
S''
sg1602
S''
sg1603
S'smallint(6)'
p1607
sa(dp1608
g1596
S''
sg1597
S''
sg1598
S'status'
p1609
sg1600
S''
sg1602
S''
sg1603
S'char(1)'
p1610
sa(dp1611
g1596
S''
sg1597
S'0'
sg1598
S'bug_id'
p1612
sg1600
S'MUL'
p1613
sg1602
S''
sg1603
S'mediumint(9)'
p1614
sa(dp1615
g1596
S''
sg1597
Nsg1598
S'attach_id'
p1616
sg1600
S''
sg1602
S'YES'
p1617
sg1603
S'mediumint(9)'
p1618
sa(dp1619
g1596
S''
sg1597
S'0000-00-00 00:00:00'
p1620
sg1598
S'creation_date'
p1621
sg1600
S''
sg1602
S''
sg1603
S'datetime'
p1622
sa(dp1623
g1596
S''
sg1597
Nsg1598
S'modification_date'
p1624
sg1600
S''
sg1602
S'YES'
p1625
sg1603
S'datetime'
p1626
sa(dp1627
g1596
S''
sg1597
Nsg1598
S'setter_id'
p1628
sg1600
S'MUL'
p1629
sg1602
S'YES'
p1630
sg1603
S'mediumint(9)'
p1631
sa(dp1632
g1596
S''
sg1597
Nsg1598
S'requestee_id'
p1633
sg1600
S'MUL'
p1634
sg1602
S'YES'
p1635
sg1603
S'mediumint(9)'
p1636
sa(lp1637
(dp1638
S'Comment'
p1639
S''
sS'Non_unique'
p1640
L0L
sS'Sub_part'
p1641
NsS'Index_type'
p1642
S'BTREE'
p1643
sS'Key_name'
p1644
S'PRIMARY'
p1645
sS'Collation'
p1646
S'A'
sS'Null'
p1647
S''
sS'Seq_in_index'
p1648
L1L
sS'Table'
p1649
S'flags'
p1650
sS'Cardinality'
p1651
L0L
sS'Packed'
p1652
NsS'Column_name'
p1653
S'id'
p1654
sa(dp1655
g1639
S''
sg1640
L1L
sg1641
Nsg1642
S'BTREE'
p1656
sg1644
S'bug_id'
p1657
sg1646
S'A'
sg1647
S''
sg1648
L1L
sg1649
S'flags'
p1658
sg1651
Nsg1652
Nsg1653
S'bug_id'
p1659
sa(dp1660
g1639
S''
sg1640
L1L
sg1641
Nsg1642
S'BTREE'
p1661
sg1644
S'bug_id'
p1662
sg1646
S'A'
sg1647
S'YES'
p1663
sg1648
L2L
sg1649
S'flags'
p1664
sg1651
Nsg1652
Nsg1653
S'attach_id'
p1665
sa(dp1666
g1639
S''
sg1640
L1L
sg1641
Nsg1642
S'BTREE'
p1667
sg1644
S'setter_id'
p1668
sg1646
S'A'
sg1647
S'YES'
p1669
sg1648
L1L
sg1649
S'flags'
p1670
sg1651
Nsg1652
Nsg1653
S'setter_id'
p1671
sa(dp1672
g1639
S''
sg1640
L1L
sg1641
Nsg1642
S'BTREE'
p1673
sg1644
S'requestee_id'
p1674
sg1646
S'A'
sg1647
S'YES'
p1675
sg1648
L1L
sg1649
S'flags'
p1676
sg1651
Nsg1652
Nsg1653
S'requestee_id'
p1677
satp1678
sS'bugs_activity'
p1679
((lp1680
(dp1681
S'Extra'
p1682
S''
sS'Default'
p1683
S'0'
sS'Field'
p1684
S'bug_id'
p1685
sS'Key'
p1686
S'MUL'
p1687
sS'Null'
p1688
S''
sS'Type'
p1689
S'mediumint(9)'
p1690
sa(dp1691
g1682
S''
sg1683
Nsg1684
S'attach_id'
p1692
sg1686
S''
sg1688
S'YES'
p1693
sg1689
S'mediumint(9)'
p1694
sa(dp1695
g1682
S''
sg1683
S'0'
sg1684
S'who'
p1696
sg1686
S''
sg1688
S''
sg1689
S'mediumint(9)'
p1697
sa(dp1698
g1682
S''
sg1683
S'0000-00-00 00:00:00'
p1699
sg1684
S'bug_when'
p1700
sg1686
S'MUL'
p1701
sg1688
S''
sg1689
S'datetime'
p1702
sa(dp1703
g1682
S''
sg1683
S'0'
sg1684
S'fieldid'
p1704
sg1686
S'MUL'
p1705
sg1688
S''
sg1689
S'mediumint(9)'
p1706
sa(dp1707
g1682
S''
sg1683
Nsg1684
S'added'
p1708
sg1686
S''
sg1688
S'YES'
p1709
sg1689
S'tinytext'
p1710
sa(dp1711
g1682
S''
sg1683
Nsg1684
S'removed'
p1712
sg1686
S''
sg1688
S'YES'
p1713
sg1689
S'tinytext'
p1714
sa(lp1715
(dp1716
S'Comment'
p1717
S''
sS'Non_unique'
p1718
L1L
sS'Sub_part'
p1719
NsS'Index_type'
p1720
S'BTREE'
p1721
sS'Key_name'
p1722
S'bug_id'
p1723
sS'Collation'
p1724
S'A'
sS'Null'
p1725
S''
sS'Seq_in_index'
p1726
L1L
sS'Table'
p1727
S'bugs_activity'
p1728
sS'Cardinality'
p1729
NsS'Packed'
p1730
NsS'Column_name'
p1731
S'bug_id'
p1732
sa(dp1733
g1717
S''
sg1718
L1L
sg1719
Nsg1720
S'BTREE'
p1734
sg1722
S'bug_when'
p1735
sg1724
S'A'
sg1725
S''
sg1726
L1L
sg1727
S'bugs_activity'
p1736
sg1729
Nsg1730
Nsg1731
S'bug_when'
p1737
sa(dp1738
g1717
S''
sg1718
L1L
sg1719
Nsg1720
S'BTREE'
p1739
sg1722
S'fieldid'
p1740
sg1724
S'A'
sg1725
S''
sg1726
L1L
sg1727
S'bugs_activity'
p1741
sg1729
Nsg1730
Nsg1731
S'fieldid'
p1742
satp1743
sS'group_group_map'
p1744
((lp1745
(dp1746
S'Extra'
p1747
S''
sS'Default'
p1748
S'0'
sS'Field'
p1749
S'member_id'
p1750
sS'Key'
p1751
S'PRI'
p1752
sS'Null'
p1753
S''
sS'Type'
p1754
S'mediumint(9)'
p1755
sa(dp1756
g1747
S''
sg1748
S'0'
sg1749
S'grantor_id'
p1757
sg1751
S'PRI'
p1758
sg1753
S''
sg1754
S'mediumint(9)'
p1759
sa(dp1760
g1747
S''
sg1748
S'0'
sg1749
S'isbless'
p1761
sg1751
S'PRI'
p1762
sg1753
S''
sg1754
S'tinyint(4)'
p1763
sa(lp1764
(dp1765
S'Comment'
p1766
S''
sS'Non_unique'
p1767
L0L
sS'Sub_part'
p1768
NsS'Index_type'
p1769
S'BTREE'
p1770
sS'Key_name'
p1771
S'member_id'
p1772
sS'Collation'
p1773
S'A'
sS'Null'
p1774
S''
sS'Seq_in_index'
p1775
L1L
sS'Table'
p1776
S'group_group_map'
p1777
sS'Cardinality'
p1778
NsS'Packed'
p1779
NsS'Column_name'
p1780
S'member_id'
p1781
sa(dp1782
g1766
S''
sg1767
L0L
sg1768
Nsg1769
S'BTREE'
p1783
sg1771
S'member_id'
p1784
sg1773
S'A'
sg1774
S''
sg1775
L2L
sg1776
S'group_group_map'
p1785
sg1778
Nsg1779
Nsg1780
S'grantor_id'
p1786
sa(dp1787
g1766
S''
sg1767
L0L
sg1768
Nsg1769
S'BTREE'
p1788
sg1771
S'member_id'
p1789
sg1773
S'A'
sg1774
S''
sg1775
L3L
sg1776
S'group_group_map'
p1790
sg1778
L0L
sg1779
Nsg1780
S'isbless'
p1791
satp1792
st.