(S'2.18.2'
p1
(dp2
S'bug_group_map'
p3
((lp4
(dp5
S'Extra'
p6
S''
sS'Default'
p7
S'0'
sS'Field'
p8
S'bug_id'
p9
sS'Key'
p10
S'PRI'
p11
sS'Null'
p12
S''
sS'Type'
p13
S'mediumint(9)'
p14
sa(dp15
g6
S''
sg7
S'0'
sg8
S'group_id'
p16
sg10
S'PRI'
p17
sg12
S''
sg13
S'mediumint(9)'
p18
sa(lp19
(dp20
S'Comment'
p21
S''
sS'Non_unique'
p22
L0L
sS'Sub_part'
p23
NsS'Index_type'
p24
S'BTREE'
p25
sS'Key_name'
p26
S'bug_id'
p27
sS'Collation'
p28
S'A'
sS'Null'
p29
S''
sS'Seq_in_index'
p30
L1L
sS'Table'
p31
S'bug_group_map'
p32
sS'Cardinality'
p33
NsS'Packed'
p34
NsS'Column_name'
p35
S'bug_id'
p36
sa(dp37
g21
S''
sg22
L0L
sg23
Nsg24
S'BTREE'
p38
sg26
S'bug_id'
p39
sg28
S'A'
sg29
S''
sg30
L2L
sg31
S'bug_group_map'
p40
sg33
L0L
sg34
Nsg35
S'group_id'
p41
sa(dp42
g21
S''
sg22
L1L
sg23
Nsg24
S'BTREE'
p43
sg26
S'group_id'
p44
sg28
S'A'
sg29
S''
sg30
L1L
sg31
S'bug_group_map'
p45
sg33
Nsg34
Nsg35
S'group_id'
p46
satp47
sS'attachments'
p48
((lp49
(dp50
S'Extra'
p51
S'auto_increment'
p52
sS'Default'
p53
NsS'Field'
p54
S'attach_id'
p55
sS'Key'
p56
S'PRI'
p57
sS'Null'
p58
S''
sS'Type'
p59
S'mediumint(9)'
p60
sa(dp61
g51
S''
sg53
S'0'
sg54
S'bug_id'
p62
sg56
S'MUL'
p63
sg58
S''
sg59
S'mediumint(9)'
p64
sa(dp65
g51
S''
sg53
S'0000-00-00 00:00:00'
p66
sg54
S'creation_ts'
p67
sg56
S'MUL'
p68
sg58
S''
sg59
S'datetime'
p69
sa(dp70
g51
S''
sg53
S''
sg54
S'description'
p71
sg56
S''
sg58
S''
sg59
S'mediumtext'
p72
sa(dp73
g51
S''
sg53
S''
sg54
S'mimetype'
p74
sg56
S''
sg58
S''
sg59
S'mediumtext'
p75
sa(dp76
g51
S''
sg53
Nsg54
S'ispatch'
p77
sg56
S''
sg58
S'YES'
p78
sg59
S'tinyint(4)'
p79
sa(dp80
g51
S''
sg53
S''
sg54
S'filename'
p81
sg56
S''
sg58
S''
sg59
S'varchar(100)'
p82
sa(dp83
g51
S''
sg53
S''
sg54
S'thedata'
p84
sg56
S''
sg58
S''
sg59
S'longblob'
p85
sa(dp86
g51
S''
sg53
S'0'
sg54
S'submitter_id'
p87
sg56
S''
sg58
S''
sg59
S'mediumint(9)'
p88
sa(dp89
g51
S''
sg53
S'0'
sg54
S'isobsolete'
p90
sg56
S''
sg58
S''
sg59
S'tinyint(4)'
p91
sa(dp92
g51
S''
sg53
S'0'
sg54
S'isprivate'
p93
sg56
S''
sg58
S''
sg59
S'tinyint(4)'
p94
sa(lp95
(dp96
S'Comment'
p97
S''
sS'Non_unique'
p98
L0L
sS'Sub_part'
p99
NsS'Index_type'
p100
S'BTREE'
p101
sS'Key_name'
p102
S'PRIMARY'
p103
sS'Collation'
p104
S'A'
sS'Null'
p105
S''
sS'Seq_in_index'
p106
L1L
sS'Table'
p107
S'attachments'
p108
sS'Cardinality'
p109
L0L
sS'Packed'
p110
NsS'Column_name'
p111
S'attach_id'
p112
sa(dp113
g97
S''
sg98
L1L
sg99
Nsg100
S'BTREE'
p114
sg102
S'bug_id'
p115
sg104
S'A'
sg105
S''
sg106
L1L
sg107
S'attachments'
p116
sg109
Nsg110
Nsg111
S'bug_id'
p117
sa(dp118
g97
S''
sg98
L1L
sg99
Nsg100
S'BTREE'
p119
sg102
S'creation_ts'
p120
sg104
S'A'
sg105
S''
sg106
L1L
sg107
S'attachments'
p121
sg109
Nsg110
Nsg111
S'creation_ts'
p122
satp123
sS'cc'
p124
((lp125
(dp126
S'Extra'
p127
S''
sS'Default'
p128
S'0'
sS'Field'
p129
S'bug_id'
p130
sS'Key'
p131
S'PRI'
p132
sS'Null'
p133
S''
sS'Type'
p134
S'mediumint(9)'
p135
sa(dp136
g127
S''
sg128
S'0'
sg129
S'who'
p137
sg131
S'PRI'
p138
sg133
S''
sg134
S'mediumint(9)'
p139
sa(lp140
(dp141
S'Comment'
p142
S''
sS'Non_unique'
p143
L0L
sS'Sub_part'
p144
NsS'Index_type'
p145
S'BTREE'
p146
sS'Key_name'
p147
S'bug_id'
p148
sS'Collation'
p149
S'A'
sS'Null'
p150
S''
sS'Seq_in_index'
p151
L1L
sS'Table'
p152
S'cc'
p153
sS'Cardinality'
p154
NsS'Packed'
p155
NsS'Column_name'
p156
S'bug_id'
p157
sa(dp158
g142
S''
sg143
L0L
sg144
Nsg145
S'BTREE'
p159
sg147
S'bug_id'
p160
sg149
S'A'
sg150
S''
sg151
L2L
sg152
S'cc'
p161
sg154
L0L
sg155
Nsg156
S'who'
p162
sa(dp163
g142
S''
sg143
L1L
sg144
Nsg145
S'BTREE'
p164
sg147
S'who'
p165
sg149
S'A'
sg150
S''
sg151
L1L
sg152
S'cc'
p166
sg154
Nsg155
Nsg156
S'who'
p167
satp168
sS'series'
p169
((lp170
(dp171
S'Extra'
p172
S'auto_increment'
p173
sS'Default'
p174
NsS'Field'
p175
S'series_id'
p176
sS'Key'
p177
S'PRI'
p178
sS'Null'
p179
S''
sS'Type'
p180
S'mediumint(9)'
p181
sa(dp182
g172
S''
sg174
S'0'
sg175
S'creator'
p183
sg177
S'MUL'
p184
sg179
S''
sg180
S'mediumint(9)'
p185
sa(dp186
g172
S''
sg174
S'0'
sg175
S'category'
p187
sg177
S''
sg179
S''
sg180
S'smallint(6)'
p188
sa(dp189
g172
S''
sg174
S'0'
sg175
S'subcategory'
p190
sg177
S''
sg179
S''
sg180
S'smallint(6)'
p191
sa(dp192
g172
S''
sg174
S''
sg175
S'name'
p193
sg177
S''
sg179
S''
sg180
S'varchar(64)'
p194
sa(dp195
g172
S''
sg174
S'0'
sg175
S'frequency'
p196
sg177
S''
sg179
S''
sg180
S'smallint(6)'
p197
sa(dp198
g172
S''
sg174
Nsg175
S'last_viewed'
p199
sg177
S''
sg179
S'YES'
p200
sg180
S'datetime'
p201
sa(dp202
g172
S''
sg174
S''
sg175
S'query'
p203
sg177
S''
sg179
S''
sg180
S'mediumtext'
p204
sa(dp205
g172
S''
sg174
S'0'
sg175
S'public'
p206
sg177
S''
sg179
S''
sg180
S'tinyint(1)'
p207
sa(lp208
(dp209
S'Comment'
p210
S''
sS'Non_unique'
p211
L0L
sS'Sub_part'
p212
NsS'Index_type'
p213
S'BTREE'
p214
sS'Key_name'
p215
S'PRIMARY'
p216
sS'Collation'
p217
S'A'
sS'Null'
p218
S''
sS'Seq_in_index'
p219
L1L
sS'Table'
p220
S'series'
p221
sS'Cardinality'
p222
L32L
sS'Packed'
p223
NsS'Column_name'
p224
S'series_id'
p225
sa(dp226
g210
S''
sg211
L0L
sg212
Nsg213
S'BTREE'
p227
sg215
S'creator_2'
p228
sg217
S'A'
sg218
S''
sg219
L1L
sg220
S'series'
p229
sg222
Nsg223
Nsg224
S'creator'
p230
sa(dp231
g210
S''
sg211
L0L
sg212
Nsg213
S'BTREE'
p232
sg215
S'creator_2'
p233
sg217
S'A'
sg218
S''
sg219
L2L
sg220
S'series'
p234
sg222
Nsg223
Nsg224
S'category'
p235
sa(dp236
g210
S''
sg211
L0L
sg212
Nsg213
S'BTREE'
p237
sg215
S'creator_2'
p238
sg217
S'A'
sg218
S''
sg219
L3L
sg220
S'series'
p239
sg222
Nsg223
Nsg224
S'subcategory'
p240
sa(dp241
g210
S''
sg211
L0L
sg212
Nsg213
S'BTREE'
p242
sg215
S'creator_2'
p243
sg217
S'A'
sg218
S''
sg219
L4L
sg220
S'series'
p244
sg222
L32L
sg223
Nsg224
S'name'
p245
sa(dp246
g210
S''
sg211
L1L
sg212
Nsg213
S'BTREE'
p247
sg215
S'creator'
p248
sg217
S'A'
sg218
S''
sg219
L1L
sg220
S'series'
p249
sg222
Nsg223
Nsg224
S'creator'
p250
satp251
sS'quips'
p252
((lp253
(dp254
S'Extra'
p255
S'auto_increment'
p256
sS'Default'
p257
NsS'Field'
p258
S'quipid'
p259
sS'Key'
p260
S'PRI'
p261
sS'Null'
p262
S''
sS'Type'
p263
S'mediumint(9)'
p264
sa(dp265
g255
S''
sg257
Nsg258
S'userid'
p266
sg260
S''
sg262
S'YES'
p267
sg263
S'mediumint(9)'
p268
sa(dp269
g255
S''
sg257
S''
sg258
S'quip'
p270
sg260
S''
sg262
S''
sg263
S'text'
p271
sa(dp272
g255
S''
sg257
S'1'
sg258
S'approved'
p273
sg260
S''
sg262
S''
sg263
S'tinyint(1)'
p274
sa(lp275
(dp276
S'Comment'
p277
S''
sS'Non_unique'
p278
L0L
sS'Sub_part'
p279
NsS'Index_type'
p280
S'BTREE'
p281
sS'Key_name'
p282
S'PRIMARY'
p283
sS'Collation'
p284
S'A'
sS'Null'
p285
S''
sS'Seq_in_index'
p286
L1L
sS'Table'
p287
S'quips'
p288
sS'Cardinality'
p289
L0L
sS'Packed'
p290
NsS'Column_name'
p291
S'quipid'
p292
satp293
sS'series_categories'
p294
((lp295
(dp296
S'Extra'
p297
S'auto_increment'
p298
sS'Default'
p299
NsS'Field'
p300
S'id'
p301
sS'Key'
p302
S'PRI'
p303
sS'Null'
p304
S''
sS'Type'
p305
S'smallint(6)'
p306
sa(dp307
g297
S''
sg299
S''
sg300
S'name'
p308
sg302
S'UNI'
p309
sg304
S''
sg305
S'varchar(64)'
p310
sa(lp311
(dp312
S'Comment'
p313
S''
sS'Non_unique'
p314
L0L
sS'Sub_part'
p315
NsS'Index_type'
p316
S'BTREE'
p317
sS'Key_name'
p318
S'PRIMARY'
p319
sS'Collation'
p320
S'A'
sS'Null'
p321
S''
sS'Seq_in_index'
p322
L1L
sS'Table'
p323
S'series_categories'
p324
sS'Cardinality'
p325
L2L
sS'Packed'
p326
NsS'Column_name'
p327
S'id'
p328
sa(dp329
g313
S''
sg314
L0L
sg315
Nsg316
S'BTREE'
p330
sg318
S'name'
p331
sg320
S'A'
sg321
S''
sg322
L1L
sg323
S'series_categories'
p332
sg325
L2L
sg326
Nsg327
S'name'
p333
satp334
sS'group_group_map'
p335
((lp336
(dp337
S'Extra'
p338
S''
sS'Default'
p339
S'0'
sS'Field'
p340
S'member_id'
p341
sS'Key'
p342
S'PRI'
p343
sS'Null'
p344
S''
sS'Type'
p345
S'mediumint(9)'
p346
sa(dp347
g338
S''
sg339
S'0'
sg340
S'grantor_id'
p348
sg342
S'PRI'
p349
sg344
S''
sg345
S'mediumint(9)'
p350
sa(dp351
g338
S''
sg339
S'0'
sg340
S'isbless'
p352
sg342
S'PRI'
p353
sg344
S''
sg345
S'tinyint(4)'
p354
sa(lp355
(dp356
S'Comment'
p357
S''
sS'Non_unique'
p358
L0L
sS'Sub_part'
p359
NsS'Index_type'
p360
S'BTREE'
p361
sS'Key_name'
p362
S'member_id'
p363
sS'Collation'
p364
S'A'
sS'Null'
p365
S''
sS'Seq_in_index'
p366
L1L
sS'Table'
p367
S'group_group_map'
p368
sS'Cardinality'
p369
NsS'Packed'
p370
NsS'Column_name'
p371
S'member_id'
p372
sa(dp373
g357
S''
sg358
L0L
sg359
Nsg360
S'BTREE'
p374
sg362
S'member_id'
p375
sg364
S'A'
sg365
S''
sg366
L2L
sg367
S'group_group_map'
p376
sg369
Nsg370
Nsg371
S'grantor_id'
p377
sa(dp378
g357
S''
sg358
L0L
sg359
Nsg360
S'BTREE'
p379
sg362
S'member_id'
p380
sg364
S'A'
sg365
S''
sg366
L3L
sg367
S'group_group_map'
p381
sg369
L16L
sg370
Nsg371
S'isbless'
p382
satp383
sS'keywords'
p384
((lp385
(dp386
S'Extra'
p387
S''
sS'Default'
p388
S'0'
sS'Field'
p389
S'bug_id'
p390
sS'Key'
p391
S'PRI'
p392
sS'Null'
p393
S''
sS'Type'
p394
S'mediumint(9)'
p395
sa(dp396
g387
S''
sg388
S'0'
sg389
S'keywordid'
p397
sg391
S'PRI'
p398
sg393
S''
sg394
S'smallint(6)'
p399
sa(lp400
(dp401
S'Comment'
p402
S''
sS'Non_unique'
p403
L0L
sS'Sub_part'
p404
NsS'Index_type'
p405
S'BTREE'
p406
sS'Key_name'
p407
S'bug_id'
p408
sS'Collation'
p409
S'A'
sS'Null'
p410
S''
sS'Seq_in_index'
p411
L1L
sS'Table'
p412
S'keywords'
p413
sS'Cardinality'
p414
NsS'Packed'
p415
NsS'Column_name'
p416
S'bug_id'
p417
sa(dp418
g402
S''
sg403
L0L
sg404
Nsg405
S'BTREE'
p419
sg407
S'bug_id'
p420
sg409
S'A'
sg410
S''
sg411
L2L
sg412
S'keywords'
p421
sg414
L0L
sg415
Nsg416
S'keywordid'
p422
sa(dp423
g402
S''
sg403
L1L
sg404
Nsg405
S'BTREE'
p424
sg407
S'keywordid'
p425
sg409
S'A'
sg410
S''
sg411
L1L
sg412
S'keywords'
p426
sg414
Nsg415
Nsg416
S'keywordid'
p427
satp428
sS'series_data'
p429
((lp430
(dp431
S'Extra'
p432
S''
sS'Default'
p433
S'0'
sS'Field'
p434
S'series_id'
p435
sS'Key'
p436
S'PRI'
p437
sS'Null'
p438
S''
sS'Type'
p439
S'mediumint(9)'
p440
sa(dp441
g432
S''
sg433
S'0000-00-00 00:00:00'
p442
sg434
S'series_date'
p443
sg436
S'PRI'
p444
sg438
S''
sg439
S'datetime'
p445
sa(dp446
g432
S''
sg433
S'0'
sg434
S'series_value'
p447
sg436
S''
sg438
S''
sg439
S'mediumint(9)'
p448
sa(lp449
(dp450
S'Comment'
p451
S''
sS'Non_unique'
p452
L0L
sS'Sub_part'
p453
NsS'Index_type'
p454
S'BTREE'
p455
sS'Key_name'
p456
S'series_id'
p457
sS'Collation'
p458
S'A'
sS'Null'
p459
S''
sS'Seq_in_index'
p460
L1L
sS'Table'
p461
S'series_data'
p462
sS'Cardinality'
p463
NsS'Packed'
p464
NsS'Column_name'
p465
S'series_id'
p466
sa(dp467
g451
S''
sg452
L0L
sg453
Nsg454
S'BTREE'
p468
sg456
S'series_id'
p469
sg458
S'A'
sg459
S''
sg460
L2L
sg461
S'series_data'
p470
sg463
L0L
sg464
Nsg465
S'series_date'
p471
satp472
sS'keyworddefs'
p473
((lp474
(dp475
S'Extra'
p476
S''
sS'Default'
p477
S'0'
sS'Field'
p478
S'id'
p479
sS'Key'
p480
S'PRI'
p481
sS'Null'
p482
S''
sS'Type'
p483
S'smallint(6)'
p484
sa(dp485
g476
S''
sg477
S''
sg478
S'name'
p486
sg480
S'UNI'
p487
sg482
S''
sg483
S'varchar(64)'
p488
sa(dp489
g476
S''
sg477
Nsg478
S'description'
p490
sg480
S''
sg482
S'YES'
p491
sg483
S'mediumtext'
p492
sa(lp493
(dp494
S'Comment'
p495
S''
sS'Non_unique'
p496
L0L
sS'Sub_part'
p497
NsS'Index_type'
p498
S'BTREE'
p499
sS'Key_name'
p500
S'PRIMARY'
p501
sS'Collation'
p502
S'A'
sS'Null'
p503
S''
sS'Seq_in_index'
p504
L1L
sS'Table'
p505
S'keyworddefs'
p506
sS'Cardinality'
p507
L0L
sS'Packed'
p508
NsS'Column_name'
p509
S'id'
p510
sa(dp511
g495
S''
sg496
L0L
sg497
Nsg498
S'BTREE'
p512
sg500
S'name'
p513
sg502
S'A'
sg503
S''
sg504
L1L
sg505
S'keyworddefs'
p514
sg507
L0L
sg508
Nsg509
S'name'
p515
satp516
sS'flagexclusions'
p517
((lp518
(dp519
S'Extra'
p520
S''
sS'Default'
p521
S'0'
sS'Field'
p522
S'type_id'
p523
sS'Key'
p524
S'MUL'
p525
sS'Null'
p526
S''
sS'Type'
p527
S'smallint(6)'
p528
sa(dp529
g520
S''
sg521
Nsg522
S'product_id'
p530
sg524
S''
sg526
S'YES'
p531
sg527
S'smallint(6)'
p532
sa(dp533
g520
S''
sg521
Nsg522
S'component_id'
p534
sg524
S''
sg526
S'YES'
p535
sg527
S'smallint(6)'
p536
sa(lp537
(dp538
S'Comment'
p539
S''
sS'Non_unique'
p540
L1L
sS'Sub_part'
p541
NsS'Index_type'
p542
S'BTREE'
p543
sS'Key_name'
p544
S'type_id'
p545
sS'Collation'
p546
S'A'
sS'Null'
p547
S''
sS'Seq_in_index'
p548
L1L
sS'Table'
p549
S'flagexclusions'
p550
sS'Cardinality'
p551
NsS'Packed'
p552
NsS'Column_name'
p553
S'type_id'
p554
sa(dp555
g539
S''
sg540
L1L
sg541
Nsg542
S'BTREE'
p556
sg544
S'type_id'
p557
sg546
S'A'
sg547
S'YES'
p558
sg548
L2L
sg549
S'flagexclusions'
p559
sg551
Nsg552
Nsg553
S'product_id'
p560
sa(dp561
g539
S''
sg540
L1L
sg541
Nsg542
S'BTREE'
p562
sg544
S'type_id'
p563
sg546
S'A'
sg547
S'YES'
p564
sg548
L3L
sg549
S'flagexclusions'
p565
sg551
Nsg552
Nsg553
S'component_id'
p566
satp567
sS'votes'
p568
((lp569
(dp570
S'Extra'
p571
S''
sS'Default'
p572
S'0'
sS'Field'
p573
S'who'
p574
sS'Key'
p575
S'MUL'
p576
sS'Null'
p577
S''
sS'Type'
p578
S'mediumint(9)'
p579
sa(dp580
g571
S''
sg572
S'0'
sg573
S'bug_id'
p581
sg575
S'MUL'
p582
sg577
S''
sg578
S'mediumint(9)'
p583
sa(dp584
g571
S''
sg572
S'0'
sg573
S'vote_count'
p585
sg575
S''
sg577
S''
sg578
S'smallint(6)'
p586
sa(lp587
(dp588
S'Comment'
p589
S''
sS'Non_unique'
p590
L1L
sS'Sub_part'
p591
NsS'Index_type'
p592
S'BTREE'
p593
sS'Key_name'
p594
S'who'
p595
sS'Collation'
p596
S'A'
sS'Null'
p597
S''
sS'Seq_in_index'
p598
L1L
sS'Table'
p599
S'votes'
p600
sS'Cardinality'
p601
NsS'Packed'
p602
NsS'Column_name'
p603
S'who'
p604
sa(dp605
g589
S''
sg590
L1L
sg591
Nsg592
S'BTREE'
p606
sg594
S'bug_id'
p607
sg596
S'A'
sg597
S''
sg598
L1L
sg599
S'votes'
p608
sg601
Nsg602
Nsg603
S'bug_id'
p609
satp610
sS'products'
p611
((lp612
(dp613
S'Extra'
p614
S'auto_increment'
p615
sS'Default'
p616
NsS'Field'
p617
S'id'
p618
sS'Key'
p619
S'PRI'
p620
sS'Null'
p621
S''
sS'Type'
p622
S'smallint(6)'
p623
sa(dp624
g614
S''
sg616
S''
sg617
S'name'
p625
sg619
S'UNI'
p626
sg621
S''
sg622
S'varchar(64)'
p627
sa(dp628
g614
S''
sg616
Nsg617
S'description'
p629
sg619
S''
sg621
S'YES'
p630
sg622
S'mediumtext'
p631
sa(dp632
g614
S''
sg616
S''
sg617
S'milestoneurl'
p633
sg619
S''
sg621
S''
sg622
S'tinytext'
p634
sa(dp635
g614
S''
sg616
S'0'
sg617
S'disallownew'
p636
sg619
S''
sg621
S''
sg622
S'tinyint(4)'
p637
sa(dp638
g614
S''
sg616
S'0'
sg617
S'votesperuser'
p639
sg619
S''
sg621
S''
sg622
S'smallint(6)'
p640
sa(dp641
g614
S''
sg616
S'10000'
p642
sg617
S'maxvotesperbug'
p643
sg619
S''
sg621
S''
sg622
S'smallint(6)'
p644
sa(dp645
g614
S''
sg616
S'0'
sg617
S'votestoconfirm'
p646
sg619
S''
sg621
S''
sg622
S'smallint(6)'
p647
sa(dp648
g614
S''
sg616
S'---'
p649
sg617
S'defaultmilestone'
p650
sg619
S''
sg621
S''
sg622
S'varchar(20)'
p651
sa(lp652
(dp653
S'Comment'
p654
S''
sS'Non_unique'
p655
L0L
sS'Sub_part'
p656
NsS'Index_type'
p657
S'BTREE'
p658
sS'Key_name'
p659
S'PRIMARY'
p660
sS'Collation'
p661
S'A'
sS'Null'
p662
S''
sS'Seq_in_index'
p663
L1L
sS'Table'
p664
S'products'
p665
sS'Cardinality'
p666
L1L
sS'Packed'
p667
NsS'Column_name'
p668
S'id'
p669
sa(dp670
g654
S''
sg655
L0L
sg656
Nsg657
S'BTREE'
p671
sg659
S'name'
p672
sg661
S'A'
sg662
S''
sg663
L1L
sg664
S'products'
p673
sg666
L1L
sg667
Nsg668
S'name'
p674
satp675
sS'duplicates'
p676
((lp677
(dp678
S'Extra'
p679
S''
sS'Default'
p680
S'0'
sS'Field'
p681
S'dupe_of'
p682
sS'Key'
p683
S''
sS'Null'
p684
S''
sS'Type'
p685
S'mediumint(9)'
p686
sa(dp687
g679
S''
sg680
S'0'
sg681
S'dupe'
p688
sg683
S'PRI'
p689
sg684
S''
sg685
S'mediumint(9)'
p690
sa(lp691
(dp692
S'Comment'
p693
S''
sS'Non_unique'
p694
L0L
sS'Sub_part'
p695
NsS'Index_type'
p696
S'BTREE'
p697
sS'Key_name'
p698
S'PRIMARY'
p699
sS'Collation'
p700
S'A'
sS'Null'
p701
S''
sS'Seq_in_index'
p702
L1L
sS'Table'
p703
S'duplicates'
p704
sS'Cardinality'
p705
L0L
sS'Packed'
p706
NsS'Column_name'
p707
S'dupe'
p708
satp709
sS'logincookies'
p710
((lp711
(dp712
S'Extra'
p713
S'auto_increment'
p714
sS'Default'
p715
NsS'Field'
p716
S'cookie'
p717
sS'Key'
p718
S'PRI'
p719
sS'Null'
p720
S''
sS'Type'
p721
S'mediumint(9)'
p722
sa(dp723
g713
S''
sg715
S'0'
sg716
S'userid'
p724
sg718
S''
sg720
S''
sg721
S'mediumint(9)'
p725
sa(dp726
g713
S''
sg715
S''
sg716
S'ipaddr'
p727
sg718
S''
sg720
S''
sg721
S'varchar(40)'
p728
sa(dp729
g713
S''
sg715
Nsg716
S'lastused'
p730
sg718
S'MUL'
p731
sg720
S'YES'
p732
sg721
S'timestamp(14)'
p733
sa(lp734
(dp735
S'Comment'
p736
S''
sS'Non_unique'
p737
L0L
sS'Sub_part'
p738
NsS'Index_type'
p739
S'BTREE'
p740
sS'Key_name'
p741
S'PRIMARY'
p742
sS'Collation'
p743
S'A'
sS'Null'
p744
S''
sS'Seq_in_index'
p745
L1L
sS'Table'
p746
S'logincookies'
p747
sS'Cardinality'
p748
L0L
sS'Packed'
p749
NsS'Column_name'
p750
S'cookie'
p751
sa(dp752
g736
S''
sg737
L1L
sg738
Nsg739
S'BTREE'
p753
sg741
S'lastused'
p754
sg743
S'A'
sg744
S''
sg745
L1L
sg746
S'logincookies'
p755
sg748
Nsg749
Nsg750
S'lastused'
p756
satp757
sS'fielddefs'
p758
((lp759
(dp760
S'Extra'
p761
S'auto_increment'
p762
sS'Default'
p763
NsS'Field'
p764
S'fieldid'
p765
sS'Key'
p766
S'PRI'
p767
sS'Null'
p768
S''
sS'Type'
p769
S'mediumint(9)'
p770
sa(dp771
g761
S''
sg763
S''
sg764
S'name'
p772
sg766
S'UNI'
p773
sg768
S''
sg769
S'varchar(64)'
p774
sa(dp775
g761
S''
sg763
S''
sg764
S'description'
p776
sg766
S''
sg768
S''
sg769
S'mediumtext'
p777
sa(dp778
g761
S''
sg763
S'0'
sg764
S'mailhead'
p779
sg766
S''
sg768
S''
sg769
S'tinyint(4)'
p780
sa(dp781
g761
S''
sg763
S'0'
sg764
S'sortkey'
p782
sg766
S'MUL'
p783
sg768
S''
sg769
S'smallint(6)'
p784
sa(dp785
g761
S''
sg763
S'0'
sg764
S'obsolete'
p786
sg766
S''
sg768
S''
sg769
S'tinyint(4)'
p787
sa(lp788
(dp789
S'Comment'
p790
S''
sS'Non_unique'
p791
L0L
sS'Sub_part'
p792
NsS'Index_type'
p793
S'BTREE'
p794
sS'Key_name'
p795
S'PRIMARY'
p796
sS'Collation'
p797
S'A'
sS'Null'
p798
S''
sS'Seq_in_index'
p799
L1L
sS'Table'
p800
S'fielddefs'
p801
sS'Cardinality'
p802
L46L
sS'Packed'
p803
NsS'Column_name'
p804
S'fieldid'
p805
sa(dp806
g790
S''
sg791
L0L
sg792
Nsg793
S'BTREE'
p807
sg795
S'name'
p808
sg797
S'A'
sg798
S''
sg799
L1L
sg800
S'fielddefs'
p809
sg802
L46L
sg803
Nsg804
S'name'
p810
sa(dp811
g790
S''
sg791
L1L
sg792
Nsg793
S'BTREE'
p812
sg795
S'sortkey'
p813
sg797
S'A'
sg798
S''
sg799
L1L
sg800
S'fielddefs'
p814
sg802
Nsg803
Nsg804
S'sortkey'
p815
satp816
sS'flaginclusions'
p817
((lp818
(dp819
S'Extra'
p820
S''
sS'Default'
p821
S'0'
sS'Field'
p822
S'type_id'
p823
sS'Key'
p824
S'MUL'
p825
sS'Null'
p826
S''
sS'Type'
p827
S'smallint(6)'
p828
sa(dp829
g820
S''
sg821
Nsg822
S'product_id'
p830
sg824
S''
sg826
S'YES'
p831
sg827
S'smallint(6)'
p832
sa(dp833
g820
S''
sg821
Nsg822
S'component_id'
p834
sg824
S''
sg826
S'YES'
p835
sg827
S'smallint(6)'
p836
sa(lp837
(dp838
S'Comment'
p839
S''
sS'Non_unique'
p840
L1L
sS'Sub_part'
p841
NsS'Index_type'
p842
S'BTREE'
p843
sS'Key_name'
p844
S'type_id'
p845
sS'Collation'
p846
S'A'
sS'Null'
p847
S''
sS'Seq_in_index'
p848
L1L
sS'Table'
p849
S'flaginclusions'
p850
sS'Cardinality'
p851
NsS'Packed'
p852
NsS'Column_name'
p853
S'type_id'
p854
sa(dp855
g839
S''
sg840
L1L
sg841
Nsg842
S'BTREE'
p856
sg844
S'type_id'
p857
sg846
S'A'
sg847
S'YES'
p858
sg848
L2L
sg849
S'flaginclusions'
p859
sg851
Nsg852
Nsg853
S'product_id'
p860
sa(dp861
g839
S''
sg840
L1L
sg841
Nsg842
S'BTREE'
p862
sg844
S'type_id'
p863
sg846
S'A'
sg847
S'YES'
p864
sg848
L3L
sg849
S'flaginclusions'
p865
sg851
Nsg852
Nsg853
S'component_id'
p866
satp867
sS'profiles_activity'
p868
((lp869
(dp870
S'Extra'
p871
S''
sS'Default'
p872
S'0'
sS'Field'
p873
S'userid'
p874
sS'Key'
p875
S'MUL'
p876
sS'Null'
p877
S''
sS'Type'
p878
S'mediumint(9)'
p879
sa(dp880
g871
S''
sg872
S'0'
sg873
S'who'
p881
sg875
S''
sg877
S''
sg878
S'mediumint(9)'
p882
sa(dp883
g871
S''
sg872
S'0000-00-00 00:00:00'
p884
sg873
S'profiles_when'
p885
sg875
S'MUL'
p886
sg877
S''
sg878
S'datetime'
p887
sa(dp888
g871
S''
sg872
S'0'
sg873
S'fieldid'
p889
sg875
S'MUL'
p890
sg877
S''
sg878
S'mediumint(9)'
p891
sa(dp892
g871
S''
sg872
Nsg873
S'oldvalue'
p893
sg875
S''
sg877
S'YES'
p894
sg878
S'tinytext'
p895
sa(dp896
g871
S''
sg872
Nsg873
S'newvalue'
p897
sg875
S''
sg877
S'YES'
p898
sg878
S'tinytext'
p899
sa(lp900
(dp901
S'Comment'
p902
S''
sS'Non_unique'
p903
L1L
sS'Sub_part'
p904
NsS'Index_type'
p905
S'BTREE'
p906
sS'Key_name'
p907
S'userid'
p908
sS'Collation'
p909
S'A'
sS'Null'
p910
S''
sS'Seq_in_index'
p911
L1L
sS'Table'
p912
S'profiles_activity'
p913
sS'Cardinality'
p914
NsS'Packed'
p915
NsS'Column_name'
p916
S'userid'
p917
sa(dp918
g902
S''
sg903
L1L
sg904
Nsg905
S'BTREE'
p919
sg907
S'profiles_when'
p920
sg909
S'A'
sg910
S''
sg911
L1L
sg912
S'profiles_activity'
p921
sg914
Nsg915
Nsg916
S'profiles_when'
p922
sa(dp923
g902
S''
sg903
L1L
sg904
Nsg905
S'BTREE'
p924
sg907
S'fieldid'
p925
sg909
S'A'
sg910
S''
sg911
L1L
sg912
S'profiles_activity'
p926
sg914
Nsg915
Nsg916
S'fieldid'
p927
satp928
sS'bugs_activity'
p929
((lp930
(dp931
S'Extra'
p932
S''
sS'Default'
p933
S'0'
sS'Field'
p934
S'bug_id'
p935
sS'Key'
p936
S'MUL'
p937
sS'Null'
p938
S''
sS'Type'
p939
S'mediumint(9)'
p940
sa(dp941
g932
S''
sg933
Nsg934
S'attach_id'
p942
sg936
S''
sg938
S'YES'
p943
sg939
S'mediumint(9)'
p944
sa(dp945
g932
S''
sg933
S'0'
sg934
S'who'
p946
sg936
S''
sg938
S''
sg939
S'mediumint(9)'
p947
sa(dp948
g932
S''
sg933
S'0000-00-00 00:00:00'
p949
sg934
S'bug_when'
p950
sg936
S'MUL'
p951
sg938
S''
sg939
S'datetime'
p952
sa(dp953
g932
S''
sg933
S'0'
sg934
S'fieldid'
p954
sg936
S'MUL'
p955
sg938
S''
sg939
S'mediumint(9)'
p956
sa(dp957
g932
S''
sg933
Nsg934
S'added'
p958
sg936
S''
sg938
S'YES'
p959
sg939
S'tinytext'
p960
sa(dp961
g932
S''
sg933
Nsg934
S'removed'
p962
sg936
S''
sg938
S'YES'
p963
sg939
S'tinytext'
p964
sa(lp965
(dp966
S'Comment'
p967
S''
sS'Non_unique'
p968
L1L
sS'Sub_part'
p969
NsS'Index_type'
p970
S'BTREE'
p971
sS'Key_name'
p972
S'bug_id'
p973
sS'Collation'
p974
S'A'
sS'Null'
p975
S''
sS'Seq_in_index'
p976
L1L
sS'Table'
p977
S'bugs_activity'
p978
sS'Cardinality'
p979
NsS'Packed'
p980
NsS'Column_name'
p981
S'bug_id'
p982
sa(dp983
g967
S''
sg968
L1L
sg969
Nsg970
S'BTREE'
p984
sg972
S'bug_when'
p985
sg974
S'A'
sg975
S''
sg976
L1L
sg977
S'bugs_activity'
p986
sg979
Nsg980
Nsg981
S'bug_when'
p987
sa(dp988
g967
S''
sg968
L1L
sg969
Nsg970
S'BTREE'
p989
sg972
S'fieldid'
p990
sg974
S'A'
sg975
S''
sg976
L1L
sg977
S'bugs_activity'
p991
sg979
Nsg980
Nsg981
S'fieldid'
p992
satp993
sS'watch'
p994
((lp995
(dp996
S'Extra'
p997
S''
sS'Default'
p998
S'0'
sS'Field'
p999
S'watcher'
p1000
sS'Key'
p1001
S'PRI'
p1002
sS'Null'
p1003
S''
sS'Type'
p1004
S'mediumint(9)'
p1005
sa(dp1006
g997
S''
sg998
S'0'
sg999
S'watched'
p1007
sg1001
S'PRI'
p1008
sg1003
S''
sg1004
S'mediumint(9)'
p1009
sa(lp1010
(dp1011
S'Comment'
p1012
S''
sS'Non_unique'
p1013
L0L
sS'Sub_part'
p1014
NsS'Index_type'
p1015
S'BTREE'
p1016
sS'Key_name'
p1017
S'watcher'
p1018
sS'Collation'
p1019
S'A'
sS'Null'
p1020
S''
sS'Seq_in_index'
p1021
L1L
sS'Table'
p1022
S'watch'
p1023
sS'Cardinality'
p1024
NsS'Packed'
p1025
NsS'Column_name'
p1026
S'watcher'
p1027
sa(dp1028
g1012
S''
sg1013
L0L
sg1014
Nsg1015
S'BTREE'
p1029
sg1017
S'watcher'
p1030
sg1019
S'A'
sg1020
S''
sg1021
L2L
sg1022
S'watch'
p1031
sg1024
L0L
sg1025
Nsg1026
S'watched'
p1032
sa(dp1033
g1012
S''
sg1013
L1L
sg1014
Nsg1015
S'BTREE'
p1034
sg1017
S'watched'
p1035
sg1019
S'A'
sg1020
S''
sg1021
L1L
sg1022
S'watch'
p1036
sg1024
Nsg1025
Nsg1026
S'watched'
p1037
satp1038
sS'namedqueries'
p1039
((lp1040
(dp1041
S'Extra'
p1042
S''
sS'Default'
p1043
S'0'
sS'Field'
p1044
S'userid'
p1045
sS'Key'
p1046
S'PRI'
p1047
sS'Null'
p1048
S''
sS'Type'
p1049
S'mediumint(9)'
p1050
sa(dp1051
g1042
S''
sg1043
S''
sg1044
S'name'
p1052
sg1046
S'PRI'
p1053
sg1048
S''
sg1049
S'varchar(64)'
p1054
sa(dp1055
g1042
S''
sg1043
S'0'
sg1044
S'linkinfooter'
p1056
sg1046
S''
sg1048
S''
sg1049
S'tinyint(4)'
p1057
sa(dp1058
g1042
S''
sg1043
S''
sg1044
S'query'
p1059
sg1046
S''
sg1048
S''
sg1049
S'mediumtext'
p1060
sa(lp1061
(dp1062
S'Comment'
p1063
S''
sS'Non_unique'
p1064
L0L
sS'Sub_part'
p1065
NsS'Index_type'
p1066
S'BTREE'
p1067
sS'Key_name'
p1068
S'userid'
p1069
sS'Collation'
p1070
S'A'
sS'Null'
p1071
S''
sS'Seq_in_index'
p1072
L1L
sS'Table'
p1073
S'namedqueries'
p1074
sS'Cardinality'
p1075
NsS'Packed'
p1076
NsS'Column_name'
p1077
S'userid'
p1078
sa(dp1079
g1063
S''
sg1064
L0L
sg1065
Nsg1066
S'BTREE'
p1080
sg1068
S'userid'
p1081
sg1070
S'A'
sg1071
S''
sg1072
L2L
sg1073
S'namedqueries'
p1082
sg1075
L0L
sg1076
Nsg1077
S'name'
p1083
satp1084
sS'tokens'
p1085
((lp1086
(dp1087
S'Extra'
p1088
S''
sS'Default'
p1089
S'0'
sS'Field'
p1090
S'userid'
p1091
sS'Key'
p1092
S'MUL'
p1093
sS'Null'
p1094
S''
sS'Type'
p1095
S'mediumint(9)'
p1096
sa(dp1097
g1088
S''
sg1089
S'0000-00-00 00:00:00'
p1098
sg1090
S'issuedate'
p1099
sg1092
S''
sg1094
S''
sg1095
S'datetime'
p1100
sa(dp1101
g1088
S''
sg1089
S''
sg1090
S'token'
p1102
sg1092
S'PRI'
p1103
sg1094
S''
sg1095
S'varchar(16)'
p1104
sa(dp1105
g1088
S''
sg1089
S''
sg1090
S'tokentype'
p1106
sg1092
S''
sg1094
S''
sg1095
S'varchar(8)'
p1107
sa(dp1108
g1088
S''
sg1089
Nsg1090
S'eventdata'
p1109
sg1092
S''
sg1094
S'YES'
p1110
sg1095
S'tinytext'
p1111
sa(lp1112
(dp1113
S'Comment'
p1114
S''
sS'Non_unique'
p1115
L0L
sS'Sub_part'
p1116
NsS'Index_type'
p1117
S'BTREE'
p1118
sS'Key_name'
p1119
S'PRIMARY'
p1120
sS'Collation'
p1121
S'A'
sS'Null'
p1122
S''
sS'Seq_in_index'
p1123
L1L
sS'Table'
p1124
S'tokens'
p1125
sS'Cardinality'
p1126
L0L
sS'Packed'
p1127
NsS'Column_name'
p1128
S'token'
p1129
sa(dp1130
g1114
S''
sg1115
L1L
sg1116
Nsg1117
S'BTREE'
p1131
sg1119
S'userid'
p1132
sg1121
S'A'
sg1122
S''
sg1123
L1L
sg1124
S'tokens'
p1133
sg1126
Nsg1127
Nsg1128
S'userid'
p1134
satp1135
sS'dependencies'
p1136
((lp1137
(dp1138
S'Extra'
p1139
S''
sS'Default'
p1140
S'0'
sS'Field'
p1141
S'blocked'
p1142
sS'Key'
p1143
S'MUL'
p1144
sS'Null'
p1145
S''
sS'Type'
p1146
S'mediumint(9)'
p1147
sa(dp1148
g1139
S''
sg1140
S'0'
sg1141
S'dependson'
p1149
sg1143
S'MUL'
p1150
sg1145
S''
sg1146
S'mediumint(9)'
p1151
sa(lp1152
(dp1153
S'Comment'
p1154
S''
sS'Non_unique'
p1155
L1L
sS'Sub_part'
p1156
NsS'Index_type'
p1157
S'BTREE'
p1158
sS'Key_name'
p1159
S'blocked'
p1160
sS'Collation'
p1161
S'A'
sS'Null'
p1162
S''
sS'Seq_in_index'
p1163
L1L
sS'Table'
p1164
S'dependencies'
p1165
sS'Cardinality'
p1166
NsS'Packed'
p1167
NsS'Column_name'
p1168
S'blocked'
p1169
sa(dp1170
g1154
S''
sg1155
L1L
sg1156
Nsg1157
S'BTREE'
p1171
sg1159
S'dependson'
p1172
sg1161
S'A'
sg1162
S''
sg1163
L1L
sg1164
S'dependencies'
p1173
sg1166
Nsg1167
Nsg1168
S'dependson'
p1174
satp1175
sS'category_group_map'
p1176
((lp1177
(dp1178
S'Extra'
p1179
S''
sS'Default'
p1180
S'0'
sS'Field'
p1181
S'category_id'
p1182
sS'Key'
p1183
S'PRI'
p1184
sS'Null'
p1185
S''
sS'Type'
p1186
S'smallint(6)'
p1187
sa(dp1188
g1179
S''
sg1180
S'0'
sg1181
S'group_id'
p1189
sg1183
S'PRI'
p1190
sg1185
S''
sg1186
S'mediumint(9)'
p1191
sa(lp1192
(dp1193
S'Comment'
p1194
S''
sS'Non_unique'
p1195
L0L
sS'Sub_part'
p1196
NsS'Index_type'
p1197
S'BTREE'
p1198
sS'Key_name'
p1199
S'category_id'
p1200
sS'Collation'
p1201
S'A'
sS'Null'
p1202
S''
sS'Seq_in_index'
p1203
L1L
sS'Table'
p1204
S'category_group_map'
p1205
sS'Cardinality'
p1206
NsS'Packed'
p1207
NsS'Column_name'
p1208
S'category_id'
p1209
sa(dp1210
g1194
S''
sg1195
L0L
sg1196
Nsg1197
S'BTREE'
p1211
sg1199
S'category_id'
p1212
sg1201
S'A'
sg1202
S''
sg1203
L2L
sg1204
S'category_group_map'
p1213
sg1206
L0L
sg1207
Nsg1208
S'group_id'
p1214
satp1215
sS'groups'
p1216
((lp1217
(dp1218
S'Extra'
p1219
S'auto_increment'
p1220
sS'Default'
p1221
NsS'Field'
p1222
S'id'
p1223
sS'Key'
p1224
S'PRI'
p1225
sS'Null'
p1226
S''
sS'Type'
p1227
S'mediumint(9)'
p1228
sa(dp1229
g1219
S''
sg1221
S''
sg1222
S'name'
p1230
sg1224
S'UNI'
p1231
sg1226
S''
sg1227
S'varchar(255)'
p1232
sa(dp1233
g1219
S''
sg1221
S''
sg1222
S'description'
p1234
sg1224
S''
sg1226
S''
sg1227
S'text'
p1235
sa(dp1236
g1219
S''
sg1221
S'0'
sg1222
S'isbuggroup'
p1237
sg1224
S''
sg1226
S''
sg1227
S'tinyint(4)'
p1238
sa(dp1239
g1219
S''
sg1221
S'0000-00-00 00:00:00'
p1240
sg1222
S'last_changed'
p1241
sg1224
S''
sg1226
S''
sg1227
S'datetime'
p1242
sa(dp1243
g1219
S''
sg1221
S''
sg1222
S'userregexp'
p1244
sg1224
S''
sg1226
S''
sg1227
S'tinytext'
p1245
sa(dp1246
g1219
S''
sg1221
S'1'
sg1222
S'isactive'
p1247
sg1224
S''
sg1226
S''
sg1227
S'tinyint(4)'
p1248
sa(lp1249
(dp1250
S'Comment'
p1251
S''
sS'Non_unique'
p1252
L0L
sS'Sub_part'
p1253
NsS'Index_type'
p1254
S'BTREE'
p1255
sS'Key_name'
p1256
S'PRIMARY'
p1257
sS'Collation'
p1258
S'A'
sS'Null'
p1259
S''
sS'Seq_in_index'
p1260
L1L
sS'Table'
p1261
S'groups'
p1262
sS'Cardinality'
p1263
L8L
sS'Packed'
p1264
NsS'Column_name'
p1265
S'id'
p1266
sa(dp1267
g1251
S''
sg1252
L0L
sg1253
Nsg1254
S'BTREE'
p1268
sg1256
S'name'
p1269
sg1258
S'A'
sg1259
S''
sg1260
L1L
sg1261
S'groups'
p1270
sg1263
L8L
sg1264
Nsg1265
S'name'
p1271
satp1272
sS'milestones'
p1273
((lp1274
(dp1275
S'Extra'
p1276
S''
sS'Default'
p1277
S'0'
sS'Field'
p1278
S'product_id'
p1279
sS'Key'
p1280
S'PRI'
p1281
sS'Null'
p1282
S''
sS'Type'
p1283
S'smallint(6)'
p1284
sa(dp1285
g1276
S''
sg1277
S''
sg1278
S'value'
p1286
sg1280
S'PRI'
p1287
sg1282
S''
sg1283
S'varchar(20)'
p1288
sa(dp1289
g1276
S''
sg1277
S'0'
sg1278
S'sortkey'
p1290
sg1280
S''
sg1282
S''
sg1283
S'smallint(6)'
p1291
sa(lp1292
(dp1293
S'Comment'
p1294
S''
sS'Non_unique'
p1295
L0L
sS'Sub_part'
p1296
NsS'Index_type'
p1297
S'BTREE'
p1298
sS'Key_name'
p1299
S'product_id'
p1300
sS'Collation'
p1301
S'A'
sS'Null'
p1302
S''
sS'Seq_in_index'
p1303
L1L
sS'Table'
p1304
S'milestones'
p1305
sS'Cardinality'
p1306
NsS'Packed'
p1307
NsS'Column_name'
p1308
S'product_id'
p1309
sa(dp1310
g1294
S''
sg1295
L0L
sg1296
Nsg1297
S'BTREE'
p1311
sg1299
S'product_id'
p1312
sg1301
S'A'
sg1302
S''
sg1303
L2L
sg1304
S'milestones'
p1313
sg1306
L1L
sg1307
Nsg1308
S'value'
p1314
satp1315
sS'longdescs'
p1316
((lp1317
(dp1318
S'Extra'
p1319
S''
sS'Default'
p1320
S'0'
sS'Field'
p1321
S'bug_id'
p1322
sS'Key'
p1323
S'MUL'
p1324
sS'Null'
p1325
S''
sS'Type'
p1326
S'mediumint(9)'
p1327
sa(dp1328
g1319
S''
sg1320
S'0'
sg1321
S'who'
p1329
sg1323
S'MUL'
p1330
sg1325
S''
sg1326
S'mediumint(9)'
p1331
sa(dp1332
g1319
S''
sg1320
S'0000-00-00 00:00:00'
p1333
sg1321
S'bug_when'
p1334
sg1323
S'MUL'
p1335
sg1325
S''
sg1326
S'datetime'
p1336
sa(dp1337
g1319
S''
sg1320
S'0.00'
p1338
sg1321
S'work_time'
p1339
sg1323
S''
sg1325
S''
sg1326
S'decimal(5,2)'
p1340
sa(dp1341
g1319
S''
sg1320
Nsg1321
S'thetext'
p1342
sg1323
S'MUL'
p1343
sg1325
S'YES'
p1344
sg1326
S'mediumtext'
p1345
sa(dp1346
g1319
S''
sg1320
S'0'
sg1321
S'isprivate'
p1347
sg1323
S''
sg1325
S''
sg1326
S'tinyint(4)'
p1348
sa(lp1349
(dp1350
S'Comment'
p1351
S''
sS'Non_unique'
p1352
L1L
sS'Sub_part'
p1353
NsS'Index_type'
p1354
S'BTREE'
p1355
sS'Key_name'
p1356
S'bug_id'
p1357
sS'Collation'
p1358
S'A'
sS'Null'
p1359
S''
sS'Seq_in_index'
p1360
L1L
sS'Table'
p1361
S'longdescs'
p1362
sS'Cardinality'
p1363
NsS'Packed'
p1364
NsS'Column_name'
p1365
S'bug_id'
p1366
sa(dp1367
g1351
S''
sg1352
L1L
sg1353
Nsg1354
S'BTREE'
p1368
sg1356
S'who'
p1369
sg1358
S'A'
sg1359
S''
sg1360
L1L
sg1361
S'longdescs'
p1370
sg1363
Nsg1364
Nsg1365
S'who'
p1371
sa(dp1372
g1351
S''
sg1352
L1L
sg1353
Nsg1354
S'BTREE'
p1373
sg1356
S'bug_when'
p1374
sg1358
S'A'
sg1359
S''
sg1360
L1L
sg1361
S'longdescs'
p1375
sg1363
Nsg1364
Nsg1365
S'bug_when'
p1376
sa(dp1377
g1351
S''
sg1352
L1L
sg1353
Nsg1354
S'FULLTEXT'
p1378
sg1356
S'thetext'
p1379
sg1358
S'A'
sg1359
S'YES'
p1380
sg1360
L1L
sg1361
S'longdescs'
p1381
sg1363
Nsg1364
Nsg1365
S'thetext'
p1382
satp1383
sS'versions'
p1384
((lp1385
(dp1386
S'Extra'
p1387
S''
sS'Default'
p1388
NsS'Field'
p1389
S'value'
p1390
sS'Key'
p1391
S''
sS'Null'
p1392
S'YES'
p1393
sS'Type'
p1394
S'tinytext'
p1395
sa(dp1396
g1387
S''
sg1388
S'0'
sg1389
S'product_id'
p1397
sg1391
S''
sg1392
S''
sg1394
S'smallint(6)'
p1398
sa(ltp1399
sS'flagtypes'
p1400
((lp1401
(dp1402
S'Extra'
p1403
S''
sS'Default'
p1404
S'0'
sS'Field'
p1405
S'id'
p1406
sS'Key'
p1407
S'PRI'
p1408
sS'Null'
p1409
S''
sS'Type'
p1410
S'smallint(6)'
p1411
sa(dp1412
g1403
S''
sg1404
S''
sg1405
S'name'
p1413
sg1407
S''
sg1409
S''
sg1410
S'varchar(50)'
p1414
sa(dp1415
g1403
S''
sg1404
Nsg1405
S'description'
p1416
sg1407
S''
sg1409
S'YES'
p1417
sg1410
S'text'
p1418
sa(dp1419
g1403
S''
sg1404
Nsg1405
S'cc_list'
p1420
sg1407
S''
sg1409
S'YES'
p1421
sg1410
S'varchar(200)'
p1422
sa(dp1423
g1403
S''
sg1404
S'b'
sg1405
S'target_type'
p1424
sg1407
S''
sg1409
S''
sg1410
S'char(1)'
p1425
sa(dp1426
g1403
S''
sg1404
S'1'
sg1405
S'is_active'
p1427
sg1407
S''
sg1409
S''
sg1410
S'tinyint(4)'
p1428
sa(dp1429
g1403
S''
sg1404
S'0'
sg1405
S'is_requestable'
p1430
sg1407
S''
sg1409
S''
sg1410
S'tinyint(4)'
p1431
sa(dp1432
g1403
S''
sg1404
S'0'
sg1405
S'is_requesteeble'
p1433
sg1407
S''
sg1409
S''
sg1410
S'tinyint(4)'
p1434
sa(dp1435
g1403
S''
sg1404
S'0'
sg1405
S'is_multiplicable'
p1436
sg1407
S''
sg1409
S''
sg1410
S'tinyint(4)'
p1437
sa(dp1438
g1403
S''
sg1404
S'0'
sg1405
S'sortkey'
p1439
sg1407
S''
sg1409
S''
sg1410
S'smallint(6)'
p1440
sa(lp1441
(dp1442
S'Comment'
p1443
S''
sS'Non_unique'
p1444
L0L
sS'Sub_part'
p1445
NsS'Index_type'
p1446
S'BTREE'
p1447
sS'Key_name'
p1448
S'PRIMARY'
p1449
sS'Collation'
p1450
S'A'
sS'Null'
p1451
S''
sS'Seq_in_index'
p1452
L1L
sS'Table'
p1453
S'flagtypes'
p1454
sS'Cardinality'
p1455
L0L
sS'Packed'
p1456
NsS'Column_name'
p1457
S'id'
p1458
satp1459
sS'user_group_map'
p1460
((lp1461
(dp1462
S'Extra'
p1463
S''
sS'Default'
p1464
S'0'
sS'Field'
p1465
S'user_id'
p1466
sS'Key'
p1467
S'PRI'
p1468
sS'Null'
p1469
S''
sS'Type'
p1470
S'mediumint(9)'
p1471
sa(dp1472
g1463
S''
sg1464
S'0'
sg1465
S'group_id'
p1473
sg1467
S'PRI'
p1474
sg1469
S''
sg1470
S'mediumint(9)'
p1475
sa(dp1476
g1463
S''
sg1464
S'0'
sg1465
S'isbless'
p1477
sg1467
S'PRI'
p1478
sg1469
S''
sg1470
S'tinyint(4)'
p1479
sa(dp1480
g1463
S''
sg1464
S'0'
sg1465
S'grant_type'
p1481
sg1467
S'PRI'
p1482
sg1469
S''
sg1470
S'tinyint(4)'
p1483
sa(lp1484
(dp1485
S'Comment'
p1486
S''
sS'Non_unique'
p1487
L0L
sS'Sub_part'
p1488
NsS'Index_type'
p1489
S'BTREE'
p1490
sS'Key_name'
p1491
S'user_id'
p1492
sS'Collation'
p1493
S'A'
sS'Null'
p1494
S''
sS'Seq_in_index'
p1495
L1L
sS'Table'
p1496
S'user_group_map'
p1497
sS'Cardinality'
p1498
NsS'Packed'
p1499
NsS'Column_name'
p1500
S'user_id'
p1501
sa(dp1502
g1486
S''
sg1487
L0L
sg1488
Nsg1489
S'BTREE'
p1503
sg1491
S'user_id'
p1504
sg1493
S'A'
sg1494
S''
sg1495
L2L
sg1496
S'user_group_map'
p1505
sg1498
Nsg1499
Nsg1500
S'group_id'
p1506
sa(dp1507
g1486
S''
sg1487
L0L
sg1488
Nsg1489
S'BTREE'
p1508
sg1491
S'user_id'
p1509
sg1493
S'A'
sg1494
S''
sg1495
L3L
sg1496
S'user_group_map'
p1510
sg1498
Nsg1499
Nsg1500
S'grant_type'
p1511
sa(dp1512
g1486
S''
sg1487
L0L
sg1488
Nsg1489
S'BTREE'
p1513
sg1491
S'user_id'
p1514
sg1493
S'A'
sg1494
S''
sg1495
L4L
sg1496
S'user_group_map'
p1515
sg1498
L2L
sg1499
Nsg1500
S'isbless'
p1516
satp1517
sS'bugs'
p1518
((lp1519
(dp1520
S'Extra'
p1521
S'auto_increment'
p1522
sS'Default'
p1523
NsS'Field'
p1524
S'bug_id'
p1525
sS'Key'
p1526
S'PRI'
p1527
sS'Null'
p1528
S''
sS'Type'
p1529
S'mediumint(9)'
p1530
sa(dp1531
g1521
S''
sg1523
S'0'
sg1524
S'assigned_to'
p1532
sg1526
S'MUL'
p1533
sg1528
S''
sg1529
S'mediumint(9)'
p1534
sa(dp1535
g1521
S''
sg1523
Nsg1524
S'bug_file_loc'
p1536
sg1526
S''
sg1528
S'YES'
p1537
sg1529
S'text'
p1538
sa(dp1539
g1521
S''
sg1523
S'blocker'
p1540
sg1524
S'bug_severity'
p1541
sg1526
S'MUL'
p1542
sg1528
S''
sg1529
S"enum('blocker','critical','major','normal','minor','trivial','enhancement')"
p1543
sa(dp1544
g1521
S''
sg1523
S'UNCONFIRMED'
p1545
sg1524
S'bug_status'
p1546
sg1526
S'MUL'
p1547
sg1528
S''
sg1529
S"enum('UNCONFIRMED','NEW','ASSIGNED','REOPENED','RESOLVED','VERIFIED','CLOSED')"
p1548
sa(dp1549
g1521
S''
sg1523
Nsg1524
S'creation_ts'
p1550
sg1526
S'MUL'
p1551
sg1528
S'YES'
p1552
sg1529
S'datetime'
p1553
sa(dp1554
g1521
S''
sg1523
Nsg1524
S'delta_ts'
p1555
sg1526
S'MUL'
p1556
sg1528
S'YES'
p1557
sg1529
S'timestamp(14)'
p1558
sa(dp1559
g1521
S''
sg1523
S''
sg1524
S'short_desc'
p1560
sg1526
S'MUL'
p1561
sg1528
S''
sg1529
S'mediumtext'
p1562
sa(dp1563
g1521
S''
sg1523
S'All'
p1564
sg1524
S'op_sys'
p1565
sg1526
S'MUL'
p1566
sg1528
S''
sg1529
S"enum('All','Windows 3.1','Windows 95','Windows 98','Windows ME','Windows 2000','Windows NT','Windows XP','Windows Server 2003','Mac System 7','Mac System 7.5','Mac System 7.6.1','Mac System 8.0','Mac System 8.5','Mac System 8.6','Mac System 9.x','Mac OS X 10.0','Mac OS X 10.1','Mac OS X 10.2','Mac OS X 10.3','Linux','BSD/OS','FreeBSD','NetBSD','OpenBSD','AIX','BeOS','HP-UX','IRIX','Neutrino','OpenVMS','OS/2','OSF/1','Solaris','SunOS','other')"
p1567
sa(dp1568
g1521
S''
sg1523
S'P1'
p1569
sg1524
S'priority'
p1570
sg1526
S'MUL'
p1571
sg1528
S''
sg1529
S"enum('P1','P2','P3','P4','P5')"
p1572
sa(dp1573
g1521
S''
sg1523
S'0'
sg1524
S'product_id'
p1574
sg1526
S'MUL'
p1575
sg1528
S''
sg1529
S'smallint(6)'
p1576
sa(dp1577
g1521
S''
sg1523
Nsg1524
S'rep_platform'
p1578
sg1526
S''
sg1528
S'YES'
p1579
sg1529
S"enum('All','DEC','HP','Macintosh','PC','SGI','Sun','Other')"
p1580
sa(dp1581
g1521
S''
sg1523
S'0'
sg1524
S'reporter'
p1582
sg1526
S'MUL'
p1583
sg1528
S''
sg1529
S'mediumint(9)'
p1584
sa(dp1585
g1521
S''
sg1523
S''
sg1524
S'version'
p1586
sg1526
S'MUL'
p1587
sg1528
S''
sg1529
S'varchar(64)'
p1588
sa(dp1589
g1521
S''
sg1523
S'0'
sg1524
S'component_id'
p1590
sg1526
S'MUL'
p1591
sg1528
S''
sg1529
S'smallint(6)'
p1592
sa(dp1593
g1521
S''
sg1523
S''
sg1524
S'resolution'
p1594
sg1526
S'MUL'
p1595
sg1528
S''
sg1529
S"enum('','FIXED','INVALID','WONTFIX','LATER','REMIND','DUPLICATE','WORKSFORME','MOVED')"
p1596
sa(dp1597
g1521
S''
sg1523
S'---'
p1598
sg1524
S'target_milestone'
p1599
sg1526
S'MUL'
p1600
sg1528
S''
sg1529
S'varchar(20)'
p1601
sa(dp1602
g1521
S''
sg1523
S'0'
sg1524
S'qa_contact'
p1603
sg1526
S'MUL'
p1604
sg1528
S''
sg1529
S'mediumint(9)'
p1605
sa(dp1606
g1521
S''
sg1523
S''
sg1524
S'status_whiteboard'
p1607
sg1526
S''
sg1528
S''
sg1529
S'mediumtext'
p1608
sa(dp1609
g1521
S''
sg1523
S'0'
sg1524
S'votes'
p1610
sg1526
S'MUL'
p1611
sg1528
S''
sg1529
S'mediumint(9)'
p1612
sa(dp1613
g1521
S''
sg1523
S''
sg1524
S'keywords'
p1614
sg1526
S''
sg1528
S''
sg1529
S'mediumtext'
p1615
sa(dp1616
g1521
S''
sg1523
S'0000-00-00 00:00:00'
p1617
sg1524
S'lastdiffed'
p1618
sg1526
S''
sg1528
S''
sg1529
S'datetime'
p1619
sa(dp1620
g1521
S''
sg1523
S'0'
sg1524
S'everconfirmed'
p1621
sg1526
S''
sg1528
S''
sg1529
S'tinyint(4)'
p1622
sa(dp1623
g1521
S''
sg1523
S'1'
sg1524
S'reporter_accessible'
p1624
sg1526
S''
sg1528
S''
sg1529
S'tinyint(4)'
p1625
sa(dp1626
g1521
S''
sg1523
S'1'
sg1524
S'cclist_accessible'
p1627
sg1526
S''
sg1528
S''
sg1529
S'tinyint(4)'
p1628
sa(dp1629
g1521
S''
sg1523
S'0.00'
p1630
sg1524
S'estimated_time'
p1631
sg1526
S''
sg1528
S''
sg1529
S'decimal(5,2)'
p1632
sa(dp1633
g1521
S''
sg1523
S'0.00'
p1634
sg1524
S'remaining_time'
p1635
sg1526
S''
sg1528
S''
sg1529
S'decimal(5,2)'
p1636
sa(dp1637
g1521
S''
sg1523
Nsg1524
S'alias'
p1638
sg1526
S'MUL'
p1639
sg1528
S'YES'
p1640
sg1529
S'varchar(20)'
p1641
sa(lp1642
(dp1643
S'Comment'
p1644
S''
sS'Non_unique'
p1645
L0L
sS'Sub_part'
p1646
NsS'Index_type'
p1647
S'BTREE'
p1648
sS'Key_name'
p1649
S'PRIMARY'
p1650
sS'Collation'
p1651
S'A'
sS'Null'
p1652
S''
sS'Seq_in_index'
p1653
L1L
sS'Table'
p1654
S'bugs'
p1655
sS'Cardinality'
p1656
L0L
sS'Packed'
p1657
NsS'Column_name'
p1658
S'bug_id'
p1659
sa(dp1660
g1644
S''
sg1645
L0L
sg1646
Nsg1647
S'BTREE'
p1661
sg1649
S'alias'
p1662
sg1651
S'A'
sg1652
S'YES'
p1663
sg1653
L1L
sg1654
S'bugs'
p1664
sg1656
Nsg1657
Nsg1658
S'alias'
p1665
sa(dp1666
g1644
S''
sg1645
L1L
sg1646
Nsg1647
S'BTREE'
p1667
sg1649
S'assigned_to'
p1668
sg1651
S'A'
sg1652
S''
sg1653
L1L
sg1654
S'bugs'
p1669
sg1656
Nsg1657
Nsg1658
S'assigned_to'
p1670
sa(dp1671
g1644
S''
sg1645
L1L
sg1646
Nsg1647
S'BTREE'
p1672
sg1649
S'creation_ts'
p1673
sg1651
S'A'
sg1652
S'YES'
p1674
sg1653
L1L
sg1654
S'bugs'
p1675
sg1656
Nsg1657
Nsg1658
S'creation_ts'
p1676
sa(dp1677
g1644
S''
sg1645
L1L
sg1646
Nsg1647
S'BTREE'
p1678
sg1649
S'delta_ts'
p1679
sg1651
S'A'
sg1652
S''
sg1653
L1L
sg1654
S'bugs'
p1680
sg1656
Nsg1657
Nsg1658
S'delta_ts'
p1681
sa(dp1682
g1644
S''
sg1645
L1L
sg1646
Nsg1647
S'BTREE'
p1683
sg1649
S'bug_severity'
p1684
sg1651
S'A'
sg1652
S''
sg1653
L1L
sg1654
S'bugs'
p1685
sg1656
Nsg1657
Nsg1658
S'bug_severity'
p1686
sa(dp1687
g1644
S''
sg1645
L1L
sg1646
Nsg1647
S'BTREE'
p1688
sg1649
S'bug_status'
p1689
sg1651
S'A'
sg1652
S''
sg1653
L1L
sg1654
S'bugs'
p1690
sg1656
Nsg1657
Nsg1658
S'bug_status'
p1691
sa(dp1692
g1644
S''
sg1645
L1L
sg1646
Nsg1647
S'BTREE'
p1693
sg1649
S'op_sys'
p1694
sg1651
S'A'
sg1652
S''
sg1653
L1L
sg1654
S'bugs'
p1695
sg1656
Nsg1657
Nsg1658
S'op_sys'
p1696
sa(dp1697
g1644
S''
sg1645
L1L
sg1646
Nsg1647
S'BTREE'
p1698
sg1649
S'priority'
p1699
sg1651
S'A'
sg1652
S''
sg1653
L1L
sg1654
S'bugs'
p1700
sg1656
Nsg1657
Nsg1658
S'priority'
p1701
sa(dp1702
g1644
S''
sg1645
L1L
sg1646
Nsg1647
S'BTREE'
p1703
sg1649
S'product_id'
p1704
sg1651
S'A'
sg1652
S''
sg1653
L1L
sg1654
S'bugs'
p1705
sg1656
Nsg1657
Nsg1658
S'product_id'
p1706
sa(dp1707
g1644
S''
sg1645
L1L
sg1646
Nsg1647
S'BTREE'
p1708
sg1649
S'reporter'
p1709
sg1651
S'A'
sg1652
S''
sg1653
L1L
sg1654
S'bugs'
p1710
sg1656
Nsg1657
Nsg1658
S'reporter'
p1711
sa(dp1712
g1644
S''
sg1645
L1L
sg1646
Nsg1647
S'BTREE'
p1713
sg1649
S'version'
p1714
sg1651
S'A'
sg1652
S''
sg1653
L1L
sg1654
S'bugs'
p1715
sg1656
Nsg1657
Nsg1658
S'version'
p1716
sa(dp1717
g1644
S''
sg1645
L1L
sg1646
Nsg1647
S'BTREE'
p1718
sg1649
S'component_id'
p1719
sg1651
S'A'
sg1652
S''
sg1653
L1L
sg1654
S'bugs'
p1720
sg1656
Nsg1657
Nsg1658
S'component_id'
p1721
sa(dp1722
g1644
S''
sg1645
L1L
sg1646
Nsg1647
S'BTREE'
p1723
sg1649
S'resolution'
p1724
sg1651
S'A'
sg1652
S''
sg1653
L1L
sg1654
S'bugs'
p1725
sg1656
Nsg1657
Nsg1658
S'resolution'
p1726
sa(dp1727
g1644
S''
sg1645
L1L
sg1646
Nsg1647
S'BTREE'
p1728
sg1649
S'target_milestone'
p1729
sg1651
S'A'
sg1652
S''
sg1653
L1L
sg1654
S'bugs'
p1730
sg1656
Nsg1657
Nsg1658
S'target_milestone'
p1731
sa(dp1732
g1644
S''
sg1645
L1L
sg1646
Nsg1647
S'BTREE'
p1733
sg1649
S'qa_contact'
p1734
sg1651
S'A'
sg1652
S''
sg1653
L1L
sg1654
S'bugs'
p1735
sg1656
Nsg1657
Nsg1658
S'qa_contact'
p1736
sa(dp1737
g1644
S''
sg1645
L1L
sg1646
Nsg1647
S'BTREE'
p1738
sg1649
S'votes'
p1739
sg1651
S'A'
sg1652
S''
sg1653
L1L
sg1654
S'bugs'
p1740
sg1656
Nsg1657
Nsg1658
S'votes'
p1741
sa(dp1742
g1644
S''
sg1645
L1L
sg1646
Nsg1647
S'FULLTEXT'
p1743
sg1649
S'short_desc'
p1744
sg1651
S'A'
sg1652
S''
sg1653
L1L
sg1654
S'bugs'
p1745
sg1656
Nsg1657
Nsg1658
S'short_desc'
p1746
satp1747
sS'profiles'
p1748
((lp1749
(dp1750
S'Extra'
p1751
S'auto_increment'
p1752
sS'Default'
p1753
NsS'Field'
p1754
S'userid'
p1755
sS'Key'
p1756
S'PRI'
p1757
sS'Null'
p1758
S''
sS'Type'
p1759
S'mediumint(9)'
p1760
sa(dp1761
g1751
S''
sg1753
S''
sg1754
S'login_name'
p1762
sg1756
S'UNI'
p1763
sg1758
S''
sg1759
S'varchar(255)'
p1764
sa(dp1765
g1751
S''
sg1753
Nsg1754
S'cryptpassword'
p1766
sg1756
S''
sg1758
S'YES'
p1767
sg1759
S'varchar(34)'
p1768
sa(dp1769
g1751
S''
sg1753
Nsg1754
S'realname'
p1770
sg1756
S''
sg1758
S'YES'
p1771
sg1759
S'varchar(255)'
p1772
sa(dp1773
g1751
S''
sg1753
S''
sg1754
S'disabledtext'
p1774
sg1756
S''
sg1758
S''
sg1759
S'mediumtext'
p1775
sa(dp1776
g1751
S''
sg1753
S'1'
sg1754
S'mybugslink'
p1777
sg1756
S''
sg1758
S''
sg1759
S'tinyint(4)'
p1778
sa(dp1779
g1751
S''
sg1753
Nsg1754
S'emailflags'
p1780
sg1756
S''
sg1758
S'YES'
p1781
sg1759
S'mediumtext'
p1782
sa(dp1783
g1751
S''
sg1753
S'0000-00-00 00:00:00'
p1784
sg1754
S'refreshed_when'
p1785
sg1756
S''
sg1758
S''
sg1759
S'datetime'
p1786
sa(lp1787
(dp1788
S'Comment'
p1789
S''
sS'Non_unique'
p1790
L0L
sS'Sub_part'
p1791
NsS'Index_type'
p1792
S'BTREE'
p1793
sS'Key_name'
p1794
S'PRIMARY'
p1795
sS'Collation'
p1796
S'A'
sS'Null'
p1797
S''
sS'Seq_in_index'
p1798
L1L
sS'Table'
p1799
S'profiles'
p1800
sS'Cardinality'
p1801
L1L
sS'Packed'
p1802
NsS'Column_name'
p1803
S'userid'
p1804
sa(dp1805
g1789
S''
sg1790
L0L
sg1791
Nsg1792
S'BTREE'
p1806
sg1794
S'login_name'
p1807
sg1796
S'A'
sg1797
S''
sg1798
L1L
sg1799
S'profiles'
p1808
sg1801
L1L
sg1802
Nsg1803
S'login_name'
p1809
satp1810
sS'flags'
p1811
((lp1812
(dp1813
S'Extra'
p1814
S''
sS'Default'
p1815
S'0'
sS'Field'
p1816
S'id'
p1817
sS'Key'
p1818
S'PRI'
p1819
sS'Null'
p1820
S''
sS'Type'
p1821
S'mediumint(9)'
p1822
sa(dp1823
g1814
S''
sg1815
S'0'
sg1816
S'type_id'
p1824
sg1818
S''
sg1820
S''
sg1821
S'smallint(6)'
p1825
sa(dp1826
g1814
S''
sg1815
S''
sg1816
S'status'
p1827
sg1818
S''
sg1820
S''
sg1821
S'char(1)'
p1828
sa(dp1829
g1814
S''
sg1815
S'0'
sg1816
S'bug_id'
p1830
sg1818
S'MUL'
p1831
sg1820
S''
sg1821
S'mediumint(9)'
p1832
sa(dp1833
g1814
S''
sg1815
Nsg1816
S'attach_id'
p1834
sg1818
S''
sg1820
S'YES'
p1835
sg1821
S'mediumint(9)'
p1836
sa(dp1837
g1814
S''
sg1815
S'0000-00-00 00:00:00'
p1838
sg1816
S'creation_date'
p1839
sg1818
S''
sg1820
S''
sg1821
S'datetime'
p1840
sa(dp1841
g1814
S''
sg1815
Nsg1816
S'modification_date'
p1842
sg1818
S''
sg1820
S'YES'
p1843
sg1821
S'datetime'
p1844
sa(dp1845
g1814
S''
sg1815
Nsg1816
S'setter_id'
p1846
sg1818
S'MUL'
p1847
sg1820
S'YES'
p1848
sg1821
S'mediumint(9)'
p1849
sa(dp1850
g1814
S''
sg1815
Nsg1816
S'requestee_id'
p1851
sg1818
S'MUL'
p1852
sg1820
S'YES'
p1853
sg1821
S'mediumint(9)'
p1854
sa(dp1855
g1814
S''
sg1815
S'1'
sg1816
S'is_active'
p1856
sg1818
S''
sg1820
S''
sg1821
S'tinyint(4)'
p1857
sa(lp1858
(dp1859
S'Comment'
p1860
S''
sS'Non_unique'
p1861
L0L
sS'Sub_part'
p1862
NsS'Index_type'
p1863
S'BTREE'
p1864
sS'Key_name'
p1865
S'PRIMARY'
p1866
sS'Collation'
p1867
S'A'
sS'Null'
p1868
S''
sS'Seq_in_index'
p1869
L1L
sS'Table'
p1870
S'flags'
p1871
sS'Cardinality'
p1872
L0L
sS'Packed'
p1873
NsS'Column_name'
p1874
S'id'
p1875
sa(dp1876
g1860
S''
sg1861
L1L
sg1862
Nsg1863
S'BTREE'
p1877
sg1865
S'bug_id'
p1878
sg1867
S'A'
sg1868
S''
sg1869
L1L
sg1870
S'flags'
p1879
sg1872
Nsg1873
Nsg1874
S'bug_id'
p1880
sa(dp1881
g1860
S''
sg1861
L1L
sg1862
Nsg1863
S'BTREE'
p1882
sg1865
S'bug_id'
p1883
sg1867
S'A'
sg1868
S'YES'
p1884
sg1869
L2L
sg1870
S'flags'
p1885
sg1872
Nsg1873
Nsg1874
S'attach_id'
p1886
sa(dp1887
g1860
S''
sg1861
L1L
sg1862
Nsg1863
S'BTREE'
p1888
sg1865
S'setter_id'
p1889
sg1867
S'A'
sg1868
S'YES'
p1890
sg1869
L1L
sg1870
S'flags'
p1891
sg1872
Nsg1873
Nsg1874
S'setter_id'
p1892
sa(dp1893
g1860
S''
sg1861
L1L
sg1862
Nsg1863
S'BTREE'
p1894
sg1865
S'requestee_id'
p1895
sg1867
S'A'
sg1868
S'YES'
p1896
sg1869
L1L
sg1870
S'flags'
p1897
sg1872
Nsg1873
Nsg1874
S'requestee_id'
p1898
satp1899
sS'components'
p1900
((lp1901
(dp1902
S'Extra'
p1903
S'auto_increment'
p1904
sS'Default'
p1905
NsS'Field'
p1906
S'id'
p1907
sS'Key'
p1908
S'PRI'
p1909
sS'Null'
p1910
S''
sS'Type'
p1911
S'smallint(6)'
p1912
sa(dp1913
g1903
S''
sg1905
S''
sg1906
S'name'
p1914
sg1908
S'MUL'
p1915
sg1910
S''
sg1911
S'varchar(64)'
p1916
sa(dp1917
g1903
S''
sg1905
S'0'
sg1906
S'product_id'
p1918
sg1908
S'MUL'
p1919
sg1910
S''
sg1911
S'smallint(6)'
p1920
sa(dp1921
g1903
S''
sg1905
S'0'
sg1906
S'initialowner'
p1922
sg1908
S''
sg1910
S''
sg1911
S'mediumint(9)'
p1923
sa(dp1924
g1903
S''
sg1905
S'0'
sg1906
S'initialqacontact'
p1925
sg1908
S''
sg1910
S''
sg1911
S'mediumint(9)'
p1926
sa(dp1927
g1903
S''
sg1905
S''
sg1906
S'description'
p1928
sg1908
S''
sg1910
S''
sg1911
S'mediumtext'
p1929
sa(lp1930
(dp1931
S'Comment'
p1932
S''
sS'Non_unique'
p1933
L0L
sS'Sub_part'
p1934
NsS'Index_type'
p1935
S'BTREE'
p1936
sS'Key_name'
p1937
S'PRIMARY'
p1938
sS'Collation'
p1939
S'A'
sS'Null'
p1940
S''
sS'Seq_in_index'
p1941
L1L
sS'Table'
p1942
S'components'
p1943
sS'Cardinality'
p1944
L1L
sS'Packed'
p1945
NsS'Column_name'
p1946
S'id'
p1947
sa(dp1948
g1932
S''
sg1933
L0L
sg1934
Nsg1935
S'BTREE'
p1949
sg1937
S'product_id'
p1950
sg1939
S'A'
sg1940
S''
sg1941
L1L
sg1942
S'components'
p1951
sg1944
Nsg1945
Nsg1946
S'product_id'
p1952
sa(dp1953
g1932
S''
sg1933
L0L
sg1934
Nsg1935
S'BTREE'
p1954
sg1937
S'product_id'
p1955
sg1939
S'A'
sg1940
S''
sg1941
L2L
sg1942
S'components'
p1956
sg1944
L1L
sg1945
Nsg1946
S'name'
p1957
sa(dp1958
g1932
S''
sg1933
L1L
sg1934
Nsg1935
S'BTREE'
p1959
sg1937
S'name'
p1960
sg1939
S'A'
sg1940
S''
sg1941
L1L
sg1942
S'components'
p1961
sg1944
Nsg1945
Nsg1946
S'name'
p1962
satp1963
sS'group_control_map'
p1964
((lp1965
(dp1966
S'Extra'
p1967
S''
sS'Default'
p1968
S'0'
sS'Field'
p1969
S'group_id'
p1970
sS'Key'
p1971
S'PRI'
p1972
sS'Null'
p1973
S''
sS'Type'
p1974
S'mediumint(9)'
p1975
sa(dp1976
g1967
S''
sg1968
S'0'
sg1969
S'product_id'
p1977
sg1971
S'PRI'
p1978
sg1973
S''
sg1974
S'mediumint(9)'
p1979
sa(dp1980
g1967
S''
sg1968
S'0'
sg1969
S'entry'
p1981
sg1971
S''
sg1973
S''
sg1974
S'tinyint(4)'
p1982
sa(dp1983
g1967
S''
sg1968
S'0'
sg1969
S'membercontrol'
p1984
sg1971
S''
sg1973
S''
sg1974
S'tinyint(4)'
p1985
sa(dp1986
g1967
S''
sg1968
S'0'
sg1969
S'othercontrol'
p1987
sg1971
S''
sg1973
S''
sg1974
S'tinyint(4)'
p1988
sa(dp1989
g1967
S''
sg1968
S'0'
sg1969
S'canedit'
p1990
sg1971
S''
sg1973
S''
sg1974
S'tinyint(4)'
p1991
sa(lp1992
(dp1993
S'Comment'
p1994
S''
sS'Non_unique'
p1995
L0L
sS'Sub_part'
p1996
NsS'Index_type'
p1997
S'BTREE'
p1998
sS'Key_name'
p1999
S'product_id'
p2000
sS'Collation'
p2001
S'A'
sS'Null'
p2002
S''
sS'Seq_in_index'
p2003
L1L
sS'Table'
p2004
S'group_control_map'
p2005
sS'Cardinality'
p2006
NsS'Packed'
p2007
NsS'Column_name'
p2008
S'product_id'
p2009
sa(dp2010
g1994
S''
sg1995
L0L
sg1996
Nsg1997
S'BTREE'
p2011
sg1999
S'product_id'
p2012
sg2001
S'A'
sg2002
S''
sg2003
L2L
sg2004
S'group_control_map'
p2013
sg2006
L0L
sg2007
Nsg2008
S'group_id'
p2014
sa(dp2015
g1994
S''
sg1995
L1L
sg1996
Nsg1997
S'BTREE'
p2016
sg1999
S'group_id'
p2017
sg2001
S'A'
sg2002
S''
sg2003
L1L
sg2004
S'group_control_map'
p2018
sg2006
Nsg2007
Nsg2008
S'group_id'
p2019
satp2020
st.