(S'2.19.1'
p1
(dp2
S'bug_group_map'
p3
((lp4
(dp5
S'Extra'
p6
S''
sS'Default'
p7
S'0'
sS'Field'
p8
S'bug_id'
p9
sS'Key'
p10
S'PRI'
p11
sS'Null'
p12
S''
sS'Type'
p13
S'mediumint(9)'
p14
sa(dp15
g6
S''
sg7
S'0'
sg8
S'group_id'
p16
sg10
S'PRI'
p17
sg12
S''
sg13
S'mediumint(9)'
p18
sa(lp19
(dp20
S'Comment'
p21
S''
sS'Non_unique'
p22
L0L
sS'Sub_part'
p23
NsS'Index_type'
p24
S'BTREE'
p25
sS'Key_name'
p26
S'bug_id'
p27
sS'Collation'
p28
S'A'
sS'Null'
p29
S''
sS'Seq_in_index'
p30
L1L
sS'Table'
p31
S'bug_group_map'
p32
sS'Cardinality'
p33
NsS'Packed'
p34
NsS'Column_name'
p35
S'bug_id'
p36
sa(dp37
g21
S''
sg22
L0L
sg23
Nsg24
S'BTREE'
p38
sg26
S'bug_id'
p39
sg28
S'A'
sg29
S''
sg30
L2L
sg31
S'bug_group_map'
p40
sg33
L0L
sg34
Nsg35
S'group_id'
p41
sa(dp42
g21
S''
sg22
L1L
sg23
Nsg24
S'BTREE'
p43
sg26
S'group_id'
p44
sg28
S'A'
sg29
S''
sg30
L1L
sg31
S'bug_group_map'
p45
sg33
Nsg34
Nsg35
S'group_id'
p46
satp47
sS'attachments'
p48
((lp49
(dp50
S'Extra'
p51
S'auto_increment'
p52
sS'Default'
p53
NsS'Field'
p54
S'attach_id'
p55
sS'Key'
p56
S'PRI'
p57
sS'Null'
p58
S''
sS'Type'
p59
S'mediumint(9)'
p60
sa(dp61
g51
S''
sg53
S'0'
sg54
S'bug_id'
p62
sg56
S'MUL'
p63
sg58
S''
sg59
S'mediumint(9)'
p64
sa(dp65
g51
S''
sg53
S'0000-00-00 00:00:00'
p66
sg54
S'creation_ts'
p67
sg56
S'MUL'
p68
sg58
S''
sg59
S'datetime'
p69
sa(dp70
g51
S''
sg53
S''
sg54
S'description'
p71
sg56
S''
sg58
S''
sg59
S'mediumtext'
p72
sa(dp73
g51
S''
sg53
S''
sg54
S'mimetype'
p74
sg56
S''
sg58
S''
sg59
S'mediumtext'
p75
sa(dp76
g51
S''
sg53
Nsg54
S'ispatch'
p77
sg56
S''
sg58
S'YES'
p78
sg59
S'tinyint(4)'
p79
sa(dp80
g51
S''
sg53
S''
sg54
S'filename'
p81
sg56
S''
sg58
S''
sg59
S'varchar(100)'
p82
sa(dp83
g51
S''
sg53
S''
sg54
S'thedata'
p84
sg56
S''
sg58
S''
sg59
S'longblob'
p85
sa(dp86
g51
S''
sg53
S'0'
sg54
S'submitter_id'
p87
sg56
S''
sg58
S''
sg59
S'mediumint(9)'
p88
sa(dp89
g51
S''
sg53
S'0'
sg54
S'isobsolete'
p90
sg56
S''
sg58
S''
sg59
S'tinyint(4)'
p91
sa(dp92
g51
S''
sg53
S'0'
sg54
S'isprivate'
p93
sg56
S''
sg58
S''
sg59
S'tinyint(4)'
p94
sa(lp95
(dp96
S'Comment'
p97
S''
sS'Non_unique'
p98
L0L
sS'Sub_part'
p99
NsS'Index_type'
p100
S'BTREE'
p101
sS'Key_name'
p102
S'PRIMARY'
p103
sS'Collation'
p104
S'A'
sS'Null'
p105
S''
sS'Seq_in_index'
p106
L1L
sS'Table'
p107
S'attachments'
p108
sS'Cardinality'
p109
L0L
sS'Packed'
p110
NsS'Column_name'
p111
S'attach_id'
p112
sa(dp113
g97
S''
sg98
L1L
sg99
Nsg100
S'BTREE'
p114
sg102
S'bug_id'
p115
sg104
S'A'
sg105
S''
sg106
L1L
sg107
S'attachments'
p116
sg109
Nsg110
Nsg111
S'bug_id'
p117
sa(dp118
g97
S''
sg98
L1L
sg99
Nsg100
S'BTREE'
p119
sg102
S'creation_ts'
p120
sg104
S'A'
sg105
S''
sg106
L1L
sg107
S'attachments'
p121
sg109
Nsg110
Nsg111
S'creation_ts'
p122
satp123
sS'cc'
p124
((lp125
(dp126
S'Extra'
p127
S''
sS'Default'
p128
S'0'
sS'Field'
p129
S'bug_id'
p130
sS'Key'
p131
S'PRI'
p132
sS'Null'
p133
S''
sS'Type'
p134
S'mediumint(9)'
p135
sa(dp136
g127
S''
sg128
S'0'
sg129
S'who'
p137
sg131
S'PRI'
p138
sg133
S''
sg134
S'mediumint(9)'
p139
sa(lp140
(dp141
S'Comment'
p142
S''
sS'Non_unique'
p143
L0L
sS'Sub_part'
p144
NsS'Index_type'
p145
S'BTREE'
p146
sS'Key_name'
p147
S'bug_id'
p148
sS'Collation'
p149
S'A'
sS'Null'
p150
S''
sS'Seq_in_index'
p151
L1L
sS'Table'
p152
S'cc'
p153
sS'Cardinality'
p154
NsS'Packed'
p155
NsS'Column_name'
p156
S'bug_id'
p157
sa(dp158
g142
S''
sg143
L0L
sg144
Nsg145
S'BTREE'
p159
sg147
S'bug_id'
p160
sg149
S'A'
sg150
S''
sg151
L2L
sg152
S'cc'
p161
sg154
L0L
sg155
Nsg156
S'who'
p162
sa(dp163
g142
S''
sg143
L1L
sg144
Nsg145
S'BTREE'
p164
sg147
S'who'
p165
sg149
S'A'
sg150
S''
sg151
L1L
sg152
S'cc'
p166
sg154
Nsg155
Nsg156
S'who'
p167
satp168
sS'series'
p169
((lp170
(dp171
S'Extra'
p172
S'auto_increment'
p173
sS'Default'
p174
NsS'Field'
p175
S'series_id'
p176
sS'Key'
p177
S'PRI'
p178
sS'Null'
p179
S''
sS'Type'
p180
S'mediumint(9)'
p181
sa(dp182
g172
S''
sg174
S'0'
sg175
S'creator'
p183
sg177
S'MUL'
p184
sg179
S''
sg180
S'mediumint(9)'
p185
sa(dp186
g172
S''
sg174
S'0'
sg175
S'category'
p187
sg177
S''
sg179
S''
sg180
S'smallint(6)'
p188
sa(dp189
g172
S''
sg174
S'0'
sg175
S'subcategory'
p190
sg177
S''
sg179
S''
sg180
S'smallint(6)'
p191
sa(dp192
g172
S''
sg174
S''
sg175
S'name'
p193
sg177
S''
sg179
S''
sg180
S'varchar(64)'
p194
sa(dp195
g172
S''
sg174
S'0'
sg175
S'frequency'
p196
sg177
S''
sg179
S''
sg180
S'smallint(6)'
p197
sa(dp198
g172
S''
sg174
Nsg175
S'last_viewed'
p199
sg177
S''
sg179
S'YES'
p200
sg180
S'datetime'
p201
sa(dp202
g172
S''
sg174
S''
sg175
S'query'
p203
sg177
S''
sg179
S''
sg180
S'mediumtext'
p204
sa(dp205
g172
S''
sg174
S'0'
sg175
S'public'
p206
sg177
S''
sg179
S''
sg180
S'tinyint(1)'
p207
sa(lp208
(dp209
S'Comment'
p210
S''
sS'Non_unique'
p211
L0L
sS'Sub_part'
p212
NsS'Index_type'
p213
S'BTREE'
p214
sS'Key_name'
p215
S'PRIMARY'
p216
sS'Collation'
p217
S'A'
sS'Null'
p218
S''
sS'Seq_in_index'
p219
L1L
sS'Table'
p220
S'series'
p221
sS'Cardinality'
p222
L32L
sS'Packed'
p223
NsS'Column_name'
p224
S'series_id'
p225
sa(dp226
g210
S''
sg211
L0L
sg212
Nsg213
S'BTREE'
p227
sg215
S'creator_2'
p228
sg217
S'A'
sg218
S''
sg219
L1L
sg220
S'series'
p229
sg222
Nsg223
Nsg224
S'creator'
p230
sa(dp231
g210
S''
sg211
L0L
sg212
Nsg213
S'BTREE'
p232
sg215
S'creator_2'
p233
sg217
S'A'
sg218
S''
sg219
L2L
sg220
S'series'
p234
sg222
Nsg223
Nsg224
S'category'
p235
sa(dp236
g210
S''
sg211
L0L
sg212
Nsg213
S'BTREE'
p237
sg215
S'creator_2'
p238
sg217
S'A'
sg218
S''
sg219
L3L
sg220
S'series'
p239
sg222
Nsg223
Nsg224
S'subcategory'
p240
sa(dp241
g210
S''
sg211
L0L
sg212
Nsg213
S'BTREE'
p242
sg215
S'creator_2'
p243
sg217
S'A'
sg218
S''
sg219
L4L
sg220
S'series'
p244
sg222
L32L
sg223
Nsg224
S'name'
p245
sa(dp246
g210
S''
sg211
L1L
sg212
Nsg213
S'BTREE'
p247
sg215
S'creator'
p248
sg217
S'A'
sg218
S''
sg219
L1L
sg220
S'series'
p249
sg222
Nsg223
Nsg224
S'creator'
p250
satp251
sS'quips'
p252
((lp253
(dp254
S'Extra'
p255
S'auto_increment'
p256
sS'Default'
p257
NsS'Field'
p258
S'quipid'
p259
sS'Key'
p260
S'PRI'
p261
sS'Null'
p262
S''
sS'Type'
p263
S'mediumint(9)'
p264
sa(dp265
g255
S''
sg257
S'0'
sg258
S'userid'
p266
sg260
S''
sg262
S''
sg263
S'mediumint(9)'
p267
sa(dp268
g255
S''
sg257
S''
sg258
S'quip'
p269
sg260
S''
sg262
S''
sg263
S'text'
p270
sa(dp271
g255
S''
sg257
S'1'
sg258
S'approved'
p272
sg260
S''
sg262
S''
sg263
S'tinyint(1)'
p273
sa(lp274
(dp275
S'Comment'
p276
S''
sS'Non_unique'
p277
L0L
sS'Sub_part'
p278
NsS'Index_type'
p279
S'BTREE'
p280
sS'Key_name'
p281
S'PRIMARY'
p282
sS'Collation'
p283
S'A'
sS'Null'
p284
S''
sS'Seq_in_index'
p285
L1L
sS'Table'
p286
S'quips'
p287
sS'Cardinality'
p288
L0L
sS'Packed'
p289
NsS'Column_name'
p290
S'quipid'
p291
satp292
sS'series_categories'
p293
((lp294
(dp295
S'Extra'
p296
S'auto_increment'
p297
sS'Default'
p298
NsS'Field'
p299
S'id'
p300
sS'Key'
p301
S'PRI'
p302
sS'Null'
p303
S''
sS'Type'
p304
S'smallint(6)'
p305
sa(dp306
g296
S''
sg298
S''
sg299
S'name'
p307
sg301
S'UNI'
p308
sg303
S''
sg304
S'varchar(64)'
p309
sa(lp310
(dp311
S'Comment'
p312
S''
sS'Non_unique'
p313
L0L
sS'Sub_part'
p314
NsS'Index_type'
p315
S'BTREE'
p316
sS'Key_name'
p317
S'PRIMARY'
p318
sS'Collation'
p319
S'A'
sS'Null'
p320
S''
sS'Seq_in_index'
p321
L1L
sS'Table'
p322
S'series_categories'
p323
sS'Cardinality'
p324
L2L
sS'Packed'
p325
NsS'Column_name'
p326
S'id'
p327
sa(dp328
g312
S''
sg313
L0L
sg314
Nsg315
S'BTREE'
p329
sg317
S'name'
p330
sg319
S'A'
sg320
S''
sg321
L1L
sg322
S'series_categories'
p331
sg324
L2L
sg325
Nsg326
S'name'
p332
satp333
sS'group_group_map'
p334
((lp335
(dp336
S'Extra'
p337
S''
sS'Default'
p338
S'0'
sS'Field'
p339
S'member_id'
p340
sS'Key'
p341
S'PRI'
p342
sS'Null'
p343
S''
sS'Type'
p344
S'mediumint(9)'
p345
sa(dp346
g337
S''
sg338
S'0'
sg339
S'grantor_id'
p347
sg341
S'PRI'
p348
sg343
S''
sg344
S'mediumint(9)'
p349
sa(dp350
g337
S''
sg338
S'0'
sg339
S'grant_type'
p351
sg341
S'PRI'
p352
sg343
S''
sg344
S'tinyint(4)'
p353
sa(lp354
(dp355
S'Comment'
p356
S''
sS'Non_unique'
p357
L0L
sS'Sub_part'
p358
NsS'Index_type'
p359
S'BTREE'
p360
sS'Key_name'
p361
S'member_id'
p362
sS'Collation'
p363
S'A'
sS'Null'
p364
S''
sS'Seq_in_index'
p365
L1L
sS'Table'
p366
S'group_group_map'
p367
sS'Cardinality'
p368
NsS'Packed'
p369
NsS'Column_name'
p370
S'member_id'
p371
sa(dp372
g356
S''
sg357
L0L
sg358
Nsg359
S'BTREE'
p373
sg361
S'member_id'
p374
sg363
S'A'
sg364
S''
sg365
L2L
sg366
S'group_group_map'
p375
sg368
Nsg369
Nsg370
S'grantor_id'
p376
sa(dp377
g356
S''
sg357
L0L
sg358
Nsg359
S'BTREE'
p378
sg361
S'member_id'
p379
sg363
S'A'
sg364
S''
sg365
L3L
sg366
S'group_group_map'
p380
sg368
L12L
sg369
Nsg370
S'grant_type'
p381
satp382
sS'keywords'
p383
((lp384
(dp385
S'Extra'
p386
S''
sS'Default'
p387
S'0'
sS'Field'
p388
S'bug_id'
p389
sS'Key'
p390
S'PRI'
p391
sS'Null'
p392
S''
sS'Type'
p393
S'mediumint(9)'
p394
sa(dp395
g386
S''
sg387
S'0'
sg388
S'keywordid'
p396
sg390
S'PRI'
p397
sg392
S''
sg393
S'smallint(6)'
p398
sa(lp399
(dp400
S'Comment'
p401
S''
sS'Non_unique'
p402
L0L
sS'Sub_part'
p403
NsS'Index_type'
p404
S'BTREE'
p405
sS'Key_name'
p406
S'bug_id'
p407
sS'Collation'
p408
S'A'
sS'Null'
p409
S''
sS'Seq_in_index'
p410
L1L
sS'Table'
p411
S'keywords'
p412
sS'Cardinality'
p413
NsS'Packed'
p414
NsS'Column_name'
p415
S'bug_id'
p416
sa(dp417
g401
S''
sg402
L0L
sg403
Nsg404
S'BTREE'
p418
sg406
S'bug_id'
p419
sg408
S'A'
sg409
S''
sg410
L2L
sg411
S'keywords'
p420
sg413
L0L
sg414
Nsg415
S'keywordid'
p421
sa(dp422
g401
S''
sg402
L1L
sg403
Nsg404
S'BTREE'
p423
sg406
S'keywordid'
p424
sg408
S'A'
sg409
S''
sg410
L1L
sg411
S'keywords'
p425
sg413
Nsg414
Nsg415
S'keywordid'
p426
satp427
sS'series_data'
p428
((lp429
(dp430
S'Extra'
p431
S''
sS'Default'
p432
S'0'
sS'Field'
p433
S'series_id'
p434
sS'Key'
p435
S'PRI'
p436
sS'Null'
p437
S''
sS'Type'
p438
S'mediumint(9)'
p439
sa(dp440
g431
S''
sg432
S'0000-00-00 00:00:00'
p441
sg433
S'series_date'
p442
sg435
S'PRI'
p443
sg437
S''
sg438
S'datetime'
p444
sa(dp445
g431
S''
sg432
S'0'
sg433
S'series_value'
p446
sg435
S''
sg437
S''
sg438
S'mediumint(9)'
p447
sa(lp448
(dp449
S'Comment'
p450
S''
sS'Non_unique'
p451
L0L
sS'Sub_part'
p452
NsS'Index_type'
p453
S'BTREE'
p454
sS'Key_name'
p455
S'series_id'
p456
sS'Collation'
p457
S'A'
sS'Null'
p458
S''
sS'Seq_in_index'
p459
L1L
sS'Table'
p460
S'series_data'
p461
sS'Cardinality'
p462
NsS'Packed'
p463
NsS'Column_name'
p464
S'series_id'
p465
sa(dp466
g450
S''
sg451
L0L
sg452
Nsg453
S'BTREE'
p467
sg455
S'series_id'
p468
sg457
S'A'
sg458
S''
sg459
L2L
sg460
S'series_data'
p469
sg462
L0L
sg463
Nsg464
S'series_date'
p470
satp471
sS'keyworddefs'
p472
((lp473
(dp474
S'Extra'
p475
S''
sS'Default'
p476
S'0'
sS'Field'
p477
S'id'
p478
sS'Key'
p479
S'PRI'
p480
sS'Null'
p481
S''
sS'Type'
p482
S'smallint(6)'
p483
sa(dp484
g475
S''
sg476
S''
sg477
S'name'
p485
sg479
S'UNI'
p486
sg481
S''
sg482
S'varchar(64)'
p487
sa(dp488
g475
S''
sg476
Nsg477
S'description'
p489
sg479
S''
sg481
S'YES'
p490
sg482
S'mediumtext'
p491
sa(lp492
(dp493
S'Comment'
p494
S''
sS'Non_unique'
p495
L0L
sS'Sub_part'
p496
NsS'Index_type'
p497
S'BTREE'
p498
sS'Key_name'
p499
S'PRIMARY'
p500
sS'Collation'
p501
S'A'
sS'Null'
p502
S''
sS'Seq_in_index'
p503
L1L
sS'Table'
p504
S'keyworddefs'
p505
sS'Cardinality'
p506
L0L
sS'Packed'
p507
NsS'Column_name'
p508
S'id'
p509
sa(dp510
g494
S''
sg495
L0L
sg496
Nsg497
S'BTREE'
p511
sg499
S'name'
p512
sg501
S'A'
sg502
S''
sg503
L1L
sg504
S'keyworddefs'
p513
sg506
L0L
sg507
Nsg508
S'name'
p514
satp515
sS'flagexclusions'
p516
((lp517
(dp518
S'Extra'
p519
S''
sS'Default'
p520
S'0'
sS'Field'
p521
S'type_id'
p522
sS'Key'
p523
S'MUL'
p524
sS'Null'
p525
S''
sS'Type'
p526
S'smallint(6)'
p527
sa(dp528
g519
S''
sg520
Nsg521
S'product_id'
p529
sg523
S''
sg525
S'YES'
p530
sg526
S'smallint(6)'
p531
sa(dp532
g519
S''
sg520
Nsg521
S'component_id'
p533
sg523
S''
sg525
S'YES'
p534
sg526
S'smallint(6)'
p535
sa(lp536
(dp537
S'Comment'
p538
S''
sS'Non_unique'
p539
L1L
sS'Sub_part'
p540
NsS'Index_type'
p541
S'BTREE'
p542
sS'Key_name'
p543
S'type_id'
p544
sS'Collation'
p545
S'A'
sS'Null'
p546
S''
sS'Seq_in_index'
p547
L1L
sS'Table'
p548
S'flagexclusions'
p549
sS'Cardinality'
p550
NsS'Packed'
p551
NsS'Column_name'
p552
S'type_id'
p553
sa(dp554
g538
S''
sg539
L1L
sg540
Nsg541
S'BTREE'
p555
sg543
S'type_id'
p556
sg545
S'A'
sg546
S'YES'
p557
sg547
L2L
sg548
S'flagexclusions'
p558
sg550
Nsg551
Nsg552
S'product_id'
p559
sa(dp560
g538
S''
sg539
L1L
sg540
Nsg541
S'BTREE'
p561
sg543
S'type_id'
p562
sg545
S'A'
sg546
S'YES'
p563
sg547
L3L
sg548
S'flagexclusions'
p564
sg550
Nsg551
Nsg552
S'component_id'
p565
satp566
sS'votes'
p567
((lp568
(dp569
S'Extra'
p570
S''
sS'Default'
p571
S'0'
sS'Field'
p572
S'who'
p573
sS'Key'
p574
S'MUL'
p575
sS'Null'
p576
S''
sS'Type'
p577
S'mediumint(9)'
p578
sa(dp579
g570
S''
sg571
S'0'
sg572
S'bug_id'
p580
sg574
S'MUL'
p581
sg576
S''
sg577
S'mediumint(9)'
p582
sa(dp583
g570
S''
sg571
S'0'
sg572
S'vote_count'
p584
sg574
S''
sg576
S''
sg577
S'smallint(6)'
p585
sa(lp586
(dp587
S'Comment'
p588
S''
sS'Non_unique'
p589
L1L
sS'Sub_part'
p590
NsS'Index_type'
p591
S'BTREE'
p592
sS'Key_name'
p593
S'who'
p594
sS'Collation'
p595
S'A'
sS'Null'
p596
S''
sS'Seq_in_index'
p597
L1L
sS'Table'
p598
S'votes'
p599
sS'Cardinality'
p600
NsS'Packed'
p601
NsS'Column_name'
p602
S'who'
p603
sa(dp604
g588
S''
sg589
L1L
sg590
Nsg591
S'BTREE'
p605
sg593
S'bug_id'
p606
sg595
S'A'
sg596
S''
sg597
L1L
sg598
S'votes'
p607
sg600
Nsg601
Nsg602
S'bug_id'
p608
satp609
sS'products'
p610
((lp611
(dp612
S'Extra'
p613
S'auto_increment'
p614
sS'Default'
p615
NsS'Field'
p616
S'id'
p617
sS'Key'
p618
S'PRI'
p619
sS'Null'
p620
S''
sS'Type'
p621
S'smallint(6)'
p622
sa(dp623
g613
S''
sg615
S''
sg616
S'name'
p624
sg618
S'UNI'
p625
sg620
S''
sg621
S'varchar(64)'
p626
sa(dp627
g613
S''
sg615
S'1'
sg616
S'classification_id'
p628
sg618
S''
sg620
S''
sg621
S'smallint(6)'
p629
sa(dp630
g613
S''
sg615
Nsg616
S'description'
p631
sg618
S''
sg620
S'YES'
p632
sg621
S'mediumtext'
p633
sa(dp634
g613
S''
sg615
S''
sg616
S'milestoneurl'
p635
sg618
S''
sg620
S''
sg621
S'tinytext'
p636
sa(dp637
g613
S''
sg615
S'0'
sg616
S'disallownew'
p638
sg618
S''
sg620
S''
sg621
S'tinyint(4)'
p639
sa(dp640
g613
S''
sg615
S'0'
sg616
S'votesperuser'
p641
sg618
S''
sg620
S''
sg621
S'smallint(6)'
p642
sa(dp643
g613
S''
sg615
S'10000'
p644
sg616
S'maxvotesperbug'
p645
sg618
S''
sg620
S''
sg621
S'smallint(6)'
p646
sa(dp647
g613
S''
sg615
S'0'
sg616
S'votestoconfirm'
p648
sg618
S''
sg620
S''
sg621
S'smallint(6)'
p649
sa(dp650
g613
S''
sg615
S'---'
p651
sg616
S'defaultmilestone'
p652
sg618
S''
sg620
S''
sg621
S'varchar(20)'
p653
sa(lp654
(dp655
S'Comment'
p656
S''
sS'Non_unique'
p657
L0L
sS'Sub_part'
p658
NsS'Index_type'
p659
S'BTREE'
p660
sS'Key_name'
p661
S'PRIMARY'
p662
sS'Collation'
p663
S'A'
sS'Null'
p664
S''
sS'Seq_in_index'
p665
L1L
sS'Table'
p666
S'products'
p667
sS'Cardinality'
p668
L1L
sS'Packed'
p669
NsS'Column_name'
p670
S'id'
p671
sa(dp672
g656
S''
sg657
L0L
sg658
Nsg659
S'BTREE'
p673
sg661
S'name'
p674
sg663
S'A'
sg664
S''
sg665
L1L
sg666
S'products'
p675
sg668
L1L
sg669
Nsg670
S'name'
p676
satp677
sS'duplicates'
p678
((lp679
(dp680
S'Extra'
p681
S''
sS'Default'
p682
S'0'
sS'Field'
p683
S'dupe_of'
p684
sS'Key'
p685
S''
sS'Null'
p686
S''
sS'Type'
p687
S'mediumint(9)'
p688
sa(dp689
g681
S''
sg682
S'0'
sg683
S'dupe'
p690
sg685
S'PRI'
p691
sg686
S''
sg687
S'mediumint(9)'
p692
sa(lp693
(dp694
S'Comment'
p695
S''
sS'Non_unique'
p696
L0L
sS'Sub_part'
p697
NsS'Index_type'
p698
S'BTREE'
p699
sS'Key_name'
p700
S'PRIMARY'
p701
sS'Collation'
p702
S'A'
sS'Null'
p703
S''
sS'Seq_in_index'
p704
L1L
sS'Table'
p705
S'duplicates'
p706
sS'Cardinality'
p707
L0L
sS'Packed'
p708
NsS'Column_name'
p709
S'dupe'
p710
satp711
sS'logincookies'
p712
((lp713
(dp714
S'Extra'
p715
S'auto_increment'
p716
sS'Default'
p717
NsS'Field'
p718
S'cookie'
p719
sS'Key'
p720
S'PRI'
p721
sS'Null'
p722
S''
sS'Type'
p723
S'mediumint(9)'
p724
sa(dp725
g715
S''
sg717
S'0'
sg718
S'userid'
p726
sg720
S''
sg722
S''
sg723
S'mediumint(9)'
p727
sa(dp728
g715
S''
sg717
S''
sg718
S'ipaddr'
p729
sg720
S''
sg722
S''
sg723
S'varchar(40)'
p730
sa(dp731
g715
S''
sg717
S'0000-00-00 00:00:00'
p732
sg718
S'lastused'
p733
sg720
S'MUL'
p734
sg722
S''
sg723
S'datetime'
p735
sa(lp736
(dp737
S'Comment'
p738
S''
sS'Non_unique'
p739
L0L
sS'Sub_part'
p740
NsS'Index_type'
p741
S'BTREE'
p742
sS'Key_name'
p743
S'PRIMARY'
p744
sS'Collation'
p745
S'A'
sS'Null'
p746
S''
sS'Seq_in_index'
p747
L1L
sS'Table'
p748
S'logincookies'
p749
sS'Cardinality'
p750
L0L
sS'Packed'
p751
NsS'Column_name'
p752
S'cookie'
p753
sa(dp754
g738
S''
sg739
L1L
sg740
Nsg741
S'BTREE'
p755
sg743
S'lastused'
p756
sg745
S'A'
sg746
S''
sg747
L1L
sg748
S'logincookies'
p757
sg750
Nsg751
Nsg752
S'lastused'
p758
satp759
sS'fielddefs'
p760
((lp761
(dp762
S'Extra'
p763
S'auto_increment'
p764
sS'Default'
p765
NsS'Field'
p766
S'fieldid'
p767
sS'Key'
p768
S'PRI'
p769
sS'Null'
p770
S''
sS'Type'
p771
S'mediumint(9)'
p772
sa(dp773
g763
S''
sg765
S''
sg766
S'name'
p774
sg768
S'UNI'
p775
sg770
S''
sg771
S'varchar(64)'
p776
sa(dp777
g763
S''
sg765
S''
sg766
S'description'
p778
sg768
S''
sg770
S''
sg771
S'mediumtext'
p779
sa(dp780
g763
S''
sg765
S'0'
sg766
S'mailhead'
p781
sg768
S''
sg770
S''
sg771
S'tinyint(4)'
p782
sa(dp783
g763
S''
sg765
S'0'
sg766
S'sortkey'
p784
sg768
S'MUL'
p785
sg770
S''
sg771
S'smallint(6)'
p786
sa(lp787
(dp788
S'Comment'
p789
S''
sS'Non_unique'
p790
L0L
sS'Sub_part'
p791
NsS'Index_type'
p792
S'BTREE'
p793
sS'Key_name'
p794
S'PRIMARY'
p795
sS'Collation'
p796
S'A'
sS'Null'
p797
S''
sS'Seq_in_index'
p798
L1L
sS'Table'
p799
S'fielddefs'
p800
sS'Cardinality'
p801
L47L
sS'Packed'
p802
NsS'Column_name'
p803
S'fieldid'
p804
sa(dp805
g789
S''
sg790
L0L
sg791
Nsg792
S'BTREE'
p806
sg794
S'name'
p807
sg796
S'A'
sg797
S''
sg798
L1L
sg799
S'fielddefs'
p808
sg801
L47L
sg802
Nsg803
S'name'
p809
sa(dp810
g789
S''
sg790
L1L
sg791
Nsg792
S'BTREE'
p811
sg794
S'sortkey'
p812
sg796
S'A'
sg797
S''
sg798
L1L
sg799
S'fielddefs'
p813
sg801
Nsg802
Nsg803
S'sortkey'
p814
satp815
sS'whine_events'
p816
((lp817
(dp818
S'Extra'
p819
S'auto_increment'
p820
sS'Default'
p821
NsS'Field'
p822
S'id'
p823
sS'Key'
p824
S'PRI'
p825
sS'Null'
p826
S''
sS'Type'
p827
S'mediumint(9)'
p828
sa(dp829
g819
S''
sg821
S'0'
sg822
S'owner_userid'
p830
sg824
S''
sg826
S''
sg827
S'mediumint(9)'
p831
sa(dp832
g819
S''
sg821
Nsg822
S'subject'
p833
sg824
S''
sg826
S'YES'
p834
sg827
S'varchar(128)'
p835
sa(dp836
g819
S''
sg821
Nsg822
S'body'
p837
sg824
S''
sg826
S'YES'
p838
sg827
S'mediumtext'
p839
sa(lp840
(dp841
S'Comment'
p842
S''
sS'Non_unique'
p843
L0L
sS'Sub_part'
p844
NsS'Index_type'
p845
S'BTREE'
p846
sS'Key_name'
p847
S'PRIMARY'
p848
sS'Collation'
p849
S'A'
sS'Null'
p850
S''
sS'Seq_in_index'
p851
L1L
sS'Table'
p852
S'whine_events'
p853
sS'Cardinality'
p854
L0L
sS'Packed'
p855
NsS'Column_name'
p856
S'id'
p857
satp858
sS'flaginclusions'
p859
((lp860
(dp861
S'Extra'
p862
S''
sS'Default'
p863
S'0'
sS'Field'
p864
S'type_id'
p865
sS'Key'
p866
S'MUL'
p867
sS'Null'
p868
S''
sS'Type'
p869
S'smallint(6)'
p870
sa(dp871
g862
S''
sg863
Nsg864
S'product_id'
p872
sg866
S''
sg868
S'YES'
p873
sg869
S'smallint(6)'
p874
sa(dp875
g862
S''
sg863
Nsg864
S'component_id'
p876
sg866
S''
sg868
S'YES'
p877
sg869
S'smallint(6)'
p878
sa(lp879
(dp880
S'Comment'
p881
S''
sS'Non_unique'
p882
L1L
sS'Sub_part'
p883
NsS'Index_type'
p884
S'BTREE'
p885
sS'Key_name'
p886
S'type_id'
p887
sS'Collation'
p888
S'A'
sS'Null'
p889
S''
sS'Seq_in_index'
p890
L1L
sS'Table'
p891
S'flaginclusions'
p892
sS'Cardinality'
p893
NsS'Packed'
p894
NsS'Column_name'
p895
S'type_id'
p896
sa(dp897
g881
S''
sg882
L1L
sg883
Nsg884
S'BTREE'
p898
sg886
S'type_id'
p899
sg888
S'A'
sg889
S'YES'
p900
sg890
L2L
sg891
S'flaginclusions'
p901
sg893
Nsg894
Nsg895
S'product_id'
p902
sa(dp903
g881
S''
sg882
L1L
sg883
Nsg884
S'BTREE'
p904
sg886
S'type_id'
p905
sg888
S'A'
sg889
S'YES'
p906
sg890
L3L
sg891
S'flaginclusions'
p907
sg893
Nsg894
Nsg895
S'component_id'
p908
satp909
sS'profiles_activity'
p910
((lp911
(dp912
S'Extra'
p913
S''
sS'Default'
p914
S'0'
sS'Field'
p915
S'userid'
p916
sS'Key'
p917
S'MUL'
p918
sS'Null'
p919
S''
sS'Type'
p920
S'mediumint(9)'
p921
sa(dp922
g913
S''
sg914
S'0'
sg915
S'who'
p923
sg917
S''
sg919
S''
sg920
S'mediumint(9)'
p924
sa(dp925
g913
S''
sg914
S'0000-00-00 00:00:00'
p926
sg915
S'profiles_when'
p927
sg917
S'MUL'
p928
sg919
S''
sg920
S'datetime'
p929
sa(dp930
g913
S''
sg914
S'0'
sg915
S'fieldid'
p931
sg917
S'MUL'
p932
sg919
S''
sg920
S'mediumint(9)'
p933
sa(dp934
g913
S''
sg914
Nsg915
S'oldvalue'
p935
sg917
S''
sg919
S'YES'
p936
sg920
S'tinytext'
p937
sa(dp938
g913
S''
sg914
Nsg915
S'newvalue'
p939
sg917
S''
sg919
S'YES'
p940
sg920
S'tinytext'
p941
sa(lp942
(dp943
S'Comment'
p944
S''
sS'Non_unique'
p945
L1L
sS'Sub_part'
p946
NsS'Index_type'
p947
S'BTREE'
p948
sS'Key_name'
p949
S'userid'
p950
sS'Collation'
p951
S'A'
sS'Null'
p952
S''
sS'Seq_in_index'
p953
L1L
sS'Table'
p954
S'profiles_activity'
p955
sS'Cardinality'
p956
NsS'Packed'
p957
NsS'Column_name'
p958
S'userid'
p959
sa(dp960
g944
S''
sg945
L1L
sg946
Nsg947
S'BTREE'
p961
sg949
S'profiles_when'
p962
sg951
S'A'
sg952
S''
sg953
L1L
sg954
S'profiles_activity'
p963
sg956
Nsg957
Nsg958
S'profiles_when'
p964
sa(dp965
g944
S''
sg945
L1L
sg946
Nsg947
S'BTREE'
p966
sg949
S'fieldid'
p967
sg951
S'A'
sg952
S''
sg953
L1L
sg954
S'profiles_activity'
p968
sg956
Nsg957
Nsg958
S'fieldid'
p969
satp970
sS'bugs_activity'
p971
((lp972
(dp973
S'Extra'
p974
S''
sS'Default'
p975
S'0'
sS'Field'
p976
S'bug_id'
p977
sS'Key'
p978
S'MUL'
p979
sS'Null'
p980
S''
sS'Type'
p981
S'mediumint(9)'
p982
sa(dp983
g974
S''
sg975
Nsg976
S'attach_id'
p984
sg978
S''
sg980
S'YES'
p985
sg981
S'mediumint(9)'
p986
sa(dp987
g974
S''
sg975
S'0'
sg976
S'who'
p988
sg978
S''
sg980
S''
sg981
S'mediumint(9)'
p989
sa(dp990
g974
S''
sg975
S'0000-00-00 00:00:00'
p991
sg976
S'bug_when'
p992
sg978
S'MUL'
p993
sg980
S''
sg981
S'datetime'
p994
sa(dp995
g974
S''
sg975
S'0'
sg976
S'fieldid'
p996
sg978
S'MUL'
p997
sg980
S''
sg981
S'mediumint(9)'
p998
sa(dp999
g974
S''
sg975
Nsg976
S'added'
p1000
sg978
S''
sg980
S'YES'
p1001
sg981
S'tinytext'
p1002
sa(dp1003
g974
S''
sg975
Nsg976
S'removed'
p1004
sg978
S''
sg980
S'YES'
p1005
sg981
S'tinytext'
p1006
sa(lp1007
(dp1008
S'Comment'
p1009
S''
sS'Non_unique'
p1010
L1L
sS'Sub_part'
p1011
NsS'Index_type'
p1012
S'BTREE'
p1013
sS'Key_name'
p1014
S'bug_id'
p1015
sS'Collation'
p1016
S'A'
sS'Null'
p1017
S''
sS'Seq_in_index'
p1018
L1L
sS'Table'
p1019
S'bugs_activity'
p1020
sS'Cardinality'
p1021
NsS'Packed'
p1022
NsS'Column_name'
p1023
S'bug_id'
p1024
sa(dp1025
g1009
S''
sg1010
L1L
sg1011
Nsg1012
S'BTREE'
p1026
sg1014
S'bug_when'
p1027
sg1016
S'A'
sg1017
S''
sg1018
L1L
sg1019
S'bugs_activity'
p1028
sg1021
Nsg1022
Nsg1023
S'bug_when'
p1029
sa(dp1030
g1009
S''
sg1010
L1L
sg1011
Nsg1012
S'BTREE'
p1031
sg1014
S'fieldid'
p1032
sg1016
S'A'
sg1017
S''
sg1018
L1L
sg1019
S'bugs_activity'
p1033
sg1021
Nsg1022
Nsg1023
S'fieldid'
p1034
satp1035
sS'watch'
p1036
((lp1037
(dp1038
S'Extra'
p1039
S''
sS'Default'
p1040
S'0'
sS'Field'
p1041
S'watcher'
p1042
sS'Key'
p1043
S'PRI'
p1044
sS'Null'
p1045
S''
sS'Type'
p1046
S'mediumint(9)'
p1047
sa(dp1048
g1039
S''
sg1040
S'0'
sg1041
S'watched'
p1049
sg1043
S'PRI'
p1050
sg1045
S''
sg1046
S'mediumint(9)'
p1051
sa(lp1052
(dp1053
S'Comment'
p1054
S''
sS'Non_unique'
p1055
L0L
sS'Sub_part'
p1056
NsS'Index_type'
p1057
S'BTREE'
p1058
sS'Key_name'
p1059
S'watcher'
p1060
sS'Collation'
p1061
S'A'
sS'Null'
p1062
S''
sS'Seq_in_index'
p1063
L1L
sS'Table'
p1064
S'watch'
p1065
sS'Cardinality'
p1066
NsS'Packed'
p1067
NsS'Column_name'
p1068
S'watcher'
p1069
sa(dp1070
g1054
S''
sg1055
L0L
sg1056
Nsg1057
S'BTREE'
p1071
sg1059
S'watcher'
p1072
sg1061
S'A'
sg1062
S''
sg1063
L2L
sg1064
S'watch'
p1073
sg1066
L0L
sg1067
Nsg1068
S'watched'
p1074
sa(dp1075
g1054
S''
sg1055
L1L
sg1056
Nsg1057
S'BTREE'
p1076
sg1059
S'watched'
p1077
sg1061
S'A'
sg1062
S''
sg1063
L1L
sg1064
S'watch'
p1078
sg1066
Nsg1067
Nsg1068
S'watched'
p1079
satp1080
sS'namedqueries'
p1081
((lp1082
(dp1083
S'Extra'
p1084
S''
sS'Default'
p1085
S'0'
sS'Field'
p1086
S'userid'
p1087
sS'Key'
p1088
S'PRI'
p1089
sS'Null'
p1090
S''
sS'Type'
p1091
S'mediumint(9)'
p1092
sa(dp1093
g1084
S''
sg1085
S''
sg1086
S'name'
p1094
sg1088
S'PRI'
p1095
sg1090
S''
sg1091
S'varchar(64)'
p1096
sa(dp1097
g1084
S''
sg1085
S'0'
sg1086
S'linkinfooter'
p1098
sg1088
S''
sg1090
S''
sg1091
S'tinyint(4)'
p1099
sa(dp1100
g1084
S''
sg1085
S''
sg1086
S'query'
p1101
sg1088
S''
sg1090
S''
sg1091
S'mediumtext'
p1102
sa(lp1103
(dp1104
S'Comment'
p1105
S''
sS'Non_unique'
p1106
L0L
sS'Sub_part'
p1107
NsS'Index_type'
p1108
S'BTREE'
p1109
sS'Key_name'
p1110
S'userid'
p1111
sS'Collation'
p1112
S'A'
sS'Null'
p1113
S''
sS'Seq_in_index'
p1114
L1L
sS'Table'
p1115
S'namedqueries'
p1116
sS'Cardinality'
p1117
NsS'Packed'
p1118
NsS'Column_name'
p1119
S'userid'
p1120
sa(dp1121
g1105
S''
sg1106
L0L
sg1107
Nsg1108
S'BTREE'
p1122
sg1110
S'userid'
p1123
sg1112
S'A'
sg1113
S''
sg1114
L2L
sg1115
S'namedqueries'
p1124
sg1117
L0L
sg1118
Nsg1119
S'name'
p1125
satp1126
sS'whine_schedules'
p1127
((lp1128
(dp1129
S'Extra'
p1130
S'auto_increment'
p1131
sS'Default'
p1132
NsS'Field'
p1133
S'id'
p1134
sS'Key'
p1135
S'PRI'
p1136
sS'Null'
p1137
S''
sS'Type'
p1138
S'mediumint(9)'
p1139
sa(dp1140
g1130
S''
sg1132
S'0'
sg1133
S'eventid'
p1141
sg1135
S'MUL'
p1142
sg1137
S''
sg1138
S'mediumint(9)'
p1143
sa(dp1144
g1130
S''
sg1132
Nsg1133
S'run_day'
p1145
sg1135
S''
sg1137
S'YES'
p1146
sg1138
S'varchar(32)'
p1147
sa(dp1148
g1130
S''
sg1132
Nsg1133
S'run_time'
p1149
sg1135
S''
sg1137
S'YES'
p1150
sg1138
S'varchar(32)'
p1151
sa(dp1152
g1130
S''
sg1132
Nsg1133
S'run_next'
p1153
sg1135
S'MUL'
p1154
sg1137
S'YES'
p1155
sg1138
S'datetime'
p1156
sa(dp1157
g1130
S''
sg1132
S'0'
sg1133
S'mailto_userid'
p1158
sg1135
S''
sg1137
S''
sg1138
S'mediumint(9)'
p1159
sa(lp1160
(dp1161
S'Comment'
p1162
S''
sS'Non_unique'
p1163
L0L
sS'Sub_part'
p1164
NsS'Index_type'
p1165
S'BTREE'
p1166
sS'Key_name'
p1167
S'PRIMARY'
p1168
sS'Collation'
p1169
S'A'
sS'Null'
p1170
S''
sS'Seq_in_index'
p1171
L1L
sS'Table'
p1172
S'whine_schedules'
p1173
sS'Cardinality'
p1174
L0L
sS'Packed'
p1175
NsS'Column_name'
p1176
S'id'
p1177
sa(dp1178
g1162
S''
sg1163
L1L
sg1164
Nsg1165
S'BTREE'
p1179
sg1167
S'run_next'
p1180
sg1169
S'A'
sg1170
S'YES'
p1181
sg1171
L1L
sg1172
S'whine_schedules'
p1182
sg1174
Nsg1175
Nsg1176
S'run_next'
p1183
sa(dp1184
g1162
S''
sg1163
L1L
sg1164
Nsg1165
S'BTREE'
p1185
sg1167
S'eventid'
p1186
sg1169
S'A'
sg1170
S''
sg1171
L1L
sg1172
S'whine_schedules'
p1187
sg1174
Nsg1175
Nsg1176
S'eventid'
p1188
satp1189
sS'tokens'
p1190
((lp1191
(dp1192
S'Extra'
p1193
S''
sS'Default'
p1194
S'0'
sS'Field'
p1195
S'userid'
p1196
sS'Key'
p1197
S'MUL'
p1198
sS'Null'
p1199
S''
sS'Type'
p1200
S'mediumint(9)'
p1201
sa(dp1202
g1193
S''
sg1194
S'0000-00-00 00:00:00'
p1203
sg1195
S'issuedate'
p1204
sg1197
S''
sg1199
S''
sg1200
S'datetime'
p1205
sa(dp1206
g1193
S''
sg1194
S''
sg1195
S'token'
p1207
sg1197
S'PRI'
p1208
sg1199
S''
sg1200
S'varchar(16)'
p1209
sa(dp1210
g1193
S''
sg1194
S''
sg1195
S'tokentype'
p1211
sg1197
S''
sg1199
S''
sg1200
S'varchar(8)'
p1212
sa(dp1213
g1193
S''
sg1194
Nsg1195
S'eventdata'
p1214
sg1197
S''
sg1199
S'YES'
p1215
sg1200
S'tinytext'
p1216
sa(lp1217
(dp1218
S'Comment'
p1219
S''
sS'Non_unique'
p1220
L0L
sS'Sub_part'
p1221
NsS'Index_type'
p1222
S'BTREE'
p1223
sS'Key_name'
p1224
S'PRIMARY'
p1225
sS'Collation'
p1226
S'A'
sS'Null'
p1227
S''
sS'Seq_in_index'
p1228
L1L
sS'Table'
p1229
S'tokens'
p1230
sS'Cardinality'
p1231
L0L
sS'Packed'
p1232
NsS'Column_name'
p1233
S'token'
p1234
sa(dp1235
g1219
S''
sg1220
L1L
sg1221
Nsg1222
S'BTREE'
p1236
sg1224
S'userid'
p1237
sg1226
S'A'
sg1227
S''
sg1228
L1L
sg1229
S'tokens'
p1238
sg1231
Nsg1232
Nsg1233
S'userid'
p1239
satp1240
sS'dependencies'
p1241
((lp1242
(dp1243
S'Extra'
p1244
S''
sS'Default'
p1245
S'0'
sS'Field'
p1246
S'blocked'
p1247
sS'Key'
p1248
S'MUL'
p1249
sS'Null'
p1250
S''
sS'Type'
p1251
S'mediumint(9)'
p1252
sa(dp1253
g1244
S''
sg1245
S'0'
sg1246
S'dependson'
p1254
sg1248
S'MUL'
p1255
sg1250
S''
sg1251
S'mediumint(9)'
p1256
sa(lp1257
(dp1258
S'Comment'
p1259
S''
sS'Non_unique'
p1260
L1L
sS'Sub_part'
p1261
NsS'Index_type'
p1262
S'BTREE'
p1263
sS'Key_name'
p1264
S'blocked'
p1265
sS'Collation'
p1266
S'A'
sS'Null'
p1267
S''
sS'Seq_in_index'
p1268
L1L
sS'Table'
p1269
S'dependencies'
p1270
sS'Cardinality'
p1271
NsS'Packed'
p1272
NsS'Column_name'
p1273
S'blocked'
p1274
sa(dp1275
g1259
S''
sg1260
L1L
sg1261
Nsg1262
S'BTREE'
p1276
sg1264
S'dependson'
p1277
sg1266
S'A'
sg1267
S''
sg1268
L1L
sg1269
S'dependencies'
p1278
sg1271
Nsg1272
Nsg1273
S'dependson'
p1279
satp1280
sS'category_group_map'
p1281
((lp1282
(dp1283
S'Extra'
p1284
S''
sS'Default'
p1285
S'0'
sS'Field'
p1286
S'category_id'
p1287
sS'Key'
p1288
S'PRI'
p1289
sS'Null'
p1290
S''
sS'Type'
p1291
S'smallint(6)'
p1292
sa(dp1293
g1284
S''
sg1285
S'0'
sg1286
S'group_id'
p1294
sg1288
S'PRI'
p1295
sg1290
S''
sg1291
S'mediumint(9)'
p1296
sa(lp1297
(dp1298
S'Comment'
p1299
S''
sS'Non_unique'
p1300
L0L
sS'Sub_part'
p1301
NsS'Index_type'
p1302
S'BTREE'
p1303
sS'Key_name'
p1304
S'category_id'
p1305
sS'Collation'
p1306
S'A'
sS'Null'
p1307
S''
sS'Seq_in_index'
p1308
L1L
sS'Table'
p1309
S'category_group_map'
p1310
sS'Cardinality'
p1311
NsS'Packed'
p1312
NsS'Column_name'
p1313
S'category_id'
p1314
sa(dp1315
g1299
S''
sg1300
L0L
sg1301
Nsg1302
S'BTREE'
p1316
sg1304
S'category_id'
p1317
sg1306
S'A'
sg1307
S''
sg1308
L2L
sg1309
S'category_group_map'
p1318
sg1311
L0L
sg1312
Nsg1313
S'group_id'
p1319
satp1320
sS'groups'
p1321
((lp1322
(dp1323
S'Extra'
p1324
S'auto_increment'
p1325
sS'Default'
p1326
NsS'Field'
p1327
S'id'
p1328
sS'Key'
p1329
S'PRI'
p1330
sS'Null'
p1331
S''
sS'Type'
p1332
S'mediumint(9)'
p1333
sa(dp1334
g1324
S''
sg1326
S''
sg1327
S'name'
p1335
sg1329
S'UNI'
p1336
sg1331
S''
sg1332
S'varchar(255)'
p1337
sa(dp1338
g1324
S''
sg1326
S''
sg1327
S'description'
p1339
sg1329
S''
sg1331
S''
sg1332
S'text'
p1340
sa(dp1341
g1324
S''
sg1326
S'0'
sg1327
S'isbuggroup'
p1342
sg1329
S''
sg1331
S''
sg1332
S'tinyint(4)'
p1343
sa(dp1344
g1324
S''
sg1326
S'0000-00-00 00:00:00'
p1345
sg1327
S'last_changed'
p1346
sg1329
S''
sg1331
S''
sg1332
S'datetime'
p1347
sa(dp1348
g1324
S''
sg1326
S''
sg1327
S'userregexp'
p1349
sg1329
S''
sg1331
S''
sg1332
S'tinytext'
p1350
sa(dp1351
g1324
S''
sg1326
S'1'
sg1327
S'isactive'
p1352
sg1329
S''
sg1331
S''
sg1332
S'tinyint(4)'
p1353
sa(lp1354
(dp1355
S'Comment'
p1356
S''
sS'Non_unique'
p1357
L0L
sS'Sub_part'
p1358
NsS'Index_type'
p1359
S'BTREE'
p1360
sS'Key_name'
p1361
S'PRIMARY'
p1362
sS'Collation'
p1363
S'A'
sS'Null'
p1364
S''
sS'Seq_in_index'
p1365
L1L
sS'Table'
p1366
S'groups'
p1367
sS'Cardinality'
p1368
L11L
sS'Packed'
p1369
NsS'Column_name'
p1370
S'id'
p1371
sa(dp1372
g1356
S''
sg1357
L0L
sg1358
Nsg1359
S'BTREE'
p1373
sg1361
S'name'
p1374
sg1363
S'A'
sg1364
S''
sg1365
L1L
sg1366
S'groups'
p1375
sg1368
L11L
sg1369
Nsg1370
S'name'
p1376
satp1377
sS'milestones'
p1378
((lp1379
(dp1380
S'Extra'
p1381
S''
sS'Default'
p1382
S'0'
sS'Field'
p1383
S'product_id'
p1384
sS'Key'
p1385
S'PRI'
p1386
sS'Null'
p1387
S''
sS'Type'
p1388
S'smallint(6)'
p1389
sa(dp1390
g1381
S''
sg1382
S''
sg1383
S'value'
p1391
sg1385
S'PRI'
p1392
sg1387
S''
sg1388
S'varchar(20)'
p1393
sa(dp1394
g1381
S''
sg1382
S'0'
sg1383
S'sortkey'
p1395
sg1385
S''
sg1387
S''
sg1388
S'smallint(6)'
p1396
sa(lp1397
(dp1398
S'Comment'
p1399
S''
sS'Non_unique'
p1400
L0L
sS'Sub_part'
p1401
NsS'Index_type'
p1402
S'BTREE'
p1403
sS'Key_name'
p1404
S'product_id'
p1405
sS'Collation'
p1406
S'A'
sS'Null'
p1407
S''
sS'Seq_in_index'
p1408
L1L
sS'Table'
p1409
S'milestones'
p1410
sS'Cardinality'
p1411
NsS'Packed'
p1412
NsS'Column_name'
p1413
S'product_id'
p1414
sa(dp1415
g1399
S''
sg1400
L0L
sg1401
Nsg1402
S'BTREE'
p1416
sg1404
S'product_id'
p1417
sg1406
S'A'
sg1407
S''
sg1408
L2L
sg1409
S'milestones'
p1418
sg1411
L1L
sg1412
Nsg1413
S'value'
p1419
satp1420
sS'classifications'
p1421
((lp1422
(dp1423
S'Extra'
p1424
S'auto_increment'
p1425
sS'Default'
p1426
NsS'Field'
p1427
S'id'
p1428
sS'Key'
p1429
S'PRI'
p1430
sS'Null'
p1431
S''
sS'Type'
p1432
S'smallint(6)'
p1433
sa(dp1434
g1424
S''
sg1426
S''
sg1427
S'name'
p1435
sg1429
S'UNI'
p1436
sg1431
S''
sg1432
S'varchar(64)'
p1437
sa(dp1438
g1424
S''
sg1426
Nsg1427
S'description'
p1439
sg1429
S''
sg1431
S'YES'
p1440
sg1432
S'mediumtext'
p1441
sa(lp1442
(dp1443
S'Comment'
p1444
S''
sS'Non_unique'
p1445
L0L
sS'Sub_part'
p1446
NsS'Index_type'
p1447
S'BTREE'
p1448
sS'Key_name'
p1449
S'PRIMARY'
p1450
sS'Collation'
p1451
S'A'
sS'Null'
p1452
S''
sS'Seq_in_index'
p1453
L1L
sS'Table'
p1454
S'classifications'
p1455
sS'Cardinality'
p1456
L1L
sS'Packed'
p1457
NsS'Column_name'
p1458
S'id'
p1459
sa(dp1460
g1444
S''
sg1445
L0L
sg1446
Nsg1447
S'BTREE'
p1461
sg1449
S'name'
p1462
sg1451
S'A'
sg1452
S''
sg1453
L1L
sg1454
S'classifications'
p1463
sg1456
L1L
sg1457
Nsg1458
S'name'
p1464
satp1465
sS'longdescs'
p1466
((lp1467
(dp1468
S'Extra'
p1469
S''
sS'Default'
p1470
S'0'
sS'Field'
p1471
S'bug_id'
p1472
sS'Key'
p1473
S'MUL'
p1474
sS'Null'
p1475
S''
sS'Type'
p1476
S'mediumint(9)'
p1477
sa(dp1478
g1469
S''
sg1470
S'0'
sg1471
S'who'
p1479
sg1473
S'MUL'
p1480
sg1475
S''
sg1476
S'mediumint(9)'
p1481
sa(dp1482
g1469
S''
sg1470
S'0000-00-00 00:00:00'
p1483
sg1471
S'bug_when'
p1484
sg1473
S'MUL'
p1485
sg1475
S''
sg1476
S'datetime'
p1486
sa(dp1487
g1469
S''
sg1470
S'0.00'
p1488
sg1471
S'work_time'
p1489
sg1473
S''
sg1475
S''
sg1476
S'decimal(5,2)'
p1490
sa(dp1491
g1469
S''
sg1470
Nsg1471
S'thetext'
p1492
sg1473
S'MUL'
p1493
sg1475
S'YES'
p1494
sg1476
S'mediumtext'
p1495
sa(dp1496
g1469
S''
sg1470
S'0'
sg1471
S'isprivate'
p1497
sg1473
S''
sg1475
S''
sg1476
S'tinyint(4)'
p1498
sa(lp1499
(dp1500
S'Comment'
p1501
S''
sS'Non_unique'
p1502
L1L
sS'Sub_part'
p1503
NsS'Index_type'
p1504
S'BTREE'
p1505
sS'Key_name'
p1506
S'bug_id'
p1507
sS'Collation'
p1508
S'A'
sS'Null'
p1509
S''
sS'Seq_in_index'
p1510
L1L
sS'Table'
p1511
S'longdescs'
p1512
sS'Cardinality'
p1513
NsS'Packed'
p1514
NsS'Column_name'
p1515
S'bug_id'
p1516
sa(dp1517
g1501
S''
sg1502
L1L
sg1503
Nsg1504
S'BTREE'
p1518
sg1506
S'who'
p1519
sg1508
S'A'
sg1509
S''
sg1510
L1L
sg1511
S'longdescs'
p1520
sg1513
Nsg1514
Nsg1515
S'who'
p1521
sa(dp1522
g1501
S''
sg1502
L1L
sg1503
Nsg1504
S'BTREE'
p1523
sg1506
S'bug_when'
p1524
sg1508
S'A'
sg1509
S''
sg1510
L1L
sg1511
S'longdescs'
p1525
sg1513
Nsg1514
Nsg1515
S'bug_when'
p1526
sa(dp1527
g1501
S''
sg1502
L1L
sg1503
Nsg1504
S'FULLTEXT'
p1528
sg1506
S'thetext'
p1529
sg1508
S'A'
sg1509
S'YES'
p1530
sg1510
L1L
sg1511
S'longdescs'
p1531
sg1513
Nsg1514
Nsg1515
S'thetext'
p1532
satp1533
sS'versions'
p1534
((lp1535
(dp1536
S'Extra'
p1537
S''
sS'Default'
p1538
NsS'Field'
p1539
S'value'
p1540
sS'Key'
p1541
S''
sS'Null'
p1542
S'YES'
p1543
sS'Type'
p1544
S'tinytext'
p1545
sa(dp1546
g1537
S''
sg1538
S'0'
sg1539
S'product_id'
p1547
sg1541
S''
sg1542
S''
sg1544
S'smallint(6)'
p1548
sa(ltp1549
sS'flagtypes'
p1550
((lp1551
(dp1552
S'Extra'
p1553
S''
sS'Default'
p1554
S'0'
sS'Field'
p1555
S'id'
p1556
sS'Key'
p1557
S'PRI'
p1558
sS'Null'
p1559
S''
sS'Type'
p1560
S'smallint(6)'
p1561
sa(dp1562
g1553
S''
sg1554
S''
sg1555
S'name'
p1563
sg1557
S''
sg1559
S''
sg1560
S'varchar(50)'
p1564
sa(dp1565
g1553
S''
sg1554
Nsg1555
S'description'
p1566
sg1557
S''
sg1559
S'YES'
p1567
sg1560
S'text'
p1568
sa(dp1569
g1553
S''
sg1554
Nsg1555
S'cc_list'
p1570
sg1557
S''
sg1559
S'YES'
p1571
sg1560
S'varchar(200)'
p1572
sa(dp1573
g1553
S''
sg1554
S'b'
sg1555
S'target_type'
p1574
sg1557
S''
sg1559
S''
sg1560
S'char(1)'
p1575
sa(dp1576
g1553
S''
sg1554
S'1'
sg1555
S'is_active'
p1577
sg1557
S''
sg1559
S''
sg1560
S'tinyint(4)'
p1578
sa(dp1579
g1553
S''
sg1554
S'0'
sg1555
S'is_requestable'
p1580
sg1557
S''
sg1559
S''
sg1560
S'tinyint(4)'
p1581
sa(dp1582
g1553
S''
sg1554
S'0'
sg1555
S'is_requesteeble'
p1583
sg1557
S''
sg1559
S''
sg1560
S'tinyint(4)'
p1584
sa(dp1585
g1553
S''
sg1554
S'0'
sg1555
S'is_multiplicable'
p1586
sg1557
S''
sg1559
S''
sg1560
S'tinyint(4)'
p1587
sa(dp1588
g1553
S''
sg1554
S'0'
sg1555
S'sortkey'
p1589
sg1557
S''
sg1559
S''
sg1560
S'smallint(6)'
p1590
sa(lp1591
(dp1592
S'Comment'
p1593
S''
sS'Non_unique'
p1594
L0L
sS'Sub_part'
p1595
NsS'Index_type'
p1596
S'BTREE'
p1597
sS'Key_name'
p1598
S'PRIMARY'
p1599
sS'Collation'
p1600
S'A'
sS'Null'
p1601
S''
sS'Seq_in_index'
p1602
L1L
sS'Table'
p1603
S'flagtypes'
p1604
sS'Cardinality'
p1605
L0L
sS'Packed'
p1606
NsS'Column_name'
p1607
S'id'
p1608
satp1609
sS'user_group_map'
p1610
((lp1611
(dp1612
S'Extra'
p1613
S''
sS'Default'
p1614
S'0'
sS'Field'
p1615
S'user_id'
p1616
sS'Key'
p1617
S'PRI'
p1618
sS'Null'
p1619
S''
sS'Type'
p1620
S'mediumint(9)'
p1621
sa(dp1622
g1613
S''
sg1614
S'0'
sg1615
S'group_id'
p1623
sg1617
S'PRI'
p1624
sg1619
S''
sg1620
S'mediumint(9)'
p1625
sa(dp1626
g1613
S''
sg1614
S'0'
sg1615
S'isbless'
p1627
sg1617
S'PRI'
p1628
sg1619
S''
sg1620
S'tinyint(4)'
p1629
sa(dp1630
g1613
S''
sg1614
S'0'
sg1615
S'grant_type'
p1631
sg1617
S'PRI'
p1632
sg1619
S''
sg1620
S'tinyint(4)'
p1633
sa(lp1634
(dp1635
S'Comment'
p1636
S''
sS'Non_unique'
p1637
L0L
sS'Sub_part'
p1638
NsS'Index_type'
p1639
S'BTREE'
p1640
sS'Key_name'
p1641
S'user_id'
p1642
sS'Collation'
p1643
S'A'
sS'Null'
p1644
S''
sS'Seq_in_index'
p1645
L1L
sS'Table'
p1646
S'user_group_map'
p1647
sS'Cardinality'
p1648
NsS'Packed'
p1649
NsS'Column_name'
p1650
S'user_id'
p1651
sa(dp1652
g1636
S''
sg1637
L0L
sg1638
Nsg1639
S'BTREE'
p1653
sg1641
S'user_id'
p1654
sg1643
S'A'
sg1644
S''
sg1645
L2L
sg1646
S'user_group_map'
p1655
sg1648
Nsg1649
Nsg1650
S'group_id'
p1656
sa(dp1657
g1636
S''
sg1637
L0L
sg1638
Nsg1639
S'BTREE'
p1658
sg1641
S'user_id'
p1659
sg1643
S'A'
sg1644
S''
sg1645
L3L
sg1646
S'user_group_map'
p1660
sg1648
Nsg1649
Nsg1650
S'grant_type'
p1661
sa(dp1662
g1636
S''
sg1637
L0L
sg1638
Nsg1639
S'BTREE'
p1663
sg1641
S'user_id'
p1664
sg1643
S'A'
sg1644
S''
sg1645
L4L
sg1646
S'user_group_map'
p1665
sg1648
L12L
sg1649
Nsg1650
S'isbless'
p1666
satp1667
sS'bugs'
p1668
((lp1669
(dp1670
S'Extra'
p1671
S'auto_increment'
p1672
sS'Default'
p1673
NsS'Field'
p1674
S'bug_id'
p1675
sS'Key'
p1676
S'PRI'
p1677
sS'Null'
p1678
S''
sS'Type'
p1679
S'mediumint(9)'
p1680
sa(dp1681
g1671
S''
sg1673
S'0'
sg1674
S'assigned_to'
p1682
sg1676
S'MUL'
p1683
sg1678
S''
sg1679
S'mediumint(9)'
p1684
sa(dp1685
g1671
S''
sg1673
Nsg1674
S'bug_file_loc'
p1686
sg1676
S''
sg1678
S'YES'
p1687
sg1679
S'text'
p1688
sa(dp1689
g1671
S''
sg1673
S'blocker'
p1690
sg1674
S'bug_severity'
p1691
sg1676
S'MUL'
p1692
sg1678
S''
sg1679
S"enum('blocker','critical','major','normal','minor','trivial','enhancement')"
p1693
sa(dp1694
g1671
S''
sg1673
S'UNCONFIRMED'
p1695
sg1674
S'bug_status'
p1696
sg1676
S'MUL'
p1697
sg1678
S''
sg1679
S"enum('UNCONFIRMED','NEW','ASSIGNED','REOPENED','RESOLVED','VERIFIED','CLOSED')"
p1698
sa(dp1699
g1671
S''
sg1673
S'0000-00-00 00:00:00'
p1700
sg1674
S'creation_ts'
p1701
sg1676
S'MUL'
p1702
sg1678
S''
sg1679
S'datetime'
p1703
sa(dp1704
g1671
S''
sg1673
Nsg1674
S'delta_ts'
p1705
sg1676
S'MUL'
p1706
sg1678
S'YES'
p1707
sg1679
S'timestamp(14)'
p1708
sa(dp1709
g1671
S''
sg1673
S''
sg1674
S'short_desc'
p1710
sg1676
S'MUL'
p1711
sg1678
S''
sg1679
S'mediumtext'
p1712
sa(dp1713
g1671
S''
sg1673
S'All'
p1714
sg1674
S'op_sys'
p1715
sg1676
S'MUL'
p1716
sg1678
S''
sg1679
S"enum('All','Windows 3.1','Windows 95','Windows 98','Windows ME','Windows 2000','Windows NT','Windows XP','Windows Server 2003','Mac System 7','Mac System 7.5','Mac System 7.6.1','Mac System 8.0','Mac System 8.5','Mac System 8.6','Mac System 9.x','Mac OS X 10.0','Mac OS X 10.1','Mac OS X 10.2','Mac OS X 10.3','Linux','BSD/OS','FreeBSD','NetBSD','OpenBSD','AIX','BeOS','HP-UX','IRIX','Neutrino','OpenVMS','OS/2','OSF/1','Solaris','SunOS','other')"
p1717
sa(dp1718
g1671
S''
sg1673
S'P1'
p1719
sg1674
S'priority'
p1720
sg1676
S'MUL'
p1721
sg1678
S''
sg1679
S"enum('P1','P2','P3','P4','P5')"
p1722
sa(dp1723
g1671
S''
sg1673
S'0'
sg1674
S'product_id'
p1724
sg1676
S'MUL'
p1725
sg1678
S''
sg1679
S'smallint(6)'
p1726
sa(dp1727
g1671
S''
sg1673
Nsg1674
S'rep_platform'
p1728
sg1676
S''
sg1678
S'YES'
p1729
sg1679
S"enum('All','DEC','HP','Macintosh','PC','SGI','Sun','Other')"
p1730
sa(dp1731
g1671
S''
sg1673
S'0'
sg1674
S'reporter'
p1732
sg1676
S'MUL'
p1733
sg1678
S''
sg1679
S'mediumint(9)'
p1734
sa(dp1735
g1671
S''
sg1673
S''
sg1674
S'version'
p1736
sg1676
S'MUL'
p1737
sg1678
S''
sg1679
S'varchar(64)'
p1738
sa(dp1739
g1671
S''
sg1673
S'0'
sg1674
S'component_id'
p1740
sg1676
S'MUL'
p1741
sg1678
S''
sg1679
S'smallint(6)'
p1742
sa(dp1743
g1671
S''
sg1673
S''
sg1674
S'resolution'
p1744
sg1676
S'MUL'
p1745
sg1678
S''
sg1679
S"enum('','FIXED','INVALID','WONTFIX','LATER','REMIND','DUPLICATE','WORKSFORME','MOVED')"
p1746
sa(dp1747
g1671
S''
sg1673
S'---'
p1748
sg1674
S'target_milestone'
p1749
sg1676
S'MUL'
p1750
sg1678
S''
sg1679
S'varchar(20)'
p1751
sa(dp1752
g1671
S''
sg1673
S'0'
sg1674
S'qa_contact'
p1753
sg1676
S'MUL'
p1754
sg1678
S''
sg1679
S'mediumint(9)'
p1755
sa(dp1756
g1671
S''
sg1673
S''
sg1674
S'status_whiteboard'
p1757
sg1676
S''
sg1678
S''
sg1679
S'mediumtext'
p1758
sa(dp1759
g1671
S''
sg1673
S'0'
sg1674
S'votes'
p1760
sg1676
S'MUL'
p1761
sg1678
S''
sg1679
S'mediumint(9)'
p1762
sa(dp1763
g1671
S''
sg1673
S''
sg1674
S'keywords'
p1764
sg1676
S''
sg1678
S''
sg1679
S'mediumtext'
p1765
sa(dp1766
g1671
S''
sg1673
S'0000-00-00 00:00:00'
p1767
sg1674
S'lastdiffed'
p1768
sg1676
S''
sg1678
S''
sg1679
S'datetime'
p1769
sa(dp1770
g1671
S''
sg1673
S'0'
sg1674
S'everconfirmed'
p1771
sg1676
S''
sg1678
S''
sg1679
S'tinyint(4)'
p1772
sa(dp1773
g1671
S''
sg1673
S'1'
sg1674
S'reporter_accessible'
p1774
sg1676
S''
sg1678
S''
sg1679
S'tinyint(4)'
p1775
sa(dp1776
g1671
S''
sg1673
S'1'
sg1674
S'cclist_accessible'
p1777
sg1676
S''
sg1678
S''
sg1679
S'tinyint(4)'
p1778
sa(dp1779
g1671
S''
sg1673
S'0.00'
p1780
sg1674
S'estimated_time'
p1781
sg1676
S''
sg1678
S''
sg1679
S'decimal(5,2)'
p1782
sa(dp1783
g1671
S''
sg1673
S'0.00'
p1784
sg1674
S'remaining_time'
p1785
sg1676
S''
sg1678
S''
sg1679
S'decimal(5,2)'
p1786
sa(dp1787
g1671
S''
sg1673
Nsg1674
S'alias'
p1788
sg1676
S'MUL'
p1789
sg1678
S'YES'
p1790
sg1679
S'varchar(20)'
p1791
sa(lp1792
(dp1793
S'Comment'
p1794
S''
sS'Non_unique'
p1795
L0L
sS'Sub_part'
p1796
NsS'Index_type'
p1797
S'BTREE'
p1798
sS'Key_name'
p1799
S'PRIMARY'
p1800
sS'Collation'
p1801
S'A'
sS'Null'
p1802
S''
sS'Seq_in_index'
p1803
L1L
sS'Table'
p1804
S'bugs'
p1805
sS'Cardinality'
p1806
L0L
sS'Packed'
p1807
NsS'Column_name'
p1808
S'bug_id'
p1809
sa(dp1810
g1794
S''
sg1795
L0L
sg1796
Nsg1797
S'BTREE'
p1811
sg1799
S'alias'
p1812
sg1801
S'A'
sg1802
S'YES'
p1813
sg1803
L1L
sg1804
S'bugs'
p1814
sg1806
Nsg1807
Nsg1808
S'alias'
p1815
sa(dp1816
g1794
S''
sg1795
L1L
sg1796
Nsg1797
S'BTREE'
p1817
sg1799
S'assigned_to'
p1818
sg1801
S'A'
sg1802
S''
sg1803
L1L
sg1804
S'bugs'
p1819
sg1806
Nsg1807
Nsg1808
S'assigned_to'
p1820
sa(dp1821
g1794
S''
sg1795
L1L
sg1796
Nsg1797
S'BTREE'
p1822
sg1799
S'creation_ts'
p1823
sg1801
S'A'
sg1802
S''
sg1803
L1L
sg1804
S'bugs'
p1824
sg1806
Nsg1807
Nsg1808
S'creation_ts'
p1825
sa(dp1826
g1794
S''
sg1795
L1L
sg1796
Nsg1797
S'BTREE'
p1827
sg1799
S'delta_ts'
p1828
sg1801
S'A'
sg1802
S''
sg1803
L1L
sg1804
S'bugs'
p1829
sg1806
Nsg1807
Nsg1808
S'delta_ts'
p1830
sa(dp1831
g1794
S''
sg1795
L1L
sg1796
Nsg1797
S'BTREE'
p1832
sg1799
S'bug_severity'
p1833
sg1801
S'A'
sg1802
S''
sg1803
L1L
sg1804
S'bugs'
p1834
sg1806
Nsg1807
Nsg1808
S'bug_severity'
p1835
sa(dp1836
g1794
S''
sg1795
L1L
sg1796
Nsg1797
S'BTREE'
p1837
sg1799
S'bug_status'
p1838
sg1801
S'A'
sg1802
S''
sg1803
L1L
sg1804
S'bugs'
p1839
sg1806
Nsg1807
Nsg1808
S'bug_status'
p1840
sa(dp1841
g1794
S''
sg1795
L1L
sg1796
Nsg1797
S'BTREE'
p1842
sg1799
S'op_sys'
p1843
sg1801
S'A'
sg1802
S''
sg1803
L1L
sg1804
S'bugs'
p1844
sg1806
Nsg1807
Nsg1808
S'op_sys'
p1845
sa(dp1846
g1794
S''
sg1795
L1L
sg1796
Nsg1797
S'BTREE'
p1847
sg1799
S'priority'
p1848
sg1801
S'A'
sg1802
S''
sg1803
L1L
sg1804
S'bugs'
p1849
sg1806
Nsg1807
Nsg1808
S'priority'
p1850
sa(dp1851
g1794
S''
sg1795
L1L
sg1796
Nsg1797
S'BTREE'
p1852
sg1799
S'product_id'
p1853
sg1801
S'A'
sg1802
S''
sg1803
L1L
sg1804
S'bugs'
p1854
sg1806
Nsg1807
Nsg1808
S'product_id'
p1855
sa(dp1856
g1794
S''
sg1795
L1L
sg1796
Nsg1797
S'BTREE'
p1857
sg1799
S'reporter'
p1858
sg1801
S'A'
sg1802
S''
sg1803
L1L
sg1804
S'bugs'
p1859
sg1806
Nsg1807
Nsg1808
S'reporter'
p1860
sa(dp1861
g1794
S''
sg1795
L1L
sg1796
Nsg1797
S'BTREE'
p1862
sg1799
S'version'
p1863
sg1801
S'A'
sg1802
S''
sg1803
L1L
sg1804
S'bugs'
p1864
sg1806
Nsg1807
Nsg1808
S'version'
p1865
sa(dp1866
g1794
S''
sg1795
L1L
sg1796
Nsg1797
S'BTREE'
p1867
sg1799
S'component_id'
p1868
sg1801
S'A'
sg1802
S''
sg1803
L1L
sg1804
S'bugs'
p1869
sg1806
Nsg1807
Nsg1808
S'component_id'
p1870
sa(dp1871
g1794
S''
sg1795
L1L
sg1796
Nsg1797
S'BTREE'
p1872
sg1799
S'resolution'
p1873
sg1801
S'A'
sg1802
S''
sg1803
L1L
sg1804
S'bugs'
p1874
sg1806
Nsg1807
Nsg1808
S'resolution'
p1875
sa(dp1876
g1794
S''
sg1795
L1L
sg1796
Nsg1797
S'BTREE'
p1877
sg1799
S'target_milestone'
p1878
sg1801
S'A'
sg1802
S''
sg1803
L1L
sg1804
S'bugs'
p1879
sg1806
Nsg1807
Nsg1808
S'target_milestone'
p1880
sa(dp1881
g1794
S''
sg1795
L1L
sg1796
Nsg1797
S'BTREE'
p1882
sg1799
S'qa_contact'
p1883
sg1801
S'A'
sg1802
S''
sg1803
L1L
sg1804
S'bugs'
p1884
sg1806
Nsg1807
Nsg1808
S'qa_contact'
p1885
sa(dp1886
g1794
S''
sg1795
L1L
sg1796
Nsg1797
S'BTREE'
p1887
sg1799
S'votes'
p1888
sg1801
S'A'
sg1802
S''
sg1803
L1L
sg1804
S'bugs'
p1889
sg1806
Nsg1807
Nsg1808
S'votes'
p1890
sa(dp1891
g1794
S''
sg1795
L1L
sg1796
Nsg1797
S'FULLTEXT'
p1892
sg1799
S'short_desc'
p1893
sg1801
S'A'
sg1802
S''
sg1803
L1L
sg1804
S'bugs'
p1894
sg1806
Nsg1807
Nsg1808
S'short_desc'
p1895
satp1896
sS'profiles'
p1897
((lp1898
(dp1899
S'Extra'
p1900
S'auto_increment'
p1901
sS'Default'
p1902
NsS'Field'
p1903
S'userid'
p1904
sS'Key'
p1905
S'PRI'
p1906
sS'Null'
p1907
S''
sS'Type'
p1908
S'mediumint(9)'
p1909
sa(dp1910
g1900
S''
sg1902
S''
sg1903
S'login_name'
p1911
sg1905
S'UNI'
p1912
sg1907
S''
sg1908
S'varchar(255)'
p1913
sa(dp1914
g1900
S''
sg1902
Nsg1903
S'cryptpassword'
p1915
sg1905
S''
sg1907
S'YES'
p1916
sg1908
S'varchar(34)'
p1917
sa(dp1918
g1900
S''
sg1902
Nsg1903
S'realname'
p1919
sg1905
S''
sg1907
S'YES'
p1920
sg1908
S'varchar(255)'
p1921
sa(dp1922
g1900
S''
sg1902
S''
sg1903
S'disabledtext'
p1923
sg1905
S''
sg1907
S''
sg1908
S'mediumtext'
p1924
sa(dp1925
g1900
S''
sg1902
S'1'
sg1903
S'mybugslink'
p1926
sg1905
S''
sg1907
S''
sg1908
S'tinyint(4)'
p1927
sa(dp1928
g1900
S''
sg1902
Nsg1903
S'emailflags'
p1929
sg1905
S''
sg1907
S'YES'
p1930
sg1908
S'mediumtext'
p1931
sa(dp1932
g1900
S''
sg1902
S'0000-00-00 00:00:00'
p1933
sg1903
S'refreshed_when'
p1934
sg1905
S''
sg1907
S''
sg1908
S'datetime'
p1935
sa(dp1936
g1900
S''
sg1902
Nsg1903
S'extern_id'
p1937
sg1905
S''
sg1907
S'YES'
p1938
sg1908
S'varchar(64)'
p1939
sa(lp1940
(dp1941
S'Comment'
p1942
S''
sS'Non_unique'
p1943
L0L
sS'Sub_part'
p1944
NsS'Index_type'
p1945
S'BTREE'
p1946
sS'Key_name'
p1947
S'PRIMARY'
p1948
sS'Collation'
p1949
S'A'
sS'Null'
p1950
S''
sS'Seq_in_index'
p1951
L1L
sS'Table'
p1952
S'profiles'
p1953
sS'Cardinality'
p1954
L1L
sS'Packed'
p1955
NsS'Column_name'
p1956
S'userid'
p1957
sa(dp1958
g1942
S''
sg1943
L0L
sg1944
Nsg1945
S'BTREE'
p1959
sg1947
S'login_name'
p1960
sg1949
S'A'
sg1950
S''
sg1951
L1L
sg1952
S'profiles'
p1961
sg1954
L1L
sg1955
Nsg1956
S'login_name'
p1962
satp1963
sS'flags'
p1964
((lp1965
(dp1966
S'Extra'
p1967
S''
sS'Default'
p1968
S'0'
sS'Field'
p1969
S'id'
p1970
sS'Key'
p1971
S'PRI'
p1972
sS'Null'
p1973
S''
sS'Type'
p1974
S'mediumint(9)'
p1975
sa(dp1976
g1967
S''
sg1968
S'0'
sg1969
S'type_id'
p1977
sg1971
S''
sg1973
S''
sg1974
S'smallint(6)'
p1978
sa(dp1979
g1967
S''
sg1968
S''
sg1969
S'status'
p1980
sg1971
S''
sg1973
S''
sg1974
S'char(1)'
p1981
sa(dp1982
g1967
S''
sg1968
S'0'
sg1969
S'bug_id'
p1983
sg1971
S'MUL'
p1984
sg1973
S''
sg1974
S'mediumint(9)'
p1985
sa(dp1986
g1967
S''
sg1968
Nsg1969
S'attach_id'
p1987
sg1971
S''
sg1973
S'YES'
p1988
sg1974
S'mediumint(9)'
p1989
sa(dp1990
g1967
S''
sg1968
S'0000-00-00 00:00:00'
p1991
sg1969
S'creation_date'
p1992
sg1971
S''
sg1973
S''
sg1974
S'datetime'
p1993
sa(dp1994
g1967
S''
sg1968
Nsg1969
S'modification_date'
p1995
sg1971
S''
sg1973
S'YES'
p1996
sg1974
S'datetime'
p1997
sa(dp1998
g1967
S''
sg1968
Nsg1969
S'setter_id'
p1999
sg1971
S'MUL'
p2000
sg1973
S'YES'
p2001
sg1974
S'mediumint(9)'
p2002
sa(dp2003
g1967
S''
sg1968
Nsg1969
S'requestee_id'
p2004
sg1971
S'MUL'
p2005
sg1973
S'YES'
p2006
sg1974
S'mediumint(9)'
p2007
sa(dp2008
g1967
S''
sg1968
S'1'
sg1969
S'is_active'
p2009
sg1971
S''
sg1973
S''
sg1974
S'tinyint(4)'
p2010
sa(lp2011
(dp2012
S'Comment'
p2013
S''
sS'Non_unique'
p2014
L0L
sS'Sub_part'
p2015
NsS'Index_type'
p2016
S'BTREE'
p2017
sS'Key_name'
p2018
S'PRIMARY'
p2019
sS'Collation'
p2020
S'A'
sS'Null'
p2021
S''
sS'Seq_in_index'
p2022
L1L
sS'Table'
p2023
S'flags'
p2024
sS'Cardinality'
p2025
L0L
sS'Packed'
p2026
NsS'Column_name'
p2027
S'id'
p2028
sa(dp2029
g2013
S''
sg2014
L1L
sg2015
Nsg2016
S'BTREE'
p2030
sg2018
S'bug_id'
p2031
sg2020
S'A'
sg2021
S''
sg2022
L1L
sg2023
S'flags'
p2032
sg2025
Nsg2026
Nsg2027
S'bug_id'
p2033
sa(dp2034
g2013
S''
sg2014
L1L
sg2015
Nsg2016
S'BTREE'
p2035
sg2018
S'bug_id'
p2036
sg2020
S'A'
sg2021
S'YES'
p2037
sg2022
L2L
sg2023
S'flags'
p2038
sg2025
Nsg2026
Nsg2027
S'attach_id'
p2039
sa(dp2040
g2013
S''
sg2014
L1L
sg2015
Nsg2016
S'BTREE'
p2041
sg2018
S'setter_id'
p2042
sg2020
S'A'
sg2021
S'YES'
p2043
sg2022
L1L
sg2023
S'flags'
p2044
sg2025
Nsg2026
Nsg2027
S'setter_id'
p2045
sa(dp2046
g2013
S''
sg2014
L1L
sg2015
Nsg2016
S'BTREE'
p2047
sg2018
S'requestee_id'
p2048
sg2020
S'A'
sg2021
S'YES'
p2049
sg2022
L1L
sg2023
S'flags'
p2050
sg2025
Nsg2026
Nsg2027
S'requestee_id'
p2051
satp2052
sS'components'
p2053
((lp2054
(dp2055
S'Extra'
p2056
S'auto_increment'
p2057
sS'Default'
p2058
NsS'Field'
p2059
S'id'
p2060
sS'Key'
p2061
S'PRI'
p2062
sS'Null'
p2063
S''
sS'Type'
p2064
S'smallint(6)'
p2065
sa(dp2066
g2056
S''
sg2058
S''
sg2059
S'name'
p2067
sg2061
S'MUL'
p2068
sg2063
S''
sg2064
S'varchar(64)'
p2069
sa(dp2070
g2056
S''
sg2058
S'0'
sg2059
S'product_id'
p2071
sg2061
S'MUL'
p2072
sg2063
S''
sg2064
S'smallint(6)'
p2073
sa(dp2074
g2056
S''
sg2058
S'0'
sg2059
S'initialowner'
p2075
sg2061
S''
sg2063
S''
sg2064
S'mediumint(9)'
p2076
sa(dp2077
g2056
S''
sg2058
S'0'
sg2059
S'initialqacontact'
p2078
sg2061
S''
sg2063
S''
sg2064
S'mediumint(9)'
p2079
sa(dp2080
g2056
S''
sg2058
S''
sg2059
S'description'
p2081
sg2061
S''
sg2063
S''
sg2064
S'mediumtext'
p2082
sa(lp2083
(dp2084
S'Comment'
p2085
S''
sS'Non_unique'
p2086
L0L
sS'Sub_part'
p2087
NsS'Index_type'
p2088
S'BTREE'
p2089
sS'Key_name'
p2090
S'PRIMARY'
p2091
sS'Collation'
p2092
S'A'
sS'Null'
p2093
S''
sS'Seq_in_index'
p2094
L1L
sS'Table'
p2095
S'components'
p2096
sS'Cardinality'
p2097
L1L
sS'Packed'
p2098
NsS'Column_name'
p2099
S'id'
p2100
sa(dp2101
g2085
S''
sg2086
L0L
sg2087
Nsg2088
S'BTREE'
p2102
sg2090
S'product_id'
p2103
sg2092
S'A'
sg2093
S''
sg2094
L1L
sg2095
S'components'
p2104
sg2097
Nsg2098
Nsg2099
S'product_id'
p2105
sa(dp2106
g2085
S''
sg2086
L0L
sg2087
Nsg2088
S'BTREE'
p2107
sg2090
S'product_id'
p2108
sg2092
S'A'
sg2093
S''
sg2094
L2L
sg2095
S'components'
p2109
sg2097
L1L
sg2098
Nsg2099
S'name'
p2110
sa(dp2111
g2085
S''
sg2086
L1L
sg2087
Nsg2088
S'BTREE'
p2112
sg2090
S'name'
p2113
sg2092
S'A'
sg2093
S''
sg2094
L1L
sg2095
S'components'
p2114
sg2097
Nsg2098
Nsg2099
S'name'
p2115
satp2116
sS'whine_queries'
p2117
((lp2118
(dp2119
S'Extra'
p2120
S'auto_increment'
p2121
sS'Default'
p2122
NsS'Field'
p2123
S'id'
p2124
sS'Key'
p2125
S'PRI'
p2126
sS'Null'
p2127
S''
sS'Type'
p2128
S'mediumint(9)'
p2129
sa(dp2130
g2120
S''
sg2122
S'0'
sg2123
S'eventid'
p2131
sg2125
S'MUL'
p2132
sg2127
S''
sg2128
S'mediumint(9)'
p2133
sa(dp2134
g2120
S''
sg2122
S''
sg2123
S'query_name'
p2135
sg2125
S''
sg2127
S''
sg2128
S'varchar(64)'
p2136
sa(dp2137
g2120
S''
sg2122
S'0'
sg2123
S'sortkey'
p2138
sg2125
S''
sg2127
S''
sg2128
S'smallint(6)'
p2139
sa(dp2140
g2120
S''
sg2122
S'0'
sg2123
S'onemailperbug'
p2141
sg2125
S''
sg2127
S''
sg2128
S'tinyint(4)'
p2142
sa(dp2143
g2120
S''
sg2122
S''
sg2123
S'title'
p2144
sg2125
S''
sg2127
S''
sg2128
S'varchar(128)'
p2145
sa(lp2146
(dp2147
S'Comment'
p2148
S''
sS'Non_unique'
p2149
L0L
sS'Sub_part'
p2150
NsS'Index_type'
p2151
S'BTREE'
p2152
sS'Key_name'
p2153
S'PRIMARY'
p2154
sS'Collation'
p2155
S'A'
sS'Null'
p2156
S''
sS'Seq_in_index'
p2157
L1L
sS'Table'
p2158
S'whine_queries'
p2159
sS'Cardinality'
p2160
L0L
sS'Packed'
p2161
NsS'Column_name'
p2162
S'id'
p2163
sa(dp2164
g2148
S''
sg2149
L1L
sg2150
Nsg2151
S'BTREE'
p2165
sg2153
S'eventid'
p2166
sg2155
S'A'
sg2156
S''
sg2157
L1L
sg2158
S'whine_queries'
p2167
sg2160
Nsg2161
Nsg2162
S'eventid'
p2168
satp2169
sS'group_control_map'
p2170
((lp2171
(dp2172
S'Extra'
p2173
S''
sS'Default'
p2174
S'0'
sS'Field'
p2175
S'group_id'
p2176
sS'Key'
p2177
S'PRI'
p2178
sS'Null'
p2179
S''
sS'Type'
p2180
S'mediumint(9)'
p2181
sa(dp2182
g2173
S''
sg2174
S'0'
sg2175
S'product_id'
p2183
sg2177
S'PRI'
p2184
sg2179
S''
sg2180
S'mediumint(9)'
p2185
sa(dp2186
g2173
S''
sg2174
S'0'
sg2175
S'entry'
p2187
sg2177
S''
sg2179
S''
sg2180
S'tinyint(4)'
p2188
sa(dp2189
g2173
S''
sg2174
S'0'
sg2175
S'membercontrol'
p2190
sg2177
S''
sg2179
S''
sg2180
S'tinyint(4)'
p2191
sa(dp2192
g2173
S''
sg2174
S'0'
sg2175
S'othercontrol'
p2193
sg2177
S''
sg2179
S''
sg2180
S'tinyint(4)'
p2194
sa(dp2195
g2173
S''
sg2174
S'0'
sg2175
S'canedit'
p2196
sg2177
S''
sg2179
S''
sg2180
S'tinyint(4)'
p2197
sa(lp2198
(dp2199
S'Comment'
p2200
S''
sS'Non_unique'
p2201
L0L
sS'Sub_part'
p2202
NsS'Index_type'
p2203
S'BTREE'
p2204
sS'Key_name'
p2205
S'product_id'
p2206
sS'Collation'
p2207
S'A'
sS'Null'
p2208
S''
sS'Seq_in_index'
p2209
L1L
sS'Table'
p2210
S'group_control_map'
p2211
sS'Cardinality'
p2212
NsS'Packed'
p2213
NsS'Column_name'
p2214
S'product_id'
p2215
sa(dp2216
g2200
S''
sg2201
L0L
sg2202
Nsg2203
S'BTREE'
p2217
sg2205
S'product_id'
p2218
sg2207
S'A'
sg2208
S''
sg2209
L2L
sg2210
S'group_control_map'
p2219
sg2212
L0L
sg2213
Nsg2214
S'group_id'
p2220
sa(dp2221
g2200
S''
sg2201
L1L
sg2202
Nsg2203
S'BTREE'
p2222
sg2205
S'group_id'
p2223
sg2207
S'A'
sg2208
S''
sg2209
L1L
sg2210
S'group_control_map'
p2224
sg2212
Nsg2213
Nsg2214
S'group_id'
p2225
satp2226
st.