(S'2.19.2'
p1
(dp2
S'bug_group_map'
p3
((lp4
(dp5
S'Extra'
p6
S''
sS'Default'
p7
S'0'
sS'Field'
p8
S'bug_id'
p9
sS'Key'
p10
S'PRI'
p11
sS'Null'
p12
S''
sS'Type'
p13
S'mediumint(9)'
p14
sa(dp15
g6
S''
sg7
S'0'
sg8
S'group_id'
p16
sg10
S'PRI'
p17
sg12
S''
sg13
S'mediumint(9)'
p18
sa(lp19
(dp20
S'Comment'
p21
S''
sS'Non_unique'
p22
L0L
sS'Sub_part'
p23
NsS'Index_type'
p24
S'BTREE'
p25
sS'Key_name'
p26
S'bug_id'
p27
sS'Collation'
p28
S'A'
sS'Null'
p29
S''
sS'Seq_in_index'
p30
L1L
sS'Table'
p31
S'bug_group_map'
p32
sS'Cardinality'
p33
NsS'Packed'
p34
NsS'Column_name'
p35
S'bug_id'
p36
sa(dp37
g21
S''
sg22
L0L
sg23
Nsg24
S'BTREE'
p38
sg26
S'bug_id'
p39
sg28
S'A'
sg29
S''
sg30
L2L
sg31
S'bug_group_map'
p40
sg33
L0L
sg34
Nsg35
S'group_id'
p41
sa(dp42
g21
S''
sg22
L1L
sg23
Nsg24
S'BTREE'
p43
sg26
S'group_id'
p44
sg28
S'A'
sg29
S''
sg30
L1L
sg31
S'bug_group_map'
p45
sg33
Nsg34
Nsg35
S'group_id'
p46
satp47
sS'attachments'
p48
((lp49
(dp50
S'Extra'
p51
S'auto_increment'
p52
sS'Default'
p53
NsS'Field'
p54
S'attach_id'
p55
sS'Key'
p56
S'PRI'
p57
sS'Null'
p58
S''
sS'Type'
p59
S'mediumint(9)'
p60
sa(dp61
g51
S''
sg53
S'0'
sg54
S'bug_id'
p62
sg56
S'MUL'
p63
sg58
S''
sg59
S'mediumint(9)'
p64
sa(dp65
g51
S''
sg53
S'0000-00-00 00:00:00'
p66
sg54
S'creation_ts'
p67
sg56
S'MUL'
p68
sg58
S''
sg59
S'datetime'
p69
sa(dp70
g51
S''
sg53
S''
sg54
S'description'
p71
sg56
S''
sg58
S''
sg59
S'mediumtext'
p72
sa(dp73
g51
S''
sg53
S''
sg54
S'mimetype'
p74
sg56
S''
sg58
S''
sg59
S'mediumtext'
p75
sa(dp76
g51
S''
sg53
Nsg54
S'ispatch'
p77
sg56
S''
sg58
S'YES'
p78
sg59
S'tinyint(4)'
p79
sa(dp80
g51
S''
sg53
S''
sg54
S'filename'
p81
sg56
S''
sg58
S''
sg59
S'varchar(100)'
p82
sa(dp83
g51
S''
sg53
S''
sg54
S'thedata'
p84
sg56
S''
sg58
S''
sg59
S'longblob'
p85
sa(dp86
g51
S''
sg53
S'0'
sg54
S'submitter_id'
p87
sg56
S''
sg58
S''
sg59
S'mediumint(9)'
p88
sa(dp89
g51
S''
sg53
S'0'
sg54
S'isobsolete'
p90
sg56
S''
sg58
S''
sg59
S'tinyint(4)'
p91
sa(dp92
g51
S''
sg53
S'0'
sg54
S'isprivate'
p93
sg56
S''
sg58
S''
sg59
S'tinyint(4)'
p94
sa(lp95
(dp96
S'Comment'
p97
S''
sS'Non_unique'
p98
L0L
sS'Sub_part'
p99
NsS'Index_type'
p100
S'BTREE'
p101
sS'Key_name'
p102
S'PRIMARY'
p103
sS'Collation'
p104
S'A'
sS'Null'
p105
S''
sS'Seq_in_index'
p106
L1L
sS'Table'
p107
S'attachments'
p108
sS'Cardinality'
p109
L0L
sS'Packed'
p110
NsS'Column_name'
p111
S'attach_id'
p112
sa(dp113
g97
S''
sg98
L1L
sg99
Nsg100
S'BTREE'
p114
sg102
S'bug_id'
p115
sg104
S'A'
sg105
S''
sg106
L1L
sg107
S'attachments'
p116
sg109
Nsg110
Nsg111
S'bug_id'
p117
sa(dp118
g97
S''
sg98
L1L
sg99
Nsg100
S'BTREE'
p119
sg102
S'creation_ts'
p120
sg104
S'A'
sg105
S''
sg106
L1L
sg107
S'attachments'
p121
sg109
Nsg110
Nsg111
S'creation_ts'
p122
satp123
sS'cc'
p124
((lp125
(dp126
S'Extra'
p127
S''
sS'Default'
p128
S'0'
sS'Field'
p129
S'bug_id'
p130
sS'Key'
p131
S'PRI'
p132
sS'Null'
p133
S''
sS'Type'
p134
S'mediumint(9)'
p135
sa(dp136
g127
S''
sg128
S'0'
sg129
S'who'
p137
sg131
S'PRI'
p138
sg133
S''
sg134
S'mediumint(9)'
p139
sa(lp140
(dp141
S'Comment'
p142
S''
sS'Non_unique'
p143
L0L
sS'Sub_part'
p144
NsS'Index_type'
p145
S'BTREE'
p146
sS'Key_name'
p147
S'bug_id'
p148
sS'Collation'
p149
S'A'
sS'Null'
p150
S''
sS'Seq_in_index'
p151
L1L
sS'Table'
p152
S'cc'
p153
sS'Cardinality'
p154
NsS'Packed'
p155
NsS'Column_name'
p156
S'bug_id'
p157
sa(dp158
g142
S''
sg143
L0L
sg144
Nsg145
S'BTREE'
p159
sg147
S'bug_id'
p160
sg149
S'A'
sg150
S''
sg151
L2L
sg152
S'cc'
p161
sg154
L0L
sg155
Nsg156
S'who'
p162
sa(dp163
g142
S''
sg143
L1L
sg144
Nsg145
S'BTREE'
p164
sg147
S'who'
p165
sg149
S'A'
sg150
S''
sg151
L1L
sg152
S'cc'
p166
sg154
Nsg155
Nsg156
S'who'
p167
satp168
sS'series'
p169
((lp170
(dp171
S'Extra'
p172
S'auto_increment'
p173
sS'Default'
p174
NsS'Field'
p175
S'series_id'
p176
sS'Key'
p177
S'PRI'
p178
sS'Null'
p179
S''
sS'Type'
p180
S'mediumint(9)'
p181
sa(dp182
g172
S''
sg174
S'0'
sg175
S'creator'
p183
sg177
S'MUL'
p184
sg179
S''
sg180
S'mediumint(9)'
p185
sa(dp186
g172
S''
sg174
S'0'
sg175
S'category'
p187
sg177
S''
sg179
S''
sg180
S'smallint(6)'
p188
sa(dp189
g172
S''
sg174
S'0'
sg175
S'subcategory'
p190
sg177
S''
sg179
S''
sg180
S'smallint(6)'
p191
sa(dp192
g172
S''
sg174
S''
sg175
S'name'
p193
sg177
S''
sg179
S''
sg180
S'varchar(64)'
p194
sa(dp195
g172
S''
sg174
S'0'
sg175
S'frequency'
p196
sg177
S''
sg179
S''
sg180
S'smallint(6)'
p197
sa(dp198
g172
S''
sg174
Nsg175
S'last_viewed'
p199
sg177
S''
sg179
S'YES'
p200
sg180
S'datetime'
p201
sa(dp202
g172
S''
sg174
S''
sg175
S'query'
p203
sg177
S''
sg179
S''
sg180
S'mediumtext'
p204
sa(dp205
g172
S''
sg174
S'0'
sg175
S'public'
p206
sg177
S''
sg179
S''
sg180
S'tinyint(1)'
p207
sa(lp208
(dp209
S'Comment'
p210
S''
sS'Non_unique'
p211
L0L
sS'Sub_part'
p212
NsS'Index_type'
p213
S'BTREE'
p214
sS'Key_name'
p215
S'PRIMARY'
p216
sS'Collation'
p217
S'A'
sS'Null'
p218
S''
sS'Seq_in_index'
p219
L1L
sS'Table'
p220
S'series'
p221
sS'Cardinality'
p222
L32L
sS'Packed'
p223
NsS'Column_name'
p224
S'series_id'
p225
sa(dp226
g210
S''
sg211
L0L
sg212
Nsg213
S'BTREE'
p227
sg215
S'creator_2'
p228
sg217
S'A'
sg218
S''
sg219
L1L
sg220
S'series'
p229
sg222
Nsg223
Nsg224
S'creator'
p230
sa(dp231
g210
S''
sg211
L0L
sg212
Nsg213
S'BTREE'
p232
sg215
S'creator_2'
p233
sg217
S'A'
sg218
S''
sg219
L2L
sg220
S'series'
p234
sg222
Nsg223
Nsg224
S'category'
p235
sa(dp236
g210
S''
sg211
L0L
sg212
Nsg213
S'BTREE'
p237
sg215
S'creator_2'
p238
sg217
S'A'
sg218
S''
sg219
L3L
sg220
S'series'
p239
sg222
Nsg223
Nsg224
S'subcategory'
p240
sa(dp241
g210
S''
sg211
L0L
sg212
Nsg213
S'BTREE'
p242
sg215
S'creator_2'
p243
sg217
S'A'
sg218
S''
sg219
L4L
sg220
S'series'
p244
sg222
L32L
sg223
Nsg224
S'name'
p245
sa(dp246
g210
S''
sg211
L1L
sg212
Nsg213
S'BTREE'
p247
sg215
S'creator'
p248
sg217
S'A'
sg218
S''
sg219
L1L
sg220
S'series'
p249
sg222
Nsg223
Nsg224
S'creator'
p250
satp251
sS'quips'
p252
((lp253
(dp254
S'Extra'
p255
S'auto_increment'
p256
sS'Default'
p257
NsS'Field'
p258
S'quipid'
p259
sS'Key'
p260
S'PRI'
p261
sS'Null'
p262
S''
sS'Type'
p263
S'mediumint(9)'
p264
sa(dp265
g255
S''
sg257
S'0'
sg258
S'userid'
p266
sg260
S''
sg262
S''
sg263
S'mediumint(9)'
p267
sa(dp268
g255
S''
sg257
S''
sg258
S'quip'
p269
sg260
S''
sg262
S''
sg263
S'text'
p270
sa(dp271
g255
S''
sg257
S'1'
sg258
S'approved'
p272
sg260
S''
sg262
S''
sg263
S'tinyint(1)'
p273
sa(lp274
(dp275
S'Comment'
p276
S''
sS'Non_unique'
p277
L0L
sS'Sub_part'
p278
NsS'Index_type'
p279
S'BTREE'
p280
sS'Key_name'
p281
S'PRIMARY'
p282
sS'Collation'
p283
S'A'
sS'Null'
p284
S''
sS'Seq_in_index'
p285
L1L
sS'Table'
p286
S'quips'
p287
sS'Cardinality'
p288
L0L
sS'Packed'
p289
NsS'Column_name'
p290
S'quipid'
p291
satp292
sS'series_categories'
p293
((lp294
(dp295
S'Extra'
p296
S'auto_increment'
p297
sS'Default'
p298
NsS'Field'
p299
S'id'
p300
sS'Key'
p301
S'PRI'
p302
sS'Null'
p303
S''
sS'Type'
p304
S'smallint(6)'
p305
sa(dp306
g296
S''
sg298
S''
sg299
S'name'
p307
sg301
S'UNI'
p308
sg303
S''
sg304
S'varchar(64)'
p309
sa(lp310
(dp311
S'Comment'
p312
S''
sS'Non_unique'
p313
L0L
sS'Sub_part'
p314
NsS'Index_type'
p315
S'BTREE'
p316
sS'Key_name'
p317
S'PRIMARY'
p318
sS'Collation'
p319
S'A'
sS'Null'
p320
S''
sS'Seq_in_index'
p321
L1L
sS'Table'
p322
S'series_categories'
p323
sS'Cardinality'
p324
L2L
sS'Packed'
p325
NsS'Column_name'
p326
S'id'
p327
sa(dp328
g312
S''
sg313
L0L
sg314
Nsg315
S'BTREE'
p329
sg317
S'name'
p330
sg319
S'A'
sg320
S''
sg321
L1L
sg322
S'series_categories'
p331
sg324
L2L
sg325
Nsg326
S'name'
p332
satp333
sS'group_group_map'
p334
((lp335
(dp336
S'Extra'
p337
S''
sS'Default'
p338
S'0'
sS'Field'
p339
S'member_id'
p340
sS'Key'
p341
S'PRI'
p342
sS'Null'
p343
S''
sS'Type'
p344
S'mediumint(9)'
p345
sa(dp346
g337
S''
sg338
S'0'
sg339
S'grantor_id'
p347
sg341
S'PRI'
p348
sg343
S''
sg344
S'mediumint(9)'
p349
sa(dp350
g337
S''
sg338
S'0'
sg339
S'grant_type'
p351
sg341
S'PRI'
p352
sg343
S''
sg344
S'tinyint(4)'
p353
sa(lp354
(dp355
S'Comment'
p356
S''
sS'Non_unique'
p357
L0L
sS'Sub_part'
p358
NsS'Index_type'
p359
S'BTREE'
p360
sS'Key_name'
p361
S'member_id'
p362
sS'Collation'
p363
S'A'
sS'Null'
p364
S''
sS'Seq_in_index'
p365
L1L
sS'Table'
p366
S'group_group_map'
p367
sS'Cardinality'
p368
NsS'Packed'
p369
NsS'Column_name'
p370
S'member_id'
p371
sa(dp372
g356
S''
sg357
L0L
sg358
Nsg359
S'BTREE'
p373
sg361
S'member_id'
p374
sg363
S'A'
sg364
S''
sg365
L2L
sg366
S'group_group_map'
p375
sg368
Nsg369
Nsg370
S'grantor_id'
p376
sa(dp377
g356
S''
sg357
L0L
sg358
Nsg359
S'BTREE'
p378
sg361
S'member_id'
p379
sg363
S'A'
sg364
S''
sg365
L3L
sg366
S'group_group_map'
p380
sg368
L23L
sg369
Nsg370
S'grant_type'
p381
satp382
sS'keywords'
p383
((lp384
(dp385
S'Extra'
p386
S''
sS'Default'
p387
S'0'
sS'Field'
p388
S'bug_id'
p389
sS'Key'
p390
S'PRI'
p391
sS'Null'
p392
S''
sS'Type'
p393
S'mediumint(9)'
p394
sa(dp395
g386
S''
sg387
S'0'
sg388
S'keywordid'
p396
sg390
S'PRI'
p397
sg392
S''
sg393
S'smallint(6)'
p398
sa(lp399
(dp400
S'Comment'
p401
S''
sS'Non_unique'
p402
L0L
sS'Sub_part'
p403
NsS'Index_type'
p404
S'BTREE'
p405
sS'Key_name'
p406
S'bug_id'
p407
sS'Collation'
p408
S'A'
sS'Null'
p409
S''
sS'Seq_in_index'
p410
L1L
sS'Table'
p411
S'keywords'
p412
sS'Cardinality'
p413
NsS'Packed'
p414
NsS'Column_name'
p415
S'bug_id'
p416
sa(dp417
g401
S''
sg402
L0L
sg403
Nsg404
S'BTREE'
p418
sg406
S'bug_id'
p419
sg408
S'A'
sg409
S''
sg410
L2L
sg411
S'keywords'
p420
sg413
L0L
sg414
Nsg415
S'keywordid'
p421
sa(dp422
g401
S''
sg402
L1L
sg403
Nsg404
S'BTREE'
p423
sg406
S'keywordid'
p424
sg408
S'A'
sg409
S''
sg410
L1L
sg411
S'keywords'
p425
sg413
Nsg414
Nsg415
S'keywordid'
p426
satp427
sS'series_data'
p428
((lp429
(dp430
S'Extra'
p431
S''
sS'Default'
p432
S'0'
sS'Field'
p433
S'series_id'
p434
sS'Key'
p435
S'PRI'
p436
sS'Null'
p437
S''
sS'Type'
p438
S'mediumint(9)'
p439
sa(dp440
g431
S''
sg432
S'0000-00-00 00:00:00'
p441
sg433
S'series_date'
p442
sg435
S'PRI'
p443
sg437
S''
sg438
S'datetime'
p444
sa(dp445
g431
S''
sg432
S'0'
sg433
S'series_value'
p446
sg435
S''
sg437
S''
sg438
S'mediumint(9)'
p447
sa(lp448
(dp449
S'Comment'
p450
S''
sS'Non_unique'
p451
L0L
sS'Sub_part'
p452
NsS'Index_type'
p453
S'BTREE'
p454
sS'Key_name'
p455
S'series_id'
p456
sS'Collation'
p457
S'A'
sS'Null'
p458
S''
sS'Seq_in_index'
p459
L1L
sS'Table'
p460
S'series_data'
p461
sS'Cardinality'
p462
NsS'Packed'
p463
NsS'Column_name'
p464
S'series_id'
p465
sa(dp466
g450
S''
sg451
L0L
sg452
Nsg453
S'BTREE'
p467
sg455
S'series_id'
p468
sg457
S'A'
sg458
S''
sg459
L2L
sg460
S'series_data'
p469
sg462
L0L
sg463
Nsg464
S'series_date'
p470
satp471
sS'keyworddefs'
p472
((lp473
(dp474
S'Extra'
p475
S''
sS'Default'
p476
S'0'
sS'Field'
p477
S'id'
p478
sS'Key'
p479
S'PRI'
p480
sS'Null'
p481
S''
sS'Type'
p482
S'smallint(6)'
p483
sa(dp484
g475
S''
sg476
S''
sg477
S'name'
p485
sg479
S'UNI'
p486
sg481
S''
sg482
S'varchar(64)'
p487
sa(dp488
g475
S''
sg476
Nsg477
S'description'
p489
sg479
S''
sg481
S'YES'
p490
sg482
S'mediumtext'
p491
sa(lp492
(dp493
S'Comment'
p494
S''
sS'Non_unique'
p495
L0L
sS'Sub_part'
p496
NsS'Index_type'
p497
S'BTREE'
p498
sS'Key_name'
p499
S'PRIMARY'
p500
sS'Collation'
p501
S'A'
sS'Null'
p502
S''
sS'Seq_in_index'
p503
L1L
sS'Table'
p504
S'keyworddefs'
p505
sS'Cardinality'
p506
L0L
sS'Packed'
p507
NsS'Column_name'
p508
S'id'
p509
sa(dp510
g494
S''
sg495
L0L
sg496
Nsg497
S'BTREE'
p511
sg499
S'name'
p512
sg501
S'A'
sg502
S''
sg503
L1L
sg504
S'keyworddefs'
p513
sg506
L0L
sg507
Nsg508
S'name'
p514
satp515
sS'flagexclusions'
p516
((lp517
(dp518
S'Extra'
p519
S''
sS'Default'
p520
S'0'
sS'Field'
p521
S'type_id'
p522
sS'Key'
p523
S'MUL'
p524
sS'Null'
p525
S''
sS'Type'
p526
S'smallint(6)'
p527
sa(dp528
g519
S''
sg520
Nsg521
S'product_id'
p529
sg523
S''
sg525
S'YES'
p530
sg526
S'smallint(6)'
p531
sa(dp532
g519
S''
sg520
Nsg521
S'component_id'
p533
sg523
S''
sg525
S'YES'
p534
sg526
S'smallint(6)'
p535
sa(lp536
(dp537
S'Comment'
p538
S''
sS'Non_unique'
p539
L1L
sS'Sub_part'
p540
NsS'Index_type'
p541
S'BTREE'
p542
sS'Key_name'
p543
S'type_id'
p544
sS'Collation'
p545
S'A'
sS'Null'
p546
S''
sS'Seq_in_index'
p547
L1L
sS'Table'
p548
S'flagexclusions'
p549
sS'Cardinality'
p550
NsS'Packed'
p551
NsS'Column_name'
p552
S'type_id'
p553
sa(dp554
g538
S''
sg539
L1L
sg540
Nsg541
S'BTREE'
p555
sg543
S'type_id'
p556
sg545
S'A'
sg546
S'YES'
p557
sg547
L2L
sg548
S'flagexclusions'
p558
sg550
Nsg551
Nsg552
S'product_id'
p559
sa(dp560
g538
S''
sg539
L1L
sg540
Nsg541
S'BTREE'
p561
sg543
S'type_id'
p562
sg545
S'A'
sg546
S'YES'
p563
sg547
L3L
sg548
S'flagexclusions'
p564
sg550
Nsg551
Nsg552
S'component_id'
p565
satp566
sS'votes'
p567
((lp568
(dp569
S'Extra'
p570
S''
sS'Default'
p571
S'0'
sS'Field'
p572
S'who'
p573
sS'Key'
p574
S'MUL'
p575
sS'Null'
p576
S''
sS'Type'
p577
S'mediumint(9)'
p578
sa(dp579
g570
S''
sg571
S'0'
sg572
S'bug_id'
p580
sg574
S'MUL'
p581
sg576
S''
sg577
S'mediumint(9)'
p582
sa(dp583
g570
S''
sg571
S'0'
sg572
S'vote_count'
p584
sg574
S''
sg576
S''
sg577
S'smallint(6)'
p585
sa(lp586
(dp587
S'Comment'
p588
S''
sS'Non_unique'
p589
L1L
sS'Sub_part'
p590
NsS'Index_type'
p591
S'BTREE'
p592
sS'Key_name'
p593
S'who'
p594
sS'Collation'
p595
S'A'
sS'Null'
p596
S''
sS'Seq_in_index'
p597
L1L
sS'Table'
p598
S'votes'
p599
sS'Cardinality'
p600
NsS'Packed'
p601
NsS'Column_name'
p602
S'who'
p603
sa(dp604
g588
S''
sg589
L1L
sg590
Nsg591
S'BTREE'
p605
sg593
S'bug_id'
p606
sg595
S'A'
sg596
S''
sg597
L1L
sg598
S'votes'
p607
sg600
Nsg601
Nsg602
S'bug_id'
p608
satp609
sS'products'
p610
((lp611
(dp612
S'Extra'
p613
S'auto_increment'
p614
sS'Default'
p615
NsS'Field'
p616
S'id'
p617
sS'Key'
p618
S'PRI'
p619
sS'Null'
p620
S''
sS'Type'
p621
S'smallint(6)'
p622
sa(dp623
g613
S''
sg615
S''
sg616
S'name'
p624
sg618
S'UNI'
p625
sg620
S''
sg621
S'varchar(64)'
p626
sa(dp627
g613
S''
sg615
S'1'
sg616
S'classification_id'
p628
sg618
S''
sg620
S''
sg621
S'smallint(6)'
p629
sa(dp630
g613
S''
sg615
Nsg616
S'description'
p631
sg618
S''
sg620
S'YES'
p632
sg621
S'mediumtext'
p633
sa(dp634
g613
S''
sg615
S''
sg616
S'milestoneurl'
p635
sg618
S''
sg620
S''
sg621
S'tinytext'
p636
sa(dp637
g613
S''
sg615
S'0'
sg616
S'disallownew'
p638
sg618
S''
sg620
S''
sg621
S'tinyint(4)'
p639
sa(dp640
g613
S''
sg615
S'0'
sg616
S'votesperuser'
p641
sg618
S''
sg620
S''
sg621
S'smallint(6)'
p642
sa(dp643
g613
S''
sg615
S'10000'
p644
sg616
S'maxvotesperbug'
p645
sg618
S''
sg620
S''
sg621
S'smallint(6)'
p646
sa(dp647
g613
S''
sg615
S'0'
sg616
S'votestoconfirm'
p648
sg618
S''
sg620
S''
sg621
S'smallint(6)'
p649
sa(dp650
g613
S''
sg615
S'---'
p651
sg616
S'defaultmilestone'
p652
sg618
S''
sg620
S''
sg621
S'varchar(20)'
p653
sa(lp654
(dp655
S'Comment'
p656
S''
sS'Non_unique'
p657
L0L
sS'Sub_part'
p658
NsS'Index_type'
p659
S'BTREE'
p660
sS'Key_name'
p661
S'PRIMARY'
p662
sS'Collation'
p663
S'A'
sS'Null'
p664
S''
sS'Seq_in_index'
p665
L1L
sS'Table'
p666
S'products'
p667
sS'Cardinality'
p668
L1L
sS'Packed'
p669
NsS'Column_name'
p670
S'id'
p671
sa(dp672
g656
S''
sg657
L0L
sg658
Nsg659
S'BTREE'
p673
sg661
S'name'
p674
sg663
S'A'
sg664
S''
sg665
L1L
sg666
S'products'
p675
sg668
L1L
sg669
Nsg670
S'name'
p676
satp677
sS'duplicates'
p678
((lp679
(dp680
S'Extra'
p681
S''
sS'Default'
p682
S'0'
sS'Field'
p683
S'dupe_of'
p684
sS'Key'
p685
S''
sS'Null'
p686
S''
sS'Type'
p687
S'mediumint(9)'
p688
sa(dp689
g681
S''
sg682
S'0'
sg683
S'dupe'
p690
sg685
S'PRI'
p691
sg686
S''
sg687
S'mediumint(9)'
p692
sa(lp693
(dp694
S'Comment'
p695
S''
sS'Non_unique'
p696
L0L
sS'Sub_part'
p697
NsS'Index_type'
p698
S'BTREE'
p699
sS'Key_name'
p700
S'PRIMARY'
p701
sS'Collation'
p702
S'A'
sS'Null'
p703
S''
sS'Seq_in_index'
p704
L1L
sS'Table'
p705
S'duplicates'
p706
sS'Cardinality'
p707
L0L
sS'Packed'
p708
NsS'Column_name'
p709
S'dupe'
p710
satp711
sS'logincookies'
p712
((lp713
(dp714
S'Extra'
p715
S'auto_increment'
p716
sS'Default'
p717
NsS'Field'
p718
S'cookie'
p719
sS'Key'
p720
S'PRI'
p721
sS'Null'
p722
S''
sS'Type'
p723
S'mediumint(9)'
p724
sa(dp725
g715
S''
sg717
S'0'
sg718
S'userid'
p726
sg720
S''
sg722
S''
sg723
S'mediumint(9)'
p727
sa(dp728
g715
S''
sg717
S''
sg718
S'ipaddr'
p729
sg720
S''
sg722
S''
sg723
S'varchar(40)'
p730
sa(dp731
g715
S''
sg717
S'0000-00-00 00:00:00'
p732
sg718
S'lastused'
p733
sg720
S'MUL'
p734
sg722
S''
sg723
S'datetime'
p735
sa(lp736
(dp737
S'Comment'
p738
S''
sS'Non_unique'
p739
L0L
sS'Sub_part'
p740
NsS'Index_type'
p741
S'BTREE'
p742
sS'Key_name'
p743
S'PRIMARY'
p744
sS'Collation'
p745
S'A'
sS'Null'
p746
S''
sS'Seq_in_index'
p747
L1L
sS'Table'
p748
S'logincookies'
p749
sS'Cardinality'
p750
L0L
sS'Packed'
p751
NsS'Column_name'
p752
S'cookie'
p753
sa(dp754
g738
S''
sg739
L1L
sg740
Nsg741
S'BTREE'
p755
sg743
S'lastused'
p756
sg745
S'A'
sg746
S''
sg747
L1L
sg748
S'logincookies'
p757
sg750
Nsg751
Nsg752
S'lastused'
p758
satp759
sS'fielddefs'
p760
((lp761
(dp762
S'Extra'
p763
S'auto_increment'
p764
sS'Default'
p765
NsS'Field'
p766
S'fieldid'
p767
sS'Key'
p768
S'PRI'
p769
sS'Null'
p770
S''
sS'Type'
p771
S'mediumint(9)'
p772
sa(dp773
g763
S''
sg765
S''
sg766
S'name'
p774
sg768
S'UNI'
p775
sg770
S''
sg771
S'varchar(64)'
p776
sa(dp777
g763
S''
sg765
S''
sg766
S'description'
p778
sg768
S''
sg770
S''
sg771
S'mediumtext'
p779
sa(dp780
g763
S''
sg765
S'0'
sg766
S'mailhead'
p781
sg768
S''
sg770
S''
sg771
S'tinyint(4)'
p782
sa(dp783
g763
S''
sg765
S'0'
sg766
S'sortkey'
p784
sg768
S'MUL'
p785
sg770
S''
sg771
S'smallint(6)'
p786
sa(lp787
(dp788
S'Comment'
p789
S''
sS'Non_unique'
p790
L0L
sS'Sub_part'
p791
NsS'Index_type'
p792
S'BTREE'
p793
sS'Key_name'
p794
S'PRIMARY'
p795
sS'Collation'
p796
S'A'
sS'Null'
p797
S''
sS'Seq_in_index'
p798
L1L
sS'Table'
p799
S'fielddefs'
p800
sS'Cardinality'
p801
L47L
sS'Packed'
p802
NsS'Column_name'
p803
S'fieldid'
p804
sa(dp805
g789
S''
sg790
L0L
sg791
Nsg792
S'BTREE'
p806
sg794
S'name'
p807
sg796
S'A'
sg797
S''
sg798
L1L
sg799
S'fielddefs'
p808
sg801
L47L
sg802
Nsg803
S'name'
p809
sa(dp810
g789
S''
sg790
L1L
sg791
Nsg792
S'BTREE'
p811
sg794
S'sortkey'
p812
sg796
S'A'
sg797
S''
sg798
L1L
sg799
S'fielddefs'
p813
sg801
Nsg802
Nsg803
S'sortkey'
p814
satp815
sS'whine_events'
p816
((lp817
(dp818
S'Extra'
p819
S'auto_increment'
p820
sS'Default'
p821
NsS'Field'
p822
S'id'
p823
sS'Key'
p824
S'PRI'
p825
sS'Null'
p826
S''
sS'Type'
p827
S'mediumint(9)'
p828
sa(dp829
g819
S''
sg821
S'0'
sg822
S'owner_userid'
p830
sg824
S''
sg826
S''
sg827
S'mediumint(9)'
p831
sa(dp832
g819
S''
sg821
Nsg822
S'subject'
p833
sg824
S''
sg826
S'YES'
p834
sg827
S'varchar(128)'
p835
sa(dp836
g819
S''
sg821
Nsg822
S'body'
p837
sg824
S''
sg826
S'YES'
p838
sg827
S'mediumtext'
p839
sa(lp840
(dp841
S'Comment'
p842
S''
sS'Non_unique'
p843
L0L
sS'Sub_part'
p844
NsS'Index_type'
p845
S'BTREE'
p846
sS'Key_name'
p847
S'PRIMARY'
p848
sS'Collation'
p849
S'A'
sS'Null'
p850
S''
sS'Seq_in_index'
p851
L1L
sS'Table'
p852
S'whine_events'
p853
sS'Cardinality'
p854
L0L
sS'Packed'
p855
NsS'Column_name'
p856
S'id'
p857
satp858
sS'flaginclusions'
p859
((lp860
(dp861
S'Extra'
p862
S''
sS'Default'
p863
S'0'
sS'Field'
p864
S'type_id'
p865
sS'Key'
p866
S'MUL'
p867
sS'Null'
p868
S''
sS'Type'
p869
S'smallint(6)'
p870
sa(dp871
g862
S''
sg863
Nsg864
S'product_id'
p872
sg866
S''
sg868
S'YES'
p873
sg869
S'smallint(6)'
p874
sa(dp875
g862
S''
sg863
Nsg864
S'component_id'
p876
sg866
S''
sg868
S'YES'
p877
sg869
S'smallint(6)'
p878
sa(lp879
(dp880
S'Comment'
p881
S''
sS'Non_unique'
p882
L1L
sS'Sub_part'
p883
NsS'Index_type'
p884
S'BTREE'
p885
sS'Key_name'
p886
S'type_id'
p887
sS'Collation'
p888
S'A'
sS'Null'
p889
S''
sS'Seq_in_index'
p890
L1L
sS'Table'
p891
S'flaginclusions'
p892
sS'Cardinality'
p893
NsS'Packed'
p894
NsS'Column_name'
p895
S'type_id'
p896
sa(dp897
g881
S''
sg882
L1L
sg883
Nsg884
S'BTREE'
p898
sg886
S'type_id'
p899
sg888
S'A'
sg889
S'YES'
p900
sg890
L2L
sg891
S'flaginclusions'
p901
sg893
Nsg894
Nsg895
S'product_id'
p902
sa(dp903
g881
S''
sg882
L1L
sg883
Nsg884
S'BTREE'
p904
sg886
S'type_id'
p905
sg888
S'A'
sg889
S'YES'
p906
sg890
L3L
sg891
S'flaginclusions'
p907
sg893
Nsg894
Nsg895
S'component_id'
p908
satp909
sS'profiles_activity'
p910
((lp911
(dp912
S'Extra'
p913
S''
sS'Default'
p914
S'0'
sS'Field'
p915
S'userid'
p916
sS'Key'
p917
S'MUL'
p918
sS'Null'
p919
S''
sS'Type'
p920
S'mediumint(9)'
p921
sa(dp922
g913
S''
sg914
S'0'
sg915
S'who'
p923
sg917
S''
sg919
S''
sg920
S'mediumint(9)'
p924
sa(dp925
g913
S''
sg914
S'0000-00-00 00:00:00'
p926
sg915
S'profiles_when'
p927
sg917
S'MUL'
p928
sg919
S''
sg920
S'datetime'
p929
sa(dp930
g913
S''
sg914
S'0'
sg915
S'fieldid'
p931
sg917
S'MUL'
p932
sg919
S''
sg920
S'mediumint(9)'
p933
sa(dp934
g913
S''
sg914
Nsg915
S'oldvalue'
p935
sg917
S''
sg919
S'YES'
p936
sg920
S'tinytext'
p937
sa(dp938
g913
S''
sg914
Nsg915
S'newvalue'
p939
sg917
S''
sg919
S'YES'
p940
sg920
S'tinytext'
p941
sa(lp942
(dp943
S'Comment'
p944
S''
sS'Non_unique'
p945
L1L
sS'Sub_part'
p946
NsS'Index_type'
p947
S'BTREE'
p948
sS'Key_name'
p949
S'userid'
p950
sS'Collation'
p951
S'A'
sS'Null'
p952
S''
sS'Seq_in_index'
p953
L1L
sS'Table'
p954
S'profiles_activity'
p955
sS'Cardinality'
p956
NsS'Packed'
p957
NsS'Column_name'
p958
S'userid'
p959
sa(dp960
g944
S''
sg945
L1L
sg946
Nsg947
S'BTREE'
p961
sg949
S'profiles_when'
p962
sg951
S'A'
sg952
S''
sg953
L1L
sg954
S'profiles_activity'
p963
sg956
Nsg957
Nsg958
S'profiles_when'
p964
sa(dp965
g944
S''
sg945
L1L
sg946
Nsg947
S'BTREE'
p966
sg949
S'fieldid'
p967
sg951
S'A'
sg952
S''
sg953
L1L
sg954
S'profiles_activity'
p968
sg956
Nsg957
Nsg958
S'fieldid'
p969
satp970
sS'bugs_activity'
p971
((lp972
(dp973
S'Extra'
p974
S''
sS'Default'
p975
S'0'
sS'Field'
p976
S'bug_id'
p977
sS'Key'
p978
S'MUL'
p979
sS'Null'
p980
S''
sS'Type'
p981
S'mediumint(9)'
p982
sa(dp983
g974
S''
sg975
Nsg976
S'attach_id'
p984
sg978
S''
sg980
S'YES'
p985
sg981
S'mediumint(9)'
p986
sa(dp987
g974
S''
sg975
S'0'
sg976
S'who'
p988
sg978
S''
sg980
S''
sg981
S'mediumint(9)'
p989
sa(dp990
g974
S''
sg975
S'0000-00-00 00:00:00'
p991
sg976
S'bug_when'
p992
sg978
S'MUL'
p993
sg980
S''
sg981
S'datetime'
p994
sa(dp995
g974
S''
sg975
S'0'
sg976
S'fieldid'
p996
sg978
S'MUL'
p997
sg980
S''
sg981
S'mediumint(9)'
p998
sa(dp999
g974
S''
sg975
Nsg976
S'added'
p1000
sg978
S''
sg980
S'YES'
p1001
sg981
S'tinytext'
p1002
sa(dp1003
g974
S''
sg975
Nsg976
S'removed'
p1004
sg978
S''
sg980
S'YES'
p1005
sg981
S'tinytext'
p1006
sa(lp1007
(dp1008
S'Comment'
p1009
S''
sS'Non_unique'
p1010
L1L
sS'Sub_part'
p1011
NsS'Index_type'
p1012
S'BTREE'
p1013
sS'Key_name'
p1014
S'bug_id'
p1015
sS'Collation'
p1016
S'A'
sS'Null'
p1017
S''
sS'Seq_in_index'
p1018
L1L
sS'Table'
p1019
S'bugs_activity'
p1020
sS'Cardinality'
p1021
NsS'Packed'
p1022
NsS'Column_name'
p1023
S'bug_id'
p1024
sa(dp1025
g1009
S''
sg1010
L1L
sg1011
Nsg1012
S'BTREE'
p1026
sg1014
S'bug_when'
p1027
sg1016
S'A'
sg1017
S''
sg1018
L1L
sg1019
S'bugs_activity'
p1028
sg1021
Nsg1022
Nsg1023
S'bug_when'
p1029
sa(dp1030
g1009
S''
sg1010
L1L
sg1011
Nsg1012
S'BTREE'
p1031
sg1014
S'fieldid'
p1032
sg1016
S'A'
sg1017
S''
sg1018
L1L
sg1019
S'bugs_activity'
p1033
sg1021
Nsg1022
Nsg1023
S'fieldid'
p1034
satp1035
sS'watch'
p1036
((lp1037
(dp1038
S'Extra'
p1039
S''
sS'Default'
p1040
S'0'
sS'Field'
p1041
S'watcher'
p1042
sS'Key'
p1043
S'PRI'
p1044
sS'Null'
p1045
S''
sS'Type'
p1046
S'mediumint(9)'
p1047
sa(dp1048
g1039
S''
sg1040
S'0'
sg1041
S'watched'
p1049
sg1043
S'PRI'
p1050
sg1045
S''
sg1046
S'mediumint(9)'
p1051
sa(lp1052
(dp1053
S'Comment'
p1054
S''
sS'Non_unique'
p1055
L0L
sS'Sub_part'
p1056
NsS'Index_type'
p1057
S'BTREE'
p1058
sS'Key_name'
p1059
S'watcher'
p1060
sS'Collation'
p1061
S'A'
sS'Null'
p1062
S''
sS'Seq_in_index'
p1063
L1L
sS'Table'
p1064
S'watch'
p1065
sS'Cardinality'
p1066
NsS'Packed'
p1067
NsS'Column_name'
p1068
S'watcher'
p1069
sa(dp1070
g1054
S''
sg1055
L0L
sg1056
Nsg1057
S'BTREE'
p1071
sg1059
S'watcher'
p1072
sg1061
S'A'
sg1062
S''
sg1063
L2L
sg1064
S'watch'
p1073
sg1066
L0L
sg1067
Nsg1068
S'watched'
p1074
sa(dp1075
g1054
S''
sg1055
L1L
sg1056
Nsg1057
S'BTREE'
p1076
sg1059
S'watched'
p1077
sg1061
S'A'
sg1062
S''
sg1063
L1L
sg1064
S'watch'
p1078
sg1066
Nsg1067
Nsg1068
S'watched'
p1079
satp1080
sS'namedqueries'
p1081
((lp1082
(dp1083
S'Extra'
p1084
S''
sS'Default'
p1085
S'0'
sS'Field'
p1086
S'userid'
p1087
sS'Key'
p1088
S'PRI'
p1089
sS'Null'
p1090
S''
sS'Type'
p1091
S'mediumint(9)'
p1092
sa(dp1093
g1084
S''
sg1085
S''
sg1086
S'name'
p1094
sg1088
S'PRI'
p1095
sg1090
S''
sg1091
S'varchar(64)'
p1096
sa(dp1097
g1084
S''
sg1085
S'0'
sg1086
S'linkinfooter'
p1098
sg1088
S''
sg1090
S''
sg1091
S'tinyint(4)'
p1099
sa(dp1100
g1084
S''
sg1085
S''
sg1086
S'query'
p1101
sg1088
S''
sg1090
S''
sg1091
S'mediumtext'
p1102
sa(lp1103
(dp1104
S'Comment'
p1105
S''
sS'Non_unique'
p1106
L0L
sS'Sub_part'
p1107
NsS'Index_type'
p1108
S'BTREE'
p1109
sS'Key_name'
p1110
S'userid'
p1111
sS'Collation'
p1112
S'A'
sS'Null'
p1113
S''
sS'Seq_in_index'
p1114
L1L
sS'Table'
p1115
S'namedqueries'
p1116
sS'Cardinality'
p1117
NsS'Packed'
p1118
NsS'Column_name'
p1119
S'userid'
p1120
sa(dp1121
g1105
S''
sg1106
L0L
sg1107
Nsg1108
S'BTREE'
p1122
sg1110
S'userid'
p1123
sg1112
S'A'
sg1113
S''
sg1114
L2L
sg1115
S'namedqueries'
p1124
sg1117
L0L
sg1118
Nsg1119
S'name'
p1125
satp1126
sS'whine_schedules'
p1127
((lp1128
(dp1129
S'Extra'
p1130
S'auto_increment'
p1131
sS'Default'
p1132
NsS'Field'
p1133
S'id'
p1134
sS'Key'
p1135
S'PRI'
p1136
sS'Null'
p1137
S''
sS'Type'
p1138
S'mediumint(9)'
p1139
sa(dp1140
g1130
S''
sg1132
S'0'
sg1133
S'eventid'
p1141
sg1135
S'MUL'
p1142
sg1137
S''
sg1138
S'mediumint(9)'
p1143
sa(dp1144
g1130
S''
sg1132
Nsg1133
S'run_day'
p1145
sg1135
S''
sg1137
S'YES'
p1146
sg1138
S'varchar(32)'
p1147
sa(dp1148
g1130
S''
sg1132
Nsg1133
S'run_time'
p1149
sg1135
S''
sg1137
S'YES'
p1150
sg1138
S'varchar(32)'
p1151
sa(dp1152
g1130
S''
sg1132
Nsg1133
S'run_next'
p1153
sg1135
S'MUL'
p1154
sg1137
S'YES'
p1155
sg1138
S'datetime'
p1156
sa(dp1157
g1130
S''
sg1132
S'0'
sg1133
S'mailto_userid'
p1158
sg1135
S''
sg1137
S''
sg1138
S'mediumint(9)'
p1159
sa(lp1160
(dp1161
S'Comment'
p1162
S''
sS'Non_unique'
p1163
L0L
sS'Sub_part'
p1164
NsS'Index_type'
p1165
S'BTREE'
p1166
sS'Key_name'
p1167
S'PRIMARY'
p1168
sS'Collation'
p1169
S'A'
sS'Null'
p1170
S''
sS'Seq_in_index'
p1171
L1L
sS'Table'
p1172
S'whine_schedules'
p1173
sS'Cardinality'
p1174
L0L
sS'Packed'
p1175
NsS'Column_name'
p1176
S'id'
p1177
sa(dp1178
g1162
S''
sg1163
L1L
sg1164
Nsg1165
S'BTREE'
p1179
sg1167
S'run_next'
p1180
sg1169
S'A'
sg1170
S'YES'
p1181
sg1171
L1L
sg1172
S'whine_schedules'
p1182
sg1174
Nsg1175
Nsg1176
S'run_next'
p1183
sa(dp1184
g1162
S''
sg1163
L1L
sg1164
Nsg1165
S'BTREE'
p1185
sg1167
S'eventid'
p1186
sg1169
S'A'
sg1170
S''
sg1171
L1L
sg1172
S'whine_schedules'
p1187
sg1174
Nsg1175
Nsg1176
S'eventid'
p1188
satp1189
sS'tokens'
p1190
((lp1191
(dp1192
S'Extra'
p1193
S''
sS'Default'
p1194
S'0'
sS'Field'
p1195
S'userid'
p1196
sS'Key'
p1197
S'MUL'
p1198
sS'Null'
p1199
S''
sS'Type'
p1200
S'mediumint(9)'
p1201
sa(dp1202
g1193
S''
sg1194
S'0000-00-00 00:00:00'
p1203
sg1195
S'issuedate'
p1204
sg1197
S''
sg1199
S''
sg1200
S'datetime'
p1205
sa(dp1206
g1193
S''
sg1194
S''
sg1195
S'token'
p1207
sg1197
S'PRI'
p1208
sg1199
S''
sg1200
S'varchar(16)'
p1209
sa(dp1210
g1193
S''
sg1194
S''
sg1195
S'tokentype'
p1211
sg1197
S''
sg1199
S''
sg1200
S'varchar(8)'
p1212
sa(dp1213
g1193
S''
sg1194
Nsg1195
S'eventdata'
p1214
sg1197
S''
sg1199
S'YES'
p1215
sg1200
S'tinytext'
p1216
sa(lp1217
(dp1218
S'Comment'
p1219
S''
sS'Non_unique'
p1220
L0L
sS'Sub_part'
p1221
NsS'Index_type'
p1222
S'BTREE'
p1223
sS'Key_name'
p1224
S'PRIMARY'
p1225
sS'Collation'
p1226
S'A'
sS'Null'
p1227
S''
sS'Seq_in_index'
p1228
L1L
sS'Table'
p1229
S'tokens'
p1230
sS'Cardinality'
p1231
L0L
sS'Packed'
p1232
NsS'Column_name'
p1233
S'token'
p1234
sa(dp1235
g1219
S''
sg1220
L1L
sg1221
Nsg1222
S'BTREE'
p1236
sg1224
S'userid'
p1237
sg1226
S'A'
sg1227
S''
sg1228
L1L
sg1229
S'tokens'
p1238
sg1231
Nsg1232
Nsg1233
S'userid'
p1239
satp1240
sS'dependencies'
p1241
((lp1242
(dp1243
S'Extra'
p1244
S''
sS'Default'
p1245
S'0'
sS'Field'
p1246
S'blocked'
p1247
sS'Key'
p1248
S'MUL'
p1249
sS'Null'
p1250
S''
sS'Type'
p1251
S'mediumint(9)'
p1252
sa(dp1253
g1244
S''
sg1245
S'0'
sg1246
S'dependson'
p1254
sg1248
S'MUL'
p1255
sg1250
S''
sg1251
S'mediumint(9)'
p1256
sa(lp1257
(dp1258
S'Comment'
p1259
S''
sS'Non_unique'
p1260
L1L
sS'Sub_part'
p1261
NsS'Index_type'
p1262
S'BTREE'
p1263
sS'Key_name'
p1264
S'blocked'
p1265
sS'Collation'
p1266
S'A'
sS'Null'
p1267
S''
sS'Seq_in_index'
p1268
L1L
sS'Table'
p1269
S'dependencies'
p1270
sS'Cardinality'
p1271
NsS'Packed'
p1272
NsS'Column_name'
p1273
S'blocked'
p1274
sa(dp1275
g1259
S''
sg1260
L1L
sg1261
Nsg1262
S'BTREE'
p1276
sg1264
S'dependson'
p1277
sg1266
S'A'
sg1267
S''
sg1268
L1L
sg1269
S'dependencies'
p1278
sg1271
Nsg1272
Nsg1273
S'dependson'
p1279
satp1280
sS'category_group_map'
p1281
((lp1282
(dp1283
S'Extra'
p1284
S''
sS'Default'
p1285
S'0'
sS'Field'
p1286
S'category_id'
p1287
sS'Key'
p1288
S'PRI'
p1289
sS'Null'
p1290
S''
sS'Type'
p1291
S'smallint(6)'
p1292
sa(dp1293
g1284
S''
sg1285
S'0'
sg1286
S'group_id'
p1294
sg1288
S'PRI'
p1295
sg1290
S''
sg1291
S'mediumint(9)'
p1296
sa(lp1297
(dp1298
S'Comment'
p1299
S''
sS'Non_unique'
p1300
L0L
sS'Sub_part'
p1301
NsS'Index_type'
p1302
S'BTREE'
p1303
sS'Key_name'
p1304
S'category_id'
p1305
sS'Collation'
p1306
S'A'
sS'Null'
p1307
S''
sS'Seq_in_index'
p1308
L1L
sS'Table'
p1309
S'category_group_map'
p1310
sS'Cardinality'
p1311
NsS'Packed'
p1312
NsS'Column_name'
p1313
S'category_id'
p1314
sa(dp1315
g1299
S''
sg1300
L0L
sg1301
Nsg1302
S'BTREE'
p1316
sg1304
S'category_id'
p1317
sg1306
S'A'
sg1307
S''
sg1308
L2L
sg1309
S'category_group_map'
p1318
sg1311
L0L
sg1312
Nsg1313
S'group_id'
p1319
satp1320
sS'groups'
p1321
((lp1322
(dp1323
S'Extra'
p1324
S'auto_increment'
p1325
sS'Default'
p1326
NsS'Field'
p1327
S'id'
p1328
sS'Key'
p1329
S'PRI'
p1330
sS'Null'
p1331
S''
sS'Type'
p1332
S'mediumint(9)'
p1333
sa(dp1334
g1324
S''
sg1326
S''
sg1327
S'name'
p1335
sg1329
S'UNI'
p1336
sg1331
S''
sg1332
S'varchar(255)'
p1337
sa(dp1338
g1324
S''
sg1326
S''
sg1327
S'description'
p1339
sg1329
S''
sg1331
S''
sg1332
S'text'
p1340
sa(dp1341
g1324
S''
sg1326
S'0'
sg1327
S'isbuggroup'
p1342
sg1329
S''
sg1331
S''
sg1332
S'tinyint(4)'
p1343
sa(dp1344
g1324
S''
sg1326
S'0000-00-00 00:00:00'
p1345
sg1327
S'last_changed'
p1346
sg1329
S''
sg1331
S''
sg1332
S'datetime'
p1347
sa(dp1348
g1324
S''
sg1326
S''
sg1327
S'userregexp'
p1349
sg1329
S''
sg1331
S''
sg1332
S'tinytext'
p1350
sa(dp1351
g1324
S''
sg1326
S'1'
sg1327
S'isactive'
p1352
sg1329
S''
sg1331
S''
sg1332
S'tinyint(4)'
p1353
sa(lp1354
(dp1355
S'Comment'
p1356
S''
sS'Non_unique'
p1357
L0L
sS'Sub_part'
p1358
NsS'Index_type'
p1359
S'BTREE'
p1360
sS'Key_name'
p1361
S'PRIMARY'
p1362
sS'Collation'
p1363
S'A'
sS'Null'
p1364
S''
sS'Seq_in_index'
p1365
L1L
sS'Table'
p1366
S'groups'
p1367
sS'Cardinality'
p1368
L11L
sS'Packed'
p1369
NsS'Column_name'
p1370
S'id'
p1371
sa(dp1372
g1356
S''
sg1357
L0L
sg1358
Nsg1359
S'BTREE'
p1373
sg1361
S'name'
p1374
sg1363
S'A'
sg1364
S''
sg1365
L1L
sg1366
S'groups'
p1375
sg1368
L11L
sg1369
Nsg1370
S'name'
p1376
satp1377
sS'milestones'
p1378
((lp1379
(dp1380
S'Extra'
p1381
S''
sS'Default'
p1382
S'0'
sS'Field'
p1383
S'product_id'
p1384
sS'Key'
p1385
S'PRI'
p1386
sS'Null'
p1387
S''
sS'Type'
p1388
S'smallint(6)'
p1389
sa(dp1390
g1381
S''
sg1382
S''
sg1383
S'value'
p1391
sg1385
S'PRI'
p1392
sg1387
S''
sg1388
S'varchar(20)'
p1393
sa(dp1394
g1381
S''
sg1382
S'0'
sg1383
S'sortkey'
p1395
sg1385
S''
sg1387
S''
sg1388
S'smallint(6)'
p1396
sa(lp1397
(dp1398
S'Comment'
p1399
S''
sS'Non_unique'
p1400
L0L
sS'Sub_part'
p1401
NsS'Index_type'
p1402
S'BTREE'
p1403
sS'Key_name'
p1404
S'product_id'
p1405
sS'Collation'
p1406
S'A'
sS'Null'
p1407
S''
sS'Seq_in_index'
p1408
L1L
sS'Table'
p1409
S'milestones'
p1410
sS'Cardinality'
p1411
NsS'Packed'
p1412
NsS'Column_name'
p1413
S'product_id'
p1414
sa(dp1415
g1399
S''
sg1400
L0L
sg1401
Nsg1402
S'BTREE'
p1416
sg1404
S'product_id'
p1417
sg1406
S'A'
sg1407
S''
sg1408
L2L
sg1409
S'milestones'
p1418
sg1411
L1L
sg1412
Nsg1413
S'value'
p1419
satp1420
sS'classifications'
p1421
((lp1422
(dp1423
S'Extra'
p1424
S'auto_increment'
p1425
sS'Default'
p1426
NsS'Field'
p1427
S'id'
p1428
sS'Key'
p1429
S'PRI'
p1430
sS'Null'
p1431
S''
sS'Type'
p1432
S'smallint(6)'
p1433
sa(dp1434
g1424
S''
sg1426
S''
sg1427
S'name'
p1435
sg1429
S'UNI'
p1436
sg1431
S''
sg1432
S'varchar(64)'
p1437
sa(dp1438
g1424
S''
sg1426
Nsg1427
S'description'
p1439
sg1429
S''
sg1431
S'YES'
p1440
sg1432
S'mediumtext'
p1441
sa(lp1442
(dp1443
S'Comment'
p1444
S''
sS'Non_unique'
p1445
L0L
sS'Sub_part'
p1446
NsS'Index_type'
p1447
S'BTREE'
p1448
sS'Key_name'
p1449
S'PRIMARY'
p1450
sS'Collation'
p1451
S'A'
sS'Null'
p1452
S''
sS'Seq_in_index'
p1453
L1L
sS'Table'
p1454
S'classifications'
p1455
sS'Cardinality'
p1456
L1L
sS'Packed'
p1457
NsS'Column_name'
p1458
S'id'
p1459
sa(dp1460
g1444
S''
sg1445
L0L
sg1446
Nsg1447
S'BTREE'
p1461
sg1449
S'name'
p1462
sg1451
S'A'
sg1452
S''
sg1453
L1L
sg1454
S'classifications'
p1463
sg1456
L1L
sg1457
Nsg1458
S'name'
p1464
satp1465
sS'longdescs'
p1466
((lp1467
(dp1468
S'Extra'
p1469
S''
sS'Default'
p1470
S'0'
sS'Field'
p1471
S'bug_id'
p1472
sS'Key'
p1473
S'MUL'
p1474
sS'Null'
p1475
S''
sS'Type'
p1476
S'mediumint(9)'
p1477
sa(dp1478
g1469
S''
sg1470
S'0'
sg1471
S'who'
p1479
sg1473
S'MUL'
p1480
sg1475
S''
sg1476
S'mediumint(9)'
p1481
sa(dp1482
g1469
S''
sg1470
S'0000-00-00 00:00:00'
p1483
sg1471
S'bug_when'
p1484
sg1473
S'MUL'
p1485
sg1475
S''
sg1476
S'datetime'
p1486
sa(dp1487
g1469
S''
sg1470
S'0.00'
p1488
sg1471
S'work_time'
p1489
sg1473
S''
sg1475
S''
sg1476
S'decimal(5,2)'
p1490
sa(dp1491
g1469
S''
sg1470
Nsg1471
S'thetext'
p1492
sg1473
S'MUL'
p1493
sg1475
S'YES'
p1494
sg1476
S'mediumtext'
p1495
sa(dp1496
g1469
S''
sg1470
S'0'
sg1471
S'isprivate'
p1497
sg1473
S''
sg1475
S''
sg1476
S'tinyint(4)'
p1498
sa(lp1499
(dp1500
S'Comment'
p1501
S''
sS'Non_unique'
p1502
L1L
sS'Sub_part'
p1503
NsS'Index_type'
p1504
S'BTREE'
p1505
sS'Key_name'
p1506
S'bug_id'
p1507
sS'Collation'
p1508
S'A'
sS'Null'
p1509
S''
sS'Seq_in_index'
p1510
L1L
sS'Table'
p1511
S'longdescs'
p1512
sS'Cardinality'
p1513
NsS'Packed'
p1514
NsS'Column_name'
p1515
S'bug_id'
p1516
sa(dp1517
g1501
S''
sg1502
L1L
sg1503
Nsg1504
S'BTREE'
p1518
sg1506
S'who'
p1519
sg1508
S'A'
sg1509
S''
sg1510
L1L
sg1511
S'longdescs'
p1520
sg1513
Nsg1514
Nsg1515
S'who'
p1521
sa(dp1522
g1501
S''
sg1502
L1L
sg1503
Nsg1504
S'BTREE'
p1523
sg1506
S'bug_when'
p1524
sg1508
S'A'
sg1509
S''
sg1510
L1L
sg1511
S'longdescs'
p1525
sg1513
Nsg1514
Nsg1515
S'bug_when'
p1526
sa(dp1527
g1501
S''
sg1502
L1L
sg1503
Nsg1504
S'FULLTEXT'
p1528
sg1506
S'thetext'
p1529
sg1508
S'A'
sg1509
S'YES'
p1530
sg1510
L1L
sg1511
S'longdescs'
p1531
sg1513
Nsg1514
Nsg1515
S'thetext'
p1532
satp1533
sS'versions'
p1534
((lp1535
(dp1536
S'Extra'
p1537
S''
sS'Default'
p1538
NsS'Field'
p1539
S'value'
p1540
sS'Key'
p1541
S''
sS'Null'
p1542
S'YES'
p1543
sS'Type'
p1544
S'tinytext'
p1545
sa(dp1546
g1537
S''
sg1538
S'0'
sg1539
S'product_id'
p1547
sg1541
S''
sg1542
S''
sg1544
S'smallint(6)'
p1548
sa(ltp1549
sS'flagtypes'
p1550
((lp1551
(dp1552
S'Extra'
p1553
S''
sS'Default'
p1554
S'0'
sS'Field'
p1555
S'id'
p1556
sS'Key'
p1557
S'PRI'
p1558
sS'Null'
p1559
S''
sS'Type'
p1560
S'smallint(6)'
p1561
sa(dp1562
g1553
S''
sg1554
S''
sg1555
S'name'
p1563
sg1557
S''
sg1559
S''
sg1560
S'varchar(50)'
p1564
sa(dp1565
g1553
S''
sg1554
Nsg1555
S'description'
p1566
sg1557
S''
sg1559
S'YES'
p1567
sg1560
S'text'
p1568
sa(dp1569
g1553
S''
sg1554
Nsg1555
S'cc_list'
p1570
sg1557
S''
sg1559
S'YES'
p1571
sg1560
S'varchar(200)'
p1572
sa(dp1573
g1553
S''
sg1554
S'b'
sg1555
S'target_type'
p1574
sg1557
S''
sg1559
S''
sg1560
S'char(1)'
p1575
sa(dp1576
g1553
S''
sg1554
S'1'
sg1555
S'is_active'
p1577
sg1557
S''
sg1559
S''
sg1560
S'tinyint(4)'
p1578
sa(dp1579
g1553
S''
sg1554
S'0'
sg1555
S'is_requestable'
p1580
sg1557
S''
sg1559
S''
sg1560
S'tinyint(4)'
p1581
sa(dp1582
g1553
S''
sg1554
S'0'
sg1555
S'is_requesteeble'
p1583
sg1557
S''
sg1559
S''
sg1560
S'tinyint(4)'
p1584
sa(dp1585
g1553
S''
sg1554
S'0'
sg1555
S'is_multiplicable'
p1586
sg1557
S''
sg1559
S''
sg1560
S'tinyint(4)'
p1587
sa(dp1588
g1553
S''
sg1554
S'0'
sg1555
S'sortkey'
p1589
sg1557
S''
sg1559
S''
sg1560
S'smallint(6)'
p1590
sa(dp1591
g1553
S''
sg1554
Nsg1555
S'grant_group_id'
p1592
sg1557
S''
sg1559
S'YES'
p1593
sg1560
S'mediumint(9)'
p1594
sa(dp1595
g1553
S''
sg1554
Nsg1555
S'request_group_id'
p1596
sg1557
S''
sg1559
S'YES'
p1597
sg1560
S'mediumint(9)'
p1598
sa(lp1599
(dp1600
S'Comment'
p1601
S''
sS'Non_unique'
p1602
L0L
sS'Sub_part'
p1603
NsS'Index_type'
p1604
S'BTREE'
p1605
sS'Key_name'
p1606
S'PRIMARY'
p1607
sS'Collation'
p1608
S'A'
sS'Null'
p1609
S''
sS'Seq_in_index'
p1610
L1L
sS'Table'
p1611
S'flagtypes'
p1612
sS'Cardinality'
p1613
L0L
sS'Packed'
p1614
NsS'Column_name'
p1615
S'id'
p1616
satp1617
sS'user_group_map'
p1618
((lp1619
(dp1620
S'Extra'
p1621
S''
sS'Default'
p1622
S'0'
sS'Field'
p1623
S'user_id'
p1624
sS'Key'
p1625
S'PRI'
p1626
sS'Null'
p1627
S''
sS'Type'
p1628
S'mediumint(9)'
p1629
sa(dp1630
g1621
S''
sg1622
S'0'
sg1623
S'group_id'
p1631
sg1625
S'PRI'
p1632
sg1627
S''
sg1628
S'mediumint(9)'
p1633
sa(dp1634
g1621
S''
sg1622
S'0'
sg1623
S'isbless'
p1635
sg1625
S'PRI'
p1636
sg1627
S''
sg1628
S'tinyint(4)'
p1637
sa(dp1638
g1621
S''
sg1622
S'0'
sg1623
S'grant_type'
p1639
sg1625
S'PRI'
p1640
sg1627
S''
sg1628
S'tinyint(4)'
p1641
sa(lp1642
(dp1643
S'Comment'
p1644
S''
sS'Non_unique'
p1645
L0L
sS'Sub_part'
p1646
NsS'Index_type'
p1647
S'BTREE'
p1648
sS'Key_name'
p1649
S'user_id'
p1650
sS'Collation'
p1651
S'A'
sS'Null'
p1652
S''
sS'Seq_in_index'
p1653
L1L
sS'Table'
p1654
S'user_group_map'
p1655
sS'Cardinality'
p1656
NsS'Packed'
p1657
NsS'Column_name'
p1658
S'user_id'
p1659
sa(dp1660
g1644
S''
sg1645
L0L
sg1646
Nsg1647
S'BTREE'
p1661
sg1649
S'user_id'
p1662
sg1651
S'A'
sg1652
S''
sg1653
L2L
sg1654
S'user_group_map'
p1663
sg1656
Nsg1657
Nsg1658
S'group_id'
p1664
sa(dp1665
g1644
S''
sg1645
L0L
sg1646
Nsg1647
S'BTREE'
p1666
sg1649
S'user_id'
p1667
sg1651
S'A'
sg1652
S''
sg1653
L3L
sg1654
S'user_group_map'
p1668
sg1656
Nsg1657
Nsg1658
S'grant_type'
p1669
sa(dp1670
g1644
S''
sg1645
L0L
sg1646
Nsg1647
S'BTREE'
p1671
sg1649
S'user_id'
p1672
sg1651
S'A'
sg1652
S''
sg1653
L4L
sg1654
S'user_group_map'
p1673
sg1656
L2L
sg1657
Nsg1658
S'isbless'
p1674
satp1675
sS'bugs'
p1676
((lp1677
(dp1678
S'Extra'
p1679
S'auto_increment'
p1680
sS'Default'
p1681
NsS'Field'
p1682
S'bug_id'
p1683
sS'Key'
p1684
S'PRI'
p1685
sS'Null'
p1686
S''
sS'Type'
p1687
S'mediumint(9)'
p1688
sa(dp1689
g1679
S''
sg1681
S'0'
sg1682
S'assigned_to'
p1690
sg1684
S'MUL'
p1691
sg1686
S''
sg1687
S'mediumint(9)'
p1692
sa(dp1693
g1679
S''
sg1681
Nsg1682
S'bug_file_loc'
p1694
sg1684
S''
sg1686
S'YES'
p1695
sg1687
S'text'
p1696
sa(dp1697
g1679
S''
sg1681
S'blocker'
p1698
sg1682
S'bug_severity'
p1699
sg1684
S'MUL'
p1700
sg1686
S''
sg1687
S"enum('blocker','critical','major','normal','minor','trivial','enhancement')"
p1701
sa(dp1702
g1679
S''
sg1681
S'UNCONFIRMED'
p1703
sg1682
S'bug_status'
p1704
sg1684
S'MUL'
p1705
sg1686
S''
sg1687
S"enum('UNCONFIRMED','NEW','ASSIGNED','REOPENED','RESOLVED','VERIFIED','CLOSED')"
p1706
sa(dp1707
g1679
S''
sg1681
S'0000-00-00 00:00:00'
p1708
sg1682
S'creation_ts'
p1709
sg1684
S'MUL'
p1710
sg1686
S''
sg1687
S'datetime'
p1711
sa(dp1712
g1679
S''
sg1681
Nsg1682
S'delta_ts'
p1713
sg1684
S'MUL'
p1714
sg1686
S'YES'
p1715
sg1687
S'timestamp(14)'
p1716
sa(dp1717
g1679
S''
sg1681
S''
sg1682
S'short_desc'
p1718
sg1684
S'MUL'
p1719
sg1686
S''
sg1687
S'mediumtext'
p1720
sa(dp1721
g1679
S''
sg1681
S'All'
p1722
sg1682
S'op_sys'
p1723
sg1684
S'MUL'
p1724
sg1686
S''
sg1687
S"enum('All','Windows 3.1','Windows 95','Windows 98','Windows ME','Windows 2000','Windows NT','Windows XP','Windows Server 2003','Mac System 7','Mac System 7.5','Mac System 7.6.1','Mac System 8.0','Mac System 8.5','Mac System 8.6','Mac System 9.x','Mac OS X 10.0','Mac OS X 10.1','Mac OS X 10.2','Mac OS X 10.3','Linux','BSD/OS','FreeBSD','NetBSD','OpenBSD','AIX','BeOS','HP-UX','IRIX','Neutrino','OpenVMS','OS/2','OSF/1','Solaris','SunOS','other')"
p1725
sa(dp1726
g1679
S''
sg1681
S'P1'
p1727
sg1682
S'priority'
p1728
sg1684
S'MUL'
p1729
sg1686
S''
sg1687
S"enum('P1','P2','P3','P4','P5')"
p1730
sa(dp1731
g1679
S''
sg1681
S'0'
sg1682
S'product_id'
p1732
sg1684
S'MUL'
p1733
sg1686
S''
sg1687
S'smallint(6)'
p1734
sa(dp1735
g1679
S''
sg1681
Nsg1682
S'rep_platform'
p1736
sg1684
S''
sg1686
S'YES'
p1737
sg1687
S"enum('All','DEC','HP','Macintosh','PC','SGI','Sun','Other')"
p1738
sa(dp1739
g1679
S''
sg1681
S'0'
sg1682
S'reporter'
p1740
sg1684
S'MUL'
p1741
sg1686
S''
sg1687
S'mediumint(9)'
p1742
sa(dp1743
g1679
S''
sg1681
S''
sg1682
S'version'
p1744
sg1684
S'MUL'
p1745
sg1686
S''
sg1687
S'varchar(64)'
p1746
sa(dp1747
g1679
S''
sg1681
S'0'
sg1682
S'component_id'
p1748
sg1684
S'MUL'
p1749
sg1686
S''
sg1687
S'smallint(6)'
p1750
sa(dp1751
g1679
S''
sg1681
S''
sg1682
S'resolution'
p1752
sg1684
S'MUL'
p1753
sg1686
S''
sg1687
S"enum('','FIXED','INVALID','WONTFIX','LATER','REMIND','DUPLICATE','WORKSFORME','MOVED')"
p1754
sa(dp1755
g1679
S''
sg1681
S'---'
p1756
sg1682
S'target_milestone'
p1757
sg1684
S'MUL'
p1758
sg1686
S''
sg1687
S'varchar(20)'
p1759
sa(dp1760
g1679
S''
sg1681
S'0'
sg1682
S'qa_contact'
p1761
sg1684
S'MUL'
p1762
sg1686
S''
sg1687
S'mediumint(9)'
p1763
sa(dp1764
g1679
S''
sg1681
S''
sg1682
S'status_whiteboard'
p1765
sg1684
S''
sg1686
S''
sg1687
S'mediumtext'
p1766
sa(dp1767
g1679
S''
sg1681
S'0'
sg1682
S'votes'
p1768
sg1684
S'MUL'
p1769
sg1686
S''
sg1687
S'mediumint(9)'
p1770
sa(dp1771
g1679
S''
sg1681
S''
sg1682
S'keywords'
p1772
sg1684
S''
sg1686
S''
sg1687
S'mediumtext'
p1773
sa(dp1774
g1679
S''
sg1681
S'0000-00-00 00:00:00'
p1775
sg1682
S'lastdiffed'
p1776
sg1684
S''
sg1686
S''
sg1687
S'datetime'
p1777
sa(dp1778
g1679
S''
sg1681
S'0'
sg1682
S'everconfirmed'
p1779
sg1684
S''
sg1686
S''
sg1687
S'tinyint(4)'
p1780
sa(dp1781
g1679
S''
sg1681
S'1'
sg1682
S'reporter_accessible'
p1782
sg1684
S''
sg1686
S''
sg1687
S'tinyint(4)'
p1783
sa(dp1784
g1679
S''
sg1681
S'1'
sg1682
S'cclist_accessible'
p1785
sg1684
S''
sg1686
S''
sg1687
S'tinyint(4)'
p1786
sa(dp1787
g1679
S''
sg1681
S'0.00'
p1788
sg1682
S'estimated_time'
p1789
sg1684
S''
sg1686
S''
sg1687
S'decimal(5,2)'
p1790
sa(dp1791
g1679
S''
sg1681
S'0.00'
p1792
sg1682
S'remaining_time'
p1793
sg1684
S''
sg1686
S''
sg1687
S'decimal(5,2)'
p1794
sa(dp1795
g1679
S''
sg1681
Nsg1682
S'alias'
p1796
sg1684
S'MUL'
p1797
sg1686
S'YES'
p1798
sg1687
S'varchar(20)'
p1799
sa(lp1800
(dp1801
S'Comment'
p1802
S''
sS'Non_unique'
p1803
L0L
sS'Sub_part'
p1804
NsS'Index_type'
p1805
S'BTREE'
p1806
sS'Key_name'
p1807
S'PRIMARY'
p1808
sS'Collation'
p1809
S'A'
sS'Null'
p1810
S''
sS'Seq_in_index'
p1811
L1L
sS'Table'
p1812
S'bugs'
p1813
sS'Cardinality'
p1814
L0L
sS'Packed'
p1815
NsS'Column_name'
p1816
S'bug_id'
p1817
sa(dp1818
g1802
S''
sg1803
L0L
sg1804
Nsg1805
S'BTREE'
p1819
sg1807
S'alias'
p1820
sg1809
S'A'
sg1810
S'YES'
p1821
sg1811
L1L
sg1812
S'bugs'
p1822
sg1814
Nsg1815
Nsg1816
S'alias'
p1823
sa(dp1824
g1802
S''
sg1803
L1L
sg1804
Nsg1805
S'BTREE'
p1825
sg1807
S'assigned_to'
p1826
sg1809
S'A'
sg1810
S''
sg1811
L1L
sg1812
S'bugs'
p1827
sg1814
Nsg1815
Nsg1816
S'assigned_to'
p1828
sa(dp1829
g1802
S''
sg1803
L1L
sg1804
Nsg1805
S'BTREE'
p1830
sg1807
S'creation_ts'
p1831
sg1809
S'A'
sg1810
S''
sg1811
L1L
sg1812
S'bugs'
p1832
sg1814
Nsg1815
Nsg1816
S'creation_ts'
p1833
sa(dp1834
g1802
S''
sg1803
L1L
sg1804
Nsg1805
S'BTREE'
p1835
sg1807
S'delta_ts'
p1836
sg1809
S'A'
sg1810
S''
sg1811
L1L
sg1812
S'bugs'
p1837
sg1814
Nsg1815
Nsg1816
S'delta_ts'
p1838
sa(dp1839
g1802
S''
sg1803
L1L
sg1804
Nsg1805
S'BTREE'
p1840
sg1807
S'bug_severity'
p1841
sg1809
S'A'
sg1810
S''
sg1811
L1L
sg1812
S'bugs'
p1842
sg1814
Nsg1815
Nsg1816
S'bug_severity'
p1843
sa(dp1844
g1802
S''
sg1803
L1L
sg1804
Nsg1805
S'BTREE'
p1845
sg1807
S'bug_status'
p1846
sg1809
S'A'
sg1810
S''
sg1811
L1L
sg1812
S'bugs'
p1847
sg1814
Nsg1815
Nsg1816
S'bug_status'
p1848
sa(dp1849
g1802
S''
sg1803
L1L
sg1804
Nsg1805
S'BTREE'
p1850
sg1807
S'op_sys'
p1851
sg1809
S'A'
sg1810
S''
sg1811
L1L
sg1812
S'bugs'
p1852
sg1814
Nsg1815
Nsg1816
S'op_sys'
p1853
sa(dp1854
g1802
S''
sg1803
L1L
sg1804
Nsg1805
S'BTREE'
p1855
sg1807
S'priority'
p1856
sg1809
S'A'
sg1810
S''
sg1811
L1L
sg1812
S'bugs'
p1857
sg1814
Nsg1815
Nsg1816
S'priority'
p1858
sa(dp1859
g1802
S''
sg1803
L1L
sg1804
Nsg1805
S'BTREE'
p1860
sg1807
S'product_id'
p1861
sg1809
S'A'
sg1810
S''
sg1811
L1L
sg1812
S'bugs'
p1862
sg1814
Nsg1815
Nsg1816
S'product_id'
p1863
sa(dp1864
g1802
S''
sg1803
L1L
sg1804
Nsg1805
S'BTREE'
p1865
sg1807
S'reporter'
p1866
sg1809
S'A'
sg1810
S''
sg1811
L1L
sg1812
S'bugs'
p1867
sg1814
Nsg1815
Nsg1816
S'reporter'
p1868
sa(dp1869
g1802
S''
sg1803
L1L
sg1804
Nsg1805
S'BTREE'
p1870
sg1807
S'version'
p1871
sg1809
S'A'
sg1810
S''
sg1811
L1L
sg1812
S'bugs'
p1872
sg1814
Nsg1815
Nsg1816
S'version'
p1873
sa(dp1874
g1802
S''
sg1803
L1L
sg1804
Nsg1805
S'BTREE'
p1875
sg1807
S'component_id'
p1876
sg1809
S'A'
sg1810
S''
sg1811
L1L
sg1812
S'bugs'
p1877
sg1814
Nsg1815
Nsg1816
S'component_id'
p1878
sa(dp1879
g1802
S''
sg1803
L1L
sg1804
Nsg1805
S'BTREE'
p1880
sg1807
S'resolution'
p1881
sg1809
S'A'
sg1810
S''
sg1811
L1L
sg1812
S'bugs'
p1882
sg1814
Nsg1815
Nsg1816
S'resolution'
p1883
sa(dp1884
g1802
S''
sg1803
L1L
sg1804
Nsg1805
S'BTREE'
p1885
sg1807
S'target_milestone'
p1886
sg1809
S'A'
sg1810
S''
sg1811
L1L
sg1812
S'bugs'
p1887
sg1814
Nsg1815
Nsg1816
S'target_milestone'
p1888
sa(dp1889
g1802
S''
sg1803
L1L
sg1804
Nsg1805
S'BTREE'
p1890
sg1807
S'qa_contact'
p1891
sg1809
S'A'
sg1810
S''
sg1811
L1L
sg1812
S'bugs'
p1892
sg1814
Nsg1815
Nsg1816
S'qa_contact'
p1893
sa(dp1894
g1802
S''
sg1803
L1L
sg1804
Nsg1805
S'BTREE'
p1895
sg1807
S'votes'
p1896
sg1809
S'A'
sg1810
S''
sg1811
L1L
sg1812
S'bugs'
p1897
sg1814
Nsg1815
Nsg1816
S'votes'
p1898
sa(dp1899
g1802
S''
sg1803
L1L
sg1804
Nsg1805
S'FULLTEXT'
p1900
sg1807
S'short_desc'
p1901
sg1809
S'A'
sg1810
S''
sg1811
L1L
sg1812
S'bugs'
p1902
sg1814
Nsg1815
Nsg1816
S'short_desc'
p1903
satp1904
sS'profiles'
p1905
((lp1906
(dp1907
S'Extra'
p1908
S'auto_increment'
p1909
sS'Default'
p1910
NsS'Field'
p1911
S'userid'
p1912
sS'Key'
p1913
S'PRI'
p1914
sS'Null'
p1915
S''
sS'Type'
p1916
S'mediumint(9)'
p1917
sa(dp1918
g1908
S''
sg1910
S''
sg1911
S'login_name'
p1919
sg1913
S'UNI'
p1920
sg1915
S''
sg1916
S'varchar(255)'
p1921
sa(dp1922
g1908
S''
sg1910
Nsg1911
S'cryptpassword'
p1923
sg1913
S''
sg1915
S'YES'
p1924
sg1916
S'varchar(34)'
p1925
sa(dp1926
g1908
S''
sg1910
Nsg1911
S'realname'
p1927
sg1913
S''
sg1915
S'YES'
p1928
sg1916
S'varchar(255)'
p1929
sa(dp1930
g1908
S''
sg1910
S''
sg1911
S'disabledtext'
p1931
sg1913
S''
sg1915
S''
sg1916
S'mediumtext'
p1932
sa(dp1933
g1908
S''
sg1910
S'1'
sg1911
S'mybugslink'
p1934
sg1913
S''
sg1915
S''
sg1916
S'tinyint(4)'
p1935
sa(dp1936
g1908
S''
sg1910
Nsg1911
S'emailflags'
p1937
sg1913
S''
sg1915
S'YES'
p1938
sg1916
S'mediumtext'
p1939
sa(dp1940
g1908
S''
sg1910
S'0000-00-00 00:00:00'
p1941
sg1911
S'refreshed_when'
p1942
sg1913
S''
sg1915
S''
sg1916
S'datetime'
p1943
sa(dp1944
g1908
S''
sg1910
Nsg1911
S'extern_id'
p1945
sg1913
S''
sg1915
S'YES'
p1946
sg1916
S'varchar(64)'
p1947
sa(lp1948
(dp1949
S'Comment'
p1950
S''
sS'Non_unique'
p1951
L0L
sS'Sub_part'
p1952
NsS'Index_type'
p1953
S'BTREE'
p1954
sS'Key_name'
p1955
S'PRIMARY'
p1956
sS'Collation'
p1957
S'A'
sS'Null'
p1958
S''
sS'Seq_in_index'
p1959
L1L
sS'Table'
p1960
S'profiles'
p1961
sS'Cardinality'
p1962
L1L
sS'Packed'
p1963
NsS'Column_name'
p1964
S'userid'
p1965
sa(dp1966
g1950
S''
sg1951
L0L
sg1952
Nsg1953
S'BTREE'
p1967
sg1955
S'login_name'
p1968
sg1957
S'A'
sg1958
S''
sg1959
L1L
sg1960
S'profiles'
p1969
sg1962
L1L
sg1963
Nsg1964
S'login_name'
p1970
satp1971
sS'flags'
p1972
((lp1973
(dp1974
S'Extra'
p1975
S''
sS'Default'
p1976
S'0'
sS'Field'
p1977
S'id'
p1978
sS'Key'
p1979
S'PRI'
p1980
sS'Null'
p1981
S''
sS'Type'
p1982
S'mediumint(9)'
p1983
sa(dp1984
g1975
S''
sg1976
S'0'
sg1977
S'type_id'
p1985
sg1979
S''
sg1981
S''
sg1982
S'smallint(6)'
p1986
sa(dp1987
g1975
S''
sg1976
S''
sg1977
S'status'
p1988
sg1979
S''
sg1981
S''
sg1982
S'char(1)'
p1989
sa(dp1990
g1975
S''
sg1976
S'0'
sg1977
S'bug_id'
p1991
sg1979
S'MUL'
p1992
sg1981
S''
sg1982
S'mediumint(9)'
p1993
sa(dp1994
g1975
S''
sg1976
Nsg1977
S'attach_id'
p1995
sg1979
S''
sg1981
S'YES'
p1996
sg1982
S'mediumint(9)'
p1997
sa(dp1998
g1975
S''
sg1976
S'0000-00-00 00:00:00'
p1999
sg1977
S'creation_date'
p2000
sg1979
S''
sg1981
S''
sg1982
S'datetime'
p2001
sa(dp2002
g1975
S''
sg1976
Nsg1977
S'modification_date'
p2003
sg1979
S''
sg1981
S'YES'
p2004
sg1982
S'datetime'
p2005
sa(dp2006
g1975
S''
sg1976
Nsg1977
S'setter_id'
p2007
sg1979
S'MUL'
p2008
sg1981
S'YES'
p2009
sg1982
S'mediumint(9)'
p2010
sa(dp2011
g1975
S''
sg1976
Nsg1977
S'requestee_id'
p2012
sg1979
S'MUL'
p2013
sg1981
S'YES'
p2014
sg1982
S'mediumint(9)'
p2015
sa(dp2016
g1975
S''
sg1976
S'1'
sg1977
S'is_active'
p2017
sg1979
S''
sg1981
S''
sg1982
S'tinyint(4)'
p2018
sa(lp2019
(dp2020
S'Comment'
p2021
S''
sS'Non_unique'
p2022
L0L
sS'Sub_part'
p2023
NsS'Index_type'
p2024
S'BTREE'
p2025
sS'Key_name'
p2026
S'PRIMARY'
p2027
sS'Collation'
p2028
S'A'
sS'Null'
p2029
S''
sS'Seq_in_index'
p2030
L1L
sS'Table'
p2031
S'flags'
p2032
sS'Cardinality'
p2033
L0L
sS'Packed'
p2034
NsS'Column_name'
p2035
S'id'
p2036
sa(dp2037
g2021
S''
sg2022
L1L
sg2023
Nsg2024
S'BTREE'
p2038
sg2026
S'bug_id'
p2039
sg2028
S'A'
sg2029
S''
sg2030
L1L
sg2031
S'flags'
p2040
sg2033
Nsg2034
Nsg2035
S'bug_id'
p2041
sa(dp2042
g2021
S''
sg2022
L1L
sg2023
Nsg2024
S'BTREE'
p2043
sg2026
S'bug_id'
p2044
sg2028
S'A'
sg2029
S'YES'
p2045
sg2030
L2L
sg2031
S'flags'
p2046
sg2033
Nsg2034
Nsg2035
S'attach_id'
p2047
sa(dp2048
g2021
S''
sg2022
L1L
sg2023
Nsg2024
S'BTREE'
p2049
sg2026
S'setter_id'
p2050
sg2028
S'A'
sg2029
S'YES'
p2051
sg2030
L1L
sg2031
S'flags'
p2052
sg2033
Nsg2034
Nsg2035
S'setter_id'
p2053
sa(dp2054
g2021
S''
sg2022
L1L
sg2023
Nsg2024
S'BTREE'
p2055
sg2026
S'requestee_id'
p2056
sg2028
S'A'
sg2029
S'YES'
p2057
sg2030
L1L
sg2031
S'flags'
p2058
sg2033
Nsg2034
Nsg2035
S'requestee_id'
p2059
satp2060
sS'components'
p2061
((lp2062
(dp2063
S'Extra'
p2064
S'auto_increment'
p2065
sS'Default'
p2066
NsS'Field'
p2067
S'id'
p2068
sS'Key'
p2069
S'PRI'
p2070
sS'Null'
p2071
S''
sS'Type'
p2072
S'smallint(6)'
p2073
sa(dp2074
g2064
S''
sg2066
S''
sg2067
S'name'
p2075
sg2069
S'MUL'
p2076
sg2071
S''
sg2072
S'varchar(64)'
p2077
sa(dp2078
g2064
S''
sg2066
S'0'
sg2067
S'product_id'
p2079
sg2069
S'MUL'
p2080
sg2071
S''
sg2072
S'smallint(6)'
p2081
sa(dp2082
g2064
S''
sg2066
S'0'
sg2067
S'initialowner'
p2083
sg2069
S''
sg2071
S''
sg2072
S'mediumint(9)'
p2084
sa(dp2085
g2064
S''
sg2066
S'0'
sg2067
S'initialqacontact'
p2086
sg2069
S''
sg2071
S''
sg2072
S'mediumint(9)'
p2087
sa(dp2088
g2064
S''
sg2066
S''
sg2067
S'description'
p2089
sg2069
S''
sg2071
S''
sg2072
S'mediumtext'
p2090
sa(lp2091
(dp2092
S'Comment'
p2093
S''
sS'Non_unique'
p2094
L0L
sS'Sub_part'
p2095
NsS'Index_type'
p2096
S'BTREE'
p2097
sS'Key_name'
p2098
S'PRIMARY'
p2099
sS'Collation'
p2100
S'A'
sS'Null'
p2101
S''
sS'Seq_in_index'
p2102
L1L
sS'Table'
p2103
S'components'
p2104
sS'Cardinality'
p2105
L1L
sS'Packed'
p2106
NsS'Column_name'
p2107
S'id'
p2108
sa(dp2109
g2093
S''
sg2094
L0L
sg2095
Nsg2096
S'BTREE'
p2110
sg2098
S'product_id'
p2111
sg2100
S'A'
sg2101
S''
sg2102
L1L
sg2103
S'components'
p2112
sg2105
Nsg2106
Nsg2107
S'product_id'
p2113
sa(dp2114
g2093
S''
sg2094
L0L
sg2095
Nsg2096
S'BTREE'
p2115
sg2098
S'product_id'
p2116
sg2100
S'A'
sg2101
S''
sg2102
L2L
sg2103
S'components'
p2117
sg2105
L1L
sg2106
Nsg2107
S'name'
p2118
sa(dp2119
g2093
S''
sg2094
L1L
sg2095
Nsg2096
S'BTREE'
p2120
sg2098
S'name'
p2121
sg2100
S'A'
sg2101
S''
sg2102
L1L
sg2103
S'components'
p2122
sg2105
Nsg2106
Nsg2107
S'name'
p2123
satp2124
sS'whine_queries'
p2125
((lp2126
(dp2127
S'Extra'
p2128
S'auto_increment'
p2129
sS'Default'
p2130
NsS'Field'
p2131
S'id'
p2132
sS'Key'
p2133
S'PRI'
p2134
sS'Null'
p2135
S''
sS'Type'
p2136
S'mediumint(9)'
p2137
sa(dp2138
g2128
S''
sg2130
S'0'
sg2131
S'eventid'
p2139
sg2133
S'MUL'
p2140
sg2135
S''
sg2136
S'mediumint(9)'
p2141
sa(dp2142
g2128
S''
sg2130
S''
sg2131
S'query_name'
p2143
sg2133
S''
sg2135
S''
sg2136
S'varchar(64)'
p2144
sa(dp2145
g2128
S''
sg2130
S'0'
sg2131
S'sortkey'
p2146
sg2133
S''
sg2135
S''
sg2136
S'smallint(6)'
p2147
sa(dp2148
g2128
S''
sg2130
S'0'
sg2131
S'onemailperbug'
p2149
sg2133
S''
sg2135
S''
sg2136
S'tinyint(4)'
p2150
sa(dp2151
g2128
S''
sg2130
S''
sg2131
S'title'
p2152
sg2133
S''
sg2135
S''
sg2136
S'varchar(128)'
p2153
sa(lp2154
(dp2155
S'Comment'
p2156
S''
sS'Non_unique'
p2157
L0L
sS'Sub_part'
p2158
NsS'Index_type'
p2159
S'BTREE'
p2160
sS'Key_name'
p2161
S'PRIMARY'
p2162
sS'Collation'
p2163
S'A'
sS'Null'
p2164
S''
sS'Seq_in_index'
p2165
L1L
sS'Table'
p2166
S'whine_queries'
p2167
sS'Cardinality'
p2168
L0L
sS'Packed'
p2169
NsS'Column_name'
p2170
S'id'
p2171
sa(dp2172
g2156
S''
sg2157
L1L
sg2158
Nsg2159
S'BTREE'
p2173
sg2161
S'eventid'
p2174
sg2163
S'A'
sg2164
S''
sg2165
L1L
sg2166
S'whine_queries'
p2175
sg2168
Nsg2169
Nsg2170
S'eventid'
p2176
satp2177
sS'group_control_map'
p2178
((lp2179
(dp2180
S'Extra'
p2181
S''
sS'Default'
p2182
S'0'
sS'Field'
p2183
S'group_id'
p2184
sS'Key'
p2185
S'PRI'
p2186
sS'Null'
p2187
S''
sS'Type'
p2188
S'mediumint(9)'
p2189
sa(dp2190
g2181
S''
sg2182
S'0'
sg2183
S'product_id'
p2191
sg2185
S'PRI'
p2192
sg2187
S''
sg2188
S'mediumint(9)'
p2193
sa(dp2194
g2181
S''
sg2182
S'0'
sg2183
S'entry'
p2195
sg2185
S''
sg2187
S''
sg2188
S'tinyint(4)'
p2196
sa(dp2197
g2181
S''
sg2182
S'0'
sg2183
S'membercontrol'
p2198
sg2185
S''
sg2187
S''
sg2188
S'tinyint(4)'
p2199
sa(dp2200
g2181
S''
sg2182
S'0'
sg2183
S'othercontrol'
p2201
sg2185
S''
sg2187
S''
sg2188
S'tinyint(4)'
p2202
sa(dp2203
g2181
S''
sg2182
S'0'
sg2183
S'canedit'
p2204
sg2185
S''
sg2187
S''
sg2188
S'tinyint(4)'
p2205
sa(lp2206
(dp2207
S'Comment'
p2208
S''
sS'Non_unique'
p2209
L0L
sS'Sub_part'
p2210
NsS'Index_type'
p2211
S'BTREE'
p2212
sS'Key_name'
p2213
S'product_id'
p2214
sS'Collation'
p2215
S'A'
sS'Null'
p2216
S''
sS'Seq_in_index'
p2217
L1L
sS'Table'
p2218
S'group_control_map'
p2219
sS'Cardinality'
p2220
NsS'Packed'
p2221
NsS'Column_name'
p2222
S'product_id'
p2223
sa(dp2224
g2208
S''
sg2209
L0L
sg2210
Nsg2211
S'BTREE'
p2225
sg2213
S'product_id'
p2226
sg2215
S'A'
sg2216
S''
sg2217
L2L
sg2218
S'group_control_map'
p2227
sg2220
L0L
sg2221
Nsg2222
S'group_id'
p2228
sa(dp2229
g2208
S''
sg2209
L1L
sg2210
Nsg2211
S'BTREE'
p2230
sg2213
S'group_id'
p2231
sg2215
S'A'
sg2216
S''
sg2217
L1L
sg2218
S'group_control_map'
p2232
sg2220
Nsg2221
Nsg2222
S'group_id'
p2233
satp2234
st.