(S'2.2'
p1
(dp2
S'bugs_activity'
p3
((lp4
(dp5
S'Extra'
p6
S''
sS'Default'
p7
S'0'
sS'Field'
p8
S'bug_id'
p9
sS'Key'
p10
S'MUL'
p11
sS'Null'
p12
S''
sS'Type'
p13
S'mediumint(9)'
p14
sa(dp15
g6
S''
sg7
S'0'
sg8
S'who'
p16
sg10
S''
sg12
S''
sg13
S'mediumint(9)'
p17
sa(dp18
g6
S''
sg7
S'0000-00-00 00:00:00'
p19
sg8
S'when'
p20
sg10
S'MUL'
p21
sg12
S''
sg13
S'datetime'
p22
sa(dp23
g6
S''
sg7
S''
sg8
S'field'
p24
sg10
S''
sg12
S''
sg13
S'varchar(64)'
p25
sa(dp26
g6
S''
sg7
Nsg8
S'oldvalue'
p27
sg10
S''
sg12
S'YES'
p28
sg13
S'tinytext'
p29
sa(dp30
g6
S''
sg7
Nsg8
S'newvalue'
p31
sg10
S''
sg12
S'YES'
p32
sg13
S'tinytext'
p33
sa(lp34
(dp35
S'Comment'
p36
S''
sS'Non_unique'
p37
L1L
sS'Sub_part'
p38
NsS'Index_type'
p39
S'BTREE'
p40
sS'Key_name'
p41
S'bug_id'
p42
sS'Collation'
p43
S'A'
sS'Null'
p44
S''
sS'Seq_in_index'
p45
L1L
sS'Table'
p46
S'bugs_activity'
p47
sS'Cardinality'
p48
NsS'Packed'
p49
NsS'Column_name'
p50
S'bug_id'
p51
sa(dp52
g36
S''
sg37
L1L
sg38
Nsg39
S'BTREE'
p53
sg41
S'when'
p54
sg43
S'A'
sg44
S''
sg45
L1L
sg46
S'bugs_activity'
p55
sg48
Nsg49
Nsg50
S'when'
p56
satp57
sS'versions'
p58
((lp59
(dp60
S'Extra'
p61
S''
sS'Default'
p62
NsS'Field'
p63
S'value'
p64
sS'Key'
p65
S''
sS'Null'
p66
S'YES'
p67
sS'Type'
p68
S'tinytext'
p69
sa(dp70
g61
S''
sg62
Nsg63
S'program'
p71
sg65
S''
sg66
S'YES'
p72
sg68
S'tinytext'
p73
sa(lp74
tp75
sS'cc'
p76
((lp77
(dp78
S'Extra'
p79
S''
sS'Default'
p80
S'0'
sS'Field'
p81
S'bug_id'
p82
sS'Key'
p83
S'MUL'
p84
sS'Null'
p85
S''
sS'Type'
p86
S'mediumint(9)'
p87
sa(dp88
g79
S''
sg80
S'0'
sg81
S'who'
p89
sg83
S'MUL'
p90
sg85
S''
sg86
S'mediumint(9)'
p91
sa(lp92
(dp93
S'Comment'
p94
S''
sS'Non_unique'
p95
L1L
sS'Sub_part'
p96
NsS'Index_type'
p97
S'BTREE'
p98
sS'Key_name'
p99
S'bug_id'
p100
sS'Collation'
p101
S'A'
sS'Null'
p102
S''
sS'Seq_in_index'
p103
L1L
sS'Table'
p104
S'cc'
p105
sS'Cardinality'
p106
NsS'Packed'
p107
NsS'Column_name'
p108
S'bug_id'
p109
sa(dp110
g94
S''
sg95
L1L
sg96
Nsg97
S'BTREE'
p111
sg99
S'who'
p112
sg101
S'A'
sg102
S''
sg103
L1L
sg104
S'cc'
p113
sg106
Nsg107
Nsg108
S'who'
p114
satp115
sS'bugs'
p116
((lp117
(dp118
S'Extra'
p119
S'auto_increment'
p120
sS'Default'
p121
NsS'Field'
p122
S'bug_id'
p123
sS'Key'
p124
S'PRI'
p125
sS'Null'
p126
S''
sS'Type'
p127
S'mediumint(9)'
p128
sa(dp129
g119
S''
sg121
S'0'
sg122
S'assigned_to'
p130
sg124
S'MUL'
p131
sg126
S''
sg127
S'mediumint(9)'
p132
sa(dp133
g119
S''
sg121
Nsg122
S'bug_file_loc'
p134
sg124
S''
sg126
S'YES'
p135
sg127
S'text'
p136
sa(dp137
g119
S''
sg121
S'critical'
p138
sg122
S'bug_severity'
p139
sg124
S'MUL'
p140
sg126
S''
sg127
S"enum('critical','major','normal','minor','trivial','enhancement')"
p141
sa(dp142
g119
S''
sg121
S'NEW'
p143
sg122
S'bug_status'
p144
sg124
S'MUL'
p145
sg126
S''
sg127
S"enum('NEW','ASSIGNED','REOPENED','RESOLVED','VERIFIED','CLOSED')"
p146
sa(dp147
g119
S''
sg121
Nsg122
S'creation_ts'
p148
sg124
S''
sg126
S'YES'
p149
sg127
S'datetime'
p150
sa(dp151
g119
S''
sg121
Nsg122
S'delta_ts'
p152
sg124
S'MUL'
p153
sg126
S'YES'
p154
sg127
S'timestamp(14)'
p155
sa(dp156
g119
S''
sg121
Nsg122
S'short_desc'
p157
sg124
S''
sg126
S'YES'
p158
sg127
S'mediumtext'
p159
sa(dp160
g119
S''
sg121
Nsg122
S'long_desc'
p161
sg124
S''
sg126
S'YES'
p162
sg127
S'mediumtext'
p163
sa(dp164
g119
S''
sg121
S'All'
p165
sg122
S'op_sys'
p166
sg124
S'MUL'
p167
sg126
S''
sg127
S"enum('All','Windows 3.1','Windows 95','Windows 98','Windows NT','Mac System 7','Mac System 7.5','Mac System 7.6.1','Mac System 8.0','Mac System 8.5','AIX','BSDI','HP-UX','IRIX','Linux','FreeBSD','OSF/1','Solaris','SunOS','OS/2','other')"
p168
sa(dp169
g119
S''
sg121
S'P1'
p170
sg122
S'priority'
p171
sg124
S'MUL'
p172
sg126
S''
sg127
S"enum('P1','P2','P3','P4','P5')"
p173
sa(dp174
g119
S''
sg121
S''
sg122
S'product'
p175
sg124
S'MUL'
p176
sg126
S''
sg127
S'varchar(16)'
p177
sa(dp178
g119
S''
sg121
Nsg122
S'rep_platform'
p179
sg124
S''
sg126
S'YES'
p180
sg127
S"enum('All','DEC','HP','Macintosh','PC','SGI','Sun','Other')"
p181
sa(dp182
g119
S''
sg121
S'0'
sg122
S'reporter'
p183
sg124
S'MUL'
p184
sg126
S''
sg127
S'mediumint(9)'
p185
sa(dp186
g119
S''
sg121
S''
sg122
S'version'
p187
sg124
S'MUL'
p188
sg126
S''
sg127
S'varchar(16)'
p189
sa(dp190
g119
S''
sg121
S'BUILD'
p191
sg122
S'area'
p192
sg124
S'MUL'
p193
sg126
S''
sg127
S"enum('BUILD','CODE','CONTENT','DOC','PERFORMANCE','TEST','UI','i18n','l10n')"
p194
sa(dp195
g119
S''
sg121
S''
sg122
S'component'
p196
sg124
S'MUL'
p197
sg126
S''
sg127
S'varchar(50)'
p198
sa(dp199
g119
S''
sg121
S''
sg122
S'resolution'
p200
sg124
S'MUL'
p201
sg126
S''
sg127
S"enum('','FIXED','INVALID','WONTFIX','LATER','REMIND','DUPLICATE','WORKSFORME')"
p202
sa(dp203
g119
S''
sg121
S''
sg122
S'target_milestone'
p204
sg124
S'MUL'
p205
sg126
S''
sg127
S'varchar(20)'
p206
sa(dp207
g119
S''
sg121
S'0'
sg122
S'qa_contact'
p208
sg124
S'MUL'
p209
sg126
S''
sg127
S'mediumint(9)'
p210
sa(dp211
g119
S''
sg121
S''
sg122
S'status_whiteboard'
p212
sg124
S''
sg126
S''
sg127
S'mediumtext'
p213
sa(lp214
(dp215
S'Comment'
p216
S''
sS'Non_unique'
p217
L0L
sS'Sub_part'
p218
NsS'Index_type'
p219
S'BTREE'
p220
sS'Key_name'
p221
S'PRIMARY'
p222
sS'Collation'
p223
S'A'
sS'Null'
p224
S''
sS'Seq_in_index'
p225
L1L
sS'Table'
p226
S'bugs'
p227
sS'Cardinality'
p228
L0L
sS'Packed'
p229
NsS'Column_name'
p230
S'bug_id'
p231
sa(dp232
g216
S''
sg217
L1L
sg218
Nsg219
S'BTREE'
p233
sg221
S'assigned_to'
p234
sg223
S'A'
sg224
S''
sg225
L1L
sg226
S'bugs'
p235
sg228
Nsg229
Nsg230
S'assigned_to'
p236
sa(dp237
g216
S''
sg217
L1L
sg218
Nsg219
S'BTREE'
p238
sg221
S'delta_ts'
p239
sg223
S'A'
sg224
S''
sg225
L1L
sg226
S'bugs'
p240
sg228
Nsg229
Nsg230
S'delta_ts'
p241
sa(dp242
g216
S''
sg217
L1L
sg218
Nsg219
S'BTREE'
p243
sg221
S'bug_severity'
p244
sg223
S'A'
sg224
S''
sg225
L1L
sg226
S'bugs'
p245
sg228
Nsg229
Nsg230
S'bug_severity'
p246
sa(dp247
g216
S''
sg217
L1L
sg218
Nsg219
S'BTREE'
p248
sg221
S'bug_status'
p249
sg223
S'A'
sg224
S''
sg225
L1L
sg226
S'bugs'
p250
sg228
Nsg229
Nsg230
S'bug_status'
p251
sa(dp252
g216
S''
sg217
L1L
sg218
Nsg219
S'BTREE'
p253
sg221
S'op_sys'
p254
sg223
S'A'
sg224
S''
sg225
L1L
sg226
S'bugs'
p255
sg228
Nsg229
Nsg230
S'op_sys'
p256
sa(dp257
g216
S''
sg217
L1L
sg218
Nsg219
S'BTREE'
p258
sg221
S'priority'
p259
sg223
S'A'
sg224
S''
sg225
L1L
sg226
S'bugs'
p260
sg228
Nsg229
Nsg230
S'priority'
p261
sa(dp262
g216
S''
sg217
L1L
sg218
Nsg219
S'BTREE'
p263
sg221
S'product'
p264
sg223
S'A'
sg224
S''
sg225
L1L
sg226
S'bugs'
p265
sg228
Nsg229
Nsg230
S'product'
p266
sa(dp267
g216
S''
sg217
L1L
sg218
Nsg219
S'BTREE'
p268
sg221
S'reporter'
p269
sg223
S'A'
sg224
S''
sg225
L1L
sg226
S'bugs'
p270
sg228
Nsg229
Nsg230
S'reporter'
p271
sa(dp272
g216
S''
sg217
L1L
sg218
Nsg219
S'BTREE'
p273
sg221
S'version'
p274
sg223
S'A'
sg224
S''
sg225
L1L
sg226
S'bugs'
p275
sg228
Nsg229
Nsg230
S'version'
p276
sa(dp277
g216
S''
sg217
L1L
sg218
Nsg219
S'BTREE'
p278
sg221
S'area'
p279
sg223
S'A'
sg224
S''
sg225
L1L
sg226
S'bugs'
p280
sg228
Nsg229
Nsg230
S'area'
p281
sa(dp282
g216
S''
sg217
L1L
sg218
Nsg219
S'BTREE'
p283
sg221
S'component'
p284
sg223
S'A'
sg224
S''
sg225
L1L
sg226
S'bugs'
p285
sg228
Nsg229
Nsg230
S'component'
p286
sa(dp287
g216
S''
sg217
L1L
sg218
Nsg219
S'BTREE'
p288
sg221
S'resolution'
p289
sg223
S'A'
sg224
S''
sg225
L1L
sg226
S'bugs'
p290
sg228
Nsg229
Nsg230
S'resolution'
p291
sa(dp292
g216
S''
sg217
L1L
sg218
Nsg219
S'BTREE'
p293
sg221
S'target_milestone'
p294
sg223
S'A'
sg224
S''
sg225
L1L
sg226
S'bugs'
p295
sg228
Nsg229
Nsg230
S'target_milestone'
p296
sa(dp297
g216
S''
sg217
L1L
sg218
Nsg219
S'BTREE'
p298
sg221
S'qa_contact'
p299
sg223
S'A'
sg224
S''
sg225
L1L
sg226
S'bugs'
p300
sg228
Nsg229
Nsg230
S'qa_contact'
p301
satp302
sS'profiles'
p303
((lp304
(dp305
S'Extra'
p306
S'auto_increment'
p307
sS'Default'
p308
NsS'Field'
p309
S'userid'
p310
sS'Key'
p311
S'PRI'
p312
sS'Null'
p313
S''
sS'Type'
p314
S'mediumint(9)'
p315
sa(dp316
g306
S''
sg308
S''
sg309
S'login_name'
p317
sg311
S'MUL'
p318
sg313
S''
sg314
S'varchar(255)'
p319
sa(dp320
g306
S''
sg308
Nsg309
S'password'
p321
sg311
S''
sg313
S'YES'
p322
sg314
S'varchar(16)'
p323
sa(dp324
g306
S''
sg308
Nsg309
S'cryptpassword'
p325
sg311
S''
sg313
S'YES'
p326
sg314
S'varchar(64)'
p327
sa(dp328
g306
S''
sg308
Nsg309
S'realname'
p329
sg311
S''
sg313
S'YES'
p330
sg314
S'varchar(255)'
p331
sa(lp332
(dp333
S'Comment'
p334
S''
sS'Non_unique'
p335
L0L
sS'Sub_part'
p336
NsS'Index_type'
p337
S'BTREE'
p338
sS'Key_name'
p339
S'PRIMARY'
p340
sS'Collation'
p341
S'A'
sS'Null'
p342
S''
sS'Seq_in_index'
p343
L1L
sS'Table'
p344
S'profiles'
p345
sS'Cardinality'
p346
L0L
sS'Packed'
p347
NsS'Column_name'
p348
S'userid'
p349
sa(dp350
g334
S''
sg335
L1L
sg336
Nsg337
S'BTREE'
p351
sg339
S'login_name'
p352
sg341
S'A'
sg342
S''
sg343
L1L
sg344
S'profiles'
p353
sg346
Nsg347
Nsg348
S'login_name'
p354
satp355
sS'products'
p356
((lp357
(dp358
S'Extra'
p359
S''
sS'Default'
p360
NsS'Field'
p361
S'product'
p362
sS'Key'
p363
S''
sS'Null'
p364
S'YES'
p365
sS'Type'
p366
S'tinytext'
p367
sa(dp368
g359
S''
sg360
Nsg361
S'description'
p369
sg363
S''
sg364
S'YES'
p370
sg366
S'mediumtext'
p371
sa(dp372
g359
S''
sg360
S''
sg361
S'milestoneurl'
p373
sg363
S''
sg364
S''
sg366
S'tinytext'
p374
sa(ltp375
sS'components'
p376
((lp377
(dp378
S'Extra'
p379
S''
sS'Default'
p380
NsS'Field'
p381
S'value'
p382
sS'Key'
p383
S''
sS'Null'
p384
S'YES'
p385
sS'Type'
p386
S'tinytext'
p387
sa(dp388
g379
S''
sg380
Nsg381
S'program'
p389
sg383
S''
sg384
S'YES'
p390
sg386
S'tinytext'
p391
sa(dp392
g379
S''
sg380
S''
sg381
S'initialowner'
p393
sg383
S''
sg384
S''
sg386
S'tinytext'
p394
sa(dp395
g379
S''
sg380
S''
sg381
S'initialqacontact'
p396
sg383
S''
sg384
S''
sg386
S'tinytext'
p397
sa(dp398
g379
S''
sg380
S''
sg381
S'description'
p399
sg383
S''
sg384
S''
sg386
S'mediumtext'
p400
sa(ltp401
sS'logincookies'
p402
((lp403
(dp404
S'Extra'
p405
S'auto_increment'
p406
sS'Default'
p407
NsS'Field'
p408
S'cookie'
p409
sS'Key'
p410
S'PRI'
p411
sS'Null'
p412
S''
sS'Type'
p413
S'mediumint(9)'
p414
sa(dp415
g405
S''
sg407
S'0'
sg408
S'userid'
p416
sg410
S''
sg412
S''
sg413
S'mediumint(9)'
p417
sa(dp418
g405
S''
sg407
Nsg408
S'cryptpassword'
p419
sg410
S''
sg412
S'YES'
p420
sg413
S'varchar(64)'
p421
sa(dp422
g405
S''
sg407
Nsg408
S'hostname'
p423
sg410
S''
sg412
S'YES'
p424
sg413
S'varchar(128)'
p425
sa(dp426
g405
S''
sg407
Nsg408
S'lastused'
p427
sg410
S'MUL'
p428
sg412
S'YES'
p429
sg413
S'timestamp(14)'
p430
sa(lp431
(dp432
S'Comment'
p433
S''
sS'Non_unique'
p434
L0L
sS'Sub_part'
p435
NsS'Index_type'
p436
S'BTREE'
p437
sS'Key_name'
p438
S'PRIMARY'
p439
sS'Collation'
p440
S'A'
sS'Null'
p441
S''
sS'Seq_in_index'
p442
L1L
sS'Table'
p443
S'logincookies'
p444
sS'Cardinality'
p445
L0L
sS'Packed'
p446
NsS'Column_name'
p447
S'cookie'
p448
sa(dp449
g433
S''
sg434
L1L
sg435
Nsg436
S'BTREE'
p450
sg438
S'lastused'
p451
sg440
S'A'
sg441
S''
sg442
L1L
sg443
S'logincookies'
p452
sg445
Nsg446
Nsg447
S'lastused'
p453
satp454
st.