(S'2.21.1'
p1
(dp2
S'bug_group_map'
p3
((lp4
(dp5
S'Extra'
p6
S''
sS'Default'
p7
S'0'
sS'Field'
p8
S'bug_id'
p9
sS'Key'
p10
S'PRI'
p11
sS'Null'
p12
S''
sS'Type'
p13
S'mediumint(9)'
p14
sa(dp15
g6
S''
sg7
S'0'
sg8
S'group_id'
p16
sg10
S'PRI'
p17
sg12
S''
sg13
S'mediumint(9)'
p18
sa(lp19
(dp20
S'Comment'
p21
S''
sS'Non_unique'
p22
L0L
sS'Sub_part'
p23
NsS'Index_type'
p24
S'BTREE'
p25
sS'Key_name'
p26
S'bug_group_map_bug_id_idx'
p27
sS'Collation'
p28
S'A'
sS'Null'
p29
S''
sS'Seq_in_index'
p30
L1L
sS'Table'
p31
S'bug_group_map'
p32
sS'Cardinality'
p33
NsS'Packed'
p34
NsS'Column_name'
p35
S'bug_id'
p36
sa(dp37
g21
S''
sg22
L0L
sg23
Nsg24
S'BTREE'
p38
sg26
S'bug_group_map_bug_id_idx'
p39
sg28
S'A'
sg29
S''
sg30
L2L
sg31
S'bug_group_map'
p40
sg33
L0L
sg34
Nsg35
S'group_id'
p41
sa(dp42
g21
S''
sg22
L1L
sg23
Nsg24
S'BTREE'
p43
sg26
S'bug_group_map_group_id_idx'
p44
sg28
S'A'
sg29
S''
sg30
L1L
sg31
S'bug_group_map'
p45
sg33
Nsg34
Nsg35
S'group_id'
p46
satp47
sS'attachments'
p48
((lp49
(dp50
S'Extra'
p51
S'auto_increment'
p52
sS'Default'
p53
NsS'Field'
p54
S'attach_id'
p55
sS'Key'
p56
S'PRI'
p57
sS'Null'
p58
S''
sS'Type'
p59
S'mediumint(9)'
p60
sa(dp61
g51
S''
sg53
S'0'
sg54
S'bug_id'
p62
sg56
S'MUL'
p63
sg58
S''
sg59
S'mediumint(9)'
p64
sa(dp65
g51
S''
sg53
S'0000-00-00 00:00:00'
p66
sg54
S'creation_ts'
p67
sg56
S'MUL'
p68
sg58
S''
sg59
S'datetime'
p69
sa(dp70
g51
S''
sg53
S''
sg54
S'description'
p71
sg56
S''
sg58
S''
sg59
S'mediumtext'
p72
sa(dp73
g51
S''
sg53
S''
sg54
S'mimetype'
p74
sg56
S''
sg58
S''
sg59
S'mediumtext'
p75
sa(dp76
g51
S''
sg53
Nsg54
S'ispatch'
p77
sg56
S''
sg58
S'YES'
p78
sg59
S'tinyint(4)'
p79
sa(dp80
g51
S''
sg53
S''
sg54
S'filename'
p81
sg56
S''
sg58
S''
sg59
S'varchar(100)'
p82
sa(dp83
g51
S''
sg53
S'0'
sg54
S'submitter_id'
p84
sg56
S'MUL'
p85
sg58
S''
sg59
S'mediumint(9)'
p86
sa(dp87
g51
S''
sg53
S'0'
sg54
S'isobsolete'
p88
sg56
S''
sg58
S''
sg59
S'tinyint(4)'
p89
sa(dp90
g51
S''
sg53
S'0'
sg54
S'isprivate'
p91
sg56
S''
sg58
S''
sg59
S'tinyint(4)'
p92
sa(lp93
(dp94
S'Comment'
p95
S''
sS'Non_unique'
p96
L0L
sS'Sub_part'
p97
NsS'Index_type'
p98
S'BTREE'
p99
sS'Key_name'
p100
S'PRIMARY'
p101
sS'Collation'
p102
S'A'
sS'Null'
p103
S''
sS'Seq_in_index'
p104
L1L
sS'Table'
p105
S'attachments'
p106
sS'Cardinality'
p107
L0L
sS'Packed'
p108
NsS'Column_name'
p109
S'attach_id'
p110
sa(dp111
g95
S''
sg96
L1L
sg97
Nsg98
S'BTREE'
p112
sg100
S'attachments_bug_id_idx'
p113
sg102
S'A'
sg103
S''
sg104
L1L
sg105
S'attachments'
p114
sg107
Nsg108
Nsg109
S'bug_id'
p115
sa(dp116
g95
S''
sg96
L1L
sg97
Nsg98
S'BTREE'
p117
sg100
S'attachments_creation_ts_idx'
p118
sg102
S'A'
sg103
S''
sg104
L1L
sg105
S'attachments'
p119
sg107
Nsg108
Nsg109
S'creation_ts'
p120
sa(dp121
g95
S''
sg96
L1L
sg97
Nsg98
S'BTREE'
p122
sg100
S'attachments_submitter_id_idx'
p123
sg102
S'A'
sg103
S''
sg104
L1L
sg105
S'attachments'
p124
sg107
Nsg108
Nsg109
S'submitter_id'
p125
sa(dp126
g95
S''
sg96
L1L
sg97
Nsg98
S'BTREE'
p127
sg100
S'attachments_submitter_id_idx'
p128
sg102
S'A'
sg103
S''
sg104
L2L
sg105
S'attachments'
p129
sg107
Nsg108
Nsg109
S'bug_id'
p130
satp131
sS'profile_setting'
p132
((lp133
(dp134
S'Extra'
p135
S''
sS'Default'
p136
S'0'
sS'Field'
p137
S'user_id'
p138
sS'Key'
p139
S'PRI'
p140
sS'Null'
p141
S''
sS'Type'
p142
S'mediumint(9)'
p143
sa(dp144
g135
S''
sg136
S''
sg137
S'setting_name'
p145
sg139
S'PRI'
p146
sg141
S''
sg142
S'varchar(32)'
p147
sa(dp148
g135
S''
sg136
S''
sg137
S'setting_value'
p149
sg139
S''
sg141
S''
sg142
S'varchar(32)'
p150
sa(lp151
(dp152
S'Comment'
p153
S''
sS'Non_unique'
p154
L0L
sS'Sub_part'
p155
NsS'Index_type'
p156
S'BTREE'
p157
sS'Key_name'
p158
S'profile_setting_value_unique_idx'
p159
sS'Collation'
p160
S'A'
sS'Null'
p161
S''
sS'Seq_in_index'
p162
L1L
sS'Table'
p163
S'profile_setting'
p164
sS'Cardinality'
p165
NsS'Packed'
p166
NsS'Column_name'
p167
S'user_id'
p168
sa(dp169
g153
S''
sg154
L0L
sg155
Nsg156
S'BTREE'
p170
sg158
S'profile_setting_value_unique_idx'
p171
sg160
S'A'
sg161
S''
sg162
L2L
sg163
S'profile_setting'
p172
sg165
L0L
sg166
Nsg167
S'setting_name'
p173
satp174
sS'duplicates'
p175
((lp176
(dp177
S'Extra'
p178
S''
sS'Default'
p179
S'0'
sS'Field'
p180
S'dupe_of'
p181
sS'Key'
p182
S''
sS'Null'
p183
S''
sS'Type'
p184
S'mediumint(9)'
p185
sa(dp186
g178
S''
sg179
S'0'
sg180
S'dupe'
p187
sg182
S'PRI'
p188
sg183
S''
sg184
S'mediumint(9)'
p189
sa(lp190
(dp191
S'Comment'
p192
S''
sS'Non_unique'
p193
L0L
sS'Sub_part'
p194
NsS'Index_type'
p195
S'BTREE'
p196
sS'Key_name'
p197
S'PRIMARY'
p198
sS'Collation'
p199
S'A'
sS'Null'
p200
S''
sS'Seq_in_index'
p201
L1L
sS'Table'
p202
S'duplicates'
p203
sS'Cardinality'
p204
L0L
sS'Packed'
p205
NsS'Column_name'
p206
S'dupe'
p207
satp208
sS'rep_platform'
p209
((lp210
(dp211
S'Extra'
p212
S'auto_increment'
p213
sS'Default'
p214
NsS'Field'
p215
S'id'
p216
sS'Key'
p217
S'PRI'
p218
sS'Null'
p219
S''
sS'Type'
p220
S'smallint(6)'
p221
sa(dp222
g212
S''
sg214
S''
sg215
S'value'
p223
sg217
S'UNI'
p224
sg219
S''
sg220
S'varchar(64)'
p225
sa(dp226
g212
S''
sg214
S'0'
sg215
S'sortkey'
p227
sg217
S'MUL'
p228
sg219
S''
sg220
S'smallint(6)'
p229
sa(dp230
g212
S''
sg214
S'1'
sg215
S'isactive'
p231
sg217
S''
sg219
S''
sg220
S'tinyint(4)'
p232
sa(lp233
(dp234
S'Comment'
p235
S''
sS'Non_unique'
p236
L0L
sS'Sub_part'
p237
NsS'Index_type'
p238
S'BTREE'
p239
sS'Key_name'
p240
S'PRIMARY'
p241
sS'Collation'
p242
S'A'
sS'Null'
p243
S''
sS'Seq_in_index'
p244
L1L
sS'Table'
p245
S'rep_platform'
p246
sS'Cardinality'
p247
L4L
sS'Packed'
p248
NsS'Column_name'
p249
S'id'
p250
sa(dp251
g235
S''
sg236
L0L
sg237
Nsg238
S'BTREE'
p252
sg240
S'rep_platform_value_idx'
p253
sg242
S'A'
sg243
S''
sg244
L1L
sg245
S'rep_platform'
p254
sg247
L4L
sg248
Nsg249
S'value'
p255
sa(dp256
g235
S''
sg236
L1L
sg237
Nsg238
S'BTREE'
p257
sg240
S'rep_platform_sortkey_idx'
p258
sg242
S'A'
sg243
S''
sg244
L1L
sg245
S'rep_platform'
p259
sg247
Nsg248
Nsg249
S'sortkey'
p260
sa(dp261
g235
S''
sg236
L1L
sg237
Nsg238
S'BTREE'
p262
sg240
S'rep_platform_sortkey_idx'
p263
sg242
S'A'
sg243
S''
sg244
L2L
sg245
S'rep_platform'
p264
sg247
Nsg248
Nsg249
S'value'
p265
satp266
sS'quips'
p267
((lp268
(dp269
S'Extra'
p270
S'auto_increment'
p271
sS'Default'
p272
NsS'Field'
p273
S'quipid'
p274
sS'Key'
p275
S'PRI'
p276
sS'Null'
p277
S''
sS'Type'
p278
S'mediumint(9)'
p279
sa(dp280
g270
S''
sg272
Nsg273
S'userid'
p281
sg275
S''
sg277
S'YES'
p282
sg278
S'mediumint(9)'
p283
sa(dp284
g270
S''
sg272
S''
sg273
S'quip'
p285
sg275
S''
sg277
S''
sg278
S'text'
p286
sa(dp287
g270
S''
sg272
S'1'
sg273
S'approved'
p288
sg275
S''
sg277
S''
sg278
S'tinyint(4)'
p289
sa(lp290
(dp291
S'Comment'
p292
S''
sS'Non_unique'
p293
L0L
sS'Sub_part'
p294
NsS'Index_type'
p295
S'BTREE'
p296
sS'Key_name'
p297
S'PRIMARY'
p298
sS'Collation'
p299
S'A'
sS'Null'
p300
S''
sS'Seq_in_index'
p301
L1L
sS'Table'
p302
S'quips'
p303
sS'Cardinality'
p304
L0L
sS'Packed'
p305
NsS'Column_name'
p306
S'quipid'
p307
satp308
sS'series_categories'
p309
((lp310
(dp311
S'Extra'
p312
S'auto_increment'
p313
sS'Default'
p314
NsS'Field'
p315
S'id'
p316
sS'Key'
p317
S'PRI'
p318
sS'Null'
p319
S''
sS'Type'
p320
S'smallint(6)'
p321
sa(dp322
g312
S''
sg314
S''
sg315
S'name'
p323
sg317
S'UNI'
p324
sg319
S''
sg320
S'varchar(64)'
p325
sa(lp326
(dp327
S'Comment'
p328
S''
sS'Non_unique'
p329
L0L
sS'Sub_part'
p330
NsS'Index_type'
p331
S'BTREE'
p332
sS'Key_name'
p333
S'PRIMARY'
p334
sS'Collation'
p335
S'A'
sS'Null'
p336
S''
sS'Seq_in_index'
p337
L1L
sS'Table'
p338
S'series_categories'
p339
sS'Cardinality'
p340
L2L
sS'Packed'
p341
NsS'Column_name'
p342
S'id'
p343
sa(dp344
g328
S''
sg329
L0L
sg330
Nsg331
S'BTREE'
p345
sg333
S'series_categories_name_idx'
p346
sg335
S'A'
sg336
S''
sg337
L1L
sg338
S'series_categories'
p347
sg340
L2L
sg341
Nsg342
S'name'
p348
satp349
sS'group_group_map'
p350
((lp351
(dp352
S'Extra'
p353
S''
sS'Default'
p354
S'0'
sS'Field'
p355
S'member_id'
p356
sS'Key'
p357
S'PRI'
p358
sS'Null'
p359
S''
sS'Type'
p360
S'mediumint(9)'
p361
sa(dp362
g353
S''
sg354
S'0'
sg355
S'grantor_id'
p363
sg357
S'PRI'
p364
sg359
S''
sg360
S'mediumint(9)'
p365
sa(dp366
g353
S''
sg354
S'0'
sg355
S'grant_type'
p367
sg357
S'PRI'
p368
sg359
S''
sg360
S'tinyint(4)'
p369
sa(lp370
(dp371
S'Comment'
p372
S''
sS'Non_unique'
p373
L0L
sS'Sub_part'
p374
NsS'Index_type'
p375
S'BTREE'
p376
sS'Key_name'
p377
S'group_group_map_member_id_idx'
p378
sS'Collation'
p379
S'A'
sS'Null'
p380
S''
sS'Seq_in_index'
p381
L1L
sS'Table'
p382
S'group_group_map'
p383
sS'Cardinality'
p384
NsS'Packed'
p385
NsS'Column_name'
p386
S'member_id'
p387
sa(dp388
g372
S''
sg373
L0L
sg374
Nsg375
S'BTREE'
p389
sg377
S'group_group_map_member_id_idx'
p390
sg379
S'A'
sg380
S''
sg381
L2L
sg382
S'group_group_map'
p391
sg384
Nsg385
Nsg386
S'grantor_id'
p392
sa(dp393
g372
S''
sg373
L0L
sg374
Nsg375
S'BTREE'
p394
sg377
S'group_group_map_member_id_idx'
p395
sg379
S'A'
sg380
S''
sg381
L3L
sg382
S'group_group_map'
p396
sg384
L23L
sg385
Nsg386
S'grant_type'
p397
satp398
sS'keywords'
p399
((lp400
(dp401
S'Extra'
p402
S''
sS'Default'
p403
S'0'
sS'Field'
p404
S'bug_id'
p405
sS'Key'
p406
S'PRI'
p407
sS'Null'
p408
S''
sS'Type'
p409
S'mediumint(9)'
p410
sa(dp411
g402
S''
sg403
S'0'
sg404
S'keywordid'
p412
sg406
S'PRI'
p413
sg408
S''
sg409
S'smallint(6)'
p414
sa(lp415
(dp416
S'Comment'
p417
S''
sS'Non_unique'
p418
L0L
sS'Sub_part'
p419
NsS'Index_type'
p420
S'BTREE'
p421
sS'Key_name'
p422
S'keywords_bug_id_idx'
p423
sS'Collation'
p424
S'A'
sS'Null'
p425
S''
sS'Seq_in_index'
p426
L1L
sS'Table'
p427
S'keywords'
p428
sS'Cardinality'
p429
NsS'Packed'
p430
NsS'Column_name'
p431
S'bug_id'
p432
sa(dp433
g417
S''
sg418
L0L
sg419
Nsg420
S'BTREE'
p434
sg422
S'keywords_bug_id_idx'
p435
sg424
S'A'
sg425
S''
sg426
L2L
sg427
S'keywords'
p436
sg429
L0L
sg430
Nsg431
S'keywordid'
p437
sa(dp438
g417
S''
sg418
L1L
sg419
Nsg420
S'BTREE'
p439
sg422
S'keywords_keywordid_idx'
p440
sg424
S'A'
sg425
S''
sg426
L1L
sg427
S'keywords'
p441
sg429
Nsg430
Nsg431
S'keywordid'
p442
satp443
sS'series_data'
p444
((lp445
(dp446
S'Extra'
p447
S''
sS'Default'
p448
S'0'
sS'Field'
p449
S'series_id'
p450
sS'Key'
p451
S'PRI'
p452
sS'Null'
p453
S''
sS'Type'
p454
S'mediumint(9)'
p455
sa(dp456
g447
S''
sg448
S'0000-00-00 00:00:00'
p457
sg449
S'series_date'
p458
sg451
S'PRI'
p459
sg453
S''
sg454
S'datetime'
p460
sa(dp461
g447
S''
sg448
S'0'
sg449
S'series_value'
p462
sg451
S''
sg453
S''
sg454
S'mediumint(9)'
p463
sa(lp464
(dp465
S'Comment'
p466
S''
sS'Non_unique'
p467
L0L
sS'Sub_part'
p468
NsS'Index_type'
p469
S'BTREE'
p470
sS'Key_name'
p471
S'series_data_series_id_idx'
p472
sS'Collation'
p473
S'A'
sS'Null'
p474
S''
sS'Seq_in_index'
p475
L1L
sS'Table'
p476
S'series_data'
p477
sS'Cardinality'
p478
NsS'Packed'
p479
NsS'Column_name'
p480
S'series_id'
p481
sa(dp482
g466
S''
sg467
L0L
sg468
Nsg469
S'BTREE'
p483
sg471
S'series_data_series_id_idx'
p484
sg473
S'A'
sg474
S''
sg475
L2L
sg476
S'series_data'
p485
sg478
L0L
sg479
Nsg480
S'series_date'
p486
satp487
sS'keyworddefs'
p488
((lp489
(dp490
S'Extra'
p491
S''
sS'Default'
p492
S'0'
sS'Field'
p493
S'id'
p494
sS'Key'
p495
S'PRI'
p496
sS'Null'
p497
S''
sS'Type'
p498
S'smallint(6)'
p499
sa(dp500
g491
S''
sg492
S''
sg493
S'name'
p501
sg495
S'UNI'
p502
sg497
S''
sg498
S'varchar(64)'
p503
sa(dp504
g491
S''
sg492
Nsg493
S'description'
p505
sg495
S''
sg497
S'YES'
p506
sg498
S'mediumtext'
p507
sa(lp508
(dp509
S'Comment'
p510
S''
sS'Non_unique'
p511
L0L
sS'Sub_part'
p512
NsS'Index_type'
p513
S'BTREE'
p514
sS'Key_name'
p515
S'PRIMARY'
p516
sS'Collation'
p517
S'A'
sS'Null'
p518
S''
sS'Seq_in_index'
p519
L1L
sS'Table'
p520
S'keyworddefs'
p521
sS'Cardinality'
p522
L0L
sS'Packed'
p523
NsS'Column_name'
p524
S'id'
p525
sa(dp526
g510
S''
sg511
L0L
sg512
Nsg513
S'BTREE'
p527
sg515
S'keyworddefs_name_idx'
p528
sg517
S'A'
sg518
S''
sg519
L1L
sg520
S'keyworddefs'
p529
sg522
L0L
sg523
Nsg524
S'name'
p530
satp531
sS'flagexclusions'
p532
((lp533
(dp534
S'Extra'
p535
S''
sS'Default'
p536
S'0'
sS'Field'
p537
S'type_id'
p538
sS'Key'
p539
S'MUL'
p540
sS'Null'
p541
S''
sS'Type'
p542
S'smallint(6)'
p543
sa(dp544
g535
S''
sg536
Nsg537
S'product_id'
p545
sg539
S''
sg541
S'YES'
p546
sg542
S'smallint(6)'
p547
sa(dp548
g535
S''
sg536
Nsg537
S'component_id'
p549
sg539
S''
sg541
S'YES'
p550
sg542
S'smallint(6)'
p551
sa(lp552
(dp553
S'Comment'
p554
S''
sS'Non_unique'
p555
L1L
sS'Sub_part'
p556
NsS'Index_type'
p557
S'BTREE'
p558
sS'Key_name'
p559
S'flagexclusions_type_id_idx'
p560
sS'Collation'
p561
S'A'
sS'Null'
p562
S''
sS'Seq_in_index'
p563
L1L
sS'Table'
p564
S'flagexclusions'
p565
sS'Cardinality'
p566
NsS'Packed'
p567
NsS'Column_name'
p568
S'type_id'
p569
sa(dp570
g554
S''
sg555
L1L
sg556
Nsg557
S'BTREE'
p571
sg559
S'flagexclusions_type_id_idx'
p572
sg561
S'A'
sg562
S'YES'
p573
sg563
L2L
sg564
S'flagexclusions'
p574
sg566
Nsg567
Nsg568
S'product_id'
p575
sa(dp576
g554
S''
sg555
L1L
sg556
Nsg557
S'BTREE'
p577
sg559
S'flagexclusions_type_id_idx'
p578
sg561
S'A'
sg562
S'YES'
p579
sg563
L3L
sg564
S'flagexclusions'
p580
sg566
Nsg567
Nsg568
S'component_id'
p581
satp582
sS'votes'
p583
((lp584
(dp585
S'Extra'
p586
S''
sS'Default'
p587
S'0'
sS'Field'
p588
S'who'
p589
sS'Key'
p590
S'MUL'
p591
sS'Null'
p592
S''
sS'Type'
p593
S'mediumint(9)'
p594
sa(dp595
g586
S''
sg587
S'0'
sg588
S'bug_id'
p596
sg590
S'MUL'
p597
sg592
S''
sg593
S'mediumint(9)'
p598
sa(dp599
g586
S''
sg587
S'0'
sg588
S'vote_count'
p600
sg590
S''
sg592
S''
sg593
S'smallint(6)'
p601
sa(lp602
(dp603
S'Comment'
p604
S''
sS'Non_unique'
p605
L1L
sS'Sub_part'
p606
NsS'Index_type'
p607
S'BTREE'
p608
sS'Key_name'
p609
S'votes_who_idx'
p610
sS'Collation'
p611
S'A'
sS'Null'
p612
S''
sS'Seq_in_index'
p613
L1L
sS'Table'
p614
S'votes'
p615
sS'Cardinality'
p616
NsS'Packed'
p617
NsS'Column_name'
p618
S'who'
p619
sa(dp620
g604
S''
sg605
L1L
sg606
Nsg607
S'BTREE'
p621
sg609
S'votes_bug_id_idx'
p622
sg611
S'A'
sg612
S''
sg613
L1L
sg614
S'votes'
p623
sg616
Nsg617
Nsg618
S'bug_id'
p624
satp625
sS'attach_data'
p626
((lp627
(dp628
S'Extra'
p629
S''
sS'Default'
p630
S'0'
sS'Field'
p631
S'id'
p632
sS'Key'
p633
S'PRI'
p634
sS'Null'
p635
S''
sS'Type'
p636
S'mediumint(9)'
p637
sa(dp638
g629
S''
sg630
S''
sg631
S'thedata'
p639
sg633
S''
sg635
S''
sg636
S'longblob'
p640
sa(lp641
(dp642
S'Comment'
p643
S''
sS'Non_unique'
p644
L0L
sS'Sub_part'
p645
NsS'Index_type'
p646
S'BTREE'
p647
sS'Key_name'
p648
S'PRIMARY'
p649
sS'Collation'
p650
S'A'
sS'Null'
p651
S''
sS'Seq_in_index'
p652
L1L
sS'Table'
p653
S'attach_data'
p654
sS'Cardinality'
p655
L0L
sS'Packed'
p656
NsS'Column_name'
p657
S'id'
p658
satp659
sS'products'
p660
((lp661
(dp662
S'Extra'
p663
S'auto_increment'
p664
sS'Default'
p665
NsS'Field'
p666
S'id'
p667
sS'Key'
p668
S'PRI'
p669
sS'Null'
p670
S''
sS'Type'
p671
S'smallint(6)'
p672
sa(dp673
g663
S''
sg665
S''
sg666
S'name'
p674
sg668
S'UNI'
p675
sg670
S''
sg671
S'varchar(64)'
p676
sa(dp677
g663
S''
sg665
S'1'
sg666
S'classification_id'
p678
sg668
S''
sg670
S''
sg671
S'smallint(6)'
p679
sa(dp680
g663
S''
sg665
Nsg666
S'description'
p681
sg668
S''
sg670
S'YES'
p682
sg671
S'mediumtext'
p683
sa(dp684
g663
S''
sg665
S''
sg666
S'milestoneurl'
p685
sg668
S''
sg670
S''
sg671
S'tinytext'
p686
sa(dp687
g663
S''
sg665
S'0'
sg666
S'disallownew'
p688
sg668
S''
sg670
S''
sg671
S'tinyint(4)'
p689
sa(dp690
g663
S''
sg665
S'0'
sg666
S'votesperuser'
p691
sg668
S''
sg670
S''
sg671
S'smallint(6)'
p692
sa(dp693
g663
S''
sg665
S'10000'
p694
sg666
S'maxvotesperbug'
p695
sg668
S''
sg670
S''
sg671
S'smallint(6)'
p696
sa(dp697
g663
S''
sg665
S'0'
sg666
S'votestoconfirm'
p698
sg668
S''
sg670
S''
sg671
S'smallint(6)'
p699
sa(dp700
g663
S''
sg665
S'---'
p701
sg666
S'defaultmilestone'
p702
sg668
S''
sg670
S''
sg671
S'varchar(20)'
p703
sa(lp704
(dp705
S'Comment'
p706
S''
sS'Non_unique'
p707
L0L
sS'Sub_part'
p708
NsS'Index_type'
p709
S'BTREE'
p710
sS'Key_name'
p711
S'PRIMARY'
p712
sS'Collation'
p713
S'A'
sS'Null'
p714
S''
sS'Seq_in_index'
p715
L1L
sS'Table'
p716
S'products'
p717
sS'Cardinality'
p718
L1L
sS'Packed'
p719
NsS'Column_name'
p720
S'id'
p721
sa(dp722
g706
S''
sg707
L0L
sg708
Nsg709
S'BTREE'
p723
sg711
S'products_name_idx'
p724
sg713
S'A'
sg714
S''
sg715
L1L
sg716
S'products'
p725
sg718
L1L
sg719
Nsg720
S'name'
p726
satp727
sS'bug_status'
p728
((lp729
(dp730
S'Extra'
p731
S'auto_increment'
p732
sS'Default'
p733
NsS'Field'
p734
S'id'
p735
sS'Key'
p736
S'PRI'
p737
sS'Null'
p738
S''
sS'Type'
p739
S'smallint(6)'
p740
sa(dp741
g731
S''
sg733
S''
sg734
S'value'
p742
sg736
S'UNI'
p743
sg738
S''
sg739
S'varchar(64)'
p744
sa(dp745
g731
S''
sg733
S'0'
sg734
S'sortkey'
p746
sg736
S'MUL'
p747
sg738
S''
sg739
S'smallint(6)'
p748
sa(dp749
g731
S''
sg733
S'1'
sg734
S'isactive'
p750
sg736
S''
sg738
S''
sg739
S'tinyint(4)'
p751
sa(lp752
(dp753
S'Comment'
p754
S''
sS'Non_unique'
p755
L0L
sS'Sub_part'
p756
NsS'Index_type'
p757
S'BTREE'
p758
sS'Key_name'
p759
S'PRIMARY'
p760
sS'Collation'
p761
S'A'
sS'Null'
p762
S''
sS'Seq_in_index'
p763
L1L
sS'Table'
p764
S'bug_status'
p765
sS'Cardinality'
p766
L7L
sS'Packed'
p767
NsS'Column_name'
p768
S'id'
p769
sa(dp770
g754
S''
sg755
L0L
sg756
Nsg757
S'BTREE'
p771
sg759
S'bug_status_value_idx'
p772
sg761
S'A'
sg762
S''
sg763
L1L
sg764
S'bug_status'
p773
sg766
L7L
sg767
Nsg768
S'value'
p774
sa(dp775
g754
S''
sg755
L1L
sg756
Nsg757
S'BTREE'
p776
sg759
S'bug_status_sortkey_idx'
p777
sg761
S'A'
sg762
S''
sg763
L1L
sg764
S'bug_status'
p778
sg766
Nsg767
Nsg768
S'sortkey'
p779
sa(dp780
g754
S''
sg755
L1L
sg756
Nsg757
S'BTREE'
p781
sg759
S'bug_status_sortkey_idx'
p782
sg761
S'A'
sg762
S''
sg763
L2L
sg764
S'bug_status'
p783
sg766
Nsg767
Nsg768
S'value'
p784
satp785
sS'priority'
p786
((lp787
(dp788
S'Extra'
p789
S'auto_increment'
p790
sS'Default'
p791
NsS'Field'
p792
S'id'
p793
sS'Key'
p794
S'PRI'
p795
sS'Null'
p796
S''
sS'Type'
p797
S'smallint(6)'
p798
sa(dp799
g789
S''
sg791
S''
sg792
S'value'
p800
sg794
S'UNI'
p801
sg796
S''
sg797
S'varchar(64)'
p802
sa(dp803
g789
S''
sg791
S'0'
sg792
S'sortkey'
p804
sg794
S'MUL'
p805
sg796
S''
sg797
S'smallint(6)'
p806
sa(dp807
g789
S''
sg791
S'1'
sg792
S'isactive'
p808
sg794
S''
sg796
S''
sg797
S'tinyint(4)'
p809
sa(lp810
(dp811
S'Comment'
p812
S''
sS'Non_unique'
p813
L0L
sS'Sub_part'
p814
NsS'Index_type'
p815
S'BTREE'
p816
sS'Key_name'
p817
S'PRIMARY'
p818
sS'Collation'
p819
S'A'
sS'Null'
p820
S''
sS'Seq_in_index'
p821
L1L
sS'Table'
p822
S'priority'
p823
sS'Cardinality'
p824
L5L
sS'Packed'
p825
NsS'Column_name'
p826
S'id'
p827
sa(dp828
g812
S''
sg813
L0L
sg814
Nsg815
S'BTREE'
p829
sg817
S'priority_value_idx'
p830
sg819
S'A'
sg820
S''
sg821
L1L
sg822
S'priority'
p831
sg824
L5L
sg825
Nsg826
S'value'
p832
sa(dp833
g812
S''
sg813
L1L
sg814
Nsg815
S'BTREE'
p834
sg817
S'priority_sortkey_idx'
p835
sg819
S'A'
sg820
S''
sg821
L1L
sg822
S'priority'
p836
sg824
Nsg825
Nsg826
S'sortkey'
p837
sa(dp838
g812
S''
sg813
L1L
sg814
Nsg815
S'BTREE'
p839
sg817
S'priority_sortkey_idx'
p840
sg819
S'A'
sg820
S''
sg821
L2L
sg822
S'priority'
p841
sg824
Nsg825
Nsg826
S'value'
p842
satp843
sS'cc'
p844
((lp845
(dp846
S'Extra'
p847
S''
sS'Default'
p848
S'0'
sS'Field'
p849
S'bug_id'
p850
sS'Key'
p851
S'PRI'
p852
sS'Null'
p853
S''
sS'Type'
p854
S'mediumint(9)'
p855
sa(dp856
g847
S''
sg848
S'0'
sg849
S'who'
p857
sg851
S'PRI'
p858
sg853
S''
sg854
S'mediumint(9)'
p859
sa(lp860
(dp861
S'Comment'
p862
S''
sS'Non_unique'
p863
L0L
sS'Sub_part'
p864
NsS'Index_type'
p865
S'BTREE'
p866
sS'Key_name'
p867
S'cc_bug_id_idx'
p868
sS'Collation'
p869
S'A'
sS'Null'
p870
S''
sS'Seq_in_index'
p871
L1L
sS'Table'
p872
S'cc'
p873
sS'Cardinality'
p874
NsS'Packed'
p875
NsS'Column_name'
p876
S'bug_id'
p877
sa(dp878
g862
S''
sg863
L0L
sg864
Nsg865
S'BTREE'
p879
sg867
S'cc_bug_id_idx'
p880
sg869
S'A'
sg870
S''
sg871
L2L
sg872
S'cc'
p881
sg874
L0L
sg875
Nsg876
S'who'
p882
sa(dp883
g862
S''
sg863
L1L
sg864
Nsg865
S'BTREE'
p884
sg867
S'cc_who_idx'
p885
sg869
S'A'
sg870
S''
sg871
L1L
sg872
S'cc'
p886
sg874
Nsg875
Nsg876
S'who'
p887
satp888
sS'setting'
p889
((lp890
(dp891
S'Extra'
p892
S''
sS'Default'
p893
S''
sS'Field'
p894
S'name'
p895
sS'Key'
p896
S'PRI'
p897
sS'Null'
p898
S''
sS'Type'
p899
S'varchar(32)'
p900
sa(dp901
g892
S''
sg893
S''
sg894
S'default_value'
p902
sg896
S''
sg898
S''
sg899
S'varchar(32)'
p903
sa(dp904
g892
S''
sg893
S'1'
sg894
S'is_enabled'
p905
sg896
S''
sg898
S''
sg899
S'tinyint(4)'
p906
sa(lp907
(dp908
S'Comment'
p909
S''
sS'Non_unique'
p910
L0L
sS'Sub_part'
p911
NsS'Index_type'
p912
S'BTREE'
p913
sS'Key_name'
p914
S'PRIMARY'
p915
sS'Collation'
p916
S'A'
sS'Null'
p917
S''
sS'Seq_in_index'
p918
L1L
sS'Table'
p919
S'setting'
p920
sS'Cardinality'
p921
L4L
sS'Packed'
p922
NsS'Column_name'
p923
S'name'
p924
satp925
sS'email_setting'
p926
((lp927
(dp928
S'Extra'
p929
S''
sS'Default'
p930
S'0'
sS'Field'
p931
S'user_id'
p932
sS'Key'
p933
S'PRI'
p934
sS'Null'
p935
S''
sS'Type'
p936
S'mediumint(9)'
p937
sa(dp938
g929
S''
sg930
S'0'
sg931
S'relationship'
p939
sg933
S'PRI'
p940
sg935
S''
sg936
S'tinyint(4)'
p941
sa(dp942
g929
S''
sg930
S'0'
sg931
S'event'
p943
sg933
S'PRI'
p944
sg935
S''
sg936
S'tinyint(4)'
p945
sa(lp946
(dp947
S'Comment'
p948
S''
sS'Non_unique'
p949
L0L
sS'Sub_part'
p950
NsS'Index_type'
p951
S'BTREE'
p952
sS'Key_name'
p953
S'email_setting_user_id_idx'
p954
sS'Collation'
p955
S'A'
sS'Null'
p956
S''
sS'Seq_in_index'
p957
L1L
sS'Table'
p958
S'email_setting'
p959
sS'Cardinality'
p960
NsS'Packed'
p961
NsS'Column_name'
p962
S'user_id'
p963
sa(dp964
g948
S''
sg949
L0L
sg950
Nsg951
S'BTREE'
p965
sg953
S'email_setting_user_id_idx'
p966
sg955
S'A'
sg956
S''
sg957
L2L
sg958
S'email_setting'
p967
sg960
Nsg961
Nsg962
S'relationship'
p968
sa(dp969
g948
S''
sg949
L0L
sg950
Nsg951
S'BTREE'
p970
sg953
S'email_setting_user_id_idx'
p971
sg955
S'A'
sg956
S''
sg957
L3L
sg958
S'email_setting'
p972
sg960
L0L
sg961
Nsg962
S'event'
p973
satp974
sS'series'
p975
((lp976
(dp977
S'Extra'
p978
S'auto_increment'
p979
sS'Default'
p980
NsS'Field'
p981
S'series_id'
p982
sS'Key'
p983
S'PRI'
p984
sS'Null'
p985
S''
sS'Type'
p986
S'mediumint(9)'
p987
sa(dp988
g978
S''
sg980
S'0'
sg981
S'creator'
p989
sg983
S'MUL'
p990
sg985
S''
sg986
S'mediumint(9)'
p991
sa(dp992
g978
S''
sg980
S'0'
sg981
S'category'
p993
sg983
S''
sg985
S''
sg986
S'smallint(6)'
p994
sa(dp995
g978
S''
sg980
S'0'
sg981
S'subcategory'
p996
sg983
S''
sg985
S''
sg986
S'smallint(6)'
p997
sa(dp998
g978
S''
sg980
S''
sg981
S'name'
p999
sg983
S''
sg985
S''
sg986
S'varchar(64)'
p1000
sa(dp1001
g978
S''
sg980
S'0'
sg981
S'frequency'
p1002
sg983
S''
sg985
S''
sg986
S'smallint(6)'
p1003
sa(dp1004
g978
S''
sg980
Nsg981
S'last_viewed'
p1005
sg983
S''
sg985
S'YES'
p1006
sg986
S'datetime'
p1007
sa(dp1008
g978
S''
sg980
S''
sg981
S'query'
p1009
sg983
S''
sg985
S''
sg986
S'mediumtext'
p1010
sa(dp1011
g978
S''
sg980
S'0'
sg981
S'is_public'
p1012
sg983
S''
sg985
S''
sg986
S'tinyint(4)'
p1013
sa(lp1014
(dp1015
S'Comment'
p1016
S''
sS'Non_unique'
p1017
L0L
sS'Sub_part'
p1018
NsS'Index_type'
p1019
S'BTREE'
p1020
sS'Key_name'
p1021
S'PRIMARY'
p1022
sS'Collation'
p1023
S'A'
sS'Null'
p1024
S''
sS'Seq_in_index'
p1025
L1L
sS'Table'
p1026
S'series'
p1027
sS'Cardinality'
p1028
L32L
sS'Packed'
p1029
NsS'Column_name'
p1030
S'series_id'
p1031
sa(dp1032
g1016
S''
sg1017
L0L
sg1018
Nsg1019
S'BTREE'
p1033
sg1021
S'series_creator_idx'
p1034
sg1023
S'A'
sg1024
S''
sg1025
L1L
sg1026
S'series'
p1035
sg1028
Nsg1029
Nsg1030
S'creator'
p1036
sa(dp1037
g1016
S''
sg1017
L0L
sg1018
Nsg1019
S'BTREE'
p1038
sg1021
S'series_creator_idx'
p1039
sg1023
S'A'
sg1024
S''
sg1025
L2L
sg1026
S'series'
p1040
sg1028
Nsg1029
Nsg1030
S'category'
p1041
sa(dp1042
g1016
S''
sg1017
L0L
sg1018
Nsg1019
S'BTREE'
p1043
sg1021
S'series_creator_idx'
p1044
sg1023
S'A'
sg1024
S''
sg1025
L3L
sg1026
S'series'
p1045
sg1028
Nsg1029
Nsg1030
S'subcategory'
p1046
sa(dp1047
g1016
S''
sg1017
L0L
sg1018
Nsg1019
S'BTREE'
p1048
sg1021
S'series_creator_idx'
p1049
sg1023
S'A'
sg1024
S''
sg1025
L4L
sg1026
S'series'
p1050
sg1028
L32L
sg1029
Nsg1030
S'name'
p1051
satp1052
sS'logincookies'
p1053
((lp1054
(dp1055
S'Extra'
p1056
S'auto_increment'
p1057
sS'Default'
p1058
NsS'Field'
p1059
S'cookie'
p1060
sS'Key'
p1061
S'PRI'
p1062
sS'Null'
p1063
S''
sS'Type'
p1064
S'mediumint(9)'
p1065
sa(dp1066
g1056
S''
sg1058
S'0'
sg1059
S'userid'
p1067
sg1061
S''
sg1063
S''
sg1064
S'mediumint(9)'
p1068
sa(dp1069
g1056
S''
sg1058
S''
sg1059
S'ipaddr'
p1070
sg1061
S''
sg1063
S''
sg1064
S'varchar(40)'
p1071
sa(dp1072
g1056
S''
sg1058
S'0000-00-00 00:00:00'
p1073
sg1059
S'lastused'
p1074
sg1061
S'MUL'
p1075
sg1063
S''
sg1064
S'datetime'
p1076
sa(lp1077
(dp1078
S'Comment'
p1079
S''
sS'Non_unique'
p1080
L0L
sS'Sub_part'
p1081
NsS'Index_type'
p1082
S'BTREE'
p1083
sS'Key_name'
p1084
S'PRIMARY'
p1085
sS'Collation'
p1086
S'A'
sS'Null'
p1087
S''
sS'Seq_in_index'
p1088
L1L
sS'Table'
p1089
S'logincookies'
p1090
sS'Cardinality'
p1091
L0L
sS'Packed'
p1092
NsS'Column_name'
p1093
S'cookie'
p1094
sa(dp1095
g1079
S''
sg1080
L1L
sg1081
Nsg1082
S'BTREE'
p1096
sg1084
S'logincookies_lastused_idx'
p1097
sg1086
S'A'
sg1087
S''
sg1088
L1L
sg1089
S'logincookies'
p1098
sg1091
Nsg1092
Nsg1093
S'lastused'
p1099
satp1100
sS'fielddefs'
p1101
((lp1102
(dp1103
S'Extra'
p1104
S'auto_increment'
p1105
sS'Default'
p1106
NsS'Field'
p1107
S'fieldid'
p1108
sS'Key'
p1109
S'PRI'
p1110
sS'Null'
p1111
S''
sS'Type'
p1112
S'mediumint(9)'
p1113
sa(dp1114
g1104
S''
sg1106
S''
sg1107
S'name'
p1115
sg1109
S'UNI'
p1116
sg1111
S''
sg1112
S'varchar(64)'
p1117
sa(dp1118
g1104
S''
sg1106
S''
sg1107
S'description'
p1119
sg1109
S''
sg1111
S''
sg1112
S'mediumtext'
p1120
sa(dp1121
g1104
S''
sg1106
S'0'
sg1107
S'mailhead'
p1122
sg1109
S''
sg1111
S''
sg1112
S'tinyint(4)'
p1123
sa(dp1124
g1104
S''
sg1106
S'0'
sg1107
S'sortkey'
p1125
sg1109
S'MUL'
p1126
sg1111
S''
sg1112
S'smallint(6)'
p1127
sa(dp1128
g1104
S''
sg1106
S'0'
sg1107
S'obsolete'
p1129
sg1109
S''
sg1111
S''
sg1112
S'tinyint(4)'
p1130
sa(lp1131
(dp1132
S'Comment'
p1133
S''
sS'Non_unique'
p1134
L0L
sS'Sub_part'
p1135
NsS'Index_type'
p1136
S'BTREE'
p1137
sS'Key_name'
p1138
S'PRIMARY'
p1139
sS'Collation'
p1140
S'A'
sS'Null'
p1141
S''
sS'Seq_in_index'
p1142
L1L
sS'Table'
p1143
S'fielddefs'
p1144
sS'Cardinality'
p1145
L50L
sS'Packed'
p1146
NsS'Column_name'
p1147
S'fieldid'
p1148
sa(dp1149
g1133
S''
sg1134
L0L
sg1135
Nsg1136
S'BTREE'
p1150
sg1138
S'fielddefs_name_idx'
p1151
sg1140
S'A'
sg1141
S''
sg1142
L1L
sg1143
S'fielddefs'
p1152
sg1145
L50L
sg1146
Nsg1147
S'name'
p1153
sa(dp1154
g1133
S''
sg1134
L1L
sg1135
Nsg1136
S'BTREE'
p1155
sg1138
S'fielddefs_sortkey_idx'
p1156
sg1140
S'A'
sg1141
S''
sg1142
L1L
sg1143
S'fielddefs'
p1157
sg1145
Nsg1146
Nsg1147
S'sortkey'
p1158
satp1159
sS'whine_events'
p1160
((lp1161
(dp1162
S'Extra'
p1163
S'auto_increment'
p1164
sS'Default'
p1165
NsS'Field'
p1166
S'id'
p1167
sS'Key'
p1168
S'PRI'
p1169
sS'Null'
p1170
S''
sS'Type'
p1171
S'mediumint(9)'
p1172
sa(dp1173
g1163
S''
sg1165
S'0'
sg1166
S'owner_userid'
p1174
sg1168
S''
sg1170
S''
sg1171
S'mediumint(9)'
p1175
sa(dp1176
g1163
S''
sg1165
Nsg1166
S'subject'
p1177
sg1168
S''
sg1170
S'YES'
p1178
sg1171
S'varchar(128)'
p1179
sa(dp1180
g1163
S''
sg1165
Nsg1166
S'body'
p1181
sg1168
S''
sg1170
S'YES'
p1182
sg1171
S'mediumtext'
p1183
sa(lp1184
(dp1185
S'Comment'
p1186
S''
sS'Non_unique'
p1187
L0L
sS'Sub_part'
p1188
NsS'Index_type'
p1189
S'BTREE'
p1190
sS'Key_name'
p1191
S'PRIMARY'
p1192
sS'Collation'
p1193
S'A'
sS'Null'
p1194
S''
sS'Seq_in_index'
p1195
L1L
sS'Table'
p1196
S'whine_events'
p1197
sS'Cardinality'
p1198
L0L
sS'Packed'
p1199
NsS'Column_name'
p1200
S'id'
p1201
satp1202
sS'flaginclusions'
p1203
((lp1204
(dp1205
S'Extra'
p1206
S''
sS'Default'
p1207
S'0'
sS'Field'
p1208
S'type_id'
p1209
sS'Key'
p1210
S'MUL'
p1211
sS'Null'
p1212
S''
sS'Type'
p1213
S'smallint(6)'
p1214
sa(dp1215
g1206
S''
sg1207
Nsg1208
S'product_id'
p1216
sg1210
S''
sg1212
S'YES'
p1217
sg1213
S'smallint(6)'
p1218
sa(dp1219
g1206
S''
sg1207
Nsg1208
S'component_id'
p1220
sg1210
S''
sg1212
S'YES'
p1221
sg1213
S'smallint(6)'
p1222
sa(lp1223
(dp1224
S'Comment'
p1225
S''
sS'Non_unique'
p1226
L1L
sS'Sub_part'
p1227
NsS'Index_type'
p1228
S'BTREE'
p1229
sS'Key_name'
p1230
S'flaginclusions_type_id_idx'
p1231
sS'Collation'
p1232
S'A'
sS'Null'
p1233
S''
sS'Seq_in_index'
p1234
L1L
sS'Table'
p1235
S'flaginclusions'
p1236
sS'Cardinality'
p1237
NsS'Packed'
p1238
NsS'Column_name'
p1239
S'type_id'
p1240
sa(dp1241
g1225
S''
sg1226
L1L
sg1227
Nsg1228
S'BTREE'
p1242
sg1230
S'flaginclusions_type_id_idx'
p1243
sg1232
S'A'
sg1233
S'YES'
p1244
sg1234
L2L
sg1235
S'flaginclusions'
p1245
sg1237
Nsg1238
Nsg1239
S'product_id'
p1246
sa(dp1247
g1225
S''
sg1226
L1L
sg1227
Nsg1228
S'BTREE'
p1248
sg1230
S'flaginclusions_type_id_idx'
p1249
sg1232
S'A'
sg1233
S'YES'
p1250
sg1234
L3L
sg1235
S'flaginclusions'
p1251
sg1237
Nsg1238
Nsg1239
S'component_id'
p1252
satp1253
sS'profiles_activity'
p1254
((lp1255
(dp1256
S'Extra'
p1257
S''
sS'Default'
p1258
S'0'
sS'Field'
p1259
S'userid'
p1260
sS'Key'
p1261
S'MUL'
p1262
sS'Null'
p1263
S''
sS'Type'
p1264
S'mediumint(9)'
p1265
sa(dp1266
g1257
S''
sg1258
S'0'
sg1259
S'who'
p1267
sg1261
S''
sg1263
S''
sg1264
S'mediumint(9)'
p1268
sa(dp1269
g1257
S''
sg1258
S'0000-00-00 00:00:00'
p1270
sg1259
S'profiles_when'
p1271
sg1261
S'MUL'
p1272
sg1263
S''
sg1264
S'datetime'
p1273
sa(dp1274
g1257
S''
sg1258
S'0'
sg1259
S'fieldid'
p1275
sg1261
S'MUL'
p1276
sg1263
S''
sg1264
S'mediumint(9)'
p1277
sa(dp1278
g1257
S''
sg1258
Nsg1259
S'oldvalue'
p1279
sg1261
S''
sg1263
S'YES'
p1280
sg1264
S'tinytext'
p1281
sa(dp1282
g1257
S''
sg1258
Nsg1259
S'newvalue'
p1283
sg1261
S''
sg1263
S'YES'
p1284
sg1264
S'tinytext'
p1285
sa(lp1286
(dp1287
S'Comment'
p1288
S''
sS'Non_unique'
p1289
L1L
sS'Sub_part'
p1290
NsS'Index_type'
p1291
S'BTREE'
p1292
sS'Key_name'
p1293
S'profiles_activity_userid_idx'
p1294
sS'Collation'
p1295
S'A'
sS'Null'
p1296
S''
sS'Seq_in_index'
p1297
L1L
sS'Table'
p1298
S'profiles_activity'
p1299
sS'Cardinality'
p1300
NsS'Packed'
p1301
NsS'Column_name'
p1302
S'userid'
p1303
sa(dp1304
g1288
S''
sg1289
L1L
sg1290
Nsg1291
S'BTREE'
p1305
sg1293
S'profiles_activity_profiles_when_idx'
p1306
sg1295
S'A'
sg1296
S''
sg1297
L1L
sg1298
S'profiles_activity'
p1307
sg1300
Nsg1301
Nsg1302
S'profiles_when'
p1308
sa(dp1309
g1288
S''
sg1289
L1L
sg1290
Nsg1291
S'BTREE'
p1310
sg1293
S'profiles_activity_fieldid_idx'
p1311
sg1295
S'A'
sg1296
S''
sg1297
L1L
sg1298
S'profiles_activity'
p1312
sg1300
Nsg1301
Nsg1302
S'fieldid'
p1313
satp1314
sS'bugs_activity'
p1315
((lp1316
(dp1317
S'Extra'
p1318
S''
sS'Default'
p1319
S'0'
sS'Field'
p1320
S'bug_id'
p1321
sS'Key'
p1322
S'MUL'
p1323
sS'Null'
p1324
S''
sS'Type'
p1325
S'mediumint(9)'
p1326
sa(dp1327
g1318
S''
sg1319
Nsg1320
S'attach_id'
p1328
sg1322
S''
sg1324
S'YES'
p1329
sg1325
S'mediumint(9)'
p1330
sa(dp1331
g1318
S''
sg1319
S'0'
sg1320
S'who'
p1332
sg1322
S'MUL'
p1333
sg1324
S''
sg1325
S'mediumint(9)'
p1334
sa(dp1335
g1318
S''
sg1319
S'0000-00-00 00:00:00'
p1336
sg1320
S'bug_when'
p1337
sg1322
S'MUL'
p1338
sg1324
S''
sg1325
S'datetime'
p1339
sa(dp1340
g1318
S''
sg1319
S'0'
sg1320
S'fieldid'
p1341
sg1322
S'MUL'
p1342
sg1324
S''
sg1325
S'mediumint(9)'
p1343
sa(dp1344
g1318
S''
sg1319
Nsg1320
S'added'
p1345
sg1322
S''
sg1324
S'YES'
p1346
sg1325
S'tinytext'
p1347
sa(dp1348
g1318
S''
sg1319
Nsg1320
S'removed'
p1349
sg1322
S''
sg1324
S'YES'
p1350
sg1325
S'tinytext'
p1351
sa(lp1352
(dp1353
S'Comment'
p1354
S''
sS'Non_unique'
p1355
L1L
sS'Sub_part'
p1356
NsS'Index_type'
p1357
S'BTREE'
p1358
sS'Key_name'
p1359
S'bugs_activity_bug_id_idx'
p1360
sS'Collation'
p1361
S'A'
sS'Null'
p1362
S''
sS'Seq_in_index'
p1363
L1L
sS'Table'
p1364
S'bugs_activity'
p1365
sS'Cardinality'
p1366
NsS'Packed'
p1367
NsS'Column_name'
p1368
S'bug_id'
p1369
sa(dp1370
g1354
S''
sg1355
L1L
sg1356
Nsg1357
S'BTREE'
p1371
sg1359
S'bugs_activity_who_idx'
p1372
sg1361
S'A'
sg1362
S''
sg1363
L1L
sg1364
S'bugs_activity'
p1373
sg1366
Nsg1367
Nsg1368
S'who'
p1374
sa(dp1375
g1354
S''
sg1355
L1L
sg1356
Nsg1357
S'BTREE'
p1376
sg1359
S'bugs_activity_bug_when_idx'
p1377
sg1361
S'A'
sg1362
S''
sg1363
L1L
sg1364
S'bugs_activity'
p1378
sg1366
Nsg1367
Nsg1368
S'bug_when'
p1379
sa(dp1380
g1354
S''
sg1355
L1L
sg1356
Nsg1357
S'BTREE'
p1381
sg1359
S'bugs_activity_fieldid_idx'
p1382
sg1361
S'A'
sg1362
S''
sg1363
L1L
sg1364
S'bugs_activity'
p1383
sg1366
Nsg1367
Nsg1368
S'fieldid'
p1384
satp1385
sS'watch'
p1386
((lp1387
(dp1388
S'Extra'
p1389
S''
sS'Default'
p1390
S'0'
sS'Field'
p1391
S'watcher'
p1392
sS'Key'
p1393
S'PRI'
p1394
sS'Null'
p1395
S''
sS'Type'
p1396
S'mediumint(9)'
p1397
sa(dp1398
g1389
S''
sg1390
S'0'
sg1391
S'watched'
p1399
sg1393
S'PRI'
p1400
sg1395
S''
sg1396
S'mediumint(9)'
p1401
sa(lp1402
(dp1403
S'Comment'
p1404
S''
sS'Non_unique'
p1405
L0L
sS'Sub_part'
p1406
NsS'Index_type'
p1407
S'BTREE'
p1408
sS'Key_name'
p1409
S'watch_watcher_idx'
p1410
sS'Collation'
p1411
S'A'
sS'Null'
p1412
S''
sS'Seq_in_index'
p1413
L1L
sS'Table'
p1414
S'watch'
p1415
sS'Cardinality'
p1416
NsS'Packed'
p1417
NsS'Column_name'
p1418
S'watcher'
p1419
sa(dp1420
g1404
S''
sg1405
L0L
sg1406
Nsg1407
S'BTREE'
p1421
sg1409
S'watch_watcher_idx'
p1422
sg1411
S'A'
sg1412
S''
sg1413
L2L
sg1414
S'watch'
p1423
sg1416
L0L
sg1417
Nsg1418
S'watched'
p1424
sa(dp1425
g1404
S''
sg1405
L1L
sg1406
Nsg1407
S'BTREE'
p1426
sg1409
S'watch_watched_idx'
p1427
sg1411
S'A'
sg1412
S''
sg1413
L1L
sg1414
S'watch'
p1428
sg1416
Nsg1417
Nsg1418
S'watched'
p1429
satp1430
sS'bug_severity'
p1431
((lp1432
(dp1433
S'Extra'
p1434
S'auto_increment'
p1435
sS'Default'
p1436
NsS'Field'
p1437
S'id'
p1438
sS'Key'
p1439
S'PRI'
p1440
sS'Null'
p1441
S''
sS'Type'
p1442
S'smallint(6)'
p1443
sa(dp1444
g1434
S''
sg1436
S''
sg1437
S'value'
p1445
sg1439
S'UNI'
p1446
sg1441
S''
sg1442
S'varchar(64)'
p1447
sa(dp1448
g1434
S''
sg1436
S'0'
sg1437
S'sortkey'
p1449
sg1439
S'MUL'
p1450
sg1441
S''
sg1442
S'smallint(6)'
p1451
sa(dp1452
g1434
S''
sg1436
S'1'
sg1437
S'isactive'
p1453
sg1439
S''
sg1441
S''
sg1442
S'tinyint(4)'
p1454
sa(lp1455
(dp1456
S'Comment'
p1457
S''
sS'Non_unique'
p1458
L0L
sS'Sub_part'
p1459
NsS'Index_type'
p1460
S'BTREE'
p1461
sS'Key_name'
p1462
S'PRIMARY'
p1463
sS'Collation'
p1464
S'A'
sS'Null'
p1465
S''
sS'Seq_in_index'
p1466
L1L
sS'Table'
p1467
S'bug_severity'
p1468
sS'Cardinality'
p1469
L7L
sS'Packed'
p1470
NsS'Column_name'
p1471
S'id'
p1472
sa(dp1473
g1457
S''
sg1458
L0L
sg1459
Nsg1460
S'BTREE'
p1474
sg1462
S'bug_severity_value_idx'
p1475
sg1464
S'A'
sg1465
S''
sg1466
L1L
sg1467
S'bug_severity'
p1476
sg1469
L7L
sg1470
Nsg1471
S'value'
p1477
sa(dp1478
g1457
S''
sg1458
L1L
sg1459
Nsg1460
S'BTREE'
p1479
sg1462
S'bug_severity_sortkey_idx'
p1480
sg1464
S'A'
sg1465
S''
sg1466
L1L
sg1467
S'bug_severity'
p1481
sg1469
Nsg1470
Nsg1471
S'sortkey'
p1482
sa(dp1483
g1457
S''
sg1458
L1L
sg1459
Nsg1460
S'BTREE'
p1484
sg1462
S'bug_severity_sortkey_idx'
p1485
sg1464
S'A'
sg1465
S''
sg1466
L2L
sg1467
S'bug_severity'
p1486
sg1469
Nsg1470
Nsg1471
S'value'
p1487
satp1488
sS'namedqueries'
p1489
((lp1490
(dp1491
S'Extra'
p1492
S''
sS'Default'
p1493
S'0'
sS'Field'
p1494
S'userid'
p1495
sS'Key'
p1496
S'PRI'
p1497
sS'Null'
p1498
S''
sS'Type'
p1499
S'mediumint(9)'
p1500
sa(dp1501
g1492
S''
sg1493
S''
sg1494
S'name'
p1502
sg1496
S'PRI'
p1503
sg1498
S''
sg1499
S'varchar(64)'
p1504
sa(dp1505
g1492
S''
sg1493
S'0'
sg1494
S'linkinfooter'
p1506
sg1496
S''
sg1498
S''
sg1499
S'tinyint(4)'
p1507
sa(dp1508
g1492
S''
sg1493
S''
sg1494
S'query'
p1509
sg1496
S''
sg1498
S''
sg1499
S'mediumtext'
p1510
sa(lp1511
(dp1512
S'Comment'
p1513
S''
sS'Non_unique'
p1514
L0L
sS'Sub_part'
p1515
NsS'Index_type'
p1516
S'BTREE'
p1517
sS'Key_name'
p1518
S'namedqueries_userid_idx'
p1519
sS'Collation'
p1520
S'A'
sS'Null'
p1521
S''
sS'Seq_in_index'
p1522
L1L
sS'Table'
p1523
S'namedqueries'
p1524
sS'Cardinality'
p1525
NsS'Packed'
p1526
NsS'Column_name'
p1527
S'userid'
p1528
sa(dp1529
g1513
S''
sg1514
L0L
sg1515
Nsg1516
S'BTREE'
p1530
sg1518
S'namedqueries_userid_idx'
p1531
sg1520
S'A'
sg1521
S''
sg1522
L2L
sg1523
S'namedqueries'
p1532
sg1525
L0L
sg1526
Nsg1527
S'name'
p1533
satp1534
sS'bz_schema'
p1535
((lp1536
(dp1537
S'Extra'
p1538
S''
sS'Default'
p1539
S''
sS'Field'
p1540
S'schema_data'
p1541
sS'Key'
p1542
S''
sS'Null'
p1543
S''
sS'Type'
p1544
S'longblob'
p1545
sa(dp1546
g1538
S''
sg1539
S'0.00'
p1547
sg1540
S'version'
p1548
sg1542
S''
sg1543
S''
sg1544
S'decimal(3,2)'
p1549
sa(ltp1550
sS'tokens'
p1551
((lp1552
(dp1553
S'Extra'
p1554
S''
sS'Default'
p1555
S'0'
sS'Field'
p1556
S'userid'
p1557
sS'Key'
p1558
S'MUL'
p1559
sS'Null'
p1560
S''
sS'Type'
p1561
S'mediumint(9)'
p1562
sa(dp1563
g1554
S''
sg1555
S'0000-00-00 00:00:00'
p1564
sg1556
S'issuedate'
p1565
sg1558
S''
sg1560
S''
sg1561
S'datetime'
p1566
sa(dp1567
g1554
S''
sg1555
S''
sg1556
S'token'
p1568
sg1558
S'PRI'
p1569
sg1560
S''
sg1561
S'varchar(16)'
p1570
sa(dp1571
g1554
S''
sg1555
S''
sg1556
S'tokentype'
p1572
sg1558
S''
sg1560
S''
sg1561
S'varchar(8)'
p1573
sa(dp1574
g1554
S''
sg1555
Nsg1556
S'eventdata'
p1575
sg1558
S''
sg1560
S'YES'
p1576
sg1561
S'tinytext'
p1577
sa(lp1578
(dp1579
S'Comment'
p1580
S''
sS'Non_unique'
p1581
L0L
sS'Sub_part'
p1582
NsS'Index_type'
p1583
S'BTREE'
p1584
sS'Key_name'
p1585
S'PRIMARY'
p1586
sS'Collation'
p1587
S'A'
sS'Null'
p1588
S''
sS'Seq_in_index'
p1589
L1L
sS'Table'
p1590
S'tokens'
p1591
sS'Cardinality'
p1592
L0L
sS'Packed'
p1593
NsS'Column_name'
p1594
S'token'
p1595
sa(dp1596
g1580
S''
sg1581
L1L
sg1582
Nsg1583
S'BTREE'
p1597
sg1585
S'tokens_userid_idx'
p1598
sg1587
S'A'
sg1588
S''
sg1589
L1L
sg1590
S'tokens'
p1599
sg1592
Nsg1593
Nsg1594
S'userid'
p1600
satp1601
sS'whine_schedules'
p1602
((lp1603
(dp1604
S'Extra'
p1605
S'auto_increment'
p1606
sS'Default'
p1607
NsS'Field'
p1608
S'id'
p1609
sS'Key'
p1610
S'PRI'
p1611
sS'Null'
p1612
S''
sS'Type'
p1613
S'mediumint(9)'
p1614
sa(dp1615
g1605
S''
sg1607
S'0'
sg1608
S'eventid'
p1616
sg1610
S'MUL'
p1617
sg1612
S''
sg1613
S'mediumint(9)'
p1618
sa(dp1619
g1605
S''
sg1607
Nsg1608
S'run_day'
p1620
sg1610
S''
sg1612
S'YES'
p1621
sg1613
S'varchar(32)'
p1622
sa(dp1623
g1605
S''
sg1607
Nsg1608
S'run_time'
p1624
sg1610
S''
sg1612
S'YES'
p1625
sg1613
S'varchar(32)'
p1626
sa(dp1627
g1605
S''
sg1607
Nsg1608
S'run_next'
p1628
sg1610
S'MUL'
p1629
sg1612
S'YES'
p1630
sg1613
S'datetime'
p1631
sa(dp1632
g1605
S''
sg1607
S'0'
sg1608
S'mailto'
p1633
sg1610
S''
sg1612
S''
sg1613
S'mediumint(9)'
p1634
sa(dp1635
g1605
S''
sg1607
S'0'
sg1608
S'mailto_type'
p1636
sg1610
S''
sg1612
S''
sg1613
S'smallint(6)'
p1637
sa(lp1638
(dp1639
S'Comment'
p1640
S''
sS'Non_unique'
p1641
L0L
sS'Sub_part'
p1642
NsS'Index_type'
p1643
S'BTREE'
p1644
sS'Key_name'
p1645
S'PRIMARY'
p1646
sS'Collation'
p1647
S'A'
sS'Null'
p1648
S''
sS'Seq_in_index'
p1649
L1L
sS'Table'
p1650
S'whine_schedules'
p1651
sS'Cardinality'
p1652
L0L
sS'Packed'
p1653
NsS'Column_name'
p1654
S'id'
p1655
sa(dp1656
g1640
S''
sg1641
L1L
sg1642
Nsg1643
S'BTREE'
p1657
sg1645
S'whine_schedules_run_next_idx'
p1658
sg1647
S'A'
sg1648
S'YES'
p1659
sg1649
L1L
sg1650
S'whine_schedules'
p1660
sg1652
Nsg1653
Nsg1654
S'run_next'
p1661
sa(dp1662
g1640
S''
sg1641
L1L
sg1642
Nsg1643
S'BTREE'
p1663
sg1645
S'whine_schedules_eventid_idx'
p1664
sg1647
S'A'
sg1648
S''
sg1649
L1L
sg1650
S'whine_schedules'
p1665
sg1652
Nsg1653
Nsg1654
S'eventid'
p1666
satp1667
sS'dependencies'
p1668
((lp1669
(dp1670
S'Extra'
p1671
S''
sS'Default'
p1672
S'0'
sS'Field'
p1673
S'blocked'
p1674
sS'Key'
p1675
S'MUL'
p1676
sS'Null'
p1677
S''
sS'Type'
p1678
S'mediumint(9)'
p1679
sa(dp1680
g1671
S''
sg1672
S'0'
sg1673
S'dependson'
p1681
sg1675
S'MUL'
p1682
sg1677
S''
sg1678
S'mediumint(9)'
p1683
sa(lp1684
(dp1685
S'Comment'
p1686
S''
sS'Non_unique'
p1687
L1L
sS'Sub_part'
p1688
NsS'Index_type'
p1689
S'BTREE'
p1690
sS'Key_name'
p1691
S'dependencies_blocked_idx'
p1692
sS'Collation'
p1693
S'A'
sS'Null'
p1694
S''
sS'Seq_in_index'
p1695
L1L
sS'Table'
p1696
S'dependencies'
p1697
sS'Cardinality'
p1698
NsS'Packed'
p1699
NsS'Column_name'
p1700
S'blocked'
p1701
sa(dp1702
g1686
S''
sg1687
L1L
sg1688
Nsg1689
S'BTREE'
p1703
sg1691
S'dependencies_dependson_idx'
p1704
sg1693
S'A'
sg1694
S''
sg1695
L1L
sg1696
S'dependencies'
p1705
sg1698
Nsg1699
Nsg1700
S'dependson'
p1706
satp1707
sS'category_group_map'
p1708
((lp1709
(dp1710
S'Extra'
p1711
S''
sS'Default'
p1712
S'0'
sS'Field'
p1713
S'category_id'
p1714
sS'Key'
p1715
S'PRI'
p1716
sS'Null'
p1717
S''
sS'Type'
p1718
S'smallint(6)'
p1719
sa(dp1720
g1711
S''
sg1712
S'0'
sg1713
S'group_id'
p1721
sg1715
S'PRI'
p1722
sg1717
S''
sg1718
S'mediumint(9)'
p1723
sa(lp1724
(dp1725
S'Comment'
p1726
S''
sS'Non_unique'
p1727
L0L
sS'Sub_part'
p1728
NsS'Index_type'
p1729
S'BTREE'
p1730
sS'Key_name'
p1731
S'category_group_map_category_id_idx'
p1732
sS'Collation'
p1733
S'A'
sS'Null'
p1734
S''
sS'Seq_in_index'
p1735
L1L
sS'Table'
p1736
S'category_group_map'
p1737
sS'Cardinality'
p1738
NsS'Packed'
p1739
NsS'Column_name'
p1740
S'category_id'
p1741
sa(dp1742
g1726
S''
sg1727
L0L
sg1728
Nsg1729
S'BTREE'
p1743
sg1731
S'category_group_map_category_id_idx'
p1744
sg1733
S'A'
sg1734
S''
sg1735
L2L
sg1736
S'category_group_map'
p1745
sg1738
L0L
sg1739
Nsg1740
S'group_id'
p1746
satp1747
sS'groups'
p1748
((lp1749
(dp1750
S'Extra'
p1751
S'auto_increment'
p1752
sS'Default'
p1753
NsS'Field'
p1754
S'id'
p1755
sS'Key'
p1756
S'PRI'
p1757
sS'Null'
p1758
S''
sS'Type'
p1759
S'mediumint(9)'
p1760
sa(dp1761
g1751
S''
sg1753
S''
sg1754
S'name'
p1762
sg1756
S'UNI'
p1763
sg1758
S''
sg1759
S'varchar(255)'
p1764
sa(dp1765
g1751
S''
sg1753
S''
sg1754
S'description'
p1766
sg1756
S''
sg1758
S''
sg1759
S'text'
p1767
sa(dp1768
g1751
S''
sg1753
S'0'
sg1754
S'isbuggroup'
p1769
sg1756
S''
sg1758
S''
sg1759
S'tinyint(4)'
p1770
sa(dp1771
g1751
S''
sg1753
S'0000-00-00 00:00:00'
p1772
sg1754
S'last_changed'
p1773
sg1756
S''
sg1758
S''
sg1759
S'datetime'
p1774
sa(dp1775
g1751
S''
sg1753
S''
sg1754
S'userregexp'
p1776
sg1756
S''
sg1758
S''
sg1759
S'tinytext'
p1777
sa(dp1778
g1751
S''
sg1753
S'1'
sg1754
S'isactive'
p1779
sg1756
S''
sg1758
S''
sg1759
S'tinyint(4)'
p1780
sa(lp1781
(dp1782
S'Comment'
p1783
S''
sS'Non_unique'
p1784
L0L
sS'Sub_part'
p1785
NsS'Index_type'
p1786
S'BTREE'
p1787
sS'Key_name'
p1788
S'PRIMARY'
p1789
sS'Collation'
p1790
S'A'
sS'Null'
p1791
S''
sS'Seq_in_index'
p1792
L1L
sS'Table'
p1793
S'groups'
p1794
sS'Cardinality'
p1795
L11L
sS'Packed'
p1796
NsS'Column_name'
p1797
S'id'
p1798
sa(dp1799
g1783
S''
sg1784
L0L
sg1785
Nsg1786
S'BTREE'
p1800
sg1788
S'groups_name_idx'
p1801
sg1790
S'A'
sg1791
S''
sg1792
L1L
sg1793
S'groups'
p1802
sg1795
L11L
sg1796
Nsg1797
S'name'
p1803
satp1804
sS'milestones'
p1805
((lp1806
(dp1807
S'Extra'
p1808
S''
sS'Default'
p1809
S'0'
sS'Field'
p1810
S'product_id'
p1811
sS'Key'
p1812
S'PRI'
p1813
sS'Null'
p1814
S''
sS'Type'
p1815
S'smallint(6)'
p1816
sa(dp1817
g1808
S''
sg1809
S''
sg1810
S'value'
p1818
sg1812
S'PRI'
p1819
sg1814
S''
sg1815
S'varchar(20)'
p1820
sa(dp1821
g1808
S''
sg1809
S'0'
sg1810
S'sortkey'
p1822
sg1812
S''
sg1814
S''
sg1815
S'smallint(6)'
p1823
sa(lp1824
(dp1825
S'Comment'
p1826
S''
sS'Non_unique'
p1827
L0L
sS'Sub_part'
p1828
NsS'Index_type'
p1829
S'BTREE'
p1830
sS'Key_name'
p1831
S'milestones_product_id_idx'
p1832
sS'Collation'
p1833
S'A'
sS'Null'
p1834
S''
sS'Seq_in_index'
p1835
L1L
sS'Table'
p1836
S'milestones'
p1837
sS'Cardinality'
p1838
NsS'Packed'
p1839
NsS'Column_name'
p1840
S'product_id'
p1841
sa(dp1842
g1826
S''
sg1827
L0L
sg1828
Nsg1829
S'BTREE'
p1843
sg1831
S'milestones_product_id_idx'
p1844
sg1833
S'A'
sg1834
S''
sg1835
L2L
sg1836
S'milestones'
p1845
sg1838
L1L
sg1839
Nsg1840
S'value'
p1846
satp1847
sS'classifications'
p1848
((lp1849
(dp1850
S'Extra'
p1851
S'auto_increment'
p1852
sS'Default'
p1853
NsS'Field'
p1854
S'id'
p1855
sS'Key'
p1856
S'PRI'
p1857
sS'Null'
p1858
S''
sS'Type'
p1859
S'smallint(6)'
p1860
sa(dp1861
g1851
S''
sg1853
S''
sg1854
S'name'
p1862
sg1856
S'UNI'
p1863
sg1858
S''
sg1859
S'varchar(64)'
p1864
sa(dp1865
g1851
S''
sg1853
Nsg1854
S'description'
p1866
sg1856
S''
sg1858
S'YES'
p1867
sg1859
S'mediumtext'
p1868
sa(lp1869
(dp1870
S'Comment'
p1871
S''
sS'Non_unique'
p1872
L0L
sS'Sub_part'
p1873
NsS'Index_type'
p1874
S'BTREE'
p1875
sS'Key_name'
p1876
S'PRIMARY'
p1877
sS'Collation'
p1878
S'A'
sS'Null'
p1879
S''
sS'Seq_in_index'
p1880
L1L
sS'Table'
p1881
S'classifications'
p1882
sS'Cardinality'
p1883
L1L
sS'Packed'
p1884
NsS'Column_name'
p1885
S'id'
p1886
sa(dp1887
g1871
S''
sg1872
L0L
sg1873
Nsg1874
S'BTREE'
p1888
sg1876
S'classifications_name_idx'
p1889
sg1878
S'A'
sg1879
S''
sg1880
L1L
sg1881
S'classifications'
p1890
sg1883
L1L
sg1884
Nsg1885
S'name'
p1891
satp1892
sS'longdescs'
p1893
((lp1894
(dp1895
S'Extra'
p1896
S''
sS'Default'
p1897
S'0'
sS'Field'
p1898
S'bug_id'
p1899
sS'Key'
p1900
S'MUL'
p1901
sS'Null'
p1902
S''
sS'Type'
p1903
S'mediumint(9)'
p1904
sa(dp1905
g1896
S''
sg1897
S'0'
sg1898
S'who'
p1906
sg1900
S'MUL'
p1907
sg1902
S''
sg1903
S'mediumint(9)'
p1908
sa(dp1909
g1896
S''
sg1897
S'0000-00-00 00:00:00'
p1910
sg1898
S'bug_when'
p1911
sg1900
S'MUL'
p1912
sg1902
S''
sg1903
S'datetime'
p1913
sa(dp1914
g1896
S''
sg1897
S'0.00'
p1915
sg1898
S'work_time'
p1916
sg1900
S''
sg1902
S''
sg1903
S'decimal(5,2)'
p1917
sa(dp1918
g1896
S''
sg1897
Nsg1898
S'thetext'
p1919
sg1900
S'MUL'
p1920
sg1902
S'YES'
p1921
sg1903
S'mediumtext'
p1922
sa(dp1923
g1896
S''
sg1897
S'0'
sg1898
S'isprivate'
p1924
sg1900
S''
sg1902
S''
sg1903
S'tinyint(4)'
p1925
sa(dp1926
g1896
S''
sg1897
S'0'
sg1898
S'already_wrapped'
p1927
sg1900
S''
sg1902
S''
sg1903
S'tinyint(4)'
p1928
sa(lp1929
(dp1930
S'Comment'
p1931
S''
sS'Non_unique'
p1932
L1L
sS'Sub_part'
p1933
NsS'Index_type'
p1934
S'BTREE'
p1935
sS'Key_name'
p1936
S'longdescs_bug_id_idx'
p1937
sS'Collation'
p1938
S'A'
sS'Null'
p1939
S''
sS'Seq_in_index'
p1940
L1L
sS'Table'
p1941
S'longdescs'
p1942
sS'Cardinality'
p1943
NsS'Packed'
p1944
NsS'Column_name'
p1945
S'bug_id'
p1946
sa(dp1947
g1931
S''
sg1932
L1L
sg1933
Nsg1934
S'BTREE'
p1948
sg1936
S'longdescs_who_idx'
p1949
sg1938
S'A'
sg1939
S''
sg1940
L1L
sg1941
S'longdescs'
p1950
sg1943
Nsg1944
Nsg1945
S'who'
p1951
sa(dp1952
g1931
S''
sg1932
L1L
sg1933
Nsg1934
S'BTREE'
p1953
sg1936
S'longdescs_bug_when_idx'
p1954
sg1938
S'A'
sg1939
S''
sg1940
L1L
sg1941
S'longdescs'
p1955
sg1943
Nsg1944
Nsg1945
S'bug_when'
p1956
sa(dp1957
g1931
S''
sg1932
L1L
sg1933
Nsg1934
S'FULLTEXT'
p1958
sg1936
S'longdescs_thetext_idx'
p1959
sg1938
S'A'
sg1939
S'YES'
p1960
sg1940
L1L
sg1941
S'longdescs'
p1961
sg1943
Nsg1944
Nsg1945
S'thetext'
p1962
satp1963
sS'versions'
p1964
((lp1965
(dp1966
S'Extra'
p1967
S''
sS'Default'
p1968
S''
sS'Field'
p1969
S'value'
p1970
sS'Key'
p1971
S'PRI'
p1972
sS'Null'
p1973
S''
sS'Type'
p1974
S'varchar(64)'
p1975
sa(dp1976
g1967
S''
sg1968
S'0'
sg1969
S'product_id'
p1977
sg1971
S'PRI'
p1978
sg1973
S''
sg1974
S'smallint(6)'
p1979
sa(lp1980
(dp1981
S'Comment'
p1982
S''
sS'Non_unique'
p1983
L0L
sS'Sub_part'
p1984
NsS'Index_type'
p1985
S'BTREE'
p1986
sS'Key_name'
p1987
S'versions_product_id_idx'
p1988
sS'Collation'
p1989
S'A'
sS'Null'
p1990
S''
sS'Seq_in_index'
p1991
L1L
sS'Table'
p1992
S'versions'
p1993
sS'Cardinality'
p1994
NsS'Packed'
p1995
NsS'Column_name'
p1996
S'product_id'
p1997
sa(dp1998
g1982
S''
sg1983
L0L
sg1984
Nsg1985
S'BTREE'
p1999
sg1987
S'versions_product_id_idx'
p2000
sg1989
S'A'
sg1990
S''
sg1991
L2L
sg1992
S'versions'
p2001
sg1994
L1L
sg1995
Nsg1996
S'value'
p2002
satp2003
sS'flagtypes'
p2004
((lp2005
(dp2006
S'Extra'
p2007
S''
sS'Default'
p2008
S'0'
sS'Field'
p2009
S'id'
p2010
sS'Key'
p2011
S'PRI'
p2012
sS'Null'
p2013
S''
sS'Type'
p2014
S'smallint(6)'
p2015
sa(dp2016
g2007
S''
sg2008
S''
sg2009
S'name'
p2017
sg2011
S''
sg2013
S''
sg2014
S'varchar(50)'
p2018
sa(dp2019
g2007
S''
sg2008
Nsg2009
S'description'
p2020
sg2011
S''
sg2013
S'YES'
p2021
sg2014
S'text'
p2022
sa(dp2023
g2007
S''
sg2008
Nsg2009
S'cc_list'
p2024
sg2011
S''
sg2013
S'YES'
p2025
sg2014
S'varchar(200)'
p2026
sa(dp2027
g2007
S''
sg2008
S'b'
sg2009
S'target_type'
p2028
sg2011
S''
sg2013
S''
sg2014
S'char(1)'
p2029
sa(dp2030
g2007
S''
sg2008
S'1'
sg2009
S'is_active'
p2031
sg2011
S''
sg2013
S''
sg2014
S'tinyint(4)'
p2032
sa(dp2033
g2007
S''
sg2008
S'0'
sg2009
S'is_requestable'
p2034
sg2011
S''
sg2013
S''
sg2014
S'tinyint(4)'
p2035
sa(dp2036
g2007
S''
sg2008
S'0'
sg2009
S'is_requesteeble'
p2037
sg2011
S''
sg2013
S''
sg2014
S'tinyint(4)'
p2038
sa(dp2039
g2007
S''
sg2008
S'0'
sg2009
S'is_multiplicable'
p2040
sg2011
S''
sg2013
S''
sg2014
S'tinyint(4)'
p2041
sa(dp2042
g2007
S''
sg2008
S'0'
sg2009
S'sortkey'
p2043
sg2011
S''
sg2013
S''
sg2014
S'smallint(6)'
p2044
sa(dp2045
g2007
S''
sg2008
Nsg2009
S'grant_group_id'
p2046
sg2011
S''
sg2013
S'YES'
p2047
sg2014
S'mediumint(9)'
p2048
sa(dp2049
g2007
S''
sg2008
Nsg2009
S'request_group_id'
p2050
sg2011
S''
sg2013
S'YES'
p2051
sg2014
S'mediumint(9)'
p2052
sa(lp2053
(dp2054
S'Comment'
p2055
S''
sS'Non_unique'
p2056
L0L
sS'Sub_part'
p2057
NsS'Index_type'
p2058
S'BTREE'
p2059
sS'Key_name'
p2060
S'PRIMARY'
p2061
sS'Collation'
p2062
S'A'
sS'Null'
p2063
S''
sS'Seq_in_index'
p2064
L1L
sS'Table'
p2065
S'flagtypes'
p2066
sS'Cardinality'
p2067
L0L
sS'Packed'
p2068
NsS'Column_name'
p2069
S'id'
p2070
satp2071
sS'user_group_map'
p2072
((lp2073
(dp2074
S'Extra'
p2075
S''
sS'Default'
p2076
S'0'
sS'Field'
p2077
S'user_id'
p2078
sS'Key'
p2079
S'PRI'
p2080
sS'Null'
p2081
S''
sS'Type'
p2082
S'mediumint(9)'
p2083
sa(dp2084
g2075
S''
sg2076
S'0'
sg2077
S'group_id'
p2085
sg2079
S'PRI'
p2086
sg2081
S''
sg2082
S'mediumint(9)'
p2087
sa(dp2088
g2075
S''
sg2076
S'0'
sg2077
S'isbless'
p2089
sg2079
S'PRI'
p2090
sg2081
S''
sg2082
S'tinyint(4)'
p2091
sa(dp2092
g2075
S''
sg2076
S'0'
sg2077
S'grant_type'
p2093
sg2079
S'PRI'
p2094
sg2081
S''
sg2082
S'tinyint(4)'
p2095
sa(lp2096
(dp2097
S'Comment'
p2098
S''
sS'Non_unique'
p2099
L0L
sS'Sub_part'
p2100
NsS'Index_type'
p2101
S'BTREE'
p2102
sS'Key_name'
p2103
S'user_group_map_user_id_idx'
p2104
sS'Collation'
p2105
S'A'
sS'Null'
p2106
S''
sS'Seq_in_index'
p2107
L1L
sS'Table'
p2108
S'user_group_map'
p2109
sS'Cardinality'
p2110
NsS'Packed'
p2111
NsS'Column_name'
p2112
S'user_id'
p2113
sa(dp2114
g2098
S''
sg2099
L0L
sg2100
Nsg2101
S'BTREE'
p2115
sg2103
S'user_group_map_user_id_idx'
p2116
sg2105
S'A'
sg2106
S''
sg2107
L2L
sg2108
S'user_group_map'
p2117
sg2110
Nsg2111
Nsg2112
S'group_id'
p2118
sa(dp2119
g2098
S''
sg2099
L0L
sg2100
Nsg2101
S'BTREE'
p2120
sg2103
S'user_group_map_user_id_idx'
p2121
sg2105
S'A'
sg2106
S''
sg2107
L3L
sg2108
S'user_group_map'
p2122
sg2110
Nsg2111
Nsg2112
S'grant_type'
p2123
sa(dp2124
g2098
S''
sg2099
L0L
sg2100
Nsg2101
S'BTREE'
p2125
sg2103
S'user_group_map_user_id_idx'
p2126
sg2105
S'A'
sg2106
S''
sg2107
L4L
sg2108
S'user_group_map'
p2127
sg2110
L2L
sg2111
Nsg2112
S'isbless'
p2128
satp2129
sS'bugs'
p2130
((lp2131
(dp2132
S'Extra'
p2133
S'auto_increment'
p2134
sS'Default'
p2135
NsS'Field'
p2136
S'bug_id'
p2137
sS'Key'
p2138
S'PRI'
p2139
sS'Null'
p2140
S''
sS'Type'
p2141
S'mediumint(9)'
p2142
sa(dp2143
g2133
S''
sg2135
S'0'
sg2136
S'assigned_to'
p2144
sg2138
S'MUL'
p2145
sg2140
S''
sg2141
S'mediumint(9)'
p2146
sa(dp2147
g2133
S''
sg2135
Nsg2136
S'bug_file_loc'
p2148
sg2138
S''
sg2140
S'YES'
p2149
sg2141
S'text'
p2150
sa(dp2151
g2133
S''
sg2135
S''
sg2136
S'bug_severity'
p2152
sg2138
S'MUL'
p2153
sg2140
S''
sg2141
S'varchar(64)'
p2154
sa(dp2155
g2133
S''
sg2135
S''
sg2136
S'bug_status'
p2156
sg2138
S'MUL'
p2157
sg2140
S''
sg2141
S'varchar(64)'
p2158
sa(dp2159
g2133
S''
sg2135
Nsg2136
S'creation_ts'
p2160
sg2138
S'MUL'
p2161
sg2140
S'YES'
p2162
sg2141
S'datetime'
p2163
sa(dp2164
g2133
S''
sg2135
S'0000-00-00 00:00:00'
p2165
sg2136
S'delta_ts'
p2166
sg2138
S'MUL'
p2167
sg2140
S''
sg2141
S'datetime'
p2168
sa(dp2169
g2133
S''
sg2135
S''
sg2136
S'short_desc'
p2170
sg2138
S'MUL'
p2171
sg2140
S''
sg2141
S'mediumtext'
p2172
sa(dp2173
g2133
S''
sg2135
S''
sg2136
S'op_sys'
p2174
sg2138
S'MUL'
p2175
sg2140
S''
sg2141
S'varchar(64)'
p2176
sa(dp2177
g2133
S''
sg2135
S''
sg2136
S'priority'
p2178
sg2138
S'MUL'
p2179
sg2140
S''
sg2141
S'varchar(64)'
p2180
sa(dp2181
g2133
S''
sg2135
S'0'
sg2136
S'product_id'
p2182
sg2138
S'MUL'
p2183
sg2140
S''
sg2141
S'smallint(6)'
p2184
sa(dp2185
g2133
S''
sg2135
S''
sg2136
S'rep_platform'
p2186
sg2138
S''
sg2140
S''
sg2141
S'varchar(64)'
p2187
sa(dp2188
g2133
S''
sg2135
S'0'
sg2136
S'reporter'
p2189
sg2138
S'MUL'
p2190
sg2140
S''
sg2141
S'mediumint(9)'
p2191
sa(dp2192
g2133
S''
sg2135
S''
sg2136
S'version'
p2193
sg2138
S'MUL'
p2194
sg2140
S''
sg2141
S'varchar(64)'
p2195
sa(dp2196
g2133
S''
sg2135
S'0'
sg2136
S'component_id'
p2197
sg2138
S'MUL'
p2198
sg2140
S''
sg2141
S'smallint(6)'
p2199
sa(dp2200
g2133
S''
sg2135
S''
sg2136
S'resolution'
p2201
sg2138
S'MUL'
p2202
sg2140
S''
sg2141
S'varchar(64)'
p2203
sa(dp2204
g2133
S''
sg2135
S'---'
p2205
sg2136
S'target_milestone'
p2206
sg2138
S'MUL'
p2207
sg2140
S''
sg2141
S'varchar(20)'
p2208
sa(dp2209
g2133
S''
sg2135
Nsg2136
S'qa_contact'
p2210
sg2138
S'MUL'
p2211
sg2140
S'YES'
p2212
sg2141
S'mediumint(9)'
p2213
sa(dp2214
g2133
S''
sg2135
S''
sg2136
S'status_whiteboard'
p2215
sg2138
S''
sg2140
S''
sg2141
S'mediumtext'
p2216
sa(dp2217
g2133
S''
sg2135
S'0'
sg2136
S'votes'
p2218
sg2138
S'MUL'
p2219
sg2140
S''
sg2141
S'mediumint(9)'
p2220
sa(dp2221
g2133
S''
sg2135
S''
sg2136
S'keywords'
p2222
sg2138
S''
sg2140
S''
sg2141
S'mediumtext'
p2223
sa(dp2224
g2133
S''
sg2135
Nsg2136
S'lastdiffed'
p2225
sg2138
S''
sg2140
S'YES'
p2226
sg2141
S'datetime'
p2227
sa(dp2228
g2133
S''
sg2135
S'0'
sg2136
S'everconfirmed'
p2229
sg2138
S''
sg2140
S''
sg2141
S'tinyint(4)'
p2230
sa(dp2231
g2133
S''
sg2135
S'1'
sg2136
S'reporter_accessible'
p2232
sg2138
S''
sg2140
S''
sg2141
S'tinyint(4)'
p2233
sa(dp2234
g2133
S''
sg2135
S'1'
sg2136
S'cclist_accessible'
p2235
sg2138
S''
sg2140
S''
sg2141
S'tinyint(4)'
p2236
sa(dp2237
g2133
S''
sg2135
S'0.00'
p2238
sg2136
S'estimated_time'
p2239
sg2138
S''
sg2140
S''
sg2141
S'decimal(5,2)'
p2240
sa(dp2241
g2133
S''
sg2135
S'0.00'
p2242
sg2136
S'remaining_time'
p2243
sg2138
S''
sg2140
S''
sg2141
S'decimal(5,2)'
p2244
sa(dp2245
g2133
S''
sg2135
Nsg2136
S'deadline'
p2246
sg2138
S''
sg2140
S'YES'
p2247
sg2141
S'datetime'
p2248
sa(dp2249
g2133
S''
sg2135
Nsg2136
S'alias'
p2250
sg2138
S'MUL'
p2251
sg2140
S'YES'
p2252
sg2141
S'varchar(20)'
p2253
sa(lp2254
(dp2255
S'Comment'
p2256
S''
sS'Non_unique'
p2257
L0L
sS'Sub_part'
p2258
NsS'Index_type'
p2259
S'BTREE'
p2260
sS'Key_name'
p2261
S'PRIMARY'
p2262
sS'Collation'
p2263
S'A'
sS'Null'
p2264
S''
sS'Seq_in_index'
p2265
L1L
sS'Table'
p2266
S'bugs'
p2267
sS'Cardinality'
p2268
L0L
sS'Packed'
p2269
NsS'Column_name'
p2270
S'bug_id'
p2271
sa(dp2272
g2256
S''
sg2257
L0L
sg2258
Nsg2259
S'BTREE'
p2273
sg2261
S'bugs_alias_idx'
p2274
sg2263
S'A'
sg2264
S'YES'
p2275
sg2265
L1L
sg2266
S'bugs'
p2276
sg2268
Nsg2269
Nsg2270
S'alias'
p2277
sa(dp2278
g2256
S''
sg2257
L1L
sg2258
Nsg2259
S'BTREE'
p2279
sg2261
S'bugs_assigned_to_idx'
p2280
sg2263
S'A'
sg2264
S''
sg2265
L1L
sg2266
S'bugs'
p2281
sg2268
Nsg2269
Nsg2270
S'assigned_to'
p2282
sa(dp2283
g2256
S''
sg2257
L1L
sg2258
Nsg2259
S'BTREE'
p2284
sg2261
S'bugs_creation_ts_idx'
p2285
sg2263
S'A'
sg2264
S'YES'
p2286
sg2265
L1L
sg2266
S'bugs'
p2287
sg2268
Nsg2269
Nsg2270
S'creation_ts'
p2288
sa(dp2289
g2256
S''
sg2257
L1L
sg2258
Nsg2259
S'BTREE'
p2290
sg2261
S'bugs_delta_ts_idx'
p2291
sg2263
S'A'
sg2264
S''
sg2265
L1L
sg2266
S'bugs'
p2292
sg2268
Nsg2269
Nsg2270
S'delta_ts'
p2293
sa(dp2294
g2256
S''
sg2257
L1L
sg2258
Nsg2259
S'BTREE'
p2295
sg2261
S'bugs_bug_severity_idx'
p2296
sg2263
S'A'
sg2264
S''
sg2265
L1L
sg2266
S'bugs'
p2297
sg2268
Nsg2269
Nsg2270
S'bug_severity'
p2298
sa(dp2299
g2256
S''
sg2257
L1L
sg2258
Nsg2259
S'BTREE'
p2300
sg2261
S'bugs_bug_status_idx'
p2301
sg2263
S'A'
sg2264
S''
sg2265
L1L
sg2266
S'bugs'
p2302
sg2268
Nsg2269
Nsg2270
S'bug_status'
p2303
sa(dp2304
g2256
S''
sg2257
L1L
sg2258
Nsg2259
S'BTREE'
p2305
sg2261
S'bugs_op_sys_idx'
p2306
sg2263
S'A'
sg2264
S''
sg2265
L1L
sg2266
S'bugs'
p2307
sg2268
Nsg2269
Nsg2270
S'op_sys'
p2308
sa(dp2309
g2256
S''
sg2257
L1L
sg2258
Nsg2259
S'BTREE'
p2310
sg2261
S'bugs_priority_idx'
p2311
sg2263
S'A'
sg2264
S''
sg2265
L1L
sg2266
S'bugs'
p2312
sg2268
Nsg2269
Nsg2270
S'priority'
p2313
sa(dp2314
g2256
S''
sg2257
L1L
sg2258
Nsg2259
S'BTREE'
p2315
sg2261
S'bugs_product_id_idx'
p2316
sg2263
S'A'
sg2264
S''
sg2265
L1L
sg2266
S'bugs'
p2317
sg2268
Nsg2269
Nsg2270
S'product_id'
p2318
sa(dp2319
g2256
S''
sg2257
L1L
sg2258
Nsg2259
S'BTREE'
p2320
sg2261
S'bugs_reporter_idx'
p2321
sg2263
S'A'
sg2264
S''
sg2265
L1L
sg2266
S'bugs'
p2322
sg2268
Nsg2269
Nsg2270
S'reporter'
p2323
sa(dp2324
g2256
S''
sg2257
L1L
sg2258
Nsg2259
S'BTREE'
p2325
sg2261
S'bugs_version_idx'
p2326
sg2263
S'A'
sg2264
S''
sg2265
L1L
sg2266
S'bugs'
p2327
sg2268
Nsg2269
Nsg2270
S'version'
p2328
sa(dp2329
g2256
S''
sg2257
L1L
sg2258
Nsg2259
S'BTREE'
p2330
sg2261
S'bugs_component_id_idx'
p2331
sg2263
S'A'
sg2264
S''
sg2265
L1L
sg2266
S'bugs'
p2332
sg2268
Nsg2269
Nsg2270
S'component_id'
p2333
sa(dp2334
g2256
S''
sg2257
L1L
sg2258
Nsg2259
S'BTREE'
p2335
sg2261
S'bugs_resolution_idx'
p2336
sg2263
S'A'
sg2264
S''
sg2265
L1L
sg2266
S'bugs'
p2337
sg2268
Nsg2269
Nsg2270
S'resolution'
p2338
sa(dp2339
g2256
S''
sg2257
L1L
sg2258
Nsg2259
S'BTREE'
p2340
sg2261
S'bugs_target_milestone_idx'
p2341
sg2263
S'A'
sg2264
S''
sg2265
L1L
sg2266
S'bugs'
p2342
sg2268
Nsg2269
Nsg2270
S'target_milestone'
p2343
sa(dp2344
g2256
S''
sg2257
L1L
sg2258
Nsg2259
S'BTREE'
p2345
sg2261
S'bugs_qa_contact_idx'
p2346
sg2263
S'A'
sg2264
S'YES'
p2347
sg2265
L1L
sg2266
S'bugs'
p2348
sg2268
Nsg2269
Nsg2270
S'qa_contact'
p2349
sa(dp2350
g2256
S''
sg2257
L1L
sg2258
Nsg2259
S'BTREE'
p2351
sg2261
S'bugs_votes_idx'
p2352
sg2263
S'A'
sg2264
S''
sg2265
L1L
sg2266
S'bugs'
p2353
sg2268
Nsg2269
Nsg2270
S'votes'
p2354
sa(dp2355
g2256
S''
sg2257
L1L
sg2258
Nsg2259
S'FULLTEXT'
p2356
sg2261
S'bugs_short_desc_idx'
p2357
sg2263
S'A'
sg2264
S''
sg2265
L1L
sg2266
S'bugs'
p2358
sg2268
Nsg2269
Nsg2270
S'short_desc'
p2359
satp2360
sS'profiles'
p2361
((lp2362
(dp2363
S'Extra'
p2364
S'auto_increment'
p2365
sS'Default'
p2366
NsS'Field'
p2367
S'userid'
p2368
sS'Key'
p2369
S'PRI'
p2370
sS'Null'
p2371
S''
sS'Type'
p2372
S'mediumint(9)'
p2373
sa(dp2374
g2364
S''
sg2366
S''
sg2367
S'login_name'
p2375
sg2369
S'UNI'
p2376
sg2371
S''
sg2372
S'varchar(255)'
p2377
sa(dp2378
g2364
S''
sg2366
Nsg2367
S'cryptpassword'
p2379
sg2369
S''
sg2371
S'YES'
p2380
sg2372
S'varchar(128)'
p2381
sa(dp2382
g2364
S''
sg2366
Nsg2367
S'realname'
p2383
sg2369
S''
sg2371
S'YES'
p2384
sg2372
S'varchar(255)'
p2385
sa(dp2386
g2364
S''
sg2366
S''
sg2367
S'disabledtext'
p2387
sg2369
S''
sg2371
S''
sg2372
S'mediumtext'
p2388
sa(dp2389
g2364
S''
sg2366
S'1'
sg2367
S'mybugslink'
p2390
sg2369
S''
sg2371
S''
sg2372
S'tinyint(4)'
p2391
sa(dp2392
g2364
S''
sg2366
S'0000-00-00 00:00:00'
p2393
sg2367
S'refreshed_when'
p2394
sg2369
S''
sg2371
S''
sg2372
S'datetime'
p2395
sa(dp2396
g2364
S''
sg2366
Nsg2367
S'extern_id'
p2397
sg2369
S''
sg2371
S'YES'
p2398
sg2372
S'varchar(64)'
p2399
sa(lp2400
(dp2401
S'Comment'
p2402
S''
sS'Non_unique'
p2403
L0L
sS'Sub_part'
p2404
NsS'Index_type'
p2405
S'BTREE'
p2406
sS'Key_name'
p2407
S'PRIMARY'
p2408
sS'Collation'
p2409
S'A'
sS'Null'
p2410
S''
sS'Seq_in_index'
p2411
L1L
sS'Table'
p2412
S'profiles'
p2413
sS'Cardinality'
p2414
L1L
sS'Packed'
p2415
NsS'Column_name'
p2416
S'userid'
p2417
sa(dp2418
g2402
S''
sg2403
L0L
sg2404
Nsg2405
S'BTREE'
p2419
sg2407
S'profiles_login_name_idx'
p2420
sg2409
S'A'
sg2410
S''
sg2411
L1L
sg2412
S'profiles'
p2421
sg2414
L1L
sg2415
Nsg2416
S'login_name'
p2422
satp2423
sS'flags'
p2424
((lp2425
(dp2426
S'Extra'
p2427
S''
sS'Default'
p2428
S'0'
sS'Field'
p2429
S'id'
p2430
sS'Key'
p2431
S'PRI'
p2432
sS'Null'
p2433
S''
sS'Type'
p2434
S'mediumint(9)'
p2435
sa(dp2436
g2427
S''
sg2428
S'0'
sg2429
S'type_id'
p2437
sg2431
S'MUL'
p2438
sg2433
S''
sg2434
S'smallint(6)'
p2439
sa(dp2440
g2427
S''
sg2428
S''
sg2429
S'status'
p2441
sg2431
S''
sg2433
S''
sg2434
S'char(1)'
p2442
sa(dp2443
g2427
S''
sg2428
S'0'
sg2429
S'bug_id'
p2444
sg2431
S'MUL'
p2445
sg2433
S''
sg2434
S'mediumint(9)'
p2446
sa(dp2447
g2427
S''
sg2428
Nsg2429
S'attach_id'
p2448
sg2431
S''
sg2433
S'YES'
p2449
sg2434
S'mediumint(9)'
p2450
sa(dp2451
g2427
S''
sg2428
S'0000-00-00 00:00:00'
p2452
sg2429
S'creation_date'
p2453
sg2431
S''
sg2433
S''
sg2434
S'datetime'
p2454
sa(dp2455
g2427
S''
sg2428
Nsg2429
S'modification_date'
p2456
sg2431
S''
sg2433
S'YES'
p2457
sg2434
S'datetime'
p2458
sa(dp2459
g2427
S''
sg2428
Nsg2429
S'setter_id'
p2460
sg2431
S'MUL'
p2461
sg2433
S'YES'
p2462
sg2434
S'mediumint(9)'
p2463
sa(dp2464
g2427
S''
sg2428
Nsg2429
S'requestee_id'
p2465
sg2431
S'MUL'
p2466
sg2433
S'YES'
p2467
sg2434
S'mediumint(9)'
p2468
sa(dp2469
g2427
S''
sg2428
S'1'
sg2429
S'is_active'
p2470
sg2431
S''
sg2433
S''
sg2434
S'tinyint(4)'
p2471
sa(lp2472
(dp2473
S'Comment'
p2474
S''
sS'Non_unique'
p2475
L0L
sS'Sub_part'
p2476
NsS'Index_type'
p2477
S'BTREE'
p2478
sS'Key_name'
p2479
S'PRIMARY'
p2480
sS'Collation'
p2481
S'A'
sS'Null'
p2482
S''
sS'Seq_in_index'
p2483
L1L
sS'Table'
p2484
S'flags'
p2485
sS'Cardinality'
p2486
L0L
sS'Packed'
p2487
NsS'Column_name'
p2488
S'id'
p2489
sa(dp2490
g2474
S''
sg2475
L1L
sg2476
Nsg2477
S'BTREE'
p2491
sg2479
S'flags_bug_id_idx'
p2492
sg2481
S'A'
sg2482
S''
sg2483
L1L
sg2484
S'flags'
p2493
sg2486
Nsg2487
Nsg2488
S'bug_id'
p2494
sa(dp2495
g2474
S''
sg2475
L1L
sg2476
Nsg2477
S'BTREE'
p2496
sg2479
S'flags_bug_id_idx'
p2497
sg2481
S'A'
sg2482
S'YES'
p2498
sg2483
L2L
sg2484
S'flags'
p2499
sg2486
Nsg2487
Nsg2488
S'attach_id'
p2500
sa(dp2501
g2474
S''
sg2475
L1L
sg2476
Nsg2477
S'BTREE'
p2502
sg2479
S'flags_setter_id_idx'
p2503
sg2481
S'A'
sg2482
S'YES'
p2504
sg2483
L1L
sg2484
S'flags'
p2505
sg2486
Nsg2487
Nsg2488
S'setter_id'
p2506
sa(dp2507
g2474
S''
sg2475
L1L
sg2476
Nsg2477
S'BTREE'
p2508
sg2479
S'flags_requestee_id_idx'
p2509
sg2481
S'A'
sg2482
S'YES'
p2510
sg2483
L1L
sg2484
S'flags'
p2511
sg2486
Nsg2487
Nsg2488
S'requestee_id'
p2512
sa(dp2513
g2474
S''
sg2475
L1L
sg2476
Nsg2477
S'BTREE'
p2514
sg2479
S'flags_type_id_idx'
p2515
sg2481
S'A'
sg2482
S''
sg2483
L1L
sg2484
S'flags'
p2516
sg2486
Nsg2487
Nsg2488
S'type_id'
p2517
satp2518
sS'components'
p2519
((lp2520
(dp2521
S'Extra'
p2522
S'auto_increment'
p2523
sS'Default'
p2524
NsS'Field'
p2525
S'id'
p2526
sS'Key'
p2527
S'PRI'
p2528
sS'Null'
p2529
S''
sS'Type'
p2530
S'smallint(6)'
p2531
sa(dp2532
g2522
S''
sg2524
S''
sg2525
S'name'
p2533
sg2527
S'MUL'
p2534
sg2529
S''
sg2530
S'varchar(64)'
p2535
sa(dp2536
g2522
S''
sg2524
S'0'
sg2525
S'product_id'
p2537
sg2527
S'MUL'
p2538
sg2529
S''
sg2530
S'smallint(6)'
p2539
sa(dp2540
g2522
S''
sg2524
S'0'
sg2525
S'initialowner'
p2541
sg2527
S''
sg2529
S''
sg2530
S'mediumint(9)'
p2542
sa(dp2543
g2522
S''
sg2524
Nsg2525
S'initialqacontact'
p2544
sg2527
S''
sg2529
S'YES'
p2545
sg2530
S'mediumint(9)'
p2546
sa(dp2547
g2522
S''
sg2524
S''
sg2525
S'description'
p2548
sg2527
S''
sg2529
S''
sg2530
S'mediumtext'
p2549
sa(lp2550
(dp2551
S'Comment'
p2552
S''
sS'Non_unique'
p2553
L0L
sS'Sub_part'
p2554
NsS'Index_type'
p2555
S'BTREE'
p2556
sS'Key_name'
p2557
S'PRIMARY'
p2558
sS'Collation'
p2559
S'A'
sS'Null'
p2560
S''
sS'Seq_in_index'
p2561
L1L
sS'Table'
p2562
S'components'
p2563
sS'Cardinality'
p2564
L1L
sS'Packed'
p2565
NsS'Column_name'
p2566
S'id'
p2567
sa(dp2568
g2552
S''
sg2553
L0L
sg2554
Nsg2555
S'BTREE'
p2569
sg2557
S'components_product_id_idx'
p2570
sg2559
S'A'
sg2560
S''
sg2561
L1L
sg2562
S'components'
p2571
sg2564
Nsg2565
Nsg2566
S'product_id'
p2572
sa(dp2573
g2552
S''
sg2553
L0L
sg2554
Nsg2555
S'BTREE'
p2574
sg2557
S'components_product_id_idx'
p2575
sg2559
S'A'
sg2560
S''
sg2561
L2L
sg2562
S'components'
p2576
sg2564
L1L
sg2565
Nsg2566
S'name'
p2577
sa(dp2578
g2552
S''
sg2553
L1L
sg2554
Nsg2555
S'BTREE'
p2579
sg2557
S'components_name_idx'
p2580
sg2559
S'A'
sg2560
S''
sg2561
L1L
sg2562
S'components'
p2581
sg2564
Nsg2565
Nsg2566
S'name'
p2582
satp2583
sS'whine_queries'
p2584
((lp2585
(dp2586
S'Extra'
p2587
S'auto_increment'
p2588
sS'Default'
p2589
NsS'Field'
p2590
S'id'
p2591
sS'Key'
p2592
S'PRI'
p2593
sS'Null'
p2594
S''
sS'Type'
p2595
S'mediumint(9)'
p2596
sa(dp2597
g2587
S''
sg2589
S'0'
sg2590
S'eventid'
p2598
sg2592
S'MUL'
p2599
sg2594
S''
sg2595
S'mediumint(9)'
p2600
sa(dp2601
g2587
S''
sg2589
S''
sg2590
S'query_name'
p2602
sg2592
S''
sg2594
S''
sg2595
S'varchar(64)'
p2603
sa(dp2604
g2587
S''
sg2589
S'0'
sg2590
S'sortkey'
p2605
sg2592
S''
sg2594
S''
sg2595
S'smallint(6)'
p2606
sa(dp2607
g2587
S''
sg2589
S'0'
sg2590
S'onemailperbug'
p2608
sg2592
S''
sg2594
S''
sg2595
S'tinyint(4)'
p2609
sa(dp2610
g2587
S''
sg2589
S''
sg2590
S'title'
p2611
sg2592
S''
sg2594
S''
sg2595
S'varchar(128)'
p2612
sa(lp2613
(dp2614
S'Comment'
p2615
S''
sS'Non_unique'
p2616
L0L
sS'Sub_part'
p2617
NsS'Index_type'
p2618
S'BTREE'
p2619
sS'Key_name'
p2620
S'PRIMARY'
p2621
sS'Collation'
p2622
S'A'
sS'Null'
p2623
S''
sS'Seq_in_index'
p2624
L1L
sS'Table'
p2625
S'whine_queries'
p2626
sS'Cardinality'
p2627
L0L
sS'Packed'
p2628
NsS'Column_name'
p2629
S'id'
p2630
sa(dp2631
g2615
S''
sg2616
L1L
sg2617
Nsg2618
S'BTREE'
p2632
sg2620
S'whine_queries_eventid_idx'
p2633
sg2622
S'A'
sg2623
S''
sg2624
L1L
sg2625
S'whine_queries'
p2634
sg2627
Nsg2628
Nsg2629
S'eventid'
p2635
satp2636
sS'setting_value'
p2637
((lp2638
(dp2639
S'Extra'
p2640
S''
sS'Default'
p2641
S''
sS'Field'
p2642
S'name'
p2643
sS'Key'
p2644
S'PRI'
p2645
sS'Null'
p2646
S''
sS'Type'
p2647
S'varchar(32)'
p2648
sa(dp2649
g2640
S''
sg2641
S''
sg2642
S'value'
p2650
sg2644
S'PRI'
p2651
sg2646
S''
sg2647
S'varchar(32)'
p2652
sa(dp2653
g2640
S''
sg2641
S'0'
sg2642
S'sortindex'
p2654
sg2644
S''
sg2646
S''
sg2647
S'smallint(6)'
p2655
sa(lp2656
(dp2657
S'Comment'
p2658
S''
sS'Non_unique'
p2659
L0L
sS'Sub_part'
p2660
NsS'Index_type'
p2661
S'BTREE'
p2662
sS'Key_name'
p2663
S'setting_value_nv_unique_idx'
p2664
sS'Collation'
p2665
S'A'
sS'Null'
p2666
S''
sS'Seq_in_index'
p2667
L1L
sS'Table'
p2668
S'setting_value'
p2669
sS'Cardinality'
p2670
NsS'Packed'
p2671
NsS'Column_name'
p2672
S'name'
p2673
sa(dp2674
g2658
S''
sg2659
L0L
sg2660
Nsg2661
S'BTREE'
p2675
sg2663
S'setting_value_nv_unique_idx'
p2676
sg2665
S'A'
sg2666
S''
sg2667
L2L
sg2668
S'setting_value'
p2677
sg2670
L10L
sg2671
Nsg2672
S'value'
p2678
sa(dp2679
g2658
S''
sg2659
L0L
sg2660
Nsg2661
S'BTREE'
p2680
sg2663
S'setting_value_ns_unique_idx'
p2681
sg2665
S'A'
sg2666
S''
sg2667
L1L
sg2668
S'setting_value'
p2682
sg2670
Nsg2671
Nsg2672
S'name'
p2683
sa(dp2684
g2658
S''
sg2659
L0L
sg2660
Nsg2661
S'BTREE'
p2685
sg2663
S'setting_value_ns_unique_idx'
p2686
sg2665
S'A'
sg2666
S''
sg2667
L2L
sg2668
S'setting_value'
p2687
sg2670
L10L
sg2671
Nsg2672
S'sortindex'
p2688
satp2689
sS'resolution'
p2690
((lp2691
(dp2692
S'Extra'
p2693
S'auto_increment'
p2694
sS'Default'
p2695
NsS'Field'
p2696
S'id'
p2697
sS'Key'
p2698
S'PRI'
p2699
sS'Null'
p2700
S''
sS'Type'
p2701
S'smallint(6)'
p2702
sa(dp2703
g2693
S''
sg2695
S''
sg2696
S'value'
p2704
sg2698
S'UNI'
p2705
sg2700
S''
sg2701
S'varchar(64)'
p2706
sa(dp2707
g2693
S''
sg2695
S'0'
sg2696
S'sortkey'
p2708
sg2698
S'MUL'
p2709
sg2700
S''
sg2701
S'smallint(6)'
p2710
sa(dp2711
g2693
S''
sg2695
S'1'
sg2696
S'isactive'
p2712
sg2698
S''
sg2700
S''
sg2701
S'tinyint(4)'
p2713
sa(lp2714
(dp2715
S'Comment'
p2716
S''
sS'Non_unique'
p2717
L0L
sS'Sub_part'
p2718
NsS'Index_type'
p2719
S'BTREE'
p2720
sS'Key_name'
p2721
S'PRIMARY'
p2722
sS'Collation'
p2723
S'A'
sS'Null'
p2724
S''
sS'Seq_in_index'
p2725
L1L
sS'Table'
p2726
S'resolution'
p2727
sS'Cardinality'
p2728
L9L
sS'Packed'
p2729
NsS'Column_name'
p2730
S'id'
p2731
sa(dp2732
g2716
S''
sg2717
L0L
sg2718
Nsg2719
S'BTREE'
p2733
sg2721
S'resolution_value_idx'
p2734
sg2723
S'A'
sg2724
S''
sg2725
L1L
sg2726
S'resolution'
p2735
sg2728
L9L
sg2729
Nsg2730
S'value'
p2736
sa(dp2737
g2716
S''
sg2717
L1L
sg2718
Nsg2719
S'BTREE'
p2738
sg2721
S'resolution_sortkey_idx'
p2739
sg2723
S'A'
sg2724
S''
sg2725
L1L
sg2726
S'resolution'
p2740
sg2728
Nsg2729
Nsg2730
S'sortkey'
p2741
sa(dp2742
g2716
S''
sg2717
L1L
sg2718
Nsg2719
S'BTREE'
p2743
sg2721
S'resolution_sortkey_idx'
p2744
sg2723
S'A'
sg2724
S''
sg2725
L2L
sg2726
S'resolution'
p2745
sg2728
Nsg2729
Nsg2730
S'value'
p2746
satp2747
sS'op_sys'
p2748
((lp2749
(dp2750
S'Extra'
p2751
S'auto_increment'
p2752
sS'Default'
p2753
NsS'Field'
p2754
S'id'
p2755
sS'Key'
p2756
S'PRI'
p2757
sS'Null'
p2758
S''
sS'Type'
p2759
S'smallint(6)'
p2760
sa(dp2761
g2751
S''
sg2753
S''
sg2754
S'value'
p2762
sg2756
S'UNI'
p2763
sg2758
S''
sg2759
S'varchar(64)'
p2764
sa(dp2765
g2751
S''
sg2753
S'0'
sg2754
S'sortkey'
p2766
sg2756
S'MUL'
p2767
sg2758
S''
sg2759
S'smallint(6)'
p2768
sa(dp2769
g2751
S''
sg2753
S'1'
sg2754
S'isactive'
p2770
sg2756
S''
sg2758
S''
sg2759
S'tinyint(4)'
p2771
sa(lp2772
(dp2773
S'Comment'
p2774
S''
sS'Non_unique'
p2775
L0L
sS'Sub_part'
p2776
NsS'Index_type'
p2777
S'BTREE'
p2778
sS'Key_name'
p2779
S'PRIMARY'
p2780
sS'Collation'
p2781
S'A'
sS'Null'
p2782
S''
sS'Seq_in_index'
p2783
L1L
sS'Table'
p2784
S'op_sys'
p2785
sS'Cardinality'
p2786
L5L
sS'Packed'
p2787
NsS'Column_name'
p2788
S'id'
p2789
sa(dp2790
g2774
S''
sg2775
L0L
sg2776
Nsg2777
S'BTREE'
p2791
sg2779
S'op_sys_value_idx'
p2792
sg2781
S'A'
sg2782
S''
sg2783
L1L
sg2784
S'op_sys'
p2793
sg2786
L5L
sg2787
Nsg2788
S'value'
p2794
sa(dp2795
g2774
S''
sg2775
L1L
sg2776
Nsg2777
S'BTREE'
p2796
sg2779
S'op_sys_sortkey_idx'
p2797
sg2781
S'A'
sg2782
S''
sg2783
L1L
sg2784
S'op_sys'
p2798
sg2786
Nsg2787
Nsg2788
S'sortkey'
p2799
sa(dp2800
g2774
S''
sg2775
L1L
sg2776
Nsg2777
S'BTREE'
p2801
sg2779
S'op_sys_sortkey_idx'
p2802
sg2781
S'A'
sg2782
S''
sg2783
L2L
sg2784
S'op_sys'
p2803
sg2786
Nsg2787
Nsg2788
S'value'
p2804
satp2805
sS'group_control_map'
p2806
((lp2807
(dp2808
S'Extra'
p2809
S''
sS'Default'
p2810
S'0'
sS'Field'
p2811
S'group_id'
p2812
sS'Key'
p2813
S'PRI'
p2814
sS'Null'
p2815
S''
sS'Type'
p2816
S'mediumint(9)'
p2817
sa(dp2818
g2809
S''
sg2810
S'0'
sg2811
S'product_id'
p2819
sg2813
S'PRI'
p2820
sg2815
S''
sg2816
S'mediumint(9)'
p2821
sa(dp2822
g2809
S''
sg2810
S'0'
sg2811
S'entry'
p2823
sg2813
S''
sg2815
S''
sg2816
S'tinyint(4)'
p2824
sa(dp2825
g2809
S''
sg2810
S'0'
sg2811
S'membercontrol'
p2826
sg2813
S''
sg2815
S''
sg2816
S'tinyint(4)'
p2827
sa(dp2828
g2809
S''
sg2810
S'0'
sg2811
S'othercontrol'
p2829
sg2813
S''
sg2815
S''
sg2816
S'tinyint(4)'
p2830
sa(dp2831
g2809
S''
sg2810
S'0'
sg2811
S'canedit'
p2832
sg2813
S''
sg2815
S''
sg2816
S'tinyint(4)'
p2833
sa(lp2834
(dp2835
S'Comment'
p2836
S''
sS'Non_unique'
p2837
L0L
sS'Sub_part'
p2838
NsS'Index_type'
p2839
S'BTREE'
p2840
sS'Key_name'
p2841
S'group_control_map_product_id_idx'
p2842
sS'Collation'
p2843
S'A'
sS'Null'
p2844
S''
sS'Seq_in_index'
p2845
L1L
sS'Table'
p2846
S'group_control_map'
p2847
sS'Cardinality'
p2848
NsS'Packed'
p2849
NsS'Column_name'
p2850
S'product_id'
p2851
sa(dp2852
g2836
S''
sg2837
L0L
sg2838
Nsg2839
S'BTREE'
p2853
sg2841
S'group_control_map_product_id_idx'
p2854
sg2843
S'A'
sg2844
S''
sg2845
L2L
sg2846
S'group_control_map'
p2855
sg2848
L0L
sg2849
Nsg2850
S'group_id'
p2856
sa(dp2857
g2836
S''
sg2837
L1L
sg2838
Nsg2839
S'BTREE'
p2858
sg2841
S'group_control_map_group_id_idx'
p2859
sg2843
S'A'
sg2844
S''
sg2845
L1L
sg2846
S'group_control_map'
p2860
sg2848
Nsg2849
Nsg2850
S'group_id'
p2861
satp2862
st.