(S'2.23.3'
p1
(dp2
S'bug_group_map'
p3
((lp4
(dp5
S'Extra'
p6
S''
sS'Default'
p7
S'0'
sS'Field'
p8
S'bug_id'
p9
sS'Key'
p10
S'PRI'
p11
sS'Null'
p12
S''
sS'Type'
p13
S'mediumint(9)'
p14
sa(dp15
g6
S''
sg7
S'0'
sg8
S'group_id'
p16
sg10
S'PRI'
p17
sg12
S''
sg13
S'mediumint(9)'
p18
sa(lp19
(dp20
S'Comment'
p21
S''
sS'Non_unique'
p22
L0L
sS'Sub_part'
p23
NsS'Index_type'
p24
S'BTREE'
p25
sS'Key_name'
p26
S'bug_group_map_bug_id_idx'
p27
sS'Collation'
p28
S'A'
sS'Null'
p29
S''
sS'Seq_in_index'
p30
L1L
sS'Table'
p31
S'bug_group_map'
p32
sS'Cardinality'
p33
NsS'Packed'
p34
NsS'Column_name'
p35
S'bug_id'
p36
sa(dp37
g21
S''
sg22
L0L
sg23
Nsg24
S'BTREE'
p38
sg26
S'bug_group_map_bug_id_idx'
p39
sg28
S'A'
sg29
S''
sg30
L2L
sg31
S'bug_group_map'
p40
sg33
L0L
sg34
Nsg35
S'group_id'
p41
sa(dp42
g21
S''
sg22
L1L
sg23
Nsg24
S'BTREE'
p43
sg26
S'bug_group_map_group_id_idx'
p44
sg28
S'A'
sg29
S''
sg30
L1L
sg31
S'bug_group_map'
p45
sg33
Nsg34
Nsg35
S'group_id'
p46
satp47
sS'attachments'
p48
((lp49
(dp50
S'Extra'
p51
S'auto_increment'
p52
sS'Default'
p53
NsS'Field'
p54
S'attach_id'
p55
sS'Key'
p56
S'PRI'
p57
sS'Null'
p58
S''
sS'Type'
p59
S'mediumint(9)'
p60
sa(dp61
g51
S''
sg53
S'0'
sg54
S'bug_id'
p62
sg56
S'MUL'
p63
sg58
S''
sg59
S'mediumint(9)'
p64
sa(dp65
g51
S''
sg53
S'0000-00-00 00:00:00'
p66
sg54
S'creation_ts'
p67
sg56
S'MUL'
p68
sg58
S''
sg59
S'datetime'
p69
sa(dp70
g51
S''
sg53
S''
sg54
S'description'
p71
sg56
S''
sg58
S''
sg59
S'mediumtext'
p72
sa(dp73
g51
S''
sg53
S''
sg54
S'mimetype'
p74
sg56
S''
sg58
S''
sg59
S'mediumtext'
p75
sa(dp76
g51
S''
sg53
Nsg54
S'ispatch'
p77
sg56
S''
sg58
S'YES'
p78
sg59
S'tinyint(4)'
p79
sa(dp80
g51
S''
sg53
S''
sg54
S'filename'
p81
sg56
S''
sg58
S''
sg59
S'varchar(100)'
p82
sa(dp83
g51
S''
sg53
S'0'
sg54
S'submitter_id'
p84
sg56
S'MUL'
p85
sg58
S''
sg59
S'mediumint(9)'
p86
sa(dp87
g51
S''
sg53
S'0'
sg54
S'isobsolete'
p88
sg56
S''
sg58
S''
sg59
S'tinyint(4)'
p89
sa(dp90
g51
S''
sg53
S'0'
sg54
S'isprivate'
p91
sg56
S''
sg58
S''
sg59
S'tinyint(4)'
p92
sa(dp93
g51
S''
sg53
S'0'
sg54
S'isurl'
p94
sg56
S''
sg58
S''
sg59
S'tinyint(4)'
p95
sa(lp96
(dp97
S'Comment'
p98
S''
sS'Non_unique'
p99
L0L
sS'Sub_part'
p100
NsS'Index_type'
p101
S'BTREE'
p102
sS'Key_name'
p103
S'PRIMARY'
p104
sS'Collation'
p105
S'A'
sS'Null'
p106
S''
sS'Seq_in_index'
p107
L1L
sS'Table'
p108
S'attachments'
p109
sS'Cardinality'
p110
L0L
sS'Packed'
p111
NsS'Column_name'
p112
S'attach_id'
p113
sa(dp114
g98
S''
sg99
L1L
sg100
Nsg101
S'BTREE'
p115
sg103
S'attachments_bug_id_idx'
p116
sg105
S'A'
sg106
S''
sg107
L1L
sg108
S'attachments'
p117
sg110
Nsg111
Nsg112
S'bug_id'
p118
sa(dp119
g98
S''
sg99
L1L
sg100
Nsg101
S'BTREE'
p120
sg103
S'attachments_creation_ts_idx'
p121
sg105
S'A'
sg106
S''
sg107
L1L
sg108
S'attachments'
p122
sg110
Nsg111
Nsg112
S'creation_ts'
p123
sa(dp124
g98
S''
sg99
L1L
sg100
Nsg101
S'BTREE'
p125
sg103
S'attachments_submitter_id_idx'
p126
sg105
S'A'
sg106
S''
sg107
L1L
sg108
S'attachments'
p127
sg110
Nsg111
Nsg112
S'submitter_id'
p128
sa(dp129
g98
S''
sg99
L1L
sg100
Nsg101
S'BTREE'
p130
sg103
S'attachments_submitter_id_idx'
p131
sg105
S'A'
sg106
S''
sg107
L2L
sg108
S'attachments'
p132
sg110
Nsg111
Nsg112
S'bug_id'
p133
satp134
sS'namedqueries_link_in_footer'
p135
((lp136
(dp137
S'Extra'
p138
S''
sS'Default'
p139
S'0'
sS'Field'
p140
S'namedquery_id'
p141
sS'Key'
p142
S'PRI'
p143
sS'Null'
p144
S''
sS'Type'
p145
S'mediumint(9)'
p146
sa(dp147
g138
S''
sg139
S'0'
sg140
S'user_id'
p148
sg142
S'PRI'
p149
sg144
S''
sg145
S'mediumint(9)'
p150
sa(lp151
(dp152
S'Comment'
p153
S''
sS'Non_unique'
p154
L0L
sS'Sub_part'
p155
NsS'Index_type'
p156
S'BTREE'
p157
sS'Key_name'
p158
S'namedqueries_link_in_footer_id_idx'
p159
sS'Collation'
p160
S'A'
sS'Null'
p161
S''
sS'Seq_in_index'
p162
L1L
sS'Table'
p163
S'namedqueries_link_in_footer'
p164
sS'Cardinality'
p165
NsS'Packed'
p166
NsS'Column_name'
p167
S'namedquery_id'
p168
sa(dp169
g153
S''
sg154
L0L
sg155
Nsg156
S'BTREE'
p170
sg158
S'namedqueries_link_in_footer_id_idx'
p171
sg160
S'A'
sg161
S''
sg162
L2L
sg163
S'namedqueries_link_in_footer'
p172
sg165
L0L
sg166
Nsg167
S'user_id'
p173
sa(dp174
g153
S''
sg154
L1L
sg155
Nsg156
S'BTREE'
p175
sg158
S'namedqueries_link_in_footer_userid_idx'
p176
sg160
S'A'
sg161
S''
sg162
L1L
sg163
S'namedqueries_link_in_footer'
p177
sg165
Nsg166
Nsg167
S'user_id'
p178
satp179
sS'duplicates'
p180
((lp181
(dp182
S'Extra'
p183
S''
sS'Default'
p184
S'0'
sS'Field'
p185
S'dupe_of'
p186
sS'Key'
p187
S''
sS'Null'
p188
S''
sS'Type'
p189
S'mediumint(9)'
p190
sa(dp191
g183
S''
sg184
S'0'
sg185
S'dupe'
p192
sg187
S'PRI'
p193
sg188
S''
sg189
S'mediumint(9)'
p194
sa(lp195
(dp196
S'Comment'
p197
S''
sS'Non_unique'
p198
L0L
sS'Sub_part'
p199
NsS'Index_type'
p200
S'BTREE'
p201
sS'Key_name'
p202
S'PRIMARY'
p203
sS'Collation'
p204
S'A'
sS'Null'
p205
S''
sS'Seq_in_index'
p206
L1L
sS'Table'
p207
S'duplicates'
p208
sS'Cardinality'
p209
L0L
sS'Packed'
p210
NsS'Column_name'
p211
S'dupe'
p212
satp213
sS'rep_platform'
p214
((lp215
(dp216
S'Extra'
p217
S'auto_increment'
p218
sS'Default'
p219
NsS'Field'
p220
S'id'
p221
sS'Key'
p222
S'PRI'
p223
sS'Null'
p224
S''
sS'Type'
p225
S'smallint(6)'
p226
sa(dp227
g217
S''
sg219
S''
sg220
S'value'
p228
sg222
S'UNI'
p229
sg224
S''
sg225
S'varchar(64)'
p230
sa(dp231
g217
S''
sg219
S'0'
sg220
S'sortkey'
p232
sg222
S'MUL'
p233
sg224
S''
sg225
S'smallint(6)'
p234
sa(dp235
g217
S''
sg219
S'1'
sg220
S'isactive'
p236
sg222
S''
sg224
S''
sg225
S'tinyint(4)'
p237
sa(lp238
(dp239
S'Comment'
p240
S''
sS'Non_unique'
p241
L0L
sS'Sub_part'
p242
NsS'Index_type'
p243
S'BTREE'
p244
sS'Key_name'
p245
S'PRIMARY'
p246
sS'Collation'
p247
S'A'
sS'Null'
p248
S''
sS'Seq_in_index'
p249
L1L
sS'Table'
p250
S'rep_platform'
p251
sS'Cardinality'
p252
L4L
sS'Packed'
p253
NsS'Column_name'
p254
S'id'
p255
sa(dp256
g240
S''
sg241
L0L
sg242
Nsg243
S'BTREE'
p257
sg245
S'rep_platform_value_idx'
p258
sg247
S'A'
sg248
S''
sg249
L1L
sg250
S'rep_platform'
p259
sg252
L4L
sg253
Nsg254
S'value'
p260
sa(dp261
g240
S''
sg241
L1L
sg242
Nsg243
S'BTREE'
p262
sg245
S'rep_platform_sortkey_idx'
p263
sg247
S'A'
sg248
S''
sg249
L1L
sg250
S'rep_platform'
p264
sg252
Nsg253
Nsg254
S'sortkey'
p265
sa(dp266
g240
S''
sg241
L1L
sg242
Nsg243
S'BTREE'
p267
sg245
S'rep_platform_sortkey_idx'
p268
sg247
S'A'
sg248
S''
sg249
L2L
sg250
S'rep_platform'
p269
sg252
Nsg253
Nsg254
S'value'
p270
satp271
sS'quips'
p272
((lp273
(dp274
S'Extra'
p275
S'auto_increment'
p276
sS'Default'
p277
NsS'Field'
p278
S'quipid'
p279
sS'Key'
p280
S'PRI'
p281
sS'Null'
p282
S''
sS'Type'
p283
S'mediumint(9)'
p284
sa(dp285
g275
S''
sg277
Nsg278
S'userid'
p286
sg280
S''
sg282
S'YES'
p287
sg283
S'mediumint(9)'
p288
sa(dp289
g275
S''
sg277
S''
sg278
S'quip'
p290
sg280
S''
sg282
S''
sg283
S'text'
p291
sa(dp292
g275
S''
sg277
S'1'
sg278
S'approved'
p293
sg280
S''
sg282
S''
sg283
S'tinyint(4)'
p294
sa(lp295
(dp296
S'Comment'
p297
S''
sS'Non_unique'
p298
L0L
sS'Sub_part'
p299
NsS'Index_type'
p300
S'BTREE'
p301
sS'Key_name'
p302
S'PRIMARY'
p303
sS'Collation'
p304
S'A'
sS'Null'
p305
S''
sS'Seq_in_index'
p306
L1L
sS'Table'
p307
S'quips'
p308
sS'Cardinality'
p309
L0L
sS'Packed'
p310
NsS'Column_name'
p311
S'quipid'
p312
satp313
sS'series_categories'
p314
((lp315
(dp316
S'Extra'
p317
S'auto_increment'
p318
sS'Default'
p319
NsS'Field'
p320
S'id'
p321
sS'Key'
p322
S'PRI'
p323
sS'Null'
p324
S''
sS'Type'
p325
S'smallint(6)'
p326
sa(dp327
g317
S''
sg319
S''
sg320
S'name'
p328
sg322
S'UNI'
p329
sg324
S''
sg325
S'varchar(64)'
p330
sa(lp331
(dp332
S'Comment'
p333
S''
sS'Non_unique'
p334
L0L
sS'Sub_part'
p335
NsS'Index_type'
p336
S'BTREE'
p337
sS'Key_name'
p338
S'PRIMARY'
p339
sS'Collation'
p340
S'A'
sS'Null'
p341
S''
sS'Seq_in_index'
p342
L1L
sS'Table'
p343
S'series_categories'
p344
sS'Cardinality'
p345
L0L
sS'Packed'
p346
NsS'Column_name'
p347
S'id'
p348
sa(dp349
g333
S''
sg334
L0L
sg335
Nsg336
S'BTREE'
p350
sg338
S'series_categories_name_idx'
p351
sg340
S'A'
sg341
S''
sg342
L1L
sg343
S'series_categories'
p352
sg345
L0L
sg346
Nsg347
S'name'
p353
satp354
sS'group_control_map'
p355
((lp356
(dp357
S'Extra'
p358
S''
sS'Default'
p359
S'0'
sS'Field'
p360
S'group_id'
p361
sS'Key'
p362
S'PRI'
p363
sS'Null'
p364
S''
sS'Type'
p365
S'mediumint(9)'
p366
sa(dp367
g358
S''
sg359
S'0'
sg360
S'product_id'
p368
sg362
S'PRI'
p369
sg364
S''
sg365
S'mediumint(9)'
p370
sa(dp371
g358
S''
sg359
S'0'
sg360
S'entry'
p372
sg362
S''
sg364
S''
sg365
S'tinyint(4)'
p373
sa(dp374
g358
S''
sg359
S'0'
sg360
S'membercontrol'
p375
sg362
S''
sg364
S''
sg365
S'tinyint(4)'
p376
sa(dp377
g358
S''
sg359
S'0'
sg360
S'othercontrol'
p378
sg362
S''
sg364
S''
sg365
S'tinyint(4)'
p379
sa(dp380
g358
S''
sg359
S'0'
sg360
S'canedit'
p381
sg362
S''
sg364
S''
sg365
S'tinyint(4)'
p382
sa(lp383
(dp384
S'Comment'
p385
S''
sS'Non_unique'
p386
L0L
sS'Sub_part'
p387
NsS'Index_type'
p388
S'BTREE'
p389
sS'Key_name'
p390
S'group_control_map_product_id_idx'
p391
sS'Collation'
p392
S'A'
sS'Null'
p393
S''
sS'Seq_in_index'
p394
L1L
sS'Table'
p395
S'group_control_map'
p396
sS'Cardinality'
p397
NsS'Packed'
p398
NsS'Column_name'
p399
S'product_id'
p400
sa(dp401
g385
S''
sg386
L0L
sg387
Nsg388
S'BTREE'
p402
sg390
S'group_control_map_product_id_idx'
p403
sg392
S'A'
sg393
S''
sg394
L2L
sg395
S'group_control_map'
p404
sg397
L0L
sg398
Nsg399
S'group_id'
p405
sa(dp406
g385
S''
sg386
L1L
sg387
Nsg388
S'BTREE'
p407
sg390
S'group_control_map_group_id_idx'
p408
sg392
S'A'
sg393
S''
sg394
L1L
sg395
S'group_control_map'
p409
sg397
Nsg398
Nsg399
S'group_id'
p410
satp411
sS'component_cc'
p412
((lp413
(dp414
S'Extra'
p415
S''
sS'Default'
p416
S'0'
sS'Field'
p417
S'user_id'
p418
sS'Key'
p419
S'PRI'
p420
sS'Null'
p421
S''
sS'Type'
p422
S'mediumint(9)'
p423
sa(dp424
g415
S''
sg416
S'0'
sg417
S'component_id'
p425
sg419
S'PRI'
p426
sg421
S''
sg422
S'smallint(6)'
p427
sa(lp428
(dp429
S'Comment'
p430
S''
sS'Non_unique'
p431
L0L
sS'Sub_part'
p432
NsS'Index_type'
p433
S'BTREE'
p434
sS'Key_name'
p435
S'component_cc_user_id_idx'
p436
sS'Collation'
p437
S'A'
sS'Null'
p438
S''
sS'Seq_in_index'
p439
L1L
sS'Table'
p440
S'component_cc'
p441
sS'Cardinality'
p442
NsS'Packed'
p443
NsS'Column_name'
p444
S'component_id'
p445
sa(dp446
g430
S''
sg431
L0L
sg432
Nsg433
S'BTREE'
p447
sg435
S'component_cc_user_id_idx'
p448
sg437
S'A'
sg438
S''
sg439
L2L
sg440
S'component_cc'
p449
sg442
L0L
sg443
Nsg444
S'user_id'
p450
satp451
sS'keywords'
p452
((lp453
(dp454
S'Extra'
p455
S''
sS'Default'
p456
S'0'
sS'Field'
p457
S'bug_id'
p458
sS'Key'
p459
S'PRI'
p460
sS'Null'
p461
S''
sS'Type'
p462
S'mediumint(9)'
p463
sa(dp464
g455
S''
sg456
S'0'
sg457
S'keywordid'
p465
sg459
S'PRI'
p466
sg461
S''
sg462
S'smallint(6)'
p467
sa(lp468
(dp469
S'Comment'
p470
S''
sS'Non_unique'
p471
L0L
sS'Sub_part'
p472
NsS'Index_type'
p473
S'BTREE'
p474
sS'Key_name'
p475
S'keywords_bug_id_idx'
p476
sS'Collation'
p477
S'A'
sS'Null'
p478
S''
sS'Seq_in_index'
p479
L1L
sS'Table'
p480
S'keywords'
p481
sS'Cardinality'
p482
NsS'Packed'
p483
NsS'Column_name'
p484
S'bug_id'
p485
sa(dp486
g470
S''
sg471
L0L
sg472
Nsg473
S'BTREE'
p487
sg475
S'keywords_bug_id_idx'
p488
sg477
S'A'
sg478
S''
sg479
L2L
sg480
S'keywords'
p489
sg482
L0L
sg483
Nsg484
S'keywordid'
p490
sa(dp491
g470
S''
sg471
L1L
sg472
Nsg473
S'BTREE'
p492
sg475
S'keywords_keywordid_idx'
p493
sg477
S'A'
sg478
S''
sg479
L1L
sg480
S'keywords'
p494
sg482
Nsg483
Nsg484
S'keywordid'
p495
satp496
sS'series_data'
p497
((lp498
(dp499
S'Extra'
p500
S''
sS'Default'
p501
S'0'
sS'Field'
p502
S'series_id'
p503
sS'Key'
p504
S'PRI'
p505
sS'Null'
p506
S''
sS'Type'
p507
S'mediumint(9)'
p508
sa(dp509
g500
S''
sg501
S'0000-00-00 00:00:00'
p510
sg502
S'series_date'
p511
sg504
S'PRI'
p512
sg506
S''
sg507
S'datetime'
p513
sa(dp514
g500
S''
sg501
S'0'
sg502
S'series_value'
p515
sg504
S''
sg506
S''
sg507
S'mediumint(9)'
p516
sa(lp517
(dp518
S'Comment'
p519
S''
sS'Non_unique'
p520
L0L
sS'Sub_part'
p521
NsS'Index_type'
p522
S'BTREE'
p523
sS'Key_name'
p524
S'series_data_series_id_idx'
p525
sS'Collation'
p526
S'A'
sS'Null'
p527
S''
sS'Seq_in_index'
p528
L1L
sS'Table'
p529
S'series_data'
p530
sS'Cardinality'
p531
NsS'Packed'
p532
NsS'Column_name'
p533
S'series_id'
p534
sa(dp535
g519
S''
sg520
L0L
sg521
Nsg522
S'BTREE'
p536
sg524
S'series_data_series_id_idx'
p537
sg526
S'A'
sg527
S''
sg528
L2L
sg529
S'series_data'
p538
sg531
L0L
sg532
Nsg533
S'series_date'
p539
satp540
sS'keyworddefs'
p541
((lp542
(dp543
S'Extra'
p544
S'auto_increment'
p545
sS'Default'
p546
NsS'Field'
p547
S'id'
p548
sS'Key'
p549
S'PRI'
p550
sS'Null'
p551
S''
sS'Type'
p552
S'smallint(6)'
p553
sa(dp554
g544
S''
sg546
S''
sg547
S'name'
p555
sg549
S'UNI'
p556
sg551
S''
sg552
S'varchar(64)'
p557
sa(dp558
g544
S''
sg546
Nsg547
S'description'
p559
sg549
S''
sg551
S'YES'
p560
sg552
S'mediumtext'
p561
sa(lp562
(dp563
S'Comment'
p564
S''
sS'Non_unique'
p565
L0L
sS'Sub_part'
p566
NsS'Index_type'
p567
S'BTREE'
p568
sS'Key_name'
p569
S'PRIMARY'
p570
sS'Collation'
p571
S'A'
sS'Null'
p572
S''
sS'Seq_in_index'
p573
L1L
sS'Table'
p574
S'keyworddefs'
p575
sS'Cardinality'
p576
L0L
sS'Packed'
p577
NsS'Column_name'
p578
S'id'
p579
sa(dp580
g564
S''
sg565
L0L
sg566
Nsg567
S'BTREE'
p581
sg569
S'keyworddefs_name_idx'
p582
sg571
S'A'
sg572
S''
sg573
L1L
sg574
S'keyworddefs'
p583
sg576
L0L
sg577
Nsg578
S'name'
p584
satp585
sS'namedquery_group_map'
p586
((lp587
(dp588
S'Extra'
p589
S''
sS'Default'
p590
S'0'
sS'Field'
p591
S'namedquery_id'
p592
sS'Key'
p593
S'PRI'
p594
sS'Null'
p595
S''
sS'Type'
p596
S'mediumint(9)'
p597
sa(dp598
g589
S''
sg590
S'0'
sg591
S'group_id'
p599
sg593
S'MUL'
p600
sg595
S''
sg596
S'mediumint(9)'
p601
sa(lp602
(dp603
S'Comment'
p604
S''
sS'Non_unique'
p605
L0L
sS'Sub_part'
p606
NsS'Index_type'
p607
S'BTREE'
p608
sS'Key_name'
p609
S'namedquery_group_map_namedquery_id_idx'
p610
sS'Collation'
p611
S'A'
sS'Null'
p612
S''
sS'Seq_in_index'
p613
L1L
sS'Table'
p614
S'namedquery_group_map'
p615
sS'Cardinality'
p616
L0L
sS'Packed'
p617
NsS'Column_name'
p618
S'namedquery_id'
p619
sa(dp620
g604
S''
sg605
L1L
sg606
Nsg607
S'BTREE'
p621
sg609
S'namedquery_group_map_group_id_idx'
p622
sg611
S'A'
sg612
S''
sg613
L1L
sg614
S'namedquery_group_map'
p623
sg616
Nsg617
Nsg618
S'group_id'
p624
satp625
sS'flagexclusions'
p626
((lp627
(dp628
S'Extra'
p629
S''
sS'Default'
p630
S'0'
sS'Field'
p631
S'type_id'
p632
sS'Key'
p633
S'MUL'
p634
sS'Null'
p635
S''
sS'Type'
p636
S'smallint(6)'
p637
sa(dp638
g629
S''
sg630
Nsg631
S'product_id'
p639
sg633
S''
sg635
S'YES'
p640
sg636
S'smallint(6)'
p641
sa(dp642
g629
S''
sg630
Nsg631
S'component_id'
p643
sg633
S''
sg635
S'YES'
p644
sg636
S'smallint(6)'
p645
sa(lp646
(dp647
S'Comment'
p648
S''
sS'Non_unique'
p649
L1L
sS'Sub_part'
p650
NsS'Index_type'
p651
S'BTREE'
p652
sS'Key_name'
p653
S'flagexclusions_type_id_idx'
p654
sS'Collation'
p655
S'A'
sS'Null'
p656
S''
sS'Seq_in_index'
p657
L1L
sS'Table'
p658
S'flagexclusions'
p659
sS'Cardinality'
p660
NsS'Packed'
p661
NsS'Column_name'
p662
S'type_id'
p663
sa(dp664
g648
S''
sg649
L1L
sg650
Nsg651
S'BTREE'
p665
sg653
S'flagexclusions_type_id_idx'
p666
sg655
S'A'
sg656
S'YES'
p667
sg657
L2L
sg658
S'flagexclusions'
p668
sg660
Nsg661
Nsg662
S'product_id'
p669
sa(dp670
g648
S''
sg649
L1L
sg650
Nsg651
S'BTREE'
p671
sg653
S'flagexclusions_type_id_idx'
p672
sg655
S'A'
sg656
S'YES'
p673
sg657
L3L
sg658
S'flagexclusions'
p674
sg660
Nsg661
Nsg662
S'component_id'
p675
satp676
sS'votes'
p677
((lp678
(dp679
S'Extra'
p680
S''
sS'Default'
p681
S'0'
sS'Field'
p682
S'who'
p683
sS'Key'
p684
S'MUL'
p685
sS'Null'
p686
S''
sS'Type'
p687
S'mediumint(9)'
p688
sa(dp689
g680
S''
sg681
S'0'
sg682
S'bug_id'
p690
sg684
S'MUL'
p691
sg686
S''
sg687
S'mediumint(9)'
p692
sa(dp693
g680
S''
sg681
S'0'
sg682
S'vote_count'
p694
sg684
S''
sg686
S''
sg687
S'smallint(6)'
p695
sa(lp696
(dp697
S'Comment'
p698
S''
sS'Non_unique'
p699
L1L
sS'Sub_part'
p700
NsS'Index_type'
p701
S'BTREE'
p702
sS'Key_name'
p703
S'votes_who_idx'
p704
sS'Collation'
p705
S'A'
sS'Null'
p706
S''
sS'Seq_in_index'
p707
L1L
sS'Table'
p708
S'votes'
p709
sS'Cardinality'
p710
NsS'Packed'
p711
NsS'Column_name'
p712
S'who'
p713
sa(dp714
g698
S''
sg699
L1L
sg700
Nsg701
S'BTREE'
p715
sg703
S'votes_bug_id_idx'
p716
sg705
S'A'
sg706
S''
sg707
L1L
sg708
S'votes'
p717
sg710
Nsg711
Nsg712
S'bug_id'
p718
satp719
sS'attach_data'
p720
((lp721
(dp722
S'Extra'
p723
S''
sS'Default'
p724
S'0'
sS'Field'
p725
S'id'
p726
sS'Key'
p727
S'PRI'
p728
sS'Null'
p729
S''
sS'Type'
p730
S'mediumint(9)'
p731
sa(dp732
g723
S''
sg724
S''
sg725
S'thedata'
p733
sg727
S''
sg729
S''
sg730
S'longblob'
p734
sa(lp735
(dp736
S'Comment'
p737
S''
sS'Non_unique'
p738
L0L
sS'Sub_part'
p739
NsS'Index_type'
p740
S'BTREE'
p741
sS'Key_name'
p742
S'PRIMARY'
p743
sS'Collation'
p744
S'A'
sS'Null'
p745
S''
sS'Seq_in_index'
p746
L1L
sS'Table'
p747
S'attach_data'
p748
sS'Cardinality'
p749
L0L
sS'Packed'
p750
NsS'Column_name'
p751
S'id'
p752
satp753
sS'products'
p754
((lp755
(dp756
S'Extra'
p757
S'auto_increment'
p758
sS'Default'
p759
NsS'Field'
p760
S'id'
p761
sS'Key'
p762
S'PRI'
p763
sS'Null'
p764
S''
sS'Type'
p765
S'smallint(6)'
p766
sa(dp767
g757
S''
sg759
S''
sg760
S'name'
p768
sg762
S'UNI'
p769
sg764
S''
sg765
S'varchar(64)'
p770
sa(dp771
g757
S''
sg759
S'1'
sg760
S'classification_id'
p772
sg762
S''
sg764
S''
sg765
S'smallint(6)'
p773
sa(dp774
g757
S''
sg759
Nsg760
S'description'
p775
sg762
S''
sg764
S'YES'
p776
sg765
S'mediumtext'
p777
sa(dp778
g757
S''
sg759
S''
sg760
S'milestoneurl'
p779
sg762
S''
sg764
S''
sg765
S'tinytext'
p780
sa(dp781
g757
S''
sg759
S'0'
sg760
S'disallownew'
p782
sg762
S''
sg764
S''
sg765
S'tinyint(4)'
p783
sa(dp784
g757
S''
sg759
S'0'
sg760
S'votesperuser'
p785
sg762
S''
sg764
S''
sg765
S'smallint(6)'
p786
sa(dp787
g757
S''
sg759
S'10000'
p788
sg760
S'maxvotesperbug'
p789
sg762
S''
sg764
S''
sg765
S'smallint(6)'
p790
sa(dp791
g757
S''
sg759
S'0'
sg760
S'votestoconfirm'
p792
sg762
S''
sg764
S''
sg765
S'smallint(6)'
p793
sa(dp794
g757
S''
sg759
S'---'
p795
sg760
S'defaultmilestone'
p796
sg762
S''
sg764
S''
sg765
S'varchar(20)'
p797
sa(lp798
(dp799
S'Comment'
p800
S''
sS'Non_unique'
p801
L0L
sS'Sub_part'
p802
NsS'Index_type'
p803
S'BTREE'
p804
sS'Key_name'
p805
S'PRIMARY'
p806
sS'Collation'
p807
S'A'
sS'Null'
p808
S''
sS'Seq_in_index'
p809
L1L
sS'Table'
p810
S'products'
p811
sS'Cardinality'
p812
L0L
sS'Packed'
p813
NsS'Column_name'
p814
S'id'
p815
sa(dp816
g800
S''
sg801
L0L
sg802
Nsg803
S'BTREE'
p817
sg805
S'products_name_idx'
p818
sg807
S'A'
sg808
S''
sg809
L1L
sg810
S'products'
p819
sg812
L0L
sg813
Nsg814
S'name'
p820
satp821
sS'bug_status'
p822
((lp823
(dp824
S'Extra'
p825
S'auto_increment'
p826
sS'Default'
p827
NsS'Field'
p828
S'id'
p829
sS'Key'
p830
S'PRI'
p831
sS'Null'
p832
S''
sS'Type'
p833
S'smallint(6)'
p834
sa(dp835
g825
S''
sg827
S''
sg828
S'value'
p836
sg830
S'UNI'
p837
sg832
S''
sg833
S'varchar(64)'
p838
sa(dp839
g825
S''
sg827
S'0'
sg828
S'sortkey'
p840
sg830
S'MUL'
p841
sg832
S''
sg833
S'smallint(6)'
p842
sa(dp843
g825
S''
sg827
S'1'
sg828
S'isactive'
p844
sg830
S''
sg832
S''
sg833
S'tinyint(4)'
p845
sa(lp846
(dp847
S'Comment'
p848
S''
sS'Non_unique'
p849
L0L
sS'Sub_part'
p850
NsS'Index_type'
p851
S'BTREE'
p852
sS'Key_name'
p853
S'PRIMARY'
p854
sS'Collation'
p855
S'A'
sS'Null'
p856
S''
sS'Seq_in_index'
p857
L1L
sS'Table'
p858
S'bug_status'
p859
sS'Cardinality'
p860
L7L
sS'Packed'
p861
NsS'Column_name'
p862
S'id'
p863
sa(dp864
g848
S''
sg849
L0L
sg850
Nsg851
S'BTREE'
p865
sg853
S'bug_status_value_idx'
p866
sg855
S'A'
sg856
S''
sg857
L1L
sg858
S'bug_status'
p867
sg860
L7L
sg861
Nsg862
S'value'
p868
sa(dp869
g848
S''
sg849
L1L
sg850
Nsg851
S'BTREE'
p870
sg853
S'bug_status_sortkey_idx'
p871
sg855
S'A'
sg856
S''
sg857
L1L
sg858
S'bug_status'
p872
sg860
Nsg861
Nsg862
S'sortkey'
p873
sa(dp874
g848
S''
sg849
L1L
sg850
Nsg851
S'BTREE'
p875
sg853
S'bug_status_sortkey_idx'
p876
sg855
S'A'
sg856
S''
sg857
L2L
sg858
S'bug_status'
p877
sg860
Nsg861
Nsg862
S'value'
p878
satp879
sS'priority'
p880
((lp881
(dp882
S'Extra'
p883
S'auto_increment'
p884
sS'Default'
p885
NsS'Field'
p886
S'id'
p887
sS'Key'
p888
S'PRI'
p889
sS'Null'
p890
S''
sS'Type'
p891
S'smallint(6)'
p892
sa(dp893
g883
S''
sg885
S''
sg886
S'value'
p894
sg888
S'UNI'
p895
sg890
S''
sg891
S'varchar(64)'
p896
sa(dp897
g883
S''
sg885
S'0'
sg886
S'sortkey'
p898
sg888
S'MUL'
p899
sg890
S''
sg891
S'smallint(6)'
p900
sa(dp901
g883
S''
sg885
S'1'
sg886
S'isactive'
p902
sg888
S''
sg890
S''
sg891
S'tinyint(4)'
p903
sa(lp904
(dp905
S'Comment'
p906
S''
sS'Non_unique'
p907
L0L
sS'Sub_part'
p908
NsS'Index_type'
p909
S'BTREE'
p910
sS'Key_name'
p911
S'PRIMARY'
p912
sS'Collation'
p913
S'A'
sS'Null'
p914
S''
sS'Seq_in_index'
p915
L1L
sS'Table'
p916
S'priority'
p917
sS'Cardinality'
p918
L5L
sS'Packed'
p919
NsS'Column_name'
p920
S'id'
p921
sa(dp922
g906
S''
sg907
L0L
sg908
Nsg909
S'BTREE'
p923
sg911
S'priority_value_idx'
p924
sg913
S'A'
sg914
S''
sg915
L1L
sg916
S'priority'
p925
sg918
L5L
sg919
Nsg920
S'value'
p926
sa(dp927
g906
S''
sg907
L1L
sg908
Nsg909
S'BTREE'
p928
sg911
S'priority_sortkey_idx'
p929
sg913
S'A'
sg914
S''
sg915
L1L
sg916
S'priority'
p930
sg918
Nsg919
Nsg920
S'sortkey'
p931
sa(dp932
g906
S''
sg907
L1L
sg908
Nsg909
S'BTREE'
p933
sg911
S'priority_sortkey_idx'
p934
sg913
S'A'
sg914
S''
sg915
L2L
sg916
S'priority'
p935
sg918
Nsg919
Nsg920
S'value'
p936
satp937
sS'cc'
p938
((lp939
(dp940
S'Extra'
p941
S''
sS'Default'
p942
S'0'
sS'Field'
p943
S'bug_id'
p944
sS'Key'
p945
S'PRI'
p946
sS'Null'
p947
S''
sS'Type'
p948
S'mediumint(9)'
p949
sa(dp950
g941
S''
sg942
S'0'
sg943
S'who'
p951
sg945
S'PRI'
p952
sg947
S''
sg948
S'mediumint(9)'
p953
sa(lp954
(dp955
S'Comment'
p956
S''
sS'Non_unique'
p957
L0L
sS'Sub_part'
p958
NsS'Index_type'
p959
S'BTREE'
p960
sS'Key_name'
p961
S'cc_bug_id_idx'
p962
sS'Collation'
p963
S'A'
sS'Null'
p964
S''
sS'Seq_in_index'
p965
L1L
sS'Table'
p966
S'cc'
p967
sS'Cardinality'
p968
NsS'Packed'
p969
NsS'Column_name'
p970
S'bug_id'
p971
sa(dp972
g956
S''
sg957
L0L
sg958
Nsg959
S'BTREE'
p973
sg961
S'cc_bug_id_idx'
p974
sg963
S'A'
sg964
S''
sg965
L2L
sg966
S'cc'
p975
sg968
L0L
sg969
Nsg970
S'who'
p976
sa(dp977
g956
S''
sg957
L1L
sg958
Nsg959
S'BTREE'
p978
sg961
S'cc_who_idx'
p979
sg963
S'A'
sg964
S''
sg965
L1L
sg966
S'cc'
p980
sg968
Nsg969
Nsg970
S'who'
p981
satp982
sS'setting'
p983
((lp984
(dp985
S'Extra'
p986
S''
sS'Default'
p987
S''
sS'Field'
p988
S'name'
p989
sS'Key'
p990
S'PRI'
p991
sS'Null'
p992
S''
sS'Type'
p993
S'varchar(32)'
p994
sa(dp995
g986
S''
sg987
S''
sg988
S'default_value'
p996
sg990
S''
sg992
S''
sg993
S'varchar(32)'
p997
sa(dp998
g986
S''
sg987
S'1'
sg988
S'is_enabled'
p999
sg990
S''
sg992
S''
sg993
S'tinyint(4)'
p1000
sa(dp1001
g986
S''
sg987
Nsg988
S'subclass'
p1002
sg990
S''
sg992
S'YES'
p1003
sg993
S'varchar(32)'
p1004
sa(lp1005
(dp1006
S'Comment'
p1007
S''
sS'Non_unique'
p1008
L0L
sS'Sub_part'
p1009
NsS'Index_type'
p1010
S'BTREE'
p1011
sS'Key_name'
p1012
S'PRIMARY'
p1013
sS'Collation'
p1014
S'A'
sS'Null'
p1015
S''
sS'Seq_in_index'
p1016
L1L
sS'Table'
p1017
S'setting'
p1018
sS'Cardinality'
p1019
L0L
sS'Packed'
p1020
NsS'Column_name'
p1021
S'name'
p1022
satp1023
sS'email_setting'
p1024
((lp1025
(dp1026
S'Extra'
p1027
S''
sS'Default'
p1028
S'0'
sS'Field'
p1029
S'user_id'
p1030
sS'Key'
p1031
S'PRI'
p1032
sS'Null'
p1033
S''
sS'Type'
p1034
S'mediumint(9)'
p1035
sa(dp1036
g1027
S''
sg1028
S'0'
sg1029
S'relationship'
p1037
sg1031
S'PRI'
p1038
sg1033
S''
sg1034
S'tinyint(4)'
p1039
sa(dp1040
g1027
S''
sg1028
S'0'
sg1029
S'event'
p1041
sg1031
S'PRI'
p1042
sg1033
S''
sg1034
S'tinyint(4)'
p1043
sa(lp1044
(dp1045
S'Comment'
p1046
S''
sS'Non_unique'
p1047
L0L
sS'Sub_part'
p1048
NsS'Index_type'
p1049
S'BTREE'
p1050
sS'Key_name'
p1051
S'email_setting_user_id_idx'
p1052
sS'Collation'
p1053
S'A'
sS'Null'
p1054
S''
sS'Seq_in_index'
p1055
L1L
sS'Table'
p1056
S'email_setting'
p1057
sS'Cardinality'
p1058
NsS'Packed'
p1059
NsS'Column_name'
p1060
S'user_id'
p1061
sa(dp1062
g1046
S''
sg1047
L0L
sg1048
Nsg1049
S'BTREE'
p1063
sg1051
S'email_setting_user_id_idx'
p1064
sg1053
S'A'
sg1054
S''
sg1055
L2L
sg1056
S'email_setting'
p1065
sg1058
Nsg1059
Nsg1060
S'relationship'
p1066
sa(dp1067
g1046
S''
sg1047
L0L
sg1048
Nsg1049
S'BTREE'
p1068
sg1051
S'email_setting_user_id_idx'
p1069
sg1053
S'A'
sg1054
S''
sg1055
L3L
sg1056
S'email_setting'
p1070
sg1058
L0L
sg1059
Nsg1060
S'event'
p1071
satp1072
sS'series'
p1073
((lp1074
(dp1075
S'Extra'
p1076
S'auto_increment'
p1077
sS'Default'
p1078
NsS'Field'
p1079
S'series_id'
p1080
sS'Key'
p1081
S'PRI'
p1082
sS'Null'
p1083
S''
sS'Type'
p1084
S'mediumint(9)'
p1085
sa(dp1086
g1076
S''
sg1078
Nsg1079
S'creator'
p1087
sg1081
S'MUL'
p1088
sg1083
S'YES'
p1089
sg1084
S'mediumint(9)'
p1090
sa(dp1091
g1076
S''
sg1078
S'0'
sg1079
S'category'
p1092
sg1081
S''
sg1083
S''
sg1084
S'smallint(6)'
p1093
sa(dp1094
g1076
S''
sg1078
S'0'
sg1079
S'subcategory'
p1095
sg1081
S''
sg1083
S''
sg1084
S'smallint(6)'
p1096
sa(dp1097
g1076
S''
sg1078
S''
sg1079
S'name'
p1098
sg1081
S''
sg1083
S''
sg1084
S'varchar(64)'
p1099
sa(dp1100
g1076
S''
sg1078
S'0'
sg1079
S'frequency'
p1101
sg1081
S''
sg1083
S''
sg1084
S'smallint(6)'
p1102
sa(dp1103
g1076
S''
sg1078
Nsg1079
S'last_viewed'
p1104
sg1081
S''
sg1083
S'YES'
p1105
sg1084
S'datetime'
p1106
sa(dp1107
g1076
S''
sg1078
S''
sg1079
S'query'
p1108
sg1081
S''
sg1083
S''
sg1084
S'mediumtext'
p1109
sa(dp1110
g1076
S''
sg1078
S'0'
sg1079
S'is_public'
p1111
sg1081
S''
sg1083
S''
sg1084
S'tinyint(4)'
p1112
sa(lp1113
(dp1114
S'Comment'
p1115
S''
sS'Non_unique'
p1116
L0L
sS'Sub_part'
p1117
NsS'Index_type'
p1118
S'BTREE'
p1119
sS'Key_name'
p1120
S'PRIMARY'
p1121
sS'Collation'
p1122
S'A'
sS'Null'
p1123
S''
sS'Seq_in_index'
p1124
L1L
sS'Table'
p1125
S'series'
p1126
sS'Cardinality'
p1127
L0L
sS'Packed'
p1128
NsS'Column_name'
p1129
S'series_id'
p1130
sa(dp1131
g1115
S''
sg1116
L0L
sg1117
Nsg1118
S'BTREE'
p1132
sg1120
S'series_creator_idx'
p1133
sg1122
S'A'
sg1123
S'YES'
p1134
sg1124
L1L
sg1125
S'series'
p1135
sg1127
Nsg1128
Nsg1129
S'creator'
p1136
sa(dp1137
g1115
S''
sg1116
L0L
sg1117
Nsg1118
S'BTREE'
p1138
sg1120
S'series_creator_idx'
p1139
sg1122
S'A'
sg1123
S''
sg1124
L2L
sg1125
S'series'
p1140
sg1127
Nsg1128
Nsg1129
S'category'
p1141
sa(dp1142
g1115
S''
sg1116
L0L
sg1117
Nsg1118
S'BTREE'
p1143
sg1120
S'series_creator_idx'
p1144
sg1122
S'A'
sg1123
S''
sg1124
L3L
sg1125
S'series'
p1145
sg1127
Nsg1128
Nsg1129
S'subcategory'
p1146
sa(dp1147
g1115
S''
sg1116
L0L
sg1117
Nsg1118
S'BTREE'
p1148
sg1120
S'series_creator_idx'
p1149
sg1122
S'A'
sg1123
S''
sg1124
L4L
sg1125
S'series'
p1150
sg1127
Nsg1128
Nsg1129
S'name'
p1151
satp1152
sS'logincookies'
p1153
((lp1154
(dp1155
S'Extra'
p1156
S''
sS'Default'
p1157
S''
sS'Field'
p1158
S'cookie'
p1159
sS'Key'
p1160
S'PRI'
p1161
sS'Null'
p1162
S''
sS'Type'
p1163
S'varchar(16)'
p1164
sa(dp1165
g1156
S''
sg1157
S'0'
sg1158
S'userid'
p1166
sg1160
S''
sg1162
S''
sg1163
S'mediumint(9)'
p1167
sa(dp1168
g1156
S''
sg1157
S''
sg1158
S'ipaddr'
p1169
sg1160
S''
sg1162
S''
sg1163
S'varchar(40)'
p1170
sa(dp1171
g1156
S''
sg1157
S'0000-00-00 00:00:00'
p1172
sg1158
S'lastused'
p1173
sg1160
S'MUL'
p1174
sg1162
S''
sg1163
S'datetime'
p1175
sa(lp1176
(dp1177
S'Comment'
p1178
S''
sS'Non_unique'
p1179
L0L
sS'Sub_part'
p1180
NsS'Index_type'
p1181
S'BTREE'
p1182
sS'Key_name'
p1183
S'PRIMARY'
p1184
sS'Collation'
p1185
S'A'
sS'Null'
p1186
S''
sS'Seq_in_index'
p1187
L1L
sS'Table'
p1188
S'logincookies'
p1189
sS'Cardinality'
p1190
L0L
sS'Packed'
p1191
NsS'Column_name'
p1192
S'cookie'
p1193
sa(dp1194
g1178
S''
sg1179
L1L
sg1180
Nsg1181
S'BTREE'
p1195
sg1183
S'logincookies_lastused_idx'
p1196
sg1185
S'A'
sg1186
S''
sg1187
L1L
sg1188
S'logincookies'
p1197
sg1190
Nsg1191
Nsg1192
S'lastused'
p1198
satp1199
sS'fielddefs'
p1200
((lp1201
(dp1202
S'Extra'
p1203
S'auto_increment'
p1204
sS'Default'
p1205
NsS'Field'
p1206
S'id'
p1207
sS'Key'
p1208
S'PRI'
p1209
sS'Null'
p1210
S''
sS'Type'
p1211
S'mediumint(9)'
p1212
sa(dp1213
g1203
S''
sg1205
S''
sg1206
S'name'
p1214
sg1208
S'UNI'
p1215
sg1210
S''
sg1211
S'varchar(64)'
p1216
sa(dp1217
g1203
S''
sg1205
S'0'
sg1206
S'type'
p1218
sg1208
S''
sg1210
S''
sg1211
S'smallint(6)'
p1219
sa(dp1220
g1203
S''
sg1205
S'0'
sg1206
S'custom'
p1221
sg1208
S''
sg1210
S''
sg1211
S'tinyint(4)'
p1222
sa(dp1223
g1203
S''
sg1205
S''
sg1206
S'description'
p1224
sg1208
S''
sg1210
S''
sg1211
S'mediumtext'
p1225
sa(dp1226
g1203
S''
sg1205
S'0'
sg1206
S'mailhead'
p1227
sg1208
S''
sg1210
S''
sg1211
S'tinyint(4)'
p1228
sa(dp1229
g1203
S''
sg1205
S'0'
sg1206
S'sortkey'
p1230
sg1208
S'MUL'
p1231
sg1210
S''
sg1211
S'smallint(6)'
p1232
sa(dp1233
g1203
S''
sg1205
S'0'
sg1206
S'obsolete'
p1234
sg1208
S''
sg1210
S''
sg1211
S'tinyint(4)'
p1235
sa(dp1236
g1203
S''
sg1205
S'0'
sg1206
S'enter_bug'
p1237
sg1208
S''
sg1210
S''
sg1211
S'tinyint(4)'
p1238
sa(lp1239
(dp1240
S'Comment'
p1241
S''
sS'Non_unique'
p1242
L0L
sS'Sub_part'
p1243
NsS'Index_type'
p1244
S'BTREE'
p1245
sS'Key_name'
p1246
S'PRIMARY'
p1247
sS'Collation'
p1248
S'A'
sS'Null'
p1249
S''
sS'Seq_in_index'
p1250
L1L
sS'Table'
p1251
S'fielddefs'
p1252
sS'Cardinality'
p1253
L0L
sS'Packed'
p1254
NsS'Column_name'
p1255
S'id'
p1256
sa(dp1257
g1241
S''
sg1242
L0L
sg1243
Nsg1244
S'BTREE'
p1258
sg1246
S'fielddefs_name_idx'
p1259
sg1248
S'A'
sg1249
S''
sg1250
L1L
sg1251
S'fielddefs'
p1260
sg1253
L0L
sg1254
Nsg1255
S'name'
p1261
sa(dp1262
g1241
S''
sg1242
L1L
sg1243
Nsg1244
S'BTREE'
p1263
sg1246
S'fielddefs_sortkey_idx'
p1264
sg1248
S'A'
sg1249
S''
sg1250
L1L
sg1251
S'fielddefs'
p1265
sg1253
Nsg1254
Nsg1255
S'sortkey'
p1266
satp1267
sS'whine_events'
p1268
((lp1269
(dp1270
S'Extra'
p1271
S'auto_increment'
p1272
sS'Default'
p1273
NsS'Field'
p1274
S'id'
p1275
sS'Key'
p1276
S'PRI'
p1277
sS'Null'
p1278
S''
sS'Type'
p1279
S'mediumint(9)'
p1280
sa(dp1281
g1271
S''
sg1273
S'0'
sg1274
S'owner_userid'
p1282
sg1276
S''
sg1278
S''
sg1279
S'mediumint(9)'
p1283
sa(dp1284
g1271
S''
sg1273
Nsg1274
S'subject'
p1285
sg1276
S''
sg1278
S'YES'
p1286
sg1279
S'varchar(128)'
p1287
sa(dp1288
g1271
S''
sg1273
Nsg1274
S'body'
p1289
sg1276
S''
sg1278
S'YES'
p1290
sg1279
S'mediumtext'
p1291
sa(lp1292
(dp1293
S'Comment'
p1294
S''
sS'Non_unique'
p1295
L0L
sS'Sub_part'
p1296
NsS'Index_type'
p1297
S'BTREE'
p1298
sS'Key_name'
p1299
S'PRIMARY'
p1300
sS'Collation'
p1301
S'A'
sS'Null'
p1302
S''
sS'Seq_in_index'
p1303
L1L
sS'Table'
p1304
S'whine_events'
p1305
sS'Cardinality'
p1306
L0L
sS'Packed'
p1307
NsS'Column_name'
p1308
S'id'
p1309
satp1310
sS'flaginclusions'
p1311
((lp1312
(dp1313
S'Extra'
p1314
S''
sS'Default'
p1315
S'0'
sS'Field'
p1316
S'type_id'
p1317
sS'Key'
p1318
S'MUL'
p1319
sS'Null'
p1320
S''
sS'Type'
p1321
S'smallint(6)'
p1322
sa(dp1323
g1314
S''
sg1315
Nsg1316
S'product_id'
p1324
sg1318
S''
sg1320
S'YES'
p1325
sg1321
S'smallint(6)'
p1326
sa(dp1327
g1314
S''
sg1315
Nsg1316
S'component_id'
p1328
sg1318
S''
sg1320
S'YES'
p1329
sg1321
S'smallint(6)'
p1330
sa(lp1331
(dp1332
S'Comment'
p1333
S''
sS'Non_unique'
p1334
L1L
sS'Sub_part'
p1335
NsS'Index_type'
p1336
S'BTREE'
p1337
sS'Key_name'
p1338
S'flaginclusions_type_id_idx'
p1339
sS'Collation'
p1340
S'A'
sS'Null'
p1341
S''
sS'Seq_in_index'
p1342
L1L
sS'Table'
p1343
S'flaginclusions'
p1344
sS'Cardinality'
p1345
NsS'Packed'
p1346
NsS'Column_name'
p1347
S'type_id'
p1348
sa(dp1349
g1333
S''
sg1334
L1L
sg1335
Nsg1336
S'BTREE'
p1350
sg1338
S'flaginclusions_type_id_idx'
p1351
sg1340
S'A'
sg1341
S'YES'
p1352
sg1342
L2L
sg1343
S'flaginclusions'
p1353
sg1345
Nsg1346
Nsg1347
S'product_id'
p1354
sa(dp1355
g1333
S''
sg1334
L1L
sg1335
Nsg1336
S'BTREE'
p1356
sg1338
S'flaginclusions_type_id_idx'
p1357
sg1340
S'A'
sg1341
S'YES'
p1358
sg1342
L3L
sg1343
S'flaginclusions'
p1359
sg1345
Nsg1346
Nsg1347
S'component_id'
p1360
satp1361
sS'profiles_activity'
p1362
((lp1363
(dp1364
S'Extra'
p1365
S''
sS'Default'
p1366
S'0'
sS'Field'
p1367
S'userid'
p1368
sS'Key'
p1369
S'MUL'
p1370
sS'Null'
p1371
S''
sS'Type'
p1372
S'mediumint(9)'
p1373
sa(dp1374
g1365
S''
sg1366
S'0'
sg1367
S'who'
p1375
sg1369
S''
sg1371
S''
sg1372
S'mediumint(9)'
p1376
sa(dp1377
g1365
S''
sg1366
S'0000-00-00 00:00:00'
p1378
sg1367
S'profiles_when'
p1379
sg1369
S'MUL'
p1380
sg1371
S''
sg1372
S'datetime'
p1381
sa(dp1382
g1365
S''
sg1366
S'0'
sg1367
S'fieldid'
p1383
sg1369
S'MUL'
p1384
sg1371
S''
sg1372
S'mediumint(9)'
p1385
sa(dp1386
g1365
S''
sg1366
Nsg1367
S'oldvalue'
p1387
sg1369
S''
sg1371
S'YES'
p1388
sg1372
S'tinytext'
p1389
sa(dp1390
g1365
S''
sg1366
Nsg1367
S'newvalue'
p1391
sg1369
S''
sg1371
S'YES'
p1392
sg1372
S'tinytext'
p1393
sa(lp1394
(dp1395
S'Comment'
p1396
S''
sS'Non_unique'
p1397
L1L
sS'Sub_part'
p1398
NsS'Index_type'
p1399
S'BTREE'
p1400
sS'Key_name'
p1401
S'profiles_activity_userid_idx'
p1402
sS'Collation'
p1403
S'A'
sS'Null'
p1404
S''
sS'Seq_in_index'
p1405
L1L
sS'Table'
p1406
S'profiles_activity'
p1407
sS'Cardinality'
p1408
NsS'Packed'
p1409
NsS'Column_name'
p1410
S'userid'
p1411
sa(dp1412
g1396
S''
sg1397
L1L
sg1398
Nsg1399
S'BTREE'
p1413
sg1401
S'profiles_activity_profiles_when_idx'
p1414
sg1403
S'A'
sg1404
S''
sg1405
L1L
sg1406
S'profiles_activity'
p1415
sg1408
Nsg1409
Nsg1410
S'profiles_when'
p1416
sa(dp1417
g1396
S''
sg1397
L1L
sg1398
Nsg1399
S'BTREE'
p1418
sg1401
S'profiles_activity_fieldid_idx'
p1419
sg1403
S'A'
sg1404
S''
sg1405
L1L
sg1406
S'profiles_activity'
p1420
sg1408
Nsg1409
Nsg1410
S'fieldid'
p1421
satp1422
sS'bugs_activity'
p1423
((lp1424
(dp1425
S'Extra'
p1426
S''
sS'Default'
p1427
S'0'
sS'Field'
p1428
S'bug_id'
p1429
sS'Key'
p1430
S'MUL'
p1431
sS'Null'
p1432
S''
sS'Type'
p1433
S'mediumint(9)'
p1434
sa(dp1435
g1426
S''
sg1427
Nsg1428
S'attach_id'
p1436
sg1430
S''
sg1432
S'YES'
p1437
sg1433
S'mediumint(9)'
p1438
sa(dp1439
g1426
S''
sg1427
S'0'
sg1428
S'who'
p1440
sg1430
S'MUL'
p1441
sg1432
S''
sg1433
S'mediumint(9)'
p1442
sa(dp1443
g1426
S''
sg1427
S'0000-00-00 00:00:00'
p1444
sg1428
S'bug_when'
p1445
sg1430
S'MUL'
p1446
sg1432
S''
sg1433
S'datetime'
p1447
sa(dp1448
g1426
S''
sg1427
S'0'
sg1428
S'fieldid'
p1449
sg1430
S'MUL'
p1450
sg1432
S''
sg1433
S'mediumint(9)'
p1451
sa(dp1452
g1426
S''
sg1427
Nsg1428
S'added'
p1453
sg1430
S''
sg1432
S'YES'
p1454
sg1433
S'tinytext'
p1455
sa(dp1456
g1426
S''
sg1427
Nsg1428
S'removed'
p1457
sg1430
S''
sg1432
S'YES'
p1458
sg1433
S'tinytext'
p1459
sa(lp1460
(dp1461
S'Comment'
p1462
S''
sS'Non_unique'
p1463
L1L
sS'Sub_part'
p1464
NsS'Index_type'
p1465
S'BTREE'
p1466
sS'Key_name'
p1467
S'bugs_activity_bug_id_idx'
p1468
sS'Collation'
p1469
S'A'
sS'Null'
p1470
S''
sS'Seq_in_index'
p1471
L1L
sS'Table'
p1472
S'bugs_activity'
p1473
sS'Cardinality'
p1474
NsS'Packed'
p1475
NsS'Column_name'
p1476
S'bug_id'
p1477
sa(dp1478
g1462
S''
sg1463
L1L
sg1464
Nsg1465
S'BTREE'
p1479
sg1467
S'bugs_activity_who_idx'
p1480
sg1469
S'A'
sg1470
S''
sg1471
L1L
sg1472
S'bugs_activity'
p1481
sg1474
Nsg1475
Nsg1476
S'who'
p1482
sa(dp1483
g1462
S''
sg1463
L1L
sg1464
Nsg1465
S'BTREE'
p1484
sg1467
S'bugs_activity_bug_when_idx'
p1485
sg1469
S'A'
sg1470
S''
sg1471
L1L
sg1472
S'bugs_activity'
p1486
sg1474
Nsg1475
Nsg1476
S'bug_when'
p1487
sa(dp1488
g1462
S''
sg1463
L1L
sg1464
Nsg1465
S'BTREE'
p1489
sg1467
S'bugs_activity_fieldid_idx'
p1490
sg1469
S'A'
sg1470
S''
sg1471
L1L
sg1472
S'bugs_activity'
p1491
sg1474
Nsg1475
Nsg1476
S'fieldid'
p1492
satp1493
sS'watch'
p1494
((lp1495
(dp1496
S'Extra'
p1497
S''
sS'Default'
p1498
S'0'
sS'Field'
p1499
S'watcher'
p1500
sS'Key'
p1501
S'PRI'
p1502
sS'Null'
p1503
S''
sS'Type'
p1504
S'mediumint(9)'
p1505
sa(dp1506
g1497
S''
sg1498
S'0'
sg1499
S'watched'
p1507
sg1501
S'PRI'
p1508
sg1503
S''
sg1504
S'mediumint(9)'
p1509
sa(lp1510
(dp1511
S'Comment'
p1512
S''
sS'Non_unique'
p1513
L0L
sS'Sub_part'
p1514
NsS'Index_type'
p1515
S'BTREE'
p1516
sS'Key_name'
p1517
S'watch_watcher_idx'
p1518
sS'Collation'
p1519
S'A'
sS'Null'
p1520
S''
sS'Seq_in_index'
p1521
L1L
sS'Table'
p1522
S'watch'
p1523
sS'Cardinality'
p1524
NsS'Packed'
p1525
NsS'Column_name'
p1526
S'watcher'
p1527
sa(dp1528
g1512
S''
sg1513
L0L
sg1514
Nsg1515
S'BTREE'
p1529
sg1517
S'watch_watcher_idx'
p1530
sg1519
S'A'
sg1520
S''
sg1521
L2L
sg1522
S'watch'
p1531
sg1524
L0L
sg1525
Nsg1526
S'watched'
p1532
sa(dp1533
g1512
S''
sg1513
L1L
sg1514
Nsg1515
S'BTREE'
p1534
sg1517
S'watch_watched_idx'
p1535
sg1519
S'A'
sg1520
S''
sg1521
L1L
sg1522
S'watch'
p1536
sg1524
Nsg1525
Nsg1526
S'watched'
p1537
satp1538
sS'bug_severity'
p1539
((lp1540
(dp1541
S'Extra'
p1542
S'auto_increment'
p1543
sS'Default'
p1544
NsS'Field'
p1545
S'id'
p1546
sS'Key'
p1547
S'PRI'
p1548
sS'Null'
p1549
S''
sS'Type'
p1550
S'smallint(6)'
p1551
sa(dp1552
g1542
S''
sg1544
S''
sg1545
S'value'
p1553
sg1547
S'UNI'
p1554
sg1549
S''
sg1550
S'varchar(64)'
p1555
sa(dp1556
g1542
S''
sg1544
S'0'
sg1545
S'sortkey'
p1557
sg1547
S'MUL'
p1558
sg1549
S''
sg1550
S'smallint(6)'
p1559
sa(dp1560
g1542
S''
sg1544
S'1'
sg1545
S'isactive'
p1561
sg1547
S''
sg1549
S''
sg1550
S'tinyint(4)'
p1562
sa(lp1563
(dp1564
S'Comment'
p1565
S''
sS'Non_unique'
p1566
L0L
sS'Sub_part'
p1567
NsS'Index_type'
p1568
S'BTREE'
p1569
sS'Key_name'
p1570
S'PRIMARY'
p1571
sS'Collation'
p1572
S'A'
sS'Null'
p1573
S''
sS'Seq_in_index'
p1574
L1L
sS'Table'
p1575
S'bug_severity'
p1576
sS'Cardinality'
p1577
L7L
sS'Packed'
p1578
NsS'Column_name'
p1579
S'id'
p1580
sa(dp1581
g1565
S''
sg1566
L0L
sg1567
Nsg1568
S'BTREE'
p1582
sg1570
S'bug_severity_value_idx'
p1583
sg1572
S'A'
sg1573
S''
sg1574
L1L
sg1575
S'bug_severity'
p1584
sg1577
L7L
sg1578
Nsg1579
S'value'
p1585
sa(dp1586
g1565
S''
sg1566
L1L
sg1567
Nsg1568
S'BTREE'
p1587
sg1570
S'bug_severity_sortkey_idx'
p1588
sg1572
S'A'
sg1573
S''
sg1574
L1L
sg1575
S'bug_severity'
p1589
sg1577
Nsg1578
Nsg1579
S'sortkey'
p1590
sa(dp1591
g1565
S''
sg1566
L1L
sg1567
Nsg1568
S'BTREE'
p1592
sg1570
S'bug_severity_sortkey_idx'
p1593
sg1572
S'A'
sg1573
S''
sg1574
L2L
sg1575
S'bug_severity'
p1594
sg1577
Nsg1578
Nsg1579
S'value'
p1595
satp1596
sS'namedqueries'
p1597
((lp1598
(dp1599
S'Extra'
p1600
S'auto_increment'
p1601
sS'Default'
p1602
NsS'Field'
p1603
S'id'
p1604
sS'Key'
p1605
S'PRI'
p1606
sS'Null'
p1607
S''
sS'Type'
p1608
S'mediumint(9)'
p1609
sa(dp1610
g1600
S''
sg1602
S'0'
sg1603
S'userid'
p1611
sg1605
S'MUL'
p1612
sg1607
S''
sg1608
S'mediumint(9)'
p1613
sa(dp1614
g1600
S''
sg1602
S''
sg1603
S'name'
p1615
sg1605
S''
sg1607
S''
sg1608
S'varchar(64)'
p1616
sa(dp1617
g1600
S''
sg1602
S''
sg1603
S'query'
p1618
sg1605
S''
sg1607
S''
sg1608
S'mediumtext'
p1619
sa(dp1620
g1600
S''
sg1602
S'0'
sg1603
S'query_type'
p1621
sg1605
S''
sg1607
S''
sg1608
S'tinyint(4)'
p1622
sa(lp1623
(dp1624
S'Comment'
p1625
S''
sS'Non_unique'
p1626
L0L
sS'Sub_part'
p1627
NsS'Index_type'
p1628
S'BTREE'
p1629
sS'Key_name'
p1630
S'PRIMARY'
p1631
sS'Collation'
p1632
S'A'
sS'Null'
p1633
S''
sS'Seq_in_index'
p1634
L1L
sS'Table'
p1635
S'namedqueries'
p1636
sS'Cardinality'
p1637
L0L
sS'Packed'
p1638
NsS'Column_name'
p1639
S'id'
p1640
sa(dp1641
g1625
S''
sg1626
L0L
sg1627
Nsg1628
S'BTREE'
p1642
sg1630
S'namedqueries_userid_idx'
p1643
sg1632
S'A'
sg1633
S''
sg1634
L1L
sg1635
S'namedqueries'
p1644
sg1637
Nsg1638
Nsg1639
S'userid'
p1645
sa(dp1646
g1625
S''
sg1626
L0L
sg1627
Nsg1628
S'BTREE'
p1647
sg1630
S'namedqueries_userid_idx'
p1648
sg1632
S'A'
sg1633
S''
sg1634
L2L
sg1635
S'namedqueries'
p1649
sg1637
L0L
sg1638
Nsg1639
S'name'
p1650
satp1651
sS'bz_schema'
p1652
((lp1653
(dp1654
S'Extra'
p1655
S''
sS'Default'
p1656
S''
sS'Field'
p1657
S'schema_data'
p1658
sS'Key'
p1659
S''
sS'Null'
p1660
S''
sS'Type'
p1661
S'longblob'
p1662
sa(dp1663
g1655
S''
sg1656
S'0.00'
p1664
sg1657
S'version'
p1665
sg1659
S''
sg1660
S''
sg1661
S'decimal(3,2)'
p1666
sa(ltp1667
sS'tokens'
p1668
((lp1669
(dp1670
S'Extra'
p1671
S''
sS'Default'
p1672
NsS'Field'
p1673
S'userid'
p1674
sS'Key'
p1675
S'MUL'
p1676
sS'Null'
p1677
S'YES'
p1678
sS'Type'
p1679
S'mediumint(9)'
p1680
sa(dp1681
g1671
S''
sg1672
S'0000-00-00 00:00:00'
p1682
sg1673
S'issuedate'
p1683
sg1675
S''
sg1677
S''
sg1679
S'datetime'
p1684
sa(dp1685
g1671
S''
sg1672
S''
sg1673
S'token'
p1686
sg1675
S'PRI'
p1687
sg1677
S''
sg1679
S'varchar(16)'
p1688
sa(dp1689
g1671
S''
sg1672
S''
sg1673
S'tokentype'
p1690
sg1675
S''
sg1677
S''
sg1679
S'varchar(8)'
p1691
sa(dp1692
g1671
S''
sg1672
Nsg1673
S'eventdata'
p1693
sg1675
S''
sg1677
S'YES'
p1694
sg1679
S'tinytext'
p1695
sa(lp1696
(dp1697
S'Comment'
p1698
S''
sS'Non_unique'
p1699
L0L
sS'Sub_part'
p1700
NsS'Index_type'
p1701
S'BTREE'
p1702
sS'Key_name'
p1703
S'PRIMARY'
p1704
sS'Collation'
p1705
S'A'
sS'Null'
p1706
S''
sS'Seq_in_index'
p1707
L1L
sS'Table'
p1708
S'tokens'
p1709
sS'Cardinality'
p1710
L0L
sS'Packed'
p1711
NsS'Column_name'
p1712
S'token'
p1713
sa(dp1714
g1698
S''
sg1699
L1L
sg1700
Nsg1701
S'BTREE'
p1715
sg1703
S'tokens_userid_idx'
p1716
sg1705
S'A'
sg1706
S'YES'
p1717
sg1707
L1L
sg1708
S'tokens'
p1718
sg1710
Nsg1711
Nsg1712
S'userid'
p1719
satp1720
sS'whine_schedules'
p1721
((lp1722
(dp1723
S'Extra'
p1724
S'auto_increment'
p1725
sS'Default'
p1726
NsS'Field'
p1727
S'id'
p1728
sS'Key'
p1729
S'PRI'
p1730
sS'Null'
p1731
S''
sS'Type'
p1732
S'mediumint(9)'
p1733
sa(dp1734
g1724
S''
sg1726
S'0'
sg1727
S'eventid'
p1735
sg1729
S'MUL'
p1736
sg1731
S''
sg1732
S'mediumint(9)'
p1737
sa(dp1738
g1724
S''
sg1726
Nsg1727
S'run_day'
p1739
sg1729
S''
sg1731
S'YES'
p1740
sg1732
S'varchar(32)'
p1741
sa(dp1742
g1724
S''
sg1726
Nsg1727
S'run_time'
p1743
sg1729
S''
sg1731
S'YES'
p1744
sg1732
S'varchar(32)'
p1745
sa(dp1746
g1724
S''
sg1726
Nsg1727
S'run_next'
p1747
sg1729
S'MUL'
p1748
sg1731
S'YES'
p1749
sg1732
S'datetime'
p1750
sa(dp1751
g1724
S''
sg1726
S'0'
sg1727
S'mailto'
p1752
sg1729
S''
sg1731
S''
sg1732
S'mediumint(9)'
p1753
sa(dp1754
g1724
S''
sg1726
S'0'
sg1727
S'mailto_type'
p1755
sg1729
S''
sg1731
S''
sg1732
S'smallint(6)'
p1756
sa(lp1757
(dp1758
S'Comment'
p1759
S''
sS'Non_unique'
p1760
L0L
sS'Sub_part'
p1761
NsS'Index_type'
p1762
S'BTREE'
p1763
sS'Key_name'
p1764
S'PRIMARY'
p1765
sS'Collation'
p1766
S'A'
sS'Null'
p1767
S''
sS'Seq_in_index'
p1768
L1L
sS'Table'
p1769
S'whine_schedules'
p1770
sS'Cardinality'
p1771
L0L
sS'Packed'
p1772
NsS'Column_name'
p1773
S'id'
p1774
sa(dp1775
g1759
S''
sg1760
L1L
sg1761
Nsg1762
S'BTREE'
p1776
sg1764
S'whine_schedules_run_next_idx'
p1777
sg1766
S'A'
sg1767
S'YES'
p1778
sg1768
L1L
sg1769
S'whine_schedules'
p1779
sg1771
Nsg1772
Nsg1773
S'run_next'
p1780
sa(dp1781
g1759
S''
sg1760
L1L
sg1761
Nsg1762
S'BTREE'
p1782
sg1764
S'whine_schedules_eventid_idx'
p1783
sg1766
S'A'
sg1767
S''
sg1768
L1L
sg1769
S'whine_schedules'
p1784
sg1771
Nsg1772
Nsg1773
S'eventid'
p1785
satp1786
sS'dependencies'
p1787
((lp1788
(dp1789
S'Extra'
p1790
S''
sS'Default'
p1791
S'0'
sS'Field'
p1792
S'blocked'
p1793
sS'Key'
p1794
S'MUL'
p1795
sS'Null'
p1796
S''
sS'Type'
p1797
S'mediumint(9)'
p1798
sa(dp1799
g1790
S''
sg1791
S'0'
sg1792
S'dependson'
p1800
sg1794
S'MUL'
p1801
sg1796
S''
sg1797
S'mediumint(9)'
p1802
sa(lp1803
(dp1804
S'Comment'
p1805
S''
sS'Non_unique'
p1806
L1L
sS'Sub_part'
p1807
NsS'Index_type'
p1808
S'BTREE'
p1809
sS'Key_name'
p1810
S'dependencies_blocked_idx'
p1811
sS'Collation'
p1812
S'A'
sS'Null'
p1813
S''
sS'Seq_in_index'
p1814
L1L
sS'Table'
p1815
S'dependencies'
p1816
sS'Cardinality'
p1817
NsS'Packed'
p1818
NsS'Column_name'
p1819
S'blocked'
p1820
sa(dp1821
g1805
S''
sg1806
L1L
sg1807
Nsg1808
S'BTREE'
p1822
sg1810
S'dependencies_dependson_idx'
p1823
sg1812
S'A'
sg1813
S''
sg1814
L1L
sg1815
S'dependencies'
p1824
sg1817
Nsg1818
Nsg1819
S'dependson'
p1825
satp1826
sS'category_group_map'
p1827
((lp1828
(dp1829
S'Extra'
p1830
S''
sS'Default'
p1831
S'0'
sS'Field'
p1832
S'category_id'
p1833
sS'Key'
p1834
S'PRI'
p1835
sS'Null'
p1836
S''
sS'Type'
p1837
S'smallint(6)'
p1838
sa(dp1839
g1830
S''
sg1831
S'0'
sg1832
S'group_id'
p1840
sg1834
S'PRI'
p1841
sg1836
S''
sg1837
S'mediumint(9)'
p1842
sa(lp1843
(dp1844
S'Comment'
p1845
S''
sS'Non_unique'
p1846
L0L
sS'Sub_part'
p1847
NsS'Index_type'
p1848
S'BTREE'
p1849
sS'Key_name'
p1850
S'category_group_map_category_id_idx'
p1851
sS'Collation'
p1852
S'A'
sS'Null'
p1853
S''
sS'Seq_in_index'
p1854
L1L
sS'Table'
p1855
S'category_group_map'
p1856
sS'Cardinality'
p1857
NsS'Packed'
p1858
NsS'Column_name'
p1859
S'category_id'
p1860
sa(dp1861
g1845
S''
sg1846
L0L
sg1847
Nsg1848
S'BTREE'
p1862
sg1850
S'category_group_map_category_id_idx'
p1863
sg1852
S'A'
sg1853
S''
sg1854
L2L
sg1855
S'category_group_map'
p1864
sg1857
L0L
sg1858
Nsg1859
S'group_id'
p1865
satp1866
sS'groups'
p1867
((lp1868
(dp1869
S'Extra'
p1870
S'auto_increment'
p1871
sS'Default'
p1872
NsS'Field'
p1873
S'id'
p1874
sS'Key'
p1875
S'PRI'
p1876
sS'Null'
p1877
S''
sS'Type'
p1878
S'mediumint(9)'
p1879
sa(dp1880
g1870
S''
sg1872
S''
sg1873
S'name'
p1881
sg1875
S'UNI'
p1882
sg1877
S''
sg1878
S'varchar(255)'
p1883
sa(dp1884
g1870
S''
sg1872
S''
sg1873
S'description'
p1885
sg1875
S''
sg1877
S''
sg1878
S'text'
p1886
sa(dp1887
g1870
S''
sg1872
S'0'
sg1873
S'isbuggroup'
p1888
sg1875
S''
sg1877
S''
sg1878
S'tinyint(4)'
p1889
sa(dp1890
g1870
S''
sg1872
S''
sg1873
S'userregexp'
p1891
sg1875
S''
sg1877
S''
sg1878
S'tinytext'
p1892
sa(dp1893
g1870
S''
sg1872
S'1'
sg1873
S'isactive'
p1894
sg1875
S''
sg1877
S''
sg1878
S'tinyint(4)'
p1895
sa(lp1896
(dp1897
S'Comment'
p1898
S''
sS'Non_unique'
p1899
L0L
sS'Sub_part'
p1900
NsS'Index_type'
p1901
S'BTREE'
p1902
sS'Key_name'
p1903
S'PRIMARY'
p1904
sS'Collation'
p1905
S'A'
sS'Null'
p1906
S''
sS'Seq_in_index'
p1907
L1L
sS'Table'
p1908
S'groups'
p1909
sS'Cardinality'
p1910
L0L
sS'Packed'
p1911
NsS'Column_name'
p1912
S'id'
p1913
sa(dp1914
g1898
S''
sg1899
L0L
sg1900
Nsg1901
S'BTREE'
p1915
sg1903
S'groups_name_idx'
p1916
sg1905
S'A'
sg1906
S''
sg1907
L1L
sg1908
S'groups'
p1917
sg1910
L0L
sg1911
Nsg1912
S'name'
p1918
satp1919
sS'milestones'
p1920
((lp1921
(dp1922
S'Extra'
p1923
S''
sS'Default'
p1924
S'0'
sS'Field'
p1925
S'product_id'
p1926
sS'Key'
p1927
S'PRI'
p1928
sS'Null'
p1929
S''
sS'Type'
p1930
S'smallint(6)'
p1931
sa(dp1932
g1923
S''
sg1924
S''
sg1925
S'value'
p1933
sg1927
S'PRI'
p1934
sg1929
S''
sg1930
S'varchar(20)'
p1935
sa(dp1936
g1923
S''
sg1924
S'0'
sg1925
S'sortkey'
p1937
sg1927
S''
sg1929
S''
sg1930
S'smallint(6)'
p1938
sa(lp1939
(dp1940
S'Comment'
p1941
S''
sS'Non_unique'
p1942
L0L
sS'Sub_part'
p1943
NsS'Index_type'
p1944
S'BTREE'
p1945
sS'Key_name'
p1946
S'milestones_product_id_idx'
p1947
sS'Collation'
p1948
S'A'
sS'Null'
p1949
S''
sS'Seq_in_index'
p1950
L1L
sS'Table'
p1951
S'milestones'
p1952
sS'Cardinality'
p1953
NsS'Packed'
p1954
NsS'Column_name'
p1955
S'product_id'
p1956
sa(dp1957
g1941
S''
sg1942
L0L
sg1943
Nsg1944
S'BTREE'
p1958
sg1946
S'milestones_product_id_idx'
p1959
sg1948
S'A'
sg1949
S''
sg1950
L2L
sg1951
S'milestones'
p1960
sg1953
L0L
sg1954
Nsg1955
S'value'
p1961
satp1962
sS'classifications'
p1963
((lp1964
(dp1965
S'Extra'
p1966
S'auto_increment'
p1967
sS'Default'
p1968
NsS'Field'
p1969
S'id'
p1970
sS'Key'
p1971
S'PRI'
p1972
sS'Null'
p1973
S''
sS'Type'
p1974
S'smallint(6)'
p1975
sa(dp1976
g1966
S''
sg1968
S''
sg1969
S'name'
p1977
sg1971
S'UNI'
p1978
sg1973
S''
sg1974
S'varchar(64)'
p1979
sa(dp1980
g1966
S''
sg1968
Nsg1969
S'description'
p1981
sg1971
S''
sg1973
S'YES'
p1982
sg1974
S'mediumtext'
p1983
sa(dp1984
g1966
S''
sg1968
S'0'
sg1969
S'sortkey'
p1985
sg1971
S''
sg1973
S''
sg1974
S'smallint(6)'
p1986
sa(lp1987
(dp1988
S'Comment'
p1989
S''
sS'Non_unique'
p1990
L0L
sS'Sub_part'
p1991
NsS'Index_type'
p1992
S'BTREE'
p1993
sS'Key_name'
p1994
S'PRIMARY'
p1995
sS'Collation'
p1996
S'A'
sS'Null'
p1997
S''
sS'Seq_in_index'
p1998
L1L
sS'Table'
p1999
S'classifications'
p2000
sS'Cardinality'
p2001
L0L
sS'Packed'
p2002
NsS'Column_name'
p2003
S'id'
p2004
sa(dp2005
g1989
S''
sg1990
L0L
sg1991
Nsg1992
S'BTREE'
p2006
sg1994
S'classifications_name_idx'
p2007
sg1996
S'A'
sg1997
S''
sg1998
L1L
sg1999
S'classifications'
p2008
sg2001
L0L
sg2002
Nsg2003
S'name'
p2009
satp2010
sS'longdescs'
p2011
((lp2012
(dp2013
S'Extra'
p2014
S'auto_increment'
p2015
sS'Default'
p2016
NsS'Field'
p2017
S'comment_id'
p2018
sS'Key'
p2019
S'PRI'
p2020
sS'Null'
p2021
S''
sS'Type'
p2022
S'mediumint(9)'
p2023
sa(dp2024
g2014
S''
sg2016
S'0'
sg2017
S'bug_id'
p2025
sg2019
S'MUL'
p2026
sg2021
S''
sg2022
S'mediumint(9)'
p2027
sa(dp2028
g2014
S''
sg2016
S'0'
sg2017
S'who'
p2029
sg2019
S'MUL'
p2030
sg2021
S''
sg2022
S'mediumint(9)'
p2031
sa(dp2032
g2014
S''
sg2016
S'0000-00-00 00:00:00'
p2033
sg2017
S'bug_when'
p2034
sg2019
S'MUL'
p2035
sg2021
S''
sg2022
S'datetime'
p2036
sa(dp2037
g2014
S''
sg2016
S'0.00'
p2038
sg2017
S'work_time'
p2039
sg2019
S''
sg2021
S''
sg2022
S'decimal(5,2)'
p2040
sa(dp2041
g2014
S''
sg2016
S''
sg2017
S'thetext'
p2042
sg2019
S'MUL'
p2043
sg2021
S''
sg2022
S'mediumtext'
p2044
sa(dp2045
g2014
S''
sg2016
S'0'
sg2017
S'isprivate'
p2046
sg2019
S''
sg2021
S''
sg2022
S'tinyint(4)'
p2047
sa(dp2048
g2014
S''
sg2016
S'0'
sg2017
S'already_wrapped'
p2049
sg2019
S''
sg2021
S''
sg2022
S'tinyint(4)'
p2050
sa(lp2051
(dp2052
S'Comment'
p2053
S''
sS'Non_unique'
p2054
L0L
sS'Sub_part'
p2055
NsS'Index_type'
p2056
S'BTREE'
p2057
sS'Key_name'
p2058
S'PRIMARY'
p2059
sS'Collation'
p2060
S'A'
sS'Null'
p2061
S''
sS'Seq_in_index'
p2062
L1L
sS'Table'
p2063
S'longdescs'
p2064
sS'Cardinality'
p2065
L0L
sS'Packed'
p2066
NsS'Column_name'
p2067
S'comment_id'
p2068
sa(dp2069
g2053
S''
sg2054
L1L
sg2055
Nsg2056
S'BTREE'
p2070
sg2058
S'longdescs_bug_id_idx'
p2071
sg2060
S'A'
sg2061
S''
sg2062
L1L
sg2063
S'longdescs'
p2072
sg2065
Nsg2066
Nsg2067
S'bug_id'
p2073
sa(dp2074
g2053
S''
sg2054
L1L
sg2055
Nsg2056
S'BTREE'
p2075
sg2058
S'longdescs_who_idx'
p2076
sg2060
S'A'
sg2061
S''
sg2062
L1L
sg2063
S'longdescs'
p2077
sg2065
Nsg2066
Nsg2067
S'who'
p2078
sa(dp2079
g2053
S''
sg2054
L1L
sg2055
Nsg2056
S'BTREE'
p2080
sg2058
S'longdescs_who_idx'
p2081
sg2060
S'A'
sg2061
S''
sg2062
L2L
sg2063
S'longdescs'
p2082
sg2065
Nsg2066
Nsg2067
S'bug_id'
p2083
sa(dp2084
g2053
S''
sg2054
L1L
sg2055
Nsg2056
S'BTREE'
p2085
sg2058
S'longdescs_bug_when_idx'
p2086
sg2060
S'A'
sg2061
S''
sg2062
L1L
sg2063
S'longdescs'
p2087
sg2065
Nsg2066
Nsg2067
S'bug_when'
p2088
sa(dp2089
g2053
S''
sg2054
L1L
sg2055
Nsg2056
S'FULLTEXT'
p2090
sg2058
S'longdescs_thetext_idx'
p2091
sg2060
S'A'
sg2061
S''
sg2062
L1L
sg2063
S'longdescs'
p2092
sg2065
Nsg2066
Nsg2067
S'thetext'
p2093
satp2094
sS'versions'
p2095
((lp2096
(dp2097
S'Extra'
p2098
S''
sS'Default'
p2099
S''
sS'Field'
p2100
S'value'
p2101
sS'Key'
p2102
S'PRI'
p2103
sS'Null'
p2104
S''
sS'Type'
p2105
S'varchar(64)'
p2106
sa(dp2107
g2098
S''
sg2099
S'0'
sg2100
S'product_id'
p2108
sg2102
S'PRI'
p2109
sg2104
S''
sg2105
S'smallint(6)'
p2110
sa(lp2111
(dp2112
S'Comment'
p2113
S''
sS'Non_unique'
p2114
L0L
sS'Sub_part'
p2115
NsS'Index_type'
p2116
S'BTREE'
p2117
sS'Key_name'
p2118
S'versions_product_id_idx'
p2119
sS'Collation'
p2120
S'A'
sS'Null'
p2121
S''
sS'Seq_in_index'
p2122
L1L
sS'Table'
p2123
S'versions'
p2124
sS'Cardinality'
p2125
NsS'Packed'
p2126
NsS'Column_name'
p2127
S'product_id'
p2128
sa(dp2129
g2113
S''
sg2114
L0L
sg2115
Nsg2116
S'BTREE'
p2130
sg2118
S'versions_product_id_idx'
p2131
sg2120
S'A'
sg2121
S''
sg2122
L2L
sg2123
S'versions'
p2132
sg2125
L0L
sg2126
Nsg2127
S'value'
p2133
satp2134
sS'flagtypes'
p2135
((lp2136
(dp2137
S'Extra'
p2138
S'auto_increment'
p2139
sS'Default'
p2140
NsS'Field'
p2141
S'id'
p2142
sS'Key'
p2143
S'PRI'
p2144
sS'Null'
p2145
S''
sS'Type'
p2146
S'smallint(6)'
p2147
sa(dp2148
g2138
S''
sg2140
S''
sg2141
S'name'
p2149
sg2143
S''
sg2145
S''
sg2146
S'varchar(50)'
p2150
sa(dp2151
g2138
S''
sg2140
Nsg2141
S'description'
p2152
sg2143
S''
sg2145
S'YES'
p2153
sg2146
S'text'
p2154
sa(dp2155
g2138
S''
sg2140
Nsg2141
S'cc_list'
p2156
sg2143
S''
sg2145
S'YES'
p2157
sg2146
S'varchar(200)'
p2158
sa(dp2159
g2138
S''
sg2140
S'b'
sg2141
S'target_type'
p2160
sg2143
S''
sg2145
S''
sg2146
S'char(1)'
p2161
sa(dp2162
g2138
S''
sg2140
S'1'
sg2141
S'is_active'
p2163
sg2143
S''
sg2145
S''
sg2146
S'tinyint(4)'
p2164
sa(dp2165
g2138
S''
sg2140
S'0'
sg2141
S'is_requestable'
p2166
sg2143
S''
sg2145
S''
sg2146
S'tinyint(4)'
p2167
sa(dp2168
g2138
S''
sg2140
S'0'
sg2141
S'is_requesteeble'
p2169
sg2143
S''
sg2145
S''
sg2146
S'tinyint(4)'
p2170
sa(dp2171
g2138
S''
sg2140
S'0'
sg2141
S'is_multiplicable'
p2172
sg2143
S''
sg2145
S''
sg2146
S'tinyint(4)'
p2173
sa(dp2174
g2138
S''
sg2140
S'0'
sg2141
S'sortkey'
p2175
sg2143
S''
sg2145
S''
sg2146
S'smallint(6)'
p2176
sa(dp2177
g2138
S''
sg2140
Nsg2141
S'grant_group_id'
p2178
sg2143
S''
sg2145
S'YES'
p2179
sg2146
S'mediumint(9)'
p2180
sa(dp2181
g2138
S''
sg2140
Nsg2141
S'request_group_id'
p2182
sg2143
S''
sg2145
S'YES'
p2183
sg2146
S'mediumint(9)'
p2184
sa(lp2185
(dp2186
S'Comment'
p2187
S''
sS'Non_unique'
p2188
L0L
sS'Sub_part'
p2189
NsS'Index_type'
p2190
S'BTREE'
p2191
sS'Key_name'
p2192
S'PRIMARY'
p2193
sS'Collation'
p2194
S'A'
sS'Null'
p2195
S''
sS'Seq_in_index'
p2196
L1L
sS'Table'
p2197
S'flagtypes'
p2198
sS'Cardinality'
p2199
L0L
sS'Packed'
p2200
NsS'Column_name'
p2201
S'id'
p2202
satp2203
sS'user_group_map'
p2204
((lp2205
(dp2206
S'Extra'
p2207
S''
sS'Default'
p2208
S'0'
sS'Field'
p2209
S'user_id'
p2210
sS'Key'
p2211
S'PRI'
p2212
sS'Null'
p2213
S''
sS'Type'
p2214
S'mediumint(9)'
p2215
sa(dp2216
g2207
S''
sg2208
S'0'
sg2209
S'group_id'
p2217
sg2211
S'PRI'
p2218
sg2213
S''
sg2214
S'mediumint(9)'
p2219
sa(dp2220
g2207
S''
sg2208
S'0'
sg2209
S'isbless'
p2221
sg2211
S'PRI'
p2222
sg2213
S''
sg2214
S'tinyint(4)'
p2223
sa(dp2224
g2207
S''
sg2208
S'0'
sg2209
S'grant_type'
p2225
sg2211
S'PRI'
p2226
sg2213
S''
sg2214
S'tinyint(4)'
p2227
sa(lp2228
(dp2229
S'Comment'
p2230
S''
sS'Non_unique'
p2231
L0L
sS'Sub_part'
p2232
NsS'Index_type'
p2233
S'BTREE'
p2234
sS'Key_name'
p2235
S'user_group_map_user_id_idx'
p2236
sS'Collation'
p2237
S'A'
sS'Null'
p2238
S''
sS'Seq_in_index'
p2239
L1L
sS'Table'
p2240
S'user_group_map'
p2241
sS'Cardinality'
p2242
NsS'Packed'
p2243
NsS'Column_name'
p2244
S'user_id'
p2245
sa(dp2246
g2230
S''
sg2231
L0L
sg2232
Nsg2233
S'BTREE'
p2247
sg2235
S'user_group_map_user_id_idx'
p2248
sg2237
S'A'
sg2238
S''
sg2239
L2L
sg2240
S'user_group_map'
p2249
sg2242
Nsg2243
Nsg2244
S'group_id'
p2250
sa(dp2251
g2230
S''
sg2231
L0L
sg2232
Nsg2233
S'BTREE'
p2252
sg2235
S'user_group_map_user_id_idx'
p2253
sg2237
S'A'
sg2238
S''
sg2239
L3L
sg2240
S'user_group_map'
p2254
sg2242
Nsg2243
Nsg2244
S'grant_type'
p2255
sa(dp2256
g2230
S''
sg2231
L0L
sg2232
Nsg2233
S'BTREE'
p2257
sg2235
S'user_group_map_user_id_idx'
p2258
sg2237
S'A'
sg2238
S''
sg2239
L4L
sg2240
S'user_group_map'
p2259
sg2242
L0L
sg2243
Nsg2244
S'isbless'
p2260
satp2261
sS'bugs'
p2262
((lp2263
(dp2264
S'Extra'
p2265
S'auto_increment'
p2266
sS'Default'
p2267
NsS'Field'
p2268
S'bug_id'
p2269
sS'Key'
p2270
S'PRI'
p2271
sS'Null'
p2272
S''
sS'Type'
p2273
S'mediumint(9)'
p2274
sa(dp2275
g2265
S''
sg2267
S'0'
sg2268
S'assigned_to'
p2276
sg2270
S'MUL'
p2277
sg2272
S''
sg2273
S'mediumint(9)'
p2278
sa(dp2279
g2265
S''
sg2267
Nsg2268
S'bug_file_loc'
p2280
sg2270
S''
sg2272
S'YES'
p2281
sg2273
S'text'
p2282
sa(dp2283
g2265
S''
sg2267
S''
sg2268
S'bug_severity'
p2284
sg2270
S'MUL'
p2285
sg2272
S''
sg2273
S'varchar(64)'
p2286
sa(dp2287
g2265
S''
sg2267
S''
sg2268
S'bug_status'
p2288
sg2270
S'MUL'
p2289
sg2272
S''
sg2273
S'varchar(64)'
p2290
sa(dp2291
g2265
S''
sg2267
Nsg2268
S'creation_ts'
p2292
sg2270
S'MUL'
p2293
sg2272
S'YES'
p2294
sg2273
S'datetime'
p2295
sa(dp2296
g2265
S''
sg2267
S'0000-00-00 00:00:00'
p2297
sg2268
S'delta_ts'
p2298
sg2270
S'MUL'
p2299
sg2272
S''
sg2273
S'datetime'
p2300
sa(dp2301
g2265
S''
sg2267
S''
sg2268
S'short_desc'
p2302
sg2270
S''
sg2272
S''
sg2273
S'varchar(255)'
p2303
sa(dp2304
g2265
S''
sg2267
S''
sg2268
S'op_sys'
p2305
sg2270
S'MUL'
p2306
sg2272
S''
sg2273
S'varchar(64)'
p2307
sa(dp2308
g2265
S''
sg2267
S''
sg2268
S'priority'
p2309
sg2270
S'MUL'
p2310
sg2272
S''
sg2273
S'varchar(64)'
p2311
sa(dp2312
g2265
S''
sg2267
S'0'
sg2268
S'product_id'
p2313
sg2270
S'MUL'
p2314
sg2272
S''
sg2273
S'smallint(6)'
p2315
sa(dp2316
g2265
S''
sg2267
S''
sg2268
S'rep_platform'
p2317
sg2270
S''
sg2272
S''
sg2273
S'varchar(64)'
p2318
sa(dp2319
g2265
S''
sg2267
S'0'
sg2268
S'reporter'
p2320
sg2270
S'MUL'
p2321
sg2272
S''
sg2273
S'mediumint(9)'
p2322
sa(dp2323
g2265
S''
sg2267
S''
sg2268
S'version'
p2324
sg2270
S'MUL'
p2325
sg2272
S''
sg2273
S'varchar(64)'
p2326
sa(dp2327
g2265
S''
sg2267
S'0'
sg2268
S'component_id'
p2328
sg2270
S'MUL'
p2329
sg2272
S''
sg2273
S'smallint(6)'
p2330
sa(dp2331
g2265
S''
sg2267
S''
sg2268
S'resolution'
p2332
sg2270
S'MUL'
p2333
sg2272
S''
sg2273
S'varchar(64)'
p2334
sa(dp2335
g2265
S''
sg2267
S'---'
p2336
sg2268
S'target_milestone'
p2337
sg2270
S'MUL'
p2338
sg2272
S''
sg2273
S'varchar(20)'
p2339
sa(dp2340
g2265
S''
sg2267
Nsg2268
S'qa_contact'
p2341
sg2270
S'MUL'
p2342
sg2272
S'YES'
p2343
sg2273
S'mediumint(9)'
p2344
sa(dp2345
g2265
S''
sg2267
S''
sg2268
S'status_whiteboard'
p2346
sg2270
S''
sg2272
S''
sg2273
S'mediumtext'
p2347
sa(dp2348
g2265
S''
sg2267
S'0'
sg2268
S'votes'
p2349
sg2270
S'MUL'
p2350
sg2272
S''
sg2273
S'mediumint(9)'
p2351
sa(dp2352
g2265
S''
sg2267
S''
sg2268
S'keywords'
p2353
sg2270
S''
sg2272
S''
sg2273
S'mediumtext'
p2354
sa(dp2355
g2265
S''
sg2267
Nsg2268
S'lastdiffed'
p2356
sg2270
S''
sg2272
S'YES'
p2357
sg2273
S'datetime'
p2358
sa(dp2359
g2265
S''
sg2267
S'0'
sg2268
S'everconfirmed'
p2360
sg2270
S''
sg2272
S''
sg2273
S'tinyint(4)'
p2361
sa(dp2362
g2265
S''
sg2267
S'1'
sg2268
S'reporter_accessible'
p2363
sg2270
S''
sg2272
S''
sg2273
S'tinyint(4)'
p2364
sa(dp2365
g2265
S''
sg2267
S'1'
sg2268
S'cclist_accessible'
p2366
sg2270
S''
sg2272
S''
sg2273
S'tinyint(4)'
p2367
sa(dp2368
g2265
S''
sg2267
S'0.00'
p2369
sg2268
S'estimated_time'
p2370
sg2270
S''
sg2272
S''
sg2273
S'decimal(5,2)'
p2371
sa(dp2372
g2265
S''
sg2267
S'0.00'
p2373
sg2268
S'remaining_time'
p2374
sg2270
S''
sg2272
S''
sg2273
S'decimal(5,2)'
p2375
sa(dp2376
g2265
S''
sg2267
Nsg2268
S'deadline'
p2377
sg2270
S''
sg2272
S'YES'
p2378
sg2273
S'datetime'
p2379
sa(dp2380
g2265
S''
sg2267
Nsg2268
S'alias'
p2381
sg2270
S'MUL'
p2382
sg2272
S'YES'
p2383
sg2273
S'varchar(20)'
p2384
sa(lp2385
(dp2386
S'Comment'
p2387
S''
sS'Non_unique'
p2388
L0L
sS'Sub_part'
p2389
NsS'Index_type'
p2390
S'BTREE'
p2391
sS'Key_name'
p2392
S'PRIMARY'
p2393
sS'Collation'
p2394
S'A'
sS'Null'
p2395
S''
sS'Seq_in_index'
p2396
L1L
sS'Table'
p2397
S'bugs'
p2398
sS'Cardinality'
p2399
L0L
sS'Packed'
p2400
NsS'Column_name'
p2401
S'bug_id'
p2402
sa(dp2403
g2387
S''
sg2388
L0L
sg2389
Nsg2390
S'BTREE'
p2404
sg2392
S'bugs_alias_idx'
p2405
sg2394
S'A'
sg2395
S'YES'
p2406
sg2396
L1L
sg2397
S'bugs'
p2407
sg2399
Nsg2400
Nsg2401
S'alias'
p2408
sa(dp2409
g2387
S''
sg2388
L1L
sg2389
Nsg2390
S'BTREE'
p2410
sg2392
S'bugs_assigned_to_idx'
p2411
sg2394
S'A'
sg2395
S''
sg2396
L1L
sg2397
S'bugs'
p2412
sg2399
Nsg2400
Nsg2401
S'assigned_to'
p2413
sa(dp2414
g2387
S''
sg2388
L1L
sg2389
Nsg2390
S'BTREE'
p2415
sg2392
S'bugs_creation_ts_idx'
p2416
sg2394
S'A'
sg2395
S'YES'
p2417
sg2396
L1L
sg2397
S'bugs'
p2418
sg2399
Nsg2400
Nsg2401
S'creation_ts'
p2419
sa(dp2420
g2387
S''
sg2388
L1L
sg2389
Nsg2390
S'BTREE'
p2421
sg2392
S'bugs_delta_ts_idx'
p2422
sg2394
S'A'
sg2395
S''
sg2396
L1L
sg2397
S'bugs'
p2423
sg2399
Nsg2400
Nsg2401
S'delta_ts'
p2424
sa(dp2425
g2387
S''
sg2388
L1L
sg2389
Nsg2390
S'BTREE'
p2426
sg2392
S'bugs_bug_severity_idx'
p2427
sg2394
S'A'
sg2395
S''
sg2396
L1L
sg2397
S'bugs'
p2428
sg2399
Nsg2400
Nsg2401
S'bug_severity'
p2429
sa(dp2430
g2387
S''
sg2388
L1L
sg2389
Nsg2390
S'BTREE'
p2431
sg2392
S'bugs_bug_status_idx'
p2432
sg2394
S'A'
sg2395
S''
sg2396
L1L
sg2397
S'bugs'
p2433
sg2399
Nsg2400
Nsg2401
S'bug_status'
p2434
sa(dp2435
g2387
S''
sg2388
L1L
sg2389
Nsg2390
S'BTREE'
p2436
sg2392
S'bugs_op_sys_idx'
p2437
sg2394
S'A'
sg2395
S''
sg2396
L1L
sg2397
S'bugs'
p2438
sg2399
Nsg2400
Nsg2401
S'op_sys'
p2439
sa(dp2440
g2387
S''
sg2388
L1L
sg2389
Nsg2390
S'BTREE'
p2441
sg2392
S'bugs_priority_idx'
p2442
sg2394
S'A'
sg2395
S''
sg2396
L1L
sg2397
S'bugs'
p2443
sg2399
Nsg2400
Nsg2401
S'priority'
p2444
sa(dp2445
g2387
S''
sg2388
L1L
sg2389
Nsg2390
S'BTREE'
p2446
sg2392
S'bugs_product_id_idx'
p2447
sg2394
S'A'
sg2395
S''
sg2396
L1L
sg2397
S'bugs'
p2448
sg2399
Nsg2400
Nsg2401
S'product_id'
p2449
sa(dp2450
g2387
S''
sg2388
L1L
sg2389
Nsg2390
S'BTREE'
p2451
sg2392
S'bugs_reporter_idx'
p2452
sg2394
S'A'
sg2395
S''
sg2396
L1L
sg2397
S'bugs'
p2453
sg2399
Nsg2400
Nsg2401
S'reporter'
p2454
sa(dp2455
g2387
S''
sg2388
L1L
sg2389
Nsg2390
S'BTREE'
p2456
sg2392
S'bugs_version_idx'
p2457
sg2394
S'A'
sg2395
S''
sg2396
L1L
sg2397
S'bugs'
p2458
sg2399
Nsg2400
Nsg2401
S'version'
p2459
sa(dp2460
g2387
S''
sg2388
L1L
sg2389
Nsg2390
S'BTREE'
p2461
sg2392
S'bugs_component_id_idx'
p2462
sg2394
S'A'
sg2395
S''
sg2396
L1L
sg2397
S'bugs'
p2463
sg2399
Nsg2400
Nsg2401
S'component_id'
p2464
sa(dp2465
g2387
S''
sg2388
L1L
sg2389
Nsg2390
S'BTREE'
p2466
sg2392
S'bugs_resolution_idx'
p2467
sg2394
S'A'
sg2395
S''
sg2396
L1L
sg2397
S'bugs'
p2468
sg2399
Nsg2400
Nsg2401
S'resolution'
p2469
sa(dp2470
g2387
S''
sg2388
L1L
sg2389
Nsg2390
S'BTREE'
p2471
sg2392
S'bugs_target_milestone_idx'
p2472
sg2394
S'A'
sg2395
S''
sg2396
L1L
sg2397
S'bugs'
p2473
sg2399
Nsg2400
Nsg2401
S'target_milestone'
p2474
sa(dp2475
g2387
S''
sg2388
L1L
sg2389
Nsg2390
S'BTREE'
p2476
sg2392
S'bugs_qa_contact_idx'
p2477
sg2394
S'A'
sg2395
S'YES'
p2478
sg2396
L1L
sg2397
S'bugs'
p2479
sg2399
Nsg2400
Nsg2401
S'qa_contact'
p2480
sa(dp2481
g2387
S''
sg2388
L1L
sg2389
Nsg2390
S'BTREE'
p2482
sg2392
S'bugs_votes_idx'
p2483
sg2394
S'A'
sg2395
S''
sg2396
L1L
sg2397
S'bugs'
p2484
sg2399
Nsg2400
Nsg2401
S'votes'
p2485
satp2486
sS'profiles'
p2487
((lp2488
(dp2489
S'Extra'
p2490
S'auto_increment'
p2491
sS'Default'
p2492
NsS'Field'
p2493
S'userid'
p2494
sS'Key'
p2495
S'PRI'
p2496
sS'Null'
p2497
S''
sS'Type'
p2498
S'mediumint(9)'
p2499
sa(dp2500
g2490
S''
sg2492
S''
sg2493
S'login_name'
p2501
sg2495
S'UNI'
p2502
sg2497
S''
sg2498
S'varchar(255)'
p2503
sa(dp2504
g2490
S''
sg2492
Nsg2493
S'cryptpassword'
p2505
sg2495
S''
sg2497
S'YES'
p2506
sg2498
S'varchar(128)'
p2507
sa(dp2508
g2490
S''
sg2492
S''
sg2493
S'realname'
p2509
sg2495
S''
sg2497
S''
sg2498
S'varchar(255)'
p2510
sa(dp2511
g2490
S''
sg2492
S''
sg2493
S'disabledtext'
p2512
sg2495
S''
sg2497
S''
sg2498
S'mediumtext'
p2513
sa(dp2514
g2490
S''
sg2492
S'0'
sg2493
S'disable_mail'
p2515
sg2495
S''
sg2497
S''
sg2498
S'tinyint(4)'
p2516
sa(dp2517
g2490
S''
sg2492
S'1'
sg2493
S'mybugslink'
p2518
sg2495
S''
sg2497
S''
sg2498
S'tinyint(4)'
p2519
sa(dp2520
g2490
S''
sg2492
Nsg2493
S'extern_id'
p2521
sg2495
S''
sg2497
S'YES'
p2522
sg2498
S'varchar(64)'
p2523
sa(lp2524
(dp2525
S'Comment'
p2526
S''
sS'Non_unique'
p2527
L0L
sS'Sub_part'
p2528
NsS'Index_type'
p2529
S'BTREE'
p2530
sS'Key_name'
p2531
S'PRIMARY'
p2532
sS'Collation'
p2533
S'A'
sS'Null'
p2534
S''
sS'Seq_in_index'
p2535
L1L
sS'Table'
p2536
S'profiles'
p2537
sS'Cardinality'
p2538
L0L
sS'Packed'
p2539
NsS'Column_name'
p2540
S'userid'
p2541
sa(dp2542
g2526
S''
sg2527
L0L
sg2528
Nsg2529
S'BTREE'
p2543
sg2531
S'profiles_login_name_idx'
p2544
sg2533
S'A'
sg2534
S''
sg2535
L1L
sg2536
S'profiles'
p2545
sg2538
L0L
sg2539
Nsg2540
S'login_name'
p2546
satp2547
sS'flags'
p2548
((lp2549
(dp2550
S'Extra'
p2551
S'auto_increment'
p2552
sS'Default'
p2553
NsS'Field'
p2554
S'id'
p2555
sS'Key'
p2556
S'PRI'
p2557
sS'Null'
p2558
S''
sS'Type'
p2559
S'mediumint(9)'
p2560
sa(dp2561
g2551
S''
sg2553
S'0'
sg2554
S'type_id'
p2562
sg2556
S'MUL'
p2563
sg2558
S''
sg2559
S'smallint(6)'
p2564
sa(dp2565
g2551
S''
sg2553
S''
sg2554
S'status'
p2566
sg2556
S''
sg2558
S''
sg2559
S'char(1)'
p2567
sa(dp2568
g2551
S''
sg2553
S'0'
sg2554
S'bug_id'
p2569
sg2556
S'MUL'
p2570
sg2558
S''
sg2559
S'mediumint(9)'
p2571
sa(dp2572
g2551
S''
sg2553
Nsg2554
S'attach_id'
p2573
sg2556
S''
sg2558
S'YES'
p2574
sg2559
S'mediumint(9)'
p2575
sa(dp2576
g2551
S''
sg2553
S'0000-00-00 00:00:00'
p2577
sg2554
S'creation_date'
p2578
sg2556
S''
sg2558
S''
sg2559
S'datetime'
p2579
sa(dp2580
g2551
S''
sg2553
Nsg2554
S'modification_date'
p2581
sg2556
S''
sg2558
S'YES'
p2582
sg2559
S'datetime'
p2583
sa(dp2584
g2551
S''
sg2553
Nsg2554
S'setter_id'
p2585
sg2556
S'MUL'
p2586
sg2558
S'YES'
p2587
sg2559
S'mediumint(9)'
p2588
sa(dp2589
g2551
S''
sg2553
Nsg2554
S'requestee_id'
p2590
sg2556
S'MUL'
p2591
sg2558
S'YES'
p2592
sg2559
S'mediumint(9)'
p2593
sa(lp2594
(dp2595
S'Comment'
p2596
S''
sS'Non_unique'
p2597
L0L
sS'Sub_part'
p2598
NsS'Index_type'
p2599
S'BTREE'
p2600
sS'Key_name'
p2601
S'PRIMARY'
p2602
sS'Collation'
p2603
S'A'
sS'Null'
p2604
S''
sS'Seq_in_index'
p2605
L1L
sS'Table'
p2606
S'flags'
p2607
sS'Cardinality'
p2608
L0L
sS'Packed'
p2609
NsS'Column_name'
p2610
S'id'
p2611
sa(dp2612
g2596
S''
sg2597
L1L
sg2598
Nsg2599
S'BTREE'
p2613
sg2601
S'flags_bug_id_idx'
p2614
sg2603
S'A'
sg2604
S''
sg2605
L1L
sg2606
S'flags'
p2615
sg2608
Nsg2609
Nsg2610
S'bug_id'
p2616
sa(dp2617
g2596
S''
sg2597
L1L
sg2598
Nsg2599
S'BTREE'
p2618
sg2601
S'flags_bug_id_idx'
p2619
sg2603
S'A'
sg2604
S'YES'
p2620
sg2605
L2L
sg2606
S'flags'
p2621
sg2608
Nsg2609
Nsg2610
S'attach_id'
p2622
sa(dp2623
g2596
S''
sg2597
L1L
sg2598
Nsg2599
S'BTREE'
p2624
sg2601
S'flags_setter_id_idx'
p2625
sg2603
S'A'
sg2604
S'YES'
p2626
sg2605
L1L
sg2606
S'flags'
p2627
sg2608
Nsg2609
Nsg2610
S'setter_id'
p2628
sa(dp2629
g2596
S''
sg2597
L1L
sg2598
Nsg2599
S'BTREE'
p2630
sg2601
S'flags_requestee_id_idx'
p2631
sg2603
S'A'
sg2604
S'YES'
p2632
sg2605
L1L
sg2606
S'flags'
p2633
sg2608
Nsg2609
Nsg2610
S'requestee_id'
p2634
sa(dp2635
g2596
S''
sg2597
L1L
sg2598
Nsg2599
S'BTREE'
p2636
sg2601
S'flags_type_id_idx'
p2637
sg2603
S'A'
sg2604
S''
sg2605
L1L
sg2606
S'flags'
p2638
sg2608
Nsg2609
Nsg2610
S'type_id'
p2639
satp2640
sS'components'
p2641
((lp2642
(dp2643
S'Extra'
p2644
S'auto_increment'
p2645
sS'Default'
p2646
NsS'Field'
p2647
S'id'
p2648
sS'Key'
p2649
S'PRI'
p2650
sS'Null'
p2651
S''
sS'Type'
p2652
S'smallint(6)'
p2653
sa(dp2654
g2644
S''
sg2646
S''
sg2647
S'name'
p2655
sg2649
S'MUL'
p2656
sg2651
S''
sg2652
S'varchar(64)'
p2657
sa(dp2658
g2644
S''
sg2646
S'0'
sg2647
S'product_id'
p2659
sg2649
S'MUL'
p2660
sg2651
S''
sg2652
S'smallint(6)'
p2661
sa(dp2662
g2644
S''
sg2646
S'0'
sg2647
S'initialowner'
p2663
sg2649
S''
sg2651
S''
sg2652
S'mediumint(9)'
p2664
sa(dp2665
g2644
S''
sg2646
Nsg2647
S'initialqacontact'
p2666
sg2649
S''
sg2651
S'YES'
p2667
sg2652
S'mediumint(9)'
p2668
sa(dp2669
g2644
S''
sg2646
S''
sg2647
S'description'
p2670
sg2649
S''
sg2651
S''
sg2652
S'mediumtext'
p2671
sa(lp2672
(dp2673
S'Comment'
p2674
S''
sS'Non_unique'
p2675
L0L
sS'Sub_part'
p2676
NsS'Index_type'
p2677
S'BTREE'
p2678
sS'Key_name'
p2679
S'PRIMARY'
p2680
sS'Collation'
p2681
S'A'
sS'Null'
p2682
S''
sS'Seq_in_index'
p2683
L1L
sS'Table'
p2684
S'components'
p2685
sS'Cardinality'
p2686
L0L
sS'Packed'
p2687
NsS'Column_name'
p2688
S'id'
p2689
sa(dp2690
g2674
S''
sg2675
L0L
sg2676
Nsg2677
S'BTREE'
p2691
sg2679
S'components_product_id_idx'
p2692
sg2681
S'A'
sg2682
S''
sg2683
L1L
sg2684
S'components'
p2693
sg2686
Nsg2687
Nsg2688
S'product_id'
p2694
sa(dp2695
g2674
S''
sg2675
L0L
sg2676
Nsg2677
S'BTREE'
p2696
sg2679
S'components_product_id_idx'
p2697
sg2681
S'A'
sg2682
S''
sg2683
L2L
sg2684
S'components'
p2698
sg2686
L0L
sg2687
Nsg2688
S'name'
p2699
sa(dp2700
g2674
S''
sg2675
L1L
sg2676
Nsg2677
S'BTREE'
p2701
sg2679
S'components_name_idx'
p2702
sg2681
S'A'
sg2682
S''
sg2683
L1L
sg2684
S'components'
p2703
sg2686
Nsg2687
Nsg2688
S'name'
p2704
satp2705
sS'whine_queries'
p2706
((lp2707
(dp2708
S'Extra'
p2709
S'auto_increment'
p2710
sS'Default'
p2711
NsS'Field'
p2712
S'id'
p2713
sS'Key'
p2714
S'PRI'
p2715
sS'Null'
p2716
S''
sS'Type'
p2717
S'mediumint(9)'
p2718
sa(dp2719
g2709
S''
sg2711
S'0'
sg2712
S'eventid'
p2720
sg2714
S'MUL'
p2721
sg2716
S''
sg2717
S'mediumint(9)'
p2722
sa(dp2723
g2709
S''
sg2711
S''
sg2712
S'query_name'
p2724
sg2714
S''
sg2716
S''
sg2717
S'varchar(64)'
p2725
sa(dp2726
g2709
S''
sg2711
S'0'
sg2712
S'sortkey'
p2727
sg2714
S''
sg2716
S''
sg2717
S'smallint(6)'
p2728
sa(dp2729
g2709
S''
sg2711
S'0'
sg2712
S'onemailperbug'
p2730
sg2714
S''
sg2716
S''
sg2717
S'tinyint(4)'
p2731
sa(dp2732
g2709
S''
sg2711
S''
sg2712
S'title'
p2733
sg2714
S''
sg2716
S''
sg2717
S'varchar(128)'
p2734
sa(lp2735
(dp2736
S'Comment'
p2737
S''
sS'Non_unique'
p2738
L0L
sS'Sub_part'
p2739
NsS'Index_type'
p2740
S'BTREE'
p2741
sS'Key_name'
p2742
S'PRIMARY'
p2743
sS'Collation'
p2744
S'A'
sS'Null'
p2745
S''
sS'Seq_in_index'
p2746
L1L
sS'Table'
p2747
S'whine_queries'
p2748
sS'Cardinality'
p2749
L0L
sS'Packed'
p2750
NsS'Column_name'
p2751
S'id'
p2752
sa(dp2753
g2737
S''
sg2738
L1L
sg2739
Nsg2740
S'BTREE'
p2754
sg2742
S'whine_queries_eventid_idx'
p2755
sg2744
S'A'
sg2745
S''
sg2746
L1L
sg2747
S'whine_queries'
p2756
sg2749
Nsg2750
Nsg2751
S'eventid'
p2757
satp2758
sS'profile_setting'
p2759
((lp2760
(dp2761
S'Extra'
p2762
S''
sS'Default'
p2763
S'0'
sS'Field'
p2764
S'user_id'
p2765
sS'Key'
p2766
S'PRI'
p2767
sS'Null'
p2768
S''
sS'Type'
p2769
S'mediumint(9)'
p2770
sa(dp2771
g2762
S''
sg2763
S''
sg2764
S'setting_name'
p2772
sg2766
S'PRI'
p2773
sg2768
S''
sg2769
S'varchar(32)'
p2774
sa(dp2775
g2762
S''
sg2763
S''
sg2764
S'setting_value'
p2776
sg2766
S''
sg2768
S''
sg2769
S'varchar(32)'
p2777
sa(lp2778
(dp2779
S'Comment'
p2780
S''
sS'Non_unique'
p2781
L0L
sS'Sub_part'
p2782
NsS'Index_type'
p2783
S'BTREE'
p2784
sS'Key_name'
p2785
S'profile_setting_value_unique_idx'
p2786
sS'Collation'
p2787
S'A'
sS'Null'
p2788
S''
sS'Seq_in_index'
p2789
L1L
sS'Table'
p2790
S'profile_setting'
p2791
sS'Cardinality'
p2792
NsS'Packed'
p2793
NsS'Column_name'
p2794
S'user_id'
p2795
sa(dp2796
g2780
S''
sg2781
L0L
sg2782
Nsg2783
S'BTREE'
p2797
sg2785
S'profile_setting_value_unique_idx'
p2798
sg2787
S'A'
sg2788
S''
sg2789
L2L
sg2790
S'profile_setting'
p2799
sg2792
L0L
sg2793
Nsg2794
S'setting_name'
p2800
satp2801
sS'setting_value'
p2802
((lp2803
(dp2804
S'Extra'
p2805
S''
sS'Default'
p2806
S''
sS'Field'
p2807
S'name'
p2808
sS'Key'
p2809
S'PRI'
p2810
sS'Null'
p2811
S''
sS'Type'
p2812
S'varchar(32)'
p2813
sa(dp2814
g2805
S''
sg2806
S''
sg2807
S'value'
p2815
sg2809
S'PRI'
p2816
sg2811
S''
sg2812
S'varchar(32)'
p2817
sa(dp2818
g2805
S''
sg2806
S'0'
sg2807
S'sortindex'
p2819
sg2809
S''
sg2811
S''
sg2812
S'smallint(6)'
p2820
sa(lp2821
(dp2822
S'Comment'
p2823
S''
sS'Non_unique'
p2824
L0L
sS'Sub_part'
p2825
NsS'Index_type'
p2826
S'BTREE'
p2827
sS'Key_name'
p2828
S'setting_value_nv_unique_idx'
p2829
sS'Collation'
p2830
S'A'
sS'Null'
p2831
S''
sS'Seq_in_index'
p2832
L1L
sS'Table'
p2833
S'setting_value'
p2834
sS'Cardinality'
p2835
NsS'Packed'
p2836
NsS'Column_name'
p2837
S'name'
p2838
sa(dp2839
g2823
S''
sg2824
L0L
sg2825
Nsg2826
S'BTREE'
p2840
sg2828
S'setting_value_nv_unique_idx'
p2841
sg2830
S'A'
sg2831
S''
sg2832
L2L
sg2833
S'setting_value'
p2842
sg2835
L0L
sg2836
Nsg2837
S'value'
p2843
sa(dp2844
g2823
S''
sg2824
L0L
sg2825
Nsg2826
S'BTREE'
p2845
sg2828
S'setting_value_ns_unique_idx'
p2846
sg2830
S'A'
sg2831
S''
sg2832
L1L
sg2833
S'setting_value'
p2847
sg2835
Nsg2836
Nsg2837
S'name'
p2848
sa(dp2849
g2823
S''
sg2824
L0L
sg2825
Nsg2826
S'BTREE'
p2850
sg2828
S'setting_value_ns_unique_idx'
p2851
sg2830
S'A'
sg2831
S''
sg2832
L2L
sg2833
S'setting_value'
p2852
sg2835
L0L
sg2836
Nsg2837
S'sortindex'
p2853
satp2854
sS'resolution'
p2855
((lp2856
(dp2857
S'Extra'
p2858
S'auto_increment'
p2859
sS'Default'
p2860
NsS'Field'
p2861
S'id'
p2862
sS'Key'
p2863
S'PRI'
p2864
sS'Null'
p2865
S''
sS'Type'
p2866
S'smallint(6)'
p2867
sa(dp2868
g2858
S''
sg2860
S''
sg2861
S'value'
p2869
sg2863
S'UNI'
p2870
sg2865
S''
sg2866
S'varchar(64)'
p2871
sa(dp2872
g2858
S''
sg2860
S'0'
sg2861
S'sortkey'
p2873
sg2863
S'MUL'
p2874
sg2865
S''
sg2866
S'smallint(6)'
p2875
sa(dp2876
g2858
S''
sg2860
S'1'
sg2861
S'isactive'
p2877
sg2863
S''
sg2865
S''
sg2866
S'tinyint(4)'
p2878
sa(lp2879
(dp2880
S'Comment'
p2881
S''
sS'Non_unique'
p2882
L0L
sS'Sub_part'
p2883
NsS'Index_type'
p2884
S'BTREE'
p2885
sS'Key_name'
p2886
S'PRIMARY'
p2887
sS'Collation'
p2888
S'A'
sS'Null'
p2889
S''
sS'Seq_in_index'
p2890
L1L
sS'Table'
p2891
S'resolution'
p2892
sS'Cardinality'
p2893
L7L
sS'Packed'
p2894
NsS'Column_name'
p2895
S'id'
p2896
sa(dp2897
g2881
S''
sg2882
L0L
sg2883
Nsg2884
S'BTREE'
p2898
sg2886
S'resolution_value_idx'
p2899
sg2888
S'A'
sg2889
S''
sg2890
L1L
sg2891
S'resolution'
p2900
sg2893
L7L
sg2894
Nsg2895
S'value'
p2901
sa(dp2902
g2881
S''
sg2882
L1L
sg2883
Nsg2884
S'BTREE'
p2903
sg2886
S'resolution_sortkey_idx'
p2904
sg2888
S'A'
sg2889
S''
sg2890
L1L
sg2891
S'resolution'
p2905
sg2893
Nsg2894
Nsg2895
S'sortkey'
p2906
sa(dp2907
g2881
S''
sg2882
L1L
sg2883
Nsg2884
S'BTREE'
p2908
sg2886
S'resolution_sortkey_idx'
p2909
sg2888
S'A'
sg2889
S''
sg2890
L2L
sg2891
S'resolution'
p2910
sg2893
Nsg2894
Nsg2895
S'value'
p2911
satp2912
sS'op_sys'
p2913
((lp2914
(dp2915
S'Extra'
p2916
S'auto_increment'
p2917
sS'Default'
p2918
NsS'Field'
p2919
S'id'
p2920
sS'Key'
p2921
S'PRI'
p2922
sS'Null'
p2923
S''
sS'Type'
p2924
S'smallint(6)'
p2925
sa(dp2926
g2916
S''
sg2918
S''
sg2919
S'value'
p2927
sg2921
S'UNI'
p2928
sg2923
S''
sg2924
S'varchar(64)'
p2929
sa(dp2930
g2916
S''
sg2918
S'0'
sg2919
S'sortkey'
p2931
sg2921
S'MUL'
p2932
sg2923
S''
sg2924
S'smallint(6)'
p2933
sa(dp2934
g2916
S''
sg2918
S'1'
sg2919
S'isactive'
p2935
sg2921
S''
sg2923
S''
sg2924
S'tinyint(4)'
p2936
sa(lp2937
(dp2938
S'Comment'
p2939
S''
sS'Non_unique'
p2940
L0L
sS'Sub_part'
p2941
NsS'Index_type'
p2942
S'BTREE'
p2943
sS'Key_name'
p2944
S'PRIMARY'
p2945
sS'Collation'
p2946
S'A'
sS'Null'
p2947
S''
sS'Seq_in_index'
p2948
L1L
sS'Table'
p2949
S'op_sys'
p2950
sS'Cardinality'
p2951
L5L
sS'Packed'
p2952
NsS'Column_name'
p2953
S'id'
p2954
sa(dp2955
g2939
S''
sg2940
L0L
sg2941
Nsg2942
S'BTREE'
p2956
sg2944
S'op_sys_value_idx'
p2957
sg2946
S'A'
sg2947
S''
sg2948
L1L
sg2949
S'op_sys'
p2958
sg2951
L5L
sg2952
Nsg2953
S'value'
p2959
sa(dp2960
g2939
S''
sg2940
L1L
sg2941
Nsg2942
S'BTREE'
p2961
sg2944
S'op_sys_sortkey_idx'
p2962
sg2946
S'A'
sg2947
S''
sg2948
L1L
sg2949
S'op_sys'
p2963
sg2951
Nsg2952
Nsg2953
S'sortkey'
p2964
sa(dp2965
g2939
S''
sg2940
L1L
sg2941
Nsg2942
S'BTREE'
p2966
sg2944
S'op_sys_sortkey_idx'
p2967
sg2946
S'A'
sg2947
S''
sg2948
L2L
sg2949
S'op_sys'
p2968
sg2951
Nsg2952
Nsg2953
S'value'
p2969
satp2970
sS'group_group_map'
p2971
((lp2972
(dp2973
S'Extra'
p2974
S''
sS'Default'
p2975
S'0'
sS'Field'
p2976
S'member_id'
p2977
sS'Key'
p2978
S'PRI'
p2979
sS'Null'
p2980
S''
sS'Type'
p2981
S'mediumint(9)'
p2982
sa(dp2983
g2974
S''
sg2975
S'0'
sg2976
S'grantor_id'
p2984
sg2978
S'PRI'
p2985
sg2980
S''
sg2981
S'mediumint(9)'
p2986
sa(dp2987
g2974
S''
sg2975
S'0'
sg2976
S'grant_type'
p2988
sg2978
S'PRI'
p2989
sg2980
S''
sg2981
S'tinyint(4)'
p2990
sa(lp2991
(dp2992
S'Comment'
p2993
S''
sS'Non_unique'
p2994
L0L
sS'Sub_part'
p2995
NsS'Index_type'
p2996
S'BTREE'
p2997
sS'Key_name'
p2998
S'group_group_map_member_id_idx'
p2999
sS'Collation'
p3000
S'A'
sS'Null'
p3001
S''
sS'Seq_in_index'
p3002
L1L
sS'Table'
p3003
S'group_group_map'
p3004
sS'Cardinality'
p3005
NsS'Packed'
p3006
NsS'Column_name'
p3007
S'member_id'
p3008
sa(dp3009
g2993
S''
sg2994
L0L
sg2995
Nsg2996
S'BTREE'
p3010
sg2998
S'group_group_map_member_id_idx'
p3011
sg3000
S'A'
sg3001
S''
sg3002
L2L
sg3003
S'group_group_map'
p3012
sg3005
Nsg3006
Nsg3007
S'grantor_id'
p3013
sa(dp3014
g2993
S''
sg2994
L0L
sg2995
Nsg2996
S'BTREE'
p3015
sg2998
S'group_group_map_member_id_idx'
p3016
sg3000
S'A'
sg3001
S''
sg3002
L3L
sg3003
S'group_group_map'
p3017
sg3005
L0L
sg3006
Nsg3007
S'grant_type'
p3018
satp3019
st.