(S'2.23.1'
p1
(dp2
S'bug_group_map'
p3
((lp4
(dp5
S'Extra'
p6
S''
sS'Default'
p7
S'0'
sS'Field'
p8
S'bug_id'
p9
sS'Key'
p10
S'PRI'
p11
sS'Null'
p12
S''
sS'Type'
p13
S'mediumint(9)'
p14
sa(dp15
g6
S''
sg7
S'0'
sg8
S'group_id'
p16
sg10
S'PRI'
p17
sg12
S''
sg13
S'mediumint(9)'
p18
sa(lp19
(dp20
S'Comment'
p21
S''
sS'Non_unique'
p22
L0L
sS'Sub_part'
p23
NsS'Index_type'
p24
S'BTREE'
p25
sS'Key_name'
p26
S'bug_group_map_bug_id_idx'
p27
sS'Collation'
p28
S'A'
sS'Null'
p29
S''
sS'Seq_in_index'
p30
L1L
sS'Table'
p31
S'bug_group_map'
p32
sS'Cardinality'
p33
NsS'Packed'
p34
NsS'Column_name'
p35
S'bug_id'
p36
sa(dp37
g21
S''
sg22
L0L
sg23
Nsg24
S'BTREE'
p38
sg26
S'bug_group_map_bug_id_idx'
p39
sg28
S'A'
sg29
S''
sg30
L2L
sg31
S'bug_group_map'
p40
sg33
L0L
sg34
Nsg35
S'group_id'
p41
sa(dp42
g21
S''
sg22
L1L
sg23
Nsg24
S'BTREE'
p43
sg26
S'bug_group_map_group_id_idx'
p44
sg28
S'A'
sg29
S''
sg30
L1L
sg31
S'bug_group_map'
p45
sg33
Nsg34
Nsg35
S'group_id'
p46
satp47
sS'attachments'
p48
((lp49
(dp50
S'Extra'
p51
S'auto_increment'
p52
sS'Default'
p53
NsS'Field'
p54
S'attach_id'
p55
sS'Key'
p56
S'PRI'
p57
sS'Null'
p58
S''
sS'Type'
p59
S'mediumint(9)'
p60
sa(dp61
g51
S''
sg53
S'0'
sg54
S'bug_id'
p62
sg56
S'MUL'
p63
sg58
S''
sg59
S'mediumint(9)'
p64
sa(dp65
g51
S''
sg53
S'0000-00-00 00:00:00'
p66
sg54
S'creation_ts'
p67
sg56
S'MUL'
p68
sg58
S''
sg59
S'datetime'
p69
sa(dp70
g51
S''
sg53
S''
sg54
S'description'
p71
sg56
S''
sg58
S''
sg59
S'mediumtext'
p72
sa(dp73
g51
S''
sg53
S''
sg54
S'mimetype'
p74
sg56
S''
sg58
S''
sg59
S'mediumtext'
p75
sa(dp76
g51
S''
sg53
Nsg54
S'ispatch'
p77
sg56
S''
sg58
S'YES'
p78
sg59
S'tinyint(4)'
p79
sa(dp80
g51
S''
sg53
S''
sg54
S'filename'
p81
sg56
S''
sg58
S''
sg59
S'varchar(100)'
p82
sa(dp83
g51
S''
sg53
S'0'
sg54
S'submitter_id'
p84
sg56
S'MUL'
p85
sg58
S''
sg59
S'mediumint(9)'
p86
sa(dp87
g51
S''
sg53
S'0'
sg54
S'isobsolete'
p88
sg56
S''
sg58
S''
sg59
S'tinyint(4)'
p89
sa(dp90
g51
S''
sg53
S'0'
sg54
S'isprivate'
p91
sg56
S''
sg58
S''
sg59
S'tinyint(4)'
p92
sa(dp93
g51
S''
sg53
S'0'
sg54
S'isurl'
p94
sg56
S''
sg58
S''
sg59
S'tinyint(4)'
p95
sa(lp96
(dp97
S'Comment'
p98
S''
sS'Non_unique'
p99
L0L
sS'Sub_part'
p100
NsS'Index_type'
p101
S'BTREE'
p102
sS'Key_name'
p103
S'PRIMARY'
p104
sS'Collation'
p105
S'A'
sS'Null'
p106
S''
sS'Seq_in_index'
p107
L1L
sS'Table'
p108
S'attachments'
p109
sS'Cardinality'
p110
L0L
sS'Packed'
p111
NsS'Column_name'
p112
S'attach_id'
p113
sa(dp114
g98
S''
sg99
L1L
sg100
Nsg101
S'BTREE'
p115
sg103
S'attachments_bug_id_idx'
p116
sg105
S'A'
sg106
S''
sg107
L1L
sg108
S'attachments'
p117
sg110
Nsg111
Nsg112
S'bug_id'
p118
sa(dp119
g98
S''
sg99
L1L
sg100
Nsg101
S'BTREE'
p120
sg103
S'attachments_creation_ts_idx'
p121
sg105
S'A'
sg106
S''
sg107
L1L
sg108
S'attachments'
p122
sg110
Nsg111
Nsg112
S'creation_ts'
p123
sa(dp124
g98
S''
sg99
L1L
sg100
Nsg101
S'BTREE'
p125
sg103
S'attachments_submitter_id_idx'
p126
sg105
S'A'
sg106
S''
sg107
L1L
sg108
S'attachments'
p127
sg110
Nsg111
Nsg112
S'submitter_id'
p128
sa(dp129
g98
S''
sg99
L1L
sg100
Nsg101
S'BTREE'
p130
sg103
S'attachments_submitter_id_idx'
p131
sg105
S'A'
sg106
S''
sg107
L2L
sg108
S'attachments'
p132
sg110
Nsg111
Nsg112
S'bug_id'
p133
satp134
sS'profile_setting'
p135
((lp136
(dp137
S'Extra'
p138
S''
sS'Default'
p139
S'0'
sS'Field'
p140
S'user_id'
p141
sS'Key'
p142
S'PRI'
p143
sS'Null'
p144
S''
sS'Type'
p145
S'mediumint(9)'
p146
sa(dp147
g138
S''
sg139
S''
sg140
S'setting_name'
p148
sg142
S'PRI'
p149
sg144
S''
sg145
S'varchar(32)'
p150
sa(dp151
g138
S''
sg139
S''
sg140
S'setting_value'
p152
sg142
S''
sg144
S''
sg145
S'varchar(32)'
p153
sa(lp154
(dp155
S'Comment'
p156
S''
sS'Non_unique'
p157
L0L
sS'Sub_part'
p158
NsS'Index_type'
p159
S'BTREE'
p160
sS'Key_name'
p161
S'profile_setting_value_unique_idx'
p162
sS'Collation'
p163
S'A'
sS'Null'
p164
S''
sS'Seq_in_index'
p165
L1L
sS'Table'
p166
S'profile_setting'
p167
sS'Cardinality'
p168
NsS'Packed'
p169
NsS'Column_name'
p170
S'user_id'
p171
sa(dp172
g156
S''
sg157
L0L
sg158
Nsg159
S'BTREE'
p173
sg161
S'profile_setting_value_unique_idx'
p174
sg163
S'A'
sg164
S''
sg165
L2L
sg166
S'profile_setting'
p175
sg168
L0L
sg169
Nsg170
S'setting_name'
p176
satp177
sS'duplicates'
p178
((lp179
(dp180
S'Extra'
p181
S''
sS'Default'
p182
S'0'
sS'Field'
p183
S'dupe_of'
p184
sS'Key'
p185
S''
sS'Null'
p186
S''
sS'Type'
p187
S'mediumint(9)'
p188
sa(dp189
g181
S''
sg182
S'0'
sg183
S'dupe'
p190
sg185
S'PRI'
p191
sg186
S''
sg187
S'mediumint(9)'
p192
sa(lp193
(dp194
S'Comment'
p195
S''
sS'Non_unique'
p196
L0L
sS'Sub_part'
p197
NsS'Index_type'
p198
S'BTREE'
p199
sS'Key_name'
p200
S'PRIMARY'
p201
sS'Collation'
p202
S'A'
sS'Null'
p203
S''
sS'Seq_in_index'
p204
L1L
sS'Table'
p205
S'duplicates'
p206
sS'Cardinality'
p207
L0L
sS'Packed'
p208
NsS'Column_name'
p209
S'dupe'
p210
satp211
sS'rep_platform'
p212
((lp213
(dp214
S'Extra'
p215
S'auto_increment'
p216
sS'Default'
p217
NsS'Field'
p218
S'id'
p219
sS'Key'
p220
S'PRI'
p221
sS'Null'
p222
S''
sS'Type'
p223
S'smallint(6)'
p224
sa(dp225
g215
S''
sg217
S''
sg218
S'value'
p226
sg220
S'UNI'
p227
sg222
S''
sg223
S'varchar(64)'
p228
sa(dp229
g215
S''
sg217
S'0'
sg218
S'sortkey'
p230
sg220
S'MUL'
p231
sg222
S''
sg223
S'smallint(6)'
p232
sa(dp233
g215
S''
sg217
S'1'
sg218
S'isactive'
p234
sg220
S''
sg222
S''
sg223
S'tinyint(4)'
p235
sa(lp236
(dp237
S'Comment'
p238
S''
sS'Non_unique'
p239
L0L
sS'Sub_part'
p240
NsS'Index_type'
p241
S'BTREE'
p242
sS'Key_name'
p243
S'PRIMARY'
p244
sS'Collation'
p245
S'A'
sS'Null'
p246
S''
sS'Seq_in_index'
p247
L1L
sS'Table'
p248
S'rep_platform'
p249
sS'Cardinality'
p250
L4L
sS'Packed'
p251
NsS'Column_name'
p252
S'id'
p253
sa(dp254
g238
S''
sg239
L0L
sg240
Nsg241
S'BTREE'
p255
sg243
S'rep_platform_value_idx'
p256
sg245
S'A'
sg246
S''
sg247
L1L
sg248
S'rep_platform'
p257
sg250
L4L
sg251
Nsg252
S'value'
p258
sa(dp259
g238
S''
sg239
L1L
sg240
Nsg241
S'BTREE'
p260
sg243
S'rep_platform_sortkey_idx'
p261
sg245
S'A'
sg246
S''
sg247
L1L
sg248
S'rep_platform'
p262
sg250
Nsg251
Nsg252
S'sortkey'
p263
sa(dp264
g238
S''
sg239
L1L
sg240
Nsg241
S'BTREE'
p265
sg243
S'rep_platform_sortkey_idx'
p266
sg245
S'A'
sg246
S''
sg247
L2L
sg248
S'rep_platform'
p267
sg250
Nsg251
Nsg252
S'value'
p268
satp269
sS'quips'
p270
((lp271
(dp272
S'Extra'
p273
S'auto_increment'
p274
sS'Default'
p275
NsS'Field'
p276
S'quipid'
p277
sS'Key'
p278
S'PRI'
p279
sS'Null'
p280
S''
sS'Type'
p281
S'mediumint(9)'
p282
sa(dp283
g273
S''
sg275
Nsg276
S'userid'
p284
sg278
S''
sg280
S'YES'
p285
sg281
S'mediumint(9)'
p286
sa(dp287
g273
S''
sg275
S''
sg276
S'quip'
p288
sg278
S''
sg280
S''
sg281
S'text'
p289
sa(dp290
g273
S''
sg275
S'1'
sg276
S'approved'
p291
sg278
S''
sg280
S''
sg281
S'tinyint(4)'
p292
sa(lp293
(dp294
S'Comment'
p295
S''
sS'Non_unique'
p296
L0L
sS'Sub_part'
p297
NsS'Index_type'
p298
S'BTREE'
p299
sS'Key_name'
p300
S'PRIMARY'
p301
sS'Collation'
p302
S'A'
sS'Null'
p303
S''
sS'Seq_in_index'
p304
L1L
sS'Table'
p305
S'quips'
p306
sS'Cardinality'
p307
L0L
sS'Packed'
p308
NsS'Column_name'
p309
S'quipid'
p310
satp311
sS'series_categories'
p312
((lp313
(dp314
S'Extra'
p315
S'auto_increment'
p316
sS'Default'
p317
NsS'Field'
p318
S'id'
p319
sS'Key'
p320
S'PRI'
p321
sS'Null'
p322
S''
sS'Type'
p323
S'smallint(6)'
p324
sa(dp325
g315
S''
sg317
S''
sg318
S'name'
p326
sg320
S'UNI'
p327
sg322
S''
sg323
S'varchar(64)'
p328
sa(lp329
(dp330
S'Comment'
p331
S''
sS'Non_unique'
p332
L0L
sS'Sub_part'
p333
NsS'Index_type'
p334
S'BTREE'
p335
sS'Key_name'
p336
S'PRIMARY'
p337
sS'Collation'
p338
S'A'
sS'Null'
p339
S''
sS'Seq_in_index'
p340
L1L
sS'Table'
p341
S'series_categories'
p342
sS'Cardinality'
p343
L2L
sS'Packed'
p344
NsS'Column_name'
p345
S'id'
p346
sa(dp347
g331
S''
sg332
L0L
sg333
Nsg334
S'BTREE'
p348
sg336
S'series_categories_name_idx'
p349
sg338
S'A'
sg339
S''
sg340
L1L
sg341
S'series_categories'
p350
sg343
L2L
sg344
Nsg345
S'name'
p351
satp352
sS'group_group_map'
p353
((lp354
(dp355
S'Extra'
p356
S''
sS'Default'
p357
S'0'
sS'Field'
p358
S'member_id'
p359
sS'Key'
p360
S'PRI'
p361
sS'Null'
p362
S''
sS'Type'
p363
S'mediumint(9)'
p364
sa(dp365
g356
S''
sg357
S'0'
sg358
S'grantor_id'
p366
sg360
S'PRI'
p367
sg362
S''
sg363
S'mediumint(9)'
p368
sa(dp369
g356
S''
sg357
S'0'
sg358
S'grant_type'
p370
sg360
S'PRI'
p371
sg362
S''
sg363
S'tinyint(4)'
p372
sa(lp373
(dp374
S'Comment'
p375
S''
sS'Non_unique'
p376
L0L
sS'Sub_part'
p377
NsS'Index_type'
p378
S'BTREE'
p379
sS'Key_name'
p380
S'group_group_map_member_id_idx'
p381
sS'Collation'
p382
S'A'
sS'Null'
p383
S''
sS'Seq_in_index'
p384
L1L
sS'Table'
p385
S'group_group_map'
p386
sS'Cardinality'
p387
NsS'Packed'
p388
NsS'Column_name'
p389
S'member_id'
p390
sa(dp391
g375
S''
sg376
L0L
sg377
Nsg378
S'BTREE'
p392
sg380
S'group_group_map_member_id_idx'
p393
sg382
S'A'
sg383
S''
sg384
L2L
sg385
S'group_group_map'
p394
sg387
Nsg388
Nsg389
S'grantor_id'
p395
sa(dp396
g375
S''
sg376
L0L
sg377
Nsg378
S'BTREE'
p397
sg380
S'group_group_map_member_id_idx'
p398
sg382
S'A'
sg383
S''
sg384
L3L
sg385
S'group_group_map'
p399
sg387
L28L
sg388
Nsg389
S'grant_type'
p400
satp401
sS'keywords'
p402
((lp403
(dp404
S'Extra'
p405
S''
sS'Default'
p406
S'0'
sS'Field'
p407
S'bug_id'
p408
sS'Key'
p409
S'PRI'
p410
sS'Null'
p411
S''
sS'Type'
p412
S'mediumint(9)'
p413
sa(dp414
g405
S''
sg406
S'0'
sg407
S'keywordid'
p415
sg409
S'PRI'
p416
sg411
S''
sg412
S'smallint(6)'
p417
sa(lp418
(dp419
S'Comment'
p420
S''
sS'Non_unique'
p421
L0L
sS'Sub_part'
p422
NsS'Index_type'
p423
S'BTREE'
p424
sS'Key_name'
p425
S'keywords_bug_id_idx'
p426
sS'Collation'
p427
S'A'
sS'Null'
p428
S''
sS'Seq_in_index'
p429
L1L
sS'Table'
p430
S'keywords'
p431
sS'Cardinality'
p432
NsS'Packed'
p433
NsS'Column_name'
p434
S'bug_id'
p435
sa(dp436
g420
S''
sg421
L0L
sg422
Nsg423
S'BTREE'
p437
sg425
S'keywords_bug_id_idx'
p438
sg427
S'A'
sg428
S''
sg429
L2L
sg430
S'keywords'
p439
sg432
L0L
sg433
Nsg434
S'keywordid'
p440
sa(dp441
g420
S''
sg421
L1L
sg422
Nsg423
S'BTREE'
p442
sg425
S'keywords_keywordid_idx'
p443
sg427
S'A'
sg428
S''
sg429
L1L
sg430
S'keywords'
p444
sg432
Nsg433
Nsg434
S'keywordid'
p445
satp446
sS'series_data'
p447
((lp448
(dp449
S'Extra'
p450
S''
sS'Default'
p451
S'0'
sS'Field'
p452
S'series_id'
p453
sS'Key'
p454
S'PRI'
p455
sS'Null'
p456
S''
sS'Type'
p457
S'mediumint(9)'
p458
sa(dp459
g450
S''
sg451
S'0000-00-00 00:00:00'
p460
sg452
S'series_date'
p461
sg454
S'PRI'
p462
sg456
S''
sg457
S'datetime'
p463
sa(dp464
g450
S''
sg451
S'0'
sg452
S'series_value'
p465
sg454
S''
sg456
S''
sg457
S'mediumint(9)'
p466
sa(lp467
(dp468
S'Comment'
p469
S''
sS'Non_unique'
p470
L0L
sS'Sub_part'
p471
NsS'Index_type'
p472
S'BTREE'
p473
sS'Key_name'
p474
S'series_data_series_id_idx'
p475
sS'Collation'
p476
S'A'
sS'Null'
p477
S''
sS'Seq_in_index'
p478
L1L
sS'Table'
p479
S'series_data'
p480
sS'Cardinality'
p481
NsS'Packed'
p482
NsS'Column_name'
p483
S'series_id'
p484
sa(dp485
g469
S''
sg470
L0L
sg471
Nsg472
S'BTREE'
p486
sg474
S'series_data_series_id_idx'
p487
sg476
S'A'
sg477
S''
sg478
L2L
sg479
S'series_data'
p488
sg481
L0L
sg482
Nsg483
S'series_date'
p489
satp490
sS'keyworddefs'
p491
((lp492
(dp493
S'Extra'
p494
S''
sS'Default'
p495
S'0'
sS'Field'
p496
S'id'
p497
sS'Key'
p498
S'PRI'
p499
sS'Null'
p500
S''
sS'Type'
p501
S'smallint(6)'
p502
sa(dp503
g494
S''
sg495
S''
sg496
S'name'
p504
sg498
S'UNI'
p505
sg500
S''
sg501
S'varchar(64)'
p506
sa(dp507
g494
S''
sg495
Nsg496
S'description'
p508
sg498
S''
sg500
S'YES'
p509
sg501
S'mediumtext'
p510
sa(lp511
(dp512
S'Comment'
p513
S''
sS'Non_unique'
p514
L0L
sS'Sub_part'
p515
NsS'Index_type'
p516
S'BTREE'
p517
sS'Key_name'
p518
S'PRIMARY'
p519
sS'Collation'
p520
S'A'
sS'Null'
p521
S''
sS'Seq_in_index'
p522
L1L
sS'Table'
p523
S'keyworddefs'
p524
sS'Cardinality'
p525
L0L
sS'Packed'
p526
NsS'Column_name'
p527
S'id'
p528
sa(dp529
g513
S''
sg514
L0L
sg515
Nsg516
S'BTREE'
p530
sg518
S'keyworddefs_name_idx'
p531
sg520
S'A'
sg521
S''
sg522
L1L
sg523
S'keyworddefs'
p532
sg525
L0L
sg526
Nsg527
S'name'
p533
satp534
sS'flagexclusions'
p535
((lp536
(dp537
S'Extra'
p538
S''
sS'Default'
p539
S'0'
sS'Field'
p540
S'type_id'
p541
sS'Key'
p542
S'MUL'
p543
sS'Null'
p544
S''
sS'Type'
p545
S'smallint(6)'
p546
sa(dp547
g538
S''
sg539
Nsg540
S'product_id'
p548
sg542
S''
sg544
S'YES'
p549
sg545
S'smallint(6)'
p550
sa(dp551
g538
S''
sg539
Nsg540
S'component_id'
p552
sg542
S''
sg544
S'YES'
p553
sg545
S'smallint(6)'
p554
sa(lp555
(dp556
S'Comment'
p557
S''
sS'Non_unique'
p558
L1L
sS'Sub_part'
p559
NsS'Index_type'
p560
S'BTREE'
p561
sS'Key_name'
p562
S'flagexclusions_type_id_idx'
p563
sS'Collation'
p564
S'A'
sS'Null'
p565
S''
sS'Seq_in_index'
p566
L1L
sS'Table'
p567
S'flagexclusions'
p568
sS'Cardinality'
p569
NsS'Packed'
p570
NsS'Column_name'
p571
S'type_id'
p572
sa(dp573
g557
S''
sg558
L1L
sg559
Nsg560
S'BTREE'
p574
sg562
S'flagexclusions_type_id_idx'
p575
sg564
S'A'
sg565
S'YES'
p576
sg566
L2L
sg567
S'flagexclusions'
p577
sg569
Nsg570
Nsg571
S'product_id'
p578
sa(dp579
g557
S''
sg558
L1L
sg559
Nsg560
S'BTREE'
p580
sg562
S'flagexclusions_type_id_idx'
p581
sg564
S'A'
sg565
S'YES'
p582
sg566
L3L
sg567
S'flagexclusions'
p583
sg569
Nsg570
Nsg571
S'component_id'
p584
satp585
sS'votes'
p586
((lp587
(dp588
S'Extra'
p589
S''
sS'Default'
p590
S'0'
sS'Field'
p591
S'who'
p592
sS'Key'
p593
S'MUL'
p594
sS'Null'
p595
S''
sS'Type'
p596
S'mediumint(9)'
p597
sa(dp598
g589
S''
sg590
S'0'
sg591
S'bug_id'
p599
sg593
S'MUL'
p600
sg595
S''
sg596
S'mediumint(9)'
p601
sa(dp602
g589
S''
sg590
S'0'
sg591
S'vote_count'
p603
sg593
S''
sg595
S''
sg596
S'smallint(6)'
p604
sa(lp605
(dp606
S'Comment'
p607
S''
sS'Non_unique'
p608
L1L
sS'Sub_part'
p609
NsS'Index_type'
p610
S'BTREE'
p611
sS'Key_name'
p612
S'votes_who_idx'
p613
sS'Collation'
p614
S'A'
sS'Null'
p615
S''
sS'Seq_in_index'
p616
L1L
sS'Table'
p617
S'votes'
p618
sS'Cardinality'
p619
NsS'Packed'
p620
NsS'Column_name'
p621
S'who'
p622
sa(dp623
g607
S''
sg608
L1L
sg609
Nsg610
S'BTREE'
p624
sg612
S'votes_bug_id_idx'
p625
sg614
S'A'
sg615
S''
sg616
L1L
sg617
S'votes'
p626
sg619
Nsg620
Nsg621
S'bug_id'
p627
satp628
sS'attach_data'
p629
((lp630
(dp631
S'Extra'
p632
S''
sS'Default'
p633
S'0'
sS'Field'
p634
S'id'
p635
sS'Key'
p636
S'PRI'
p637
sS'Null'
p638
S''
sS'Type'
p639
S'mediumint(9)'
p640
sa(dp641
g632
S''
sg633
S''
sg634
S'thedata'
p642
sg636
S''
sg638
S''
sg639
S'longblob'
p643
sa(lp644
(dp645
S'Comment'
p646
S''
sS'Non_unique'
p647
L0L
sS'Sub_part'
p648
NsS'Index_type'
p649
S'BTREE'
p650
sS'Key_name'
p651
S'PRIMARY'
p652
sS'Collation'
p653
S'A'
sS'Null'
p654
S''
sS'Seq_in_index'
p655
L1L
sS'Table'
p656
S'attach_data'
p657
sS'Cardinality'
p658
L0L
sS'Packed'
p659
NsS'Column_name'
p660
S'id'
p661
satp662
sS'products'
p663
((lp664
(dp665
S'Extra'
p666
S'auto_increment'
p667
sS'Default'
p668
NsS'Field'
p669
S'id'
p670
sS'Key'
p671
S'PRI'
p672
sS'Null'
p673
S''
sS'Type'
p674
S'smallint(6)'
p675
sa(dp676
g666
S''
sg668
S''
sg669
S'name'
p677
sg671
S'UNI'
p678
sg673
S''
sg674
S'varchar(64)'
p679
sa(dp680
g666
S''
sg668
S'1'
sg669
S'classification_id'
p681
sg671
S''
sg673
S''
sg674
S'smallint(6)'
p682
sa(dp683
g666
S''
sg668
Nsg669
S'description'
p684
sg671
S''
sg673
S'YES'
p685
sg674
S'mediumtext'
p686
sa(dp687
g666
S''
sg668
S''
sg669
S'milestoneurl'
p688
sg671
S''
sg673
S''
sg674
S'tinytext'
p689
sa(dp690
g666
S''
sg668
S'0'
sg669
S'disallownew'
p691
sg671
S''
sg673
S''
sg674
S'tinyint(4)'
p692
sa(dp693
g666
S''
sg668
S'0'
sg669
S'votesperuser'
p694
sg671
S''
sg673
S''
sg674
S'smallint(6)'
p695
sa(dp696
g666
S''
sg668
S'10000'
p697
sg669
S'maxvotesperbug'
p698
sg671
S''
sg673
S''
sg674
S'smallint(6)'
p699
sa(dp700
g666
S''
sg668
S'0'
sg669
S'votestoconfirm'
p701
sg671
S''
sg673
S''
sg674
S'smallint(6)'
p702
sa(dp703
g666
S''
sg668
S'---'
p704
sg669
S'defaultmilestone'
p705
sg671
S''
sg673
S''
sg674
S'varchar(20)'
p706
sa(lp707
(dp708
S'Comment'
p709
S''
sS'Non_unique'
p710
L0L
sS'Sub_part'
p711
NsS'Index_type'
p712
S'BTREE'
p713
sS'Key_name'
p714
S'PRIMARY'
p715
sS'Collation'
p716
S'A'
sS'Null'
p717
S''
sS'Seq_in_index'
p718
L1L
sS'Table'
p719
S'products'
p720
sS'Cardinality'
p721
L1L
sS'Packed'
p722
NsS'Column_name'
p723
S'id'
p724
sa(dp725
g709
S''
sg710
L0L
sg711
Nsg712
S'BTREE'
p726
sg714
S'products_name_idx'
p727
sg716
S'A'
sg717
S''
sg718
L1L
sg719
S'products'
p728
sg721
L1L
sg722
Nsg723
S'name'
p729
satp730
sS'bug_status'
p731
((lp732
(dp733
S'Extra'
p734
S'auto_increment'
p735
sS'Default'
p736
NsS'Field'
p737
S'id'
p738
sS'Key'
p739
S'PRI'
p740
sS'Null'
p741
S''
sS'Type'
p742
S'smallint(6)'
p743
sa(dp744
g734
S''
sg736
S''
sg737
S'value'
p745
sg739
S'UNI'
p746
sg741
S''
sg742
S'varchar(64)'
p747
sa(dp748
g734
S''
sg736
S'0'
sg737
S'sortkey'
p749
sg739
S'MUL'
p750
sg741
S''
sg742
S'smallint(6)'
p751
sa(dp752
g734
S''
sg736
S'1'
sg737
S'isactive'
p753
sg739
S''
sg741
S''
sg742
S'tinyint(4)'
p754
sa(lp755
(dp756
S'Comment'
p757
S''
sS'Non_unique'
p758
L0L
sS'Sub_part'
p759
NsS'Index_type'
p760
S'BTREE'
p761
sS'Key_name'
p762
S'PRIMARY'
p763
sS'Collation'
p764
S'A'
sS'Null'
p765
S''
sS'Seq_in_index'
p766
L1L
sS'Table'
p767
S'bug_status'
p768
sS'Cardinality'
p769
L7L
sS'Packed'
p770
NsS'Column_name'
p771
S'id'
p772
sa(dp773
g757
S''
sg758
L0L
sg759
Nsg760
S'BTREE'
p774
sg762
S'bug_status_value_idx'
p775
sg764
S'A'
sg765
S''
sg766
L1L
sg767
S'bug_status'
p776
sg769
L7L
sg770
Nsg771
S'value'
p777
sa(dp778
g757
S''
sg758
L1L
sg759
Nsg760
S'BTREE'
p779
sg762
S'bug_status_sortkey_idx'
p780
sg764
S'A'
sg765
S''
sg766
L1L
sg767
S'bug_status'
p781
sg769
Nsg770
Nsg771
S'sortkey'
p782
sa(dp783
g757
S''
sg758
L1L
sg759
Nsg760
S'BTREE'
p784
sg762
S'bug_status_sortkey_idx'
p785
sg764
S'A'
sg765
S''
sg766
L2L
sg767
S'bug_status'
p786
sg769
Nsg770
Nsg771
S'value'
p787
satp788
sS'priority'
p789
((lp790
(dp791
S'Extra'
p792
S'auto_increment'
p793
sS'Default'
p794
NsS'Field'
p795
S'id'
p796
sS'Key'
p797
S'PRI'
p798
sS'Null'
p799
S''
sS'Type'
p800
S'smallint(6)'
p801
sa(dp802
g792
S''
sg794
S''
sg795
S'value'
p803
sg797
S'UNI'
p804
sg799
S''
sg800
S'varchar(64)'
p805
sa(dp806
g792
S''
sg794
S'0'
sg795
S'sortkey'
p807
sg797
S'MUL'
p808
sg799
S''
sg800
S'smallint(6)'
p809
sa(dp810
g792
S''
sg794
S'1'
sg795
S'isactive'
p811
sg797
S''
sg799
S''
sg800
S'tinyint(4)'
p812
sa(lp813
(dp814
S'Comment'
p815
S''
sS'Non_unique'
p816
L0L
sS'Sub_part'
p817
NsS'Index_type'
p818
S'BTREE'
p819
sS'Key_name'
p820
S'PRIMARY'
p821
sS'Collation'
p822
S'A'
sS'Null'
p823
S''
sS'Seq_in_index'
p824
L1L
sS'Table'
p825
S'priority'
p826
sS'Cardinality'
p827
L5L
sS'Packed'
p828
NsS'Column_name'
p829
S'id'
p830
sa(dp831
g815
S''
sg816
L0L
sg817
Nsg818
S'BTREE'
p832
sg820
S'priority_value_idx'
p833
sg822
S'A'
sg823
S''
sg824
L1L
sg825
S'priority'
p834
sg827
L5L
sg828
Nsg829
S'value'
p835
sa(dp836
g815
S''
sg816
L1L
sg817
Nsg818
S'BTREE'
p837
sg820
S'priority_sortkey_idx'
p838
sg822
S'A'
sg823
S''
sg824
L1L
sg825
S'priority'
p839
sg827
Nsg828
Nsg829
S'sortkey'
p840
sa(dp841
g815
S''
sg816
L1L
sg817
Nsg818
S'BTREE'
p842
sg820
S'priority_sortkey_idx'
p843
sg822
S'A'
sg823
S''
sg824
L2L
sg825
S'priority'
p844
sg827
Nsg828
Nsg829
S'value'
p845
satp846
sS'cc'
p847
((lp848
(dp849
S'Extra'
p850
S''
sS'Default'
p851
S'0'
sS'Field'
p852
S'bug_id'
p853
sS'Key'
p854
S'PRI'
p855
sS'Null'
p856
S''
sS'Type'
p857
S'mediumint(9)'
p858
sa(dp859
g850
S''
sg851
S'0'
sg852
S'who'
p860
sg854
S'PRI'
p861
sg856
S''
sg857
S'mediumint(9)'
p862
sa(lp863
(dp864
S'Comment'
p865
S''
sS'Non_unique'
p866
L0L
sS'Sub_part'
p867
NsS'Index_type'
p868
S'BTREE'
p869
sS'Key_name'
p870
S'cc_bug_id_idx'
p871
sS'Collation'
p872
S'A'
sS'Null'
p873
S''
sS'Seq_in_index'
p874
L1L
sS'Table'
p875
S'cc'
p876
sS'Cardinality'
p877
NsS'Packed'
p878
NsS'Column_name'
p879
S'bug_id'
p880
sa(dp881
g865
S''
sg866
L0L
sg867
Nsg868
S'BTREE'
p882
sg870
S'cc_bug_id_idx'
p883
sg872
S'A'
sg873
S''
sg874
L2L
sg875
S'cc'
p884
sg877
L0L
sg878
Nsg879
S'who'
p885
sa(dp886
g865
S''
sg866
L1L
sg867
Nsg868
S'BTREE'
p887
sg870
S'cc_who_idx'
p888
sg872
S'A'
sg873
S''
sg874
L1L
sg875
S'cc'
p889
sg877
Nsg878
Nsg879
S'who'
p890
satp891
sS'setting'
p892
((lp893
(dp894
S'Extra'
p895
S''
sS'Default'
p896
S''
sS'Field'
p897
S'name'
p898
sS'Key'
p899
S'PRI'
p900
sS'Null'
p901
S''
sS'Type'
p902
S'varchar(32)'
p903
sa(dp904
g895
S''
sg896
S''
sg897
S'default_value'
p905
sg899
S''
sg901
S''
sg902
S'varchar(32)'
p906
sa(dp907
g895
S''
sg896
S'1'
sg897
S'is_enabled'
p908
sg899
S''
sg901
S''
sg902
S'tinyint(4)'
p909
sa(lp910
(dp911
S'Comment'
p912
S''
sS'Non_unique'
p913
L0L
sS'Sub_part'
p914
NsS'Index_type'
p915
S'BTREE'
p916
sS'Key_name'
p917
S'PRIMARY'
p918
sS'Collation'
p919
S'A'
sS'Null'
p920
S''
sS'Seq_in_index'
p921
L1L
sS'Table'
p922
S'setting'
p923
sS'Cardinality'
p924
L6L
sS'Packed'
p925
NsS'Column_name'
p926
S'name'
p927
satp928
sS'email_setting'
p929
((lp930
(dp931
S'Extra'
p932
S''
sS'Default'
p933
S'0'
sS'Field'
p934
S'user_id'
p935
sS'Key'
p936
S'PRI'
p937
sS'Null'
p938
S''
sS'Type'
p939
S'mediumint(9)'
p940
sa(dp941
g932
S''
sg933
S'0'
sg934
S'relationship'
p942
sg936
S'PRI'
p943
sg938
S''
sg939
S'tinyint(4)'
p944
sa(dp945
g932
S''
sg933
S'0'
sg934
S'event'
p946
sg936
S'PRI'
p947
sg938
S''
sg939
S'tinyint(4)'
p948
sa(lp949
(dp950
S'Comment'
p951
S''
sS'Non_unique'
p952
L0L
sS'Sub_part'
p953
NsS'Index_type'
p954
S'BTREE'
p955
sS'Key_name'
p956
S'email_setting_user_id_idx'
p957
sS'Collation'
p958
S'A'
sS'Null'
p959
S''
sS'Seq_in_index'
p960
L1L
sS'Table'
p961
S'email_setting'
p962
sS'Cardinality'
p963
NsS'Packed'
p964
NsS'Column_name'
p965
S'user_id'
p966
sa(dp967
g951
S''
sg952
L0L
sg953
Nsg954
S'BTREE'
p968
sg956
S'email_setting_user_id_idx'
p969
sg958
S'A'
sg959
S''
sg960
L2L
sg961
S'email_setting'
p970
sg963
Nsg964
Nsg965
S'relationship'
p971
sa(dp972
g951
S''
sg952
L0L
sg953
Nsg954
S'BTREE'
p973
sg956
S'email_setting_user_id_idx'
p974
sg958
S'A'
sg959
S''
sg960
L3L
sg961
S'email_setting'
p975
sg963
L53L
sg964
Nsg965
S'event'
p976
satp977
sS'series'
p978
((lp979
(dp980
S'Extra'
p981
S'auto_increment'
p982
sS'Default'
p983
NsS'Field'
p984
S'series_id'
p985
sS'Key'
p986
S'PRI'
p987
sS'Null'
p988
S''
sS'Type'
p989
S'mediumint(9)'
p990
sa(dp991
g981
S''
sg983
S'0'
sg984
S'creator'
p992
sg986
S'MUL'
p993
sg988
S''
sg989
S'mediumint(9)'
p994
sa(dp995
g981
S''
sg983
S'0'
sg984
S'category'
p996
sg986
S''
sg988
S''
sg989
S'smallint(6)'
p997
sa(dp998
g981
S''
sg983
S'0'
sg984
S'subcategory'
p999
sg986
S''
sg988
S''
sg989
S'smallint(6)'
p1000
sa(dp1001
g981
S''
sg983
S''
sg984
S'name'
p1002
sg986
S''
sg988
S''
sg989
S'varchar(64)'
p1003
sa(dp1004
g981
S''
sg983
S'0'
sg984
S'frequency'
p1005
sg986
S''
sg988
S''
sg989
S'smallint(6)'
p1006
sa(dp1007
g981
S''
sg983
Nsg984
S'last_viewed'
p1008
sg986
S''
sg988
S'YES'
p1009
sg989
S'datetime'
p1010
sa(dp1011
g981
S''
sg983
S''
sg984
S'query'
p1012
sg986
S''
sg988
S''
sg989
S'mediumtext'
p1013
sa(dp1014
g981
S''
sg983
S'0'
sg984
S'is_public'
p1015
sg986
S''
sg988
S''
sg989
S'tinyint(4)'
p1016
sa(lp1017
(dp1018
S'Comment'
p1019
S''
sS'Non_unique'
p1020
L0L
sS'Sub_part'
p1021
NsS'Index_type'
p1022
S'BTREE'
p1023
sS'Key_name'
p1024
S'PRIMARY'
p1025
sS'Collation'
p1026
S'A'
sS'Null'
p1027
S''
sS'Seq_in_index'
p1028
L1L
sS'Table'
p1029
S'series'
p1030
sS'Cardinality'
p1031
L32L
sS'Packed'
p1032
NsS'Column_name'
p1033
S'series_id'
p1034
sa(dp1035
g1019
S''
sg1020
L0L
sg1021
Nsg1022
S'BTREE'
p1036
sg1024
S'series_creator_idx'
p1037
sg1026
S'A'
sg1027
S''
sg1028
L1L
sg1029
S'series'
p1038
sg1031
Nsg1032
Nsg1033
S'creator'
p1039
sa(dp1040
g1019
S''
sg1020
L0L
sg1021
Nsg1022
S'BTREE'
p1041
sg1024
S'series_creator_idx'
p1042
sg1026
S'A'
sg1027
S''
sg1028
L2L
sg1029
S'series'
p1043
sg1031
Nsg1032
Nsg1033
S'category'
p1044
sa(dp1045
g1019
S''
sg1020
L0L
sg1021
Nsg1022
S'BTREE'
p1046
sg1024
S'series_creator_idx'
p1047
sg1026
S'A'
sg1027
S''
sg1028
L3L
sg1029
S'series'
p1048
sg1031
Nsg1032
Nsg1033
S'subcategory'
p1049
sa(dp1050
g1019
S''
sg1020
L0L
sg1021
Nsg1022
S'BTREE'
p1051
sg1024
S'series_creator_idx'
p1052
sg1026
S'A'
sg1027
S''
sg1028
L4L
sg1029
S'series'
p1053
sg1031
L32L
sg1032
Nsg1033
S'name'
p1054
satp1055
sS'logincookies'
p1056
((lp1057
(dp1058
S'Extra'
p1059
S''
sS'Default'
p1060
S''
sS'Field'
p1061
S'cookie'
p1062
sS'Key'
p1063
S'PRI'
p1064
sS'Null'
p1065
S''
sS'Type'
p1066
S'varchar(16)'
p1067
sa(dp1068
g1059
S''
sg1060
S'0'
sg1061
S'userid'
p1069
sg1063
S''
sg1065
S''
sg1066
S'mediumint(9)'
p1070
sa(dp1071
g1059
S''
sg1060
S''
sg1061
S'ipaddr'
p1072
sg1063
S''
sg1065
S''
sg1066
S'varchar(40)'
p1073
sa(dp1074
g1059
S''
sg1060
S'0000-00-00 00:00:00'
p1075
sg1061
S'lastused'
p1076
sg1063
S'MUL'
p1077
sg1065
S''
sg1066
S'datetime'
p1078
sa(lp1079
(dp1080
S'Comment'
p1081
S''
sS'Non_unique'
p1082
L0L
sS'Sub_part'
p1083
NsS'Index_type'
p1084
S'BTREE'
p1085
sS'Key_name'
p1086
S'PRIMARY'
p1087
sS'Collation'
p1088
S'A'
sS'Null'
p1089
S''
sS'Seq_in_index'
p1090
L1L
sS'Table'
p1091
S'logincookies'
p1092
sS'Cardinality'
p1093
L0L
sS'Packed'
p1094
NsS'Column_name'
p1095
S'cookie'
p1096
sa(dp1097
g1081
S''
sg1082
L1L
sg1083
Nsg1084
S'BTREE'
p1098
sg1086
S'logincookies_lastused_idx'
p1099
sg1088
S'A'
sg1089
S''
sg1090
L1L
sg1091
S'logincookies'
p1100
sg1093
Nsg1094
Nsg1095
S'lastused'
p1101
satp1102
sS'fielddefs'
p1103
((lp1104
(dp1105
S'Extra'
p1106
S'auto_increment'
p1107
sS'Default'
p1108
NsS'Field'
p1109
S'fieldid'
p1110
sS'Key'
p1111
S'PRI'
p1112
sS'Null'
p1113
S''
sS'Type'
p1114
S'mediumint(9)'
p1115
sa(dp1116
g1106
S''
sg1108
S''
sg1109
S'name'
p1117
sg1111
S'UNI'
p1118
sg1113
S''
sg1114
S'varchar(64)'
p1119
sa(dp1120
g1106
S''
sg1108
S'0'
sg1109
S'type'
p1121
sg1111
S''
sg1113
S''
sg1114
S'smallint(6)'
p1122
sa(dp1123
g1106
S''
sg1108
S'0'
sg1109
S'custom'
p1124
sg1111
S''
sg1113
S''
sg1114
S'tinyint(4)'
p1125
sa(dp1126
g1106
S''
sg1108
S''
sg1109
S'description'
p1127
sg1111
S''
sg1113
S''
sg1114
S'mediumtext'
p1128
sa(dp1129
g1106
S''
sg1108
S'0'
sg1109
S'mailhead'
p1130
sg1111
S''
sg1113
S''
sg1114
S'tinyint(4)'
p1131
sa(dp1132
g1106
S''
sg1108
S'0'
sg1109
S'sortkey'
p1133
sg1111
S'MUL'
p1134
sg1113
S''
sg1114
S'smallint(6)'
p1135
sa(dp1136
g1106
S''
sg1108
S'0'
sg1109
S'obsolete'
p1137
sg1111
S''
sg1113
S''
sg1114
S'tinyint(4)'
p1138
sa(lp1139
(dp1140
S'Comment'
p1141
S''
sS'Non_unique'
p1142
L0L
sS'Sub_part'
p1143
NsS'Index_type'
p1144
S'BTREE'
p1145
sS'Key_name'
p1146
S'PRIMARY'
p1147
sS'Collation'
p1148
S'A'
sS'Null'
p1149
S''
sS'Seq_in_index'
p1150
L1L
sS'Table'
p1151
S'fielddefs'
p1152
sS'Cardinality'
p1153
L51L
sS'Packed'
p1154
NsS'Column_name'
p1155
S'fieldid'
p1156
sa(dp1157
g1141
S''
sg1142
L0L
sg1143
Nsg1144
S'BTREE'
p1158
sg1146
S'fielddefs_name_idx'
p1159
sg1148
S'A'
sg1149
S''
sg1150
L1L
sg1151
S'fielddefs'
p1160
sg1153
L51L
sg1154
Nsg1155
S'name'
p1161
sa(dp1162
g1141
S''
sg1142
L1L
sg1143
Nsg1144
S'BTREE'
p1163
sg1146
S'fielddefs_sortkey_idx'
p1164
sg1148
S'A'
sg1149
S''
sg1150
L1L
sg1151
S'fielddefs'
p1165
sg1153
Nsg1154
Nsg1155
S'sortkey'
p1166
satp1167
sS'whine_events'
p1168
((lp1169
(dp1170
S'Extra'
p1171
S'auto_increment'
p1172
sS'Default'
p1173
NsS'Field'
p1174
S'id'
p1175
sS'Key'
p1176
S'PRI'
p1177
sS'Null'
p1178
S''
sS'Type'
p1179
S'mediumint(9)'
p1180
sa(dp1181
g1171
S''
sg1173
S'0'
sg1174
S'owner_userid'
p1182
sg1176
S''
sg1178
S''
sg1179
S'mediumint(9)'
p1183
sa(dp1184
g1171
S''
sg1173
Nsg1174
S'subject'
p1185
sg1176
S''
sg1178
S'YES'
p1186
sg1179
S'varchar(128)'
p1187
sa(dp1188
g1171
S''
sg1173
Nsg1174
S'body'
p1189
sg1176
S''
sg1178
S'YES'
p1190
sg1179
S'mediumtext'
p1191
sa(lp1192
(dp1193
S'Comment'
p1194
S''
sS'Non_unique'
p1195
L0L
sS'Sub_part'
p1196
NsS'Index_type'
p1197
S'BTREE'
p1198
sS'Key_name'
p1199
S'PRIMARY'
p1200
sS'Collation'
p1201
S'A'
sS'Null'
p1202
S''
sS'Seq_in_index'
p1203
L1L
sS'Table'
p1204
S'whine_events'
p1205
sS'Cardinality'
p1206
L0L
sS'Packed'
p1207
NsS'Column_name'
p1208
S'id'
p1209
satp1210
sS'flaginclusions'
p1211
((lp1212
(dp1213
S'Extra'
p1214
S''
sS'Default'
p1215
S'0'
sS'Field'
p1216
S'type_id'
p1217
sS'Key'
p1218
S'MUL'
p1219
sS'Null'
p1220
S''
sS'Type'
p1221
S'smallint(6)'
p1222
sa(dp1223
g1214
S''
sg1215
Nsg1216
S'product_id'
p1224
sg1218
S''
sg1220
S'YES'
p1225
sg1221
S'smallint(6)'
p1226
sa(dp1227
g1214
S''
sg1215
Nsg1216
S'component_id'
p1228
sg1218
S''
sg1220
S'YES'
p1229
sg1221
S'smallint(6)'
p1230
sa(lp1231
(dp1232
S'Comment'
p1233
S''
sS'Non_unique'
p1234
L1L
sS'Sub_part'
p1235
NsS'Index_type'
p1236
S'BTREE'
p1237
sS'Key_name'
p1238
S'flaginclusions_type_id_idx'
p1239
sS'Collation'
p1240
S'A'
sS'Null'
p1241
S''
sS'Seq_in_index'
p1242
L1L
sS'Table'
p1243
S'flaginclusions'
p1244
sS'Cardinality'
p1245
NsS'Packed'
p1246
NsS'Column_name'
p1247
S'type_id'
p1248
sa(dp1249
g1233
S''
sg1234
L1L
sg1235
Nsg1236
S'BTREE'
p1250
sg1238
S'flaginclusions_type_id_idx'
p1251
sg1240
S'A'
sg1241
S'YES'
p1252
sg1242
L2L
sg1243
S'flaginclusions'
p1253
sg1245
Nsg1246
Nsg1247
S'product_id'
p1254
sa(dp1255
g1233
S''
sg1234
L1L
sg1235
Nsg1236
S'BTREE'
p1256
sg1238
S'flaginclusions_type_id_idx'
p1257
sg1240
S'A'
sg1241
S'YES'
p1258
sg1242
L3L
sg1243
S'flaginclusions'
p1259
sg1245
Nsg1246
Nsg1247
S'component_id'
p1260
satp1261
sS'profiles_activity'
p1262
((lp1263
(dp1264
S'Extra'
p1265
S''
sS'Default'
p1266
S'0'
sS'Field'
p1267
S'userid'
p1268
sS'Key'
p1269
S'MUL'
p1270
sS'Null'
p1271
S''
sS'Type'
p1272
S'mediumint(9)'
p1273
sa(dp1274
g1265
S''
sg1266
S'0'
sg1267
S'who'
p1275
sg1269
S''
sg1271
S''
sg1272
S'mediumint(9)'
p1276
sa(dp1277
g1265
S''
sg1266
S'0000-00-00 00:00:00'
p1278
sg1267
S'profiles_when'
p1279
sg1269
S'MUL'
p1280
sg1271
S''
sg1272
S'datetime'
p1281
sa(dp1282
g1265
S''
sg1266
S'0'
sg1267
S'fieldid'
p1283
sg1269
S'MUL'
p1284
sg1271
S''
sg1272
S'mediumint(9)'
p1285
sa(dp1286
g1265
S''
sg1266
Nsg1267
S'oldvalue'
p1287
sg1269
S''
sg1271
S'YES'
p1288
sg1272
S'tinytext'
p1289
sa(dp1290
g1265
S''
sg1266
Nsg1267
S'newvalue'
p1291
sg1269
S''
sg1271
S'YES'
p1292
sg1272
S'tinytext'
p1293
sa(lp1294
(dp1295
S'Comment'
p1296
S''
sS'Non_unique'
p1297
L1L
sS'Sub_part'
p1298
NsS'Index_type'
p1299
S'BTREE'
p1300
sS'Key_name'
p1301
S'profiles_activity_userid_idx'
p1302
sS'Collation'
p1303
S'A'
sS'Null'
p1304
S''
sS'Seq_in_index'
p1305
L1L
sS'Table'
p1306
S'profiles_activity'
p1307
sS'Cardinality'
p1308
NsS'Packed'
p1309
NsS'Column_name'
p1310
S'userid'
p1311
sa(dp1312
g1296
S''
sg1297
L1L
sg1298
Nsg1299
S'BTREE'
p1313
sg1301
S'profiles_activity_profiles_when_idx'
p1314
sg1303
S'A'
sg1304
S''
sg1305
L1L
sg1306
S'profiles_activity'
p1315
sg1308
Nsg1309
Nsg1310
S'profiles_when'
p1316
sa(dp1317
g1296
S''
sg1297
L1L
sg1298
Nsg1299
S'BTREE'
p1318
sg1301
S'profiles_activity_fieldid_idx'
p1319
sg1303
S'A'
sg1304
S''
sg1305
L1L
sg1306
S'profiles_activity'
p1320
sg1308
Nsg1309
Nsg1310
S'fieldid'
p1321
satp1322
sS'bugs_activity'
p1323
((lp1324
(dp1325
S'Extra'
p1326
S''
sS'Default'
p1327
S'0'
sS'Field'
p1328
S'bug_id'
p1329
sS'Key'
p1330
S'MUL'
p1331
sS'Null'
p1332
S''
sS'Type'
p1333
S'mediumint(9)'
p1334
sa(dp1335
g1326
S''
sg1327
Nsg1328
S'attach_id'
p1336
sg1330
S''
sg1332
S'YES'
p1337
sg1333
S'mediumint(9)'
p1338
sa(dp1339
g1326
S''
sg1327
S'0'
sg1328
S'who'
p1340
sg1330
S'MUL'
p1341
sg1332
S''
sg1333
S'mediumint(9)'
p1342
sa(dp1343
g1326
S''
sg1327
S'0000-00-00 00:00:00'
p1344
sg1328
S'bug_when'
p1345
sg1330
S'MUL'
p1346
sg1332
S''
sg1333
S'datetime'
p1347
sa(dp1348
g1326
S''
sg1327
S'0'
sg1328
S'fieldid'
p1349
sg1330
S'MUL'
p1350
sg1332
S''
sg1333
S'mediumint(9)'
p1351
sa(dp1352
g1326
S''
sg1327
Nsg1328
S'added'
p1353
sg1330
S''
sg1332
S'YES'
p1354
sg1333
S'tinytext'
p1355
sa(dp1356
g1326
S''
sg1327
Nsg1328
S'removed'
p1357
sg1330
S''
sg1332
S'YES'
p1358
sg1333
S'tinytext'
p1359
sa(lp1360
(dp1361
S'Comment'
p1362
S''
sS'Non_unique'
p1363
L1L
sS'Sub_part'
p1364
NsS'Index_type'
p1365
S'BTREE'
p1366
sS'Key_name'
p1367
S'bugs_activity_bug_id_idx'
p1368
sS'Collation'
p1369
S'A'
sS'Null'
p1370
S''
sS'Seq_in_index'
p1371
L1L
sS'Table'
p1372
S'bugs_activity'
p1373
sS'Cardinality'
p1374
NsS'Packed'
p1375
NsS'Column_name'
p1376
S'bug_id'
p1377
sa(dp1378
g1362
S''
sg1363
L1L
sg1364
Nsg1365
S'BTREE'
p1379
sg1367
S'bugs_activity_who_idx'
p1380
sg1369
S'A'
sg1370
S''
sg1371
L1L
sg1372
S'bugs_activity'
p1381
sg1374
Nsg1375
Nsg1376
S'who'
p1382
sa(dp1383
g1362
S''
sg1363
L1L
sg1364
Nsg1365
S'BTREE'
p1384
sg1367
S'bugs_activity_bug_when_idx'
p1385
sg1369
S'A'
sg1370
S''
sg1371
L1L
sg1372
S'bugs_activity'
p1386
sg1374
Nsg1375
Nsg1376
S'bug_when'
p1387
sa(dp1388
g1362
S''
sg1363
L1L
sg1364
Nsg1365
S'BTREE'
p1389
sg1367
S'bugs_activity_fieldid_idx'
p1390
sg1369
S'A'
sg1370
S''
sg1371
L1L
sg1372
S'bugs_activity'
p1391
sg1374
Nsg1375
Nsg1376
S'fieldid'
p1392
satp1393
sS'watch'
p1394
((lp1395
(dp1396
S'Extra'
p1397
S''
sS'Default'
p1398
S'0'
sS'Field'
p1399
S'watcher'
p1400
sS'Key'
p1401
S'PRI'
p1402
sS'Null'
p1403
S''
sS'Type'
p1404
S'mediumint(9)'
p1405
sa(dp1406
g1397
S''
sg1398
S'0'
sg1399
S'watched'
p1407
sg1401
S'PRI'
p1408
sg1403
S''
sg1404
S'mediumint(9)'
p1409
sa(lp1410
(dp1411
S'Comment'
p1412
S''
sS'Non_unique'
p1413
L0L
sS'Sub_part'
p1414
NsS'Index_type'
p1415
S'BTREE'
p1416
sS'Key_name'
p1417
S'watch_watcher_idx'
p1418
sS'Collation'
p1419
S'A'
sS'Null'
p1420
S''
sS'Seq_in_index'
p1421
L1L
sS'Table'
p1422
S'watch'
p1423
sS'Cardinality'
p1424
NsS'Packed'
p1425
NsS'Column_name'
p1426
S'watcher'
p1427
sa(dp1428
g1412
S''
sg1413
L0L
sg1414
Nsg1415
S'BTREE'
p1429
sg1417
S'watch_watcher_idx'
p1430
sg1419
S'A'
sg1420
S''
sg1421
L2L
sg1422
S'watch'
p1431
sg1424
L0L
sg1425
Nsg1426
S'watched'
p1432
sa(dp1433
g1412
S''
sg1413
L1L
sg1414
Nsg1415
S'BTREE'
p1434
sg1417
S'watch_watched_idx'
p1435
sg1419
S'A'
sg1420
S''
sg1421
L1L
sg1422
S'watch'
p1436
sg1424
Nsg1425
Nsg1426
S'watched'
p1437
satp1438
sS'bug_severity'
p1439
((lp1440
(dp1441
S'Extra'
p1442
S'auto_increment'
p1443
sS'Default'
p1444
NsS'Field'
p1445
S'id'
p1446
sS'Key'
p1447
S'PRI'
p1448
sS'Null'
p1449
S''
sS'Type'
p1450
S'smallint(6)'
p1451
sa(dp1452
g1442
S''
sg1444
S''
sg1445
S'value'
p1453
sg1447
S'UNI'
p1454
sg1449
S''
sg1450
S'varchar(64)'
p1455
sa(dp1456
g1442
S''
sg1444
S'0'
sg1445
S'sortkey'
p1457
sg1447
S'MUL'
p1458
sg1449
S''
sg1450
S'smallint(6)'
p1459
sa(dp1460
g1442
S''
sg1444
S'1'
sg1445
S'isactive'
p1461
sg1447
S''
sg1449
S''
sg1450
S'tinyint(4)'
p1462
sa(lp1463
(dp1464
S'Comment'
p1465
S''
sS'Non_unique'
p1466
L0L
sS'Sub_part'
p1467
NsS'Index_type'
p1468
S'BTREE'
p1469
sS'Key_name'
p1470
S'PRIMARY'
p1471
sS'Collation'
p1472
S'A'
sS'Null'
p1473
S''
sS'Seq_in_index'
p1474
L1L
sS'Table'
p1475
S'bug_severity'
p1476
sS'Cardinality'
p1477
L7L
sS'Packed'
p1478
NsS'Column_name'
p1479
S'id'
p1480
sa(dp1481
g1465
S''
sg1466
L0L
sg1467
Nsg1468
S'BTREE'
p1482
sg1470
S'bug_severity_value_idx'
p1483
sg1472
S'A'
sg1473
S''
sg1474
L1L
sg1475
S'bug_severity'
p1484
sg1477
L7L
sg1478
Nsg1479
S'value'
p1485
sa(dp1486
g1465
S''
sg1466
L1L
sg1467
Nsg1468
S'BTREE'
p1487
sg1470
S'bug_severity_sortkey_idx'
p1488
sg1472
S'A'
sg1473
S''
sg1474
L1L
sg1475
S'bug_severity'
p1489
sg1477
Nsg1478
Nsg1479
S'sortkey'
p1490
sa(dp1491
g1465
S''
sg1466
L1L
sg1467
Nsg1468
S'BTREE'
p1492
sg1470
S'bug_severity_sortkey_idx'
p1493
sg1472
S'A'
sg1473
S''
sg1474
L2L
sg1475
S'bug_severity'
p1494
sg1477
Nsg1478
Nsg1479
S'value'
p1495
satp1496
sS'namedqueries'
p1497
((lp1498
(dp1499
S'Extra'
p1500
S''
sS'Default'
p1501
S'0'
sS'Field'
p1502
S'userid'
p1503
sS'Key'
p1504
S'PRI'
p1505
sS'Null'
p1506
S''
sS'Type'
p1507
S'mediumint(9)'
p1508
sa(dp1509
g1500
S''
sg1501
S''
sg1502
S'name'
p1510
sg1504
S'PRI'
p1511
sg1506
S''
sg1507
S'varchar(64)'
p1512
sa(dp1513
g1500
S''
sg1501
S'0'
sg1502
S'linkinfooter'
p1514
sg1504
S''
sg1506
S''
sg1507
S'tinyint(4)'
p1515
sa(dp1516
g1500
S''
sg1501
S''
sg1502
S'query'
p1517
sg1504
S''
sg1506
S''
sg1507
S'mediumtext'
p1518
sa(dp1519
g1500
S''
sg1501
S'0'
sg1502
S'query_type'
p1520
sg1504
S''
sg1506
S''
sg1507
S'tinyint(4)'
p1521
sa(lp1522
(dp1523
S'Comment'
p1524
S''
sS'Non_unique'
p1525
L0L
sS'Sub_part'
p1526
NsS'Index_type'
p1527
S'BTREE'
p1528
sS'Key_name'
p1529
S'namedqueries_userid_idx'
p1530
sS'Collation'
p1531
S'A'
sS'Null'
p1532
S''
sS'Seq_in_index'
p1533
L1L
sS'Table'
p1534
S'namedqueries'
p1535
sS'Cardinality'
p1536
NsS'Packed'
p1537
NsS'Column_name'
p1538
S'userid'
p1539
sa(dp1540
g1524
S''
sg1525
L0L
sg1526
Nsg1527
S'BTREE'
p1541
sg1529
S'namedqueries_userid_idx'
p1542
sg1531
S'A'
sg1532
S''
sg1533
L2L
sg1534
S'namedqueries'
p1543
sg1536
L0L
sg1537
Nsg1538
S'name'
p1544
satp1545
sS'bz_schema'
p1546
((lp1547
(dp1548
S'Extra'
p1549
S''
sS'Default'
p1550
S''
sS'Field'
p1551
S'schema_data'
p1552
sS'Key'
p1553
S''
sS'Null'
p1554
S''
sS'Type'
p1555
S'longblob'
p1556
sa(dp1557
g1549
S''
sg1550
S'0.00'
p1558
sg1551
S'version'
p1559
sg1553
S''
sg1554
S''
sg1555
S'decimal(3,2)'
p1560
sa(ltp1561
sS'tokens'
p1562
((lp1563
(dp1564
S'Extra'
p1565
S''
sS'Default'
p1566
S'0'
sS'Field'
p1567
S'userid'
p1568
sS'Key'
p1569
S'MUL'
p1570
sS'Null'
p1571
S''
sS'Type'
p1572
S'mediumint(9)'
p1573
sa(dp1574
g1565
S''
sg1566
S'0000-00-00 00:00:00'
p1575
sg1567
S'issuedate'
p1576
sg1569
S''
sg1571
S''
sg1572
S'datetime'
p1577
sa(dp1578
g1565
S''
sg1566
S''
sg1567
S'token'
p1579
sg1569
S'PRI'
p1580
sg1571
S''
sg1572
S'varchar(16)'
p1581
sa(dp1582
g1565
S''
sg1566
S''
sg1567
S'tokentype'
p1583
sg1569
S''
sg1571
S''
sg1572
S'varchar(8)'
p1584
sa(dp1585
g1565
S''
sg1566
Nsg1567
S'eventdata'
p1586
sg1569
S''
sg1571
S'YES'
p1587
sg1572
S'tinytext'
p1588
sa(lp1589
(dp1590
S'Comment'
p1591
S''
sS'Non_unique'
p1592
L0L
sS'Sub_part'
p1593
NsS'Index_type'
p1594
S'BTREE'
p1595
sS'Key_name'
p1596
S'PRIMARY'
p1597
sS'Collation'
p1598
S'A'
sS'Null'
p1599
S''
sS'Seq_in_index'
p1600
L1L
sS'Table'
p1601
S'tokens'
p1602
sS'Cardinality'
p1603
L0L
sS'Packed'
p1604
NsS'Column_name'
p1605
S'token'
p1606
sa(dp1607
g1591
S''
sg1592
L1L
sg1593
Nsg1594
S'BTREE'
p1608
sg1596
S'tokens_userid_idx'
p1609
sg1598
S'A'
sg1599
S''
sg1600
L1L
sg1601
S'tokens'
p1610
sg1603
Nsg1604
Nsg1605
S'userid'
p1611
satp1612
sS'whine_schedules'
p1613
((lp1614
(dp1615
S'Extra'
p1616
S'auto_increment'
p1617
sS'Default'
p1618
NsS'Field'
p1619
S'id'
p1620
sS'Key'
p1621
S'PRI'
p1622
sS'Null'
p1623
S''
sS'Type'
p1624
S'mediumint(9)'
p1625
sa(dp1626
g1616
S''
sg1618
S'0'
sg1619
S'eventid'
p1627
sg1621
S'MUL'
p1628
sg1623
S''
sg1624
S'mediumint(9)'
p1629
sa(dp1630
g1616
S''
sg1618
Nsg1619
S'run_day'
p1631
sg1621
S''
sg1623
S'YES'
p1632
sg1624
S'varchar(32)'
p1633
sa(dp1634
g1616
S''
sg1618
Nsg1619
S'run_time'
p1635
sg1621
S''
sg1623
S'YES'
p1636
sg1624
S'varchar(32)'
p1637
sa(dp1638
g1616
S''
sg1618
Nsg1619
S'run_next'
p1639
sg1621
S'MUL'
p1640
sg1623
S'YES'
p1641
sg1624
S'datetime'
p1642
sa(dp1643
g1616
S''
sg1618
S'0'
sg1619
S'mailto'
p1644
sg1621
S''
sg1623
S''
sg1624
S'mediumint(9)'
p1645
sa(dp1646
g1616
S''
sg1618
S'0'
sg1619
S'mailto_type'
p1647
sg1621
S''
sg1623
S''
sg1624
S'smallint(6)'
p1648
sa(lp1649
(dp1650
S'Comment'
p1651
S''
sS'Non_unique'
p1652
L0L
sS'Sub_part'
p1653
NsS'Index_type'
p1654
S'BTREE'
p1655
sS'Key_name'
p1656
S'PRIMARY'
p1657
sS'Collation'
p1658
S'A'
sS'Null'
p1659
S''
sS'Seq_in_index'
p1660
L1L
sS'Table'
p1661
S'whine_schedules'
p1662
sS'Cardinality'
p1663
L0L
sS'Packed'
p1664
NsS'Column_name'
p1665
S'id'
p1666
sa(dp1667
g1651
S''
sg1652
L1L
sg1653
Nsg1654
S'BTREE'
p1668
sg1656
S'whine_schedules_run_next_idx'
p1669
sg1658
S'A'
sg1659
S'YES'
p1670
sg1660
L1L
sg1661
S'whine_schedules'
p1671
sg1663
Nsg1664
Nsg1665
S'run_next'
p1672
sa(dp1673
g1651
S''
sg1652
L1L
sg1653
Nsg1654
S'BTREE'
p1674
sg1656
S'whine_schedules_eventid_idx'
p1675
sg1658
S'A'
sg1659
S''
sg1660
L1L
sg1661
S'whine_schedules'
p1676
sg1663
Nsg1664
Nsg1665
S'eventid'
p1677
satp1678
sS'dependencies'
p1679
((lp1680
(dp1681
S'Extra'
p1682
S''
sS'Default'
p1683
S'0'
sS'Field'
p1684
S'blocked'
p1685
sS'Key'
p1686
S'MUL'
p1687
sS'Null'
p1688
S''
sS'Type'
p1689
S'mediumint(9)'
p1690
sa(dp1691
g1682
S''
sg1683
S'0'
sg1684
S'dependson'
p1692
sg1686
S'MUL'
p1693
sg1688
S''
sg1689
S'mediumint(9)'
p1694
sa(lp1695
(dp1696
S'Comment'
p1697
S''
sS'Non_unique'
p1698
L1L
sS'Sub_part'
p1699
NsS'Index_type'
p1700
S'BTREE'
p1701
sS'Key_name'
p1702
S'dependencies_blocked_idx'
p1703
sS'Collation'
p1704
S'A'
sS'Null'
p1705
S''
sS'Seq_in_index'
p1706
L1L
sS'Table'
p1707
S'dependencies'
p1708
sS'Cardinality'
p1709
NsS'Packed'
p1710
NsS'Column_name'
p1711
S'blocked'
p1712
sa(dp1713
g1697
S''
sg1698
L1L
sg1699
Nsg1700
S'BTREE'
p1714
sg1702
S'dependencies_dependson_idx'
p1715
sg1704
S'A'
sg1705
S''
sg1706
L1L
sg1707
S'dependencies'
p1716
sg1709
Nsg1710
Nsg1711
S'dependson'
p1717
satp1718
sS'category_group_map'
p1719
((lp1720
(dp1721
S'Extra'
p1722
S''
sS'Default'
p1723
S'0'
sS'Field'
p1724
S'category_id'
p1725
sS'Key'
p1726
S'PRI'
p1727
sS'Null'
p1728
S''
sS'Type'
p1729
S'smallint(6)'
p1730
sa(dp1731
g1722
S''
sg1723
S'0'
sg1724
S'group_id'
p1732
sg1726
S'PRI'
p1733
sg1728
S''
sg1729
S'mediumint(9)'
p1734
sa(lp1735
(dp1736
S'Comment'
p1737
S''
sS'Non_unique'
p1738
L0L
sS'Sub_part'
p1739
NsS'Index_type'
p1740
S'BTREE'
p1741
sS'Key_name'
p1742
S'category_group_map_category_id_idx'
p1743
sS'Collation'
p1744
S'A'
sS'Null'
p1745
S''
sS'Seq_in_index'
p1746
L1L
sS'Table'
p1747
S'category_group_map'
p1748
sS'Cardinality'
p1749
NsS'Packed'
p1750
NsS'Column_name'
p1751
S'category_id'
p1752
sa(dp1753
g1737
S''
sg1738
L0L
sg1739
Nsg1740
S'BTREE'
p1754
sg1742
S'category_group_map_category_id_idx'
p1755
sg1744
S'A'
sg1745
S''
sg1746
L2L
sg1747
S'category_group_map'
p1756
sg1749
L0L
sg1750
Nsg1751
S'group_id'
p1757
satp1758
sS'groups'
p1759
((lp1760
(dp1761
S'Extra'
p1762
S'auto_increment'
p1763
sS'Default'
p1764
NsS'Field'
p1765
S'id'
p1766
sS'Key'
p1767
S'PRI'
p1768
sS'Null'
p1769
S''
sS'Type'
p1770
S'mediumint(9)'
p1771
sa(dp1772
g1762
S''
sg1764
S''
sg1765
S'name'
p1773
sg1767
S'UNI'
p1774
sg1769
S''
sg1770
S'varchar(255)'
p1775
sa(dp1776
g1762
S''
sg1764
S''
sg1765
S'description'
p1777
sg1767
S''
sg1769
S''
sg1770
S'text'
p1778
sa(dp1779
g1762
S''
sg1764
S'0'
sg1765
S'isbuggroup'
p1780
sg1767
S''
sg1769
S''
sg1770
S'tinyint(4)'
p1781
sa(dp1782
g1762
S''
sg1764
S'0000-00-00 00:00:00'
p1783
sg1765
S'last_changed'
p1784
sg1767
S''
sg1769
S''
sg1770
S'datetime'
p1785
sa(dp1786
g1762
S''
sg1764
S''
sg1765
S'userregexp'
p1787
sg1767
S''
sg1769
S''
sg1770
S'tinytext'
p1788
sa(dp1789
g1762
S''
sg1764
S'1'
sg1765
S'isactive'
p1790
sg1767
S''
sg1769
S''
sg1770
S'tinyint(4)'
p1791
sa(lp1792
(dp1793
S'Comment'
p1794
S''
sS'Non_unique'
p1795
L0L
sS'Sub_part'
p1796
NsS'Index_type'
p1797
S'BTREE'
p1798
sS'Key_name'
p1799
S'PRIMARY'
p1800
sS'Collation'
p1801
S'A'
sS'Null'
p1802
S''
sS'Seq_in_index'
p1803
L1L
sS'Table'
p1804
S'groups'
p1805
sS'Cardinality'
p1806
L13L
sS'Packed'
p1807
NsS'Column_name'
p1808
S'id'
p1809
sa(dp1810
g1794
S''
sg1795
L0L
sg1796
Nsg1797
S'BTREE'
p1811
sg1799
S'groups_name_idx'
p1812
sg1801
S'A'
sg1802
S''
sg1803
L1L
sg1804
S'groups'
p1813
sg1806
L13L
sg1807
Nsg1808
S'name'
p1814
satp1815
sS'milestones'
p1816
((lp1817
(dp1818
S'Extra'
p1819
S''
sS'Default'
p1820
S'0'
sS'Field'
p1821
S'product_id'
p1822
sS'Key'
p1823
S'PRI'
p1824
sS'Null'
p1825
S''
sS'Type'
p1826
S'smallint(6)'
p1827
sa(dp1828
g1819
S''
sg1820
S''
sg1821
S'value'
p1829
sg1823
S'PRI'
p1830
sg1825
S''
sg1826
S'varchar(20)'
p1831
sa(dp1832
g1819
S''
sg1820
S'0'
sg1821
S'sortkey'
p1833
sg1823
S''
sg1825
S''
sg1826
S'smallint(6)'
p1834
sa(lp1835
(dp1836
S'Comment'
p1837
S''
sS'Non_unique'
p1838
L0L
sS'Sub_part'
p1839
NsS'Index_type'
p1840
S'BTREE'
p1841
sS'Key_name'
p1842
S'milestones_product_id_idx'
p1843
sS'Collation'
p1844
S'A'
sS'Null'
p1845
S''
sS'Seq_in_index'
p1846
L1L
sS'Table'
p1847
S'milestones'
p1848
sS'Cardinality'
p1849
NsS'Packed'
p1850
NsS'Column_name'
p1851
S'product_id'
p1852
sa(dp1853
g1837
S''
sg1838
L0L
sg1839
Nsg1840
S'BTREE'
p1854
sg1842
S'milestones_product_id_idx'
p1855
sg1844
S'A'
sg1845
S''
sg1846
L2L
sg1847
S'milestones'
p1856
sg1849
L1L
sg1850
Nsg1851
S'value'
p1857
satp1858
sS'classifications'
p1859
((lp1860
(dp1861
S'Extra'
p1862
S'auto_increment'
p1863
sS'Default'
p1864
NsS'Field'
p1865
S'id'
p1866
sS'Key'
p1867
S'PRI'
p1868
sS'Null'
p1869
S''
sS'Type'
p1870
S'smallint(6)'
p1871
sa(dp1872
g1862
S''
sg1864
S''
sg1865
S'name'
p1873
sg1867
S'UNI'
p1874
sg1869
S''
sg1870
S'varchar(64)'
p1875
sa(dp1876
g1862
S''
sg1864
Nsg1865
S'description'
p1877
sg1867
S''
sg1869
S'YES'
p1878
sg1870
S'mediumtext'
p1879
sa(lp1880
(dp1881
S'Comment'
p1882
S''
sS'Non_unique'
p1883
L0L
sS'Sub_part'
p1884
NsS'Index_type'
p1885
S'BTREE'
p1886
sS'Key_name'
p1887
S'PRIMARY'
p1888
sS'Collation'
p1889
S'A'
sS'Null'
p1890
S''
sS'Seq_in_index'
p1891
L1L
sS'Table'
p1892
S'classifications'
p1893
sS'Cardinality'
p1894
L1L
sS'Packed'
p1895
NsS'Column_name'
p1896
S'id'
p1897
sa(dp1898
g1882
S''
sg1883
L0L
sg1884
Nsg1885
S'BTREE'
p1899
sg1887
S'classifications_name_idx'
p1900
sg1889
S'A'
sg1890
S''
sg1891
L1L
sg1892
S'classifications'
p1901
sg1894
L1L
sg1895
Nsg1896
S'name'
p1902
satp1903
sS'longdescs'
p1904
((lp1905
(dp1906
S'Extra'
p1907
S'auto_increment'
p1908
sS'Default'
p1909
NsS'Field'
p1910
S'comment_id'
p1911
sS'Key'
p1912
S'PRI'
p1913
sS'Null'
p1914
S''
sS'Type'
p1915
S'mediumint(9)'
p1916
sa(dp1917
g1907
S''
sg1909
S'0'
sg1910
S'bug_id'
p1918
sg1912
S'MUL'
p1919
sg1914
S''
sg1915
S'mediumint(9)'
p1920
sa(dp1921
g1907
S''
sg1909
S'0'
sg1910
S'who'
p1922
sg1912
S'MUL'
p1923
sg1914
S''
sg1915
S'mediumint(9)'
p1924
sa(dp1925
g1907
S''
sg1909
S'0000-00-00 00:00:00'
p1926
sg1910
S'bug_when'
p1927
sg1912
S'MUL'
p1928
sg1914
S''
sg1915
S'datetime'
p1929
sa(dp1930
g1907
S''
sg1909
S'0.00'
p1931
sg1910
S'work_time'
p1932
sg1912
S''
sg1914
S''
sg1915
S'decimal(5,2)'
p1933
sa(dp1934
g1907
S''
sg1909
Nsg1910
S'thetext'
p1935
sg1912
S'MUL'
p1936
sg1914
S'YES'
p1937
sg1915
S'mediumtext'
p1938
sa(dp1939
g1907
S''
sg1909
S'0'
sg1910
S'isprivate'
p1940
sg1912
S''
sg1914
S''
sg1915
S'tinyint(4)'
p1941
sa(dp1942
g1907
S''
sg1909
S'0'
sg1910
S'already_wrapped'
p1943
sg1912
S''
sg1914
S''
sg1915
S'tinyint(4)'
p1944
sa(lp1945
(dp1946
S'Comment'
p1947
S''
sS'Non_unique'
p1948
L0L
sS'Sub_part'
p1949
NsS'Index_type'
p1950
S'BTREE'
p1951
sS'Key_name'
p1952
S'PRIMARY'
p1953
sS'Collation'
p1954
S'A'
sS'Null'
p1955
S''
sS'Seq_in_index'
p1956
L1L
sS'Table'
p1957
S'longdescs'
p1958
sS'Cardinality'
p1959
L0L
sS'Packed'
p1960
NsS'Column_name'
p1961
S'comment_id'
p1962
sa(dp1963
g1947
S''
sg1948
L1L
sg1949
Nsg1950
S'BTREE'
p1964
sg1952
S'longdescs_bug_id_idx'
p1965
sg1954
S'A'
sg1955
S''
sg1956
L1L
sg1957
S'longdescs'
p1966
sg1959
Nsg1960
Nsg1961
S'bug_id'
p1967
sa(dp1968
g1947
S''
sg1948
L1L
sg1949
Nsg1950
S'BTREE'
p1969
sg1952
S'longdescs_who_idx'
p1970
sg1954
S'A'
sg1955
S''
sg1956
L1L
sg1957
S'longdescs'
p1971
sg1959
Nsg1960
Nsg1961
S'who'
p1972
sa(dp1973
g1947
S''
sg1948
L1L
sg1949
Nsg1950
S'BTREE'
p1974
sg1952
S'longdescs_bug_when_idx'
p1975
sg1954
S'A'
sg1955
S''
sg1956
L1L
sg1957
S'longdescs'
p1976
sg1959
Nsg1960
Nsg1961
S'bug_when'
p1977
sa(dp1978
g1947
S''
sg1948
L1L
sg1949
Nsg1950
S'FULLTEXT'
p1979
sg1952
S'longdescs_thetext_idx'
p1980
sg1954
S'A'
sg1955
S'YES'
p1981
sg1956
L1L
sg1957
S'longdescs'
p1982
sg1959
Nsg1960
Nsg1961
S'thetext'
p1983
satp1984
sS'versions'
p1985
((lp1986
(dp1987
S'Extra'
p1988
S''
sS'Default'
p1989
S''
sS'Field'
p1990
S'value'
p1991
sS'Key'
p1992
S'PRI'
p1993
sS'Null'
p1994
S''
sS'Type'
p1995
S'varchar(64)'
p1996
sa(dp1997
g1988
S''
sg1989
S'0'
sg1990
S'product_id'
p1998
sg1992
S'PRI'
p1999
sg1994
S''
sg1995
S'smallint(6)'
p2000
sa(lp2001
(dp2002
S'Comment'
p2003
S''
sS'Non_unique'
p2004
L0L
sS'Sub_part'
p2005
NsS'Index_type'
p2006
S'BTREE'
p2007
sS'Key_name'
p2008
S'versions_product_id_idx'
p2009
sS'Collation'
p2010
S'A'
sS'Null'
p2011
S''
sS'Seq_in_index'
p2012
L1L
sS'Table'
p2013
S'versions'
p2014
sS'Cardinality'
p2015
NsS'Packed'
p2016
NsS'Column_name'
p2017
S'product_id'
p2018
sa(dp2019
g2003
S''
sg2004
L0L
sg2005
Nsg2006
S'BTREE'
p2020
sg2008
S'versions_product_id_idx'
p2021
sg2010
S'A'
sg2011
S''
sg2012
L2L
sg2013
S'versions'
p2022
sg2015
L1L
sg2016
Nsg2017
S'value'
p2023
satp2024
sS'flagtypes'
p2025
((lp2026
(dp2027
S'Extra'
p2028
S''
sS'Default'
p2029
S'0'
sS'Field'
p2030
S'id'
p2031
sS'Key'
p2032
S'PRI'
p2033
sS'Null'
p2034
S''
sS'Type'
p2035
S'smallint(6)'
p2036
sa(dp2037
g2028
S''
sg2029
S''
sg2030
S'name'
p2038
sg2032
S''
sg2034
S''
sg2035
S'varchar(50)'
p2039
sa(dp2040
g2028
S''
sg2029
Nsg2030
S'description'
p2041
sg2032
S''
sg2034
S'YES'
p2042
sg2035
S'text'
p2043
sa(dp2044
g2028
S''
sg2029
Nsg2030
S'cc_list'
p2045
sg2032
S''
sg2034
S'YES'
p2046
sg2035
S'varchar(200)'
p2047
sa(dp2048
g2028
S''
sg2029
S'b'
sg2030
S'target_type'
p2049
sg2032
S''
sg2034
S''
sg2035
S'char(1)'
p2050
sa(dp2051
g2028
S''
sg2029
S'1'
sg2030
S'is_active'
p2052
sg2032
S''
sg2034
S''
sg2035
S'tinyint(4)'
p2053
sa(dp2054
g2028
S''
sg2029
S'0'
sg2030
S'is_requestable'
p2055
sg2032
S''
sg2034
S''
sg2035
S'tinyint(4)'
p2056
sa(dp2057
g2028
S''
sg2029
S'0'
sg2030
S'is_requesteeble'
p2058
sg2032
S''
sg2034
S''
sg2035
S'tinyint(4)'
p2059
sa(dp2060
g2028
S''
sg2029
S'0'
sg2030
S'is_multiplicable'
p2061
sg2032
S''
sg2034
S''
sg2035
S'tinyint(4)'
p2062
sa(dp2063
g2028
S''
sg2029
S'0'
sg2030
S'sortkey'
p2064
sg2032
S''
sg2034
S''
sg2035
S'smallint(6)'
p2065
sa(dp2066
g2028
S''
sg2029
Nsg2030
S'grant_group_id'
p2067
sg2032
S''
sg2034
S'YES'
p2068
sg2035
S'mediumint(9)'
p2069
sa(dp2070
g2028
S''
sg2029
Nsg2030
S'request_group_id'
p2071
sg2032
S''
sg2034
S'YES'
p2072
sg2035
S'mediumint(9)'
p2073
sa(lp2074
(dp2075
S'Comment'
p2076
S''
sS'Non_unique'
p2077
L0L
sS'Sub_part'
p2078
NsS'Index_type'
p2079
S'BTREE'
p2080
sS'Key_name'
p2081
S'PRIMARY'
p2082
sS'Collation'
p2083
S'A'
sS'Null'
p2084
S''
sS'Seq_in_index'
p2085
L1L
sS'Table'
p2086
S'flagtypes'
p2087
sS'Cardinality'
p2088
L0L
sS'Packed'
p2089
NsS'Column_name'
p2090
S'id'
p2091
satp2092
sS'user_group_map'
p2093
((lp2094
(dp2095
S'Extra'
p2096
S''
sS'Default'
p2097
S'0'
sS'Field'
p2098
S'user_id'
p2099
sS'Key'
p2100
S'PRI'
p2101
sS'Null'
p2102
S''
sS'Type'
p2103
S'mediumint(9)'
p2104
sa(dp2105
g2096
S''
sg2097
S'0'
sg2098
S'group_id'
p2106
sg2100
S'PRI'
p2107
sg2102
S''
sg2103
S'mediumint(9)'
p2108
sa(dp2109
g2096
S''
sg2097
S'0'
sg2098
S'isbless'
p2110
sg2100
S'PRI'
p2111
sg2102
S''
sg2103
S'tinyint(4)'
p2112
sa(dp2113
g2096
S''
sg2097
S'0'
sg2098
S'grant_type'
p2114
sg2100
S'PRI'
p2115
sg2102
S''
sg2103
S'tinyint(4)'
p2116
sa(lp2117
(dp2118
S'Comment'
p2119
S''
sS'Non_unique'
p2120
L0L
sS'Sub_part'
p2121
NsS'Index_type'
p2122
S'BTREE'
p2123
sS'Key_name'
p2124
S'user_group_map_user_id_idx'
p2125
sS'Collation'
p2126
S'A'
sS'Null'
p2127
S''
sS'Seq_in_index'
p2128
L1L
sS'Table'
p2129
S'user_group_map'
p2130
sS'Cardinality'
p2131
NsS'Packed'
p2132
NsS'Column_name'
p2133
S'user_id'
p2134
sa(dp2135
g2119
S''
sg2120
L0L
sg2121
Nsg2122
S'BTREE'
p2136
sg2124
S'user_group_map_user_id_idx'
p2137
sg2126
S'A'
sg2127
S''
sg2128
L2L
sg2129
S'user_group_map'
p2138
sg2131
Nsg2132
Nsg2133
S'group_id'
p2139
sa(dp2140
g2119
S''
sg2120
L0L
sg2121
Nsg2122
S'BTREE'
p2141
sg2124
S'user_group_map_user_id_idx'
p2142
sg2126
S'A'
sg2127
S''
sg2128
L3L
sg2129
S'user_group_map'
p2143
sg2131
Nsg2132
Nsg2133
S'grant_type'
p2144
sa(dp2145
g2119
S''
sg2120
L0L
sg2121
Nsg2122
S'BTREE'
p2146
sg2124
S'user_group_map_user_id_idx'
p2147
sg2126
S'A'
sg2127
S''
sg2128
L4L
sg2129
S'user_group_map'
p2148
sg2131
L4L
sg2132
Nsg2133
S'isbless'
p2149
satp2150
sS'bugs'
p2151
((lp2152
(dp2153
S'Extra'
p2154
S'auto_increment'
p2155
sS'Default'
p2156
NsS'Field'
p2157
S'bug_id'
p2158
sS'Key'
p2159
S'PRI'
p2160
sS'Null'
p2161
S''
sS'Type'
p2162
S'mediumint(9)'
p2163
sa(dp2164
g2154
S''
sg2156
S'0'
sg2157
S'assigned_to'
p2165
sg2159
S'MUL'
p2166
sg2161
S''
sg2162
S'mediumint(9)'
p2167
sa(dp2168
g2154
S''
sg2156
Nsg2157
S'bug_file_loc'
p2169
sg2159
S''
sg2161
S'YES'
p2170
sg2162
S'text'
p2171
sa(dp2172
g2154
S''
sg2156
S''
sg2157
S'bug_severity'
p2173
sg2159
S'MUL'
p2174
sg2161
S''
sg2162
S'varchar(64)'
p2175
sa(dp2176
g2154
S''
sg2156
S''
sg2157
S'bug_status'
p2177
sg2159
S'MUL'
p2178
sg2161
S''
sg2162
S'varchar(64)'
p2179
sa(dp2180
g2154
S''
sg2156
Nsg2157
S'creation_ts'
p2181
sg2159
S'MUL'
p2182
sg2161
S'YES'
p2183
sg2162
S'datetime'
p2184
sa(dp2185
g2154
S''
sg2156
S'0000-00-00 00:00:00'
p2186
sg2157
S'delta_ts'
p2187
sg2159
S'MUL'
p2188
sg2161
S''
sg2162
S'datetime'
p2189
sa(dp2190
g2154
S''
sg2156
S''
sg2157
S'short_desc'
p2191
sg2159
S'MUL'
p2192
sg2161
S''
sg2162
S'mediumtext'
p2193
sa(dp2194
g2154
S''
sg2156
S''
sg2157
S'op_sys'
p2195
sg2159
S'MUL'
p2196
sg2161
S''
sg2162
S'varchar(64)'
p2197
sa(dp2198
g2154
S''
sg2156
S''
sg2157
S'priority'
p2199
sg2159
S'MUL'
p2200
sg2161
S''
sg2162
S'varchar(64)'
p2201
sa(dp2202
g2154
S''
sg2156
S'0'
sg2157
S'product_id'
p2203
sg2159
S'MUL'
p2204
sg2161
S''
sg2162
S'smallint(6)'
p2205
sa(dp2206
g2154
S''
sg2156
S''
sg2157
S'rep_platform'
p2207
sg2159
S''
sg2161
S''
sg2162
S'varchar(64)'
p2208
sa(dp2209
g2154
S''
sg2156
S'0'
sg2157
S'reporter'
p2210
sg2159
S'MUL'
p2211
sg2161
S''
sg2162
S'mediumint(9)'
p2212
sa(dp2213
g2154
S''
sg2156
S''
sg2157
S'version'
p2214
sg2159
S'MUL'
p2215
sg2161
S''
sg2162
S'varchar(64)'
p2216
sa(dp2217
g2154
S''
sg2156
S'0'
sg2157
S'component_id'
p2218
sg2159
S'MUL'
p2219
sg2161
S''
sg2162
S'smallint(6)'
p2220
sa(dp2221
g2154
S''
sg2156
S''
sg2157
S'resolution'
p2222
sg2159
S'MUL'
p2223
sg2161
S''
sg2162
S'varchar(64)'
p2224
sa(dp2225
g2154
S''
sg2156
S'---'
p2226
sg2157
S'target_milestone'
p2227
sg2159
S'MUL'
p2228
sg2161
S''
sg2162
S'varchar(20)'
p2229
sa(dp2230
g2154
S''
sg2156
Nsg2157
S'qa_contact'
p2231
sg2159
S'MUL'
p2232
sg2161
S'YES'
p2233
sg2162
S'mediumint(9)'
p2234
sa(dp2235
g2154
S''
sg2156
S''
sg2157
S'status_whiteboard'
p2236
sg2159
S''
sg2161
S''
sg2162
S'mediumtext'
p2237
sa(dp2238
g2154
S''
sg2156
S'0'
sg2157
S'votes'
p2239
sg2159
S'MUL'
p2240
sg2161
S''
sg2162
S'mediumint(9)'
p2241
sa(dp2242
g2154
S''
sg2156
S''
sg2157
S'keywords'
p2243
sg2159
S''
sg2161
S''
sg2162
S'mediumtext'
p2244
sa(dp2245
g2154
S''
sg2156
Nsg2157
S'lastdiffed'
p2246
sg2159
S''
sg2161
S'YES'
p2247
sg2162
S'datetime'
p2248
sa(dp2249
g2154
S''
sg2156
S'0'
sg2157
S'everconfirmed'
p2250
sg2159
S''
sg2161
S''
sg2162
S'tinyint(4)'
p2251
sa(dp2252
g2154
S''
sg2156
S'1'
sg2157
S'reporter_accessible'
p2253
sg2159
S''
sg2161
S''
sg2162
S'tinyint(4)'
p2254
sa(dp2255
g2154
S''
sg2156
S'1'
sg2157
S'cclist_accessible'
p2256
sg2159
S''
sg2161
S''
sg2162
S'tinyint(4)'
p2257
sa(dp2258
g2154
S''
sg2156
S'0.00'
p2259
sg2157
S'estimated_time'
p2260
sg2159
S''
sg2161
S''
sg2162
S'decimal(5,2)'
p2261
sa(dp2262
g2154
S''
sg2156
S'0.00'
p2263
sg2157
S'remaining_time'
p2264
sg2159
S''
sg2161
S''
sg2162
S'decimal(5,2)'
p2265
sa(dp2266
g2154
S''
sg2156
Nsg2157
S'deadline'
p2267
sg2159
S''
sg2161
S'YES'
p2268
sg2162
S'datetime'
p2269
sa(dp2270
g2154
S''
sg2156
Nsg2157
S'alias'
p2271
sg2159
S'MUL'
p2272
sg2161
S'YES'
p2273
sg2162
S'varchar(20)'
p2274
sa(lp2275
(dp2276
S'Comment'
p2277
S''
sS'Non_unique'
p2278
L0L
sS'Sub_part'
p2279
NsS'Index_type'
p2280
S'BTREE'
p2281
sS'Key_name'
p2282
S'PRIMARY'
p2283
sS'Collation'
p2284
S'A'
sS'Null'
p2285
S''
sS'Seq_in_index'
p2286
L1L
sS'Table'
p2287
S'bugs'
p2288
sS'Cardinality'
p2289
L0L
sS'Packed'
p2290
NsS'Column_name'
p2291
S'bug_id'
p2292
sa(dp2293
g2277
S''
sg2278
L0L
sg2279
Nsg2280
S'BTREE'
p2294
sg2282
S'bugs_alias_idx'
p2295
sg2284
S'A'
sg2285
S'YES'
p2296
sg2286
L1L
sg2287
S'bugs'
p2297
sg2289
Nsg2290
Nsg2291
S'alias'
p2298
sa(dp2299
g2277
S''
sg2278
L1L
sg2279
Nsg2280
S'BTREE'
p2300
sg2282
S'bugs_assigned_to_idx'
p2301
sg2284
S'A'
sg2285
S''
sg2286
L1L
sg2287
S'bugs'
p2302
sg2289
Nsg2290
Nsg2291
S'assigned_to'
p2303
sa(dp2304
g2277
S''
sg2278
L1L
sg2279
Nsg2280
S'BTREE'
p2305
sg2282
S'bugs_creation_ts_idx'
p2306
sg2284
S'A'
sg2285
S'YES'
p2307
sg2286
L1L
sg2287
S'bugs'
p2308
sg2289
Nsg2290
Nsg2291
S'creation_ts'
p2309
sa(dp2310
g2277
S''
sg2278
L1L
sg2279
Nsg2280
S'BTREE'
p2311
sg2282
S'bugs_delta_ts_idx'
p2312
sg2284
S'A'
sg2285
S''
sg2286
L1L
sg2287
S'bugs'
p2313
sg2289
Nsg2290
Nsg2291
S'delta_ts'
p2314
sa(dp2315
g2277
S''
sg2278
L1L
sg2279
Nsg2280
S'BTREE'
p2316
sg2282
S'bugs_bug_severity_idx'
p2317
sg2284
S'A'
sg2285
S''
sg2286
L1L
sg2287
S'bugs'
p2318
sg2289
Nsg2290
Nsg2291
S'bug_severity'
p2319
sa(dp2320
g2277
S''
sg2278
L1L
sg2279
Nsg2280
S'BTREE'
p2321
sg2282
S'bugs_bug_status_idx'
p2322
sg2284
S'A'
sg2285
S''
sg2286
L1L
sg2287
S'bugs'
p2323
sg2289
Nsg2290
Nsg2291
S'bug_status'
p2324
sa(dp2325
g2277
S''
sg2278
L1L
sg2279
Nsg2280
S'BTREE'
p2326
sg2282
S'bugs_op_sys_idx'
p2327
sg2284
S'A'
sg2285
S''
sg2286
L1L
sg2287
S'bugs'
p2328
sg2289
Nsg2290
Nsg2291
S'op_sys'
p2329
sa(dp2330
g2277
S''
sg2278
L1L
sg2279
Nsg2280
S'BTREE'
p2331
sg2282
S'bugs_priority_idx'
p2332
sg2284
S'A'
sg2285
S''
sg2286
L1L
sg2287
S'bugs'
p2333
sg2289
Nsg2290
Nsg2291
S'priority'
p2334
sa(dp2335
g2277
S''
sg2278
L1L
sg2279
Nsg2280
S'BTREE'
p2336
sg2282
S'bugs_product_id_idx'
p2337
sg2284
S'A'
sg2285
S''
sg2286
L1L
sg2287
S'bugs'
p2338
sg2289
Nsg2290
Nsg2291
S'product_id'
p2339
sa(dp2340
g2277
S''
sg2278
L1L
sg2279
Nsg2280
S'BTREE'
p2341
sg2282
S'bugs_reporter_idx'
p2342
sg2284
S'A'
sg2285
S''
sg2286
L1L
sg2287
S'bugs'
p2343
sg2289
Nsg2290
Nsg2291
S'reporter'
p2344
sa(dp2345
g2277
S''
sg2278
L1L
sg2279
Nsg2280
S'BTREE'
p2346
sg2282
S'bugs_version_idx'
p2347
sg2284
S'A'
sg2285
S''
sg2286
L1L
sg2287
S'bugs'
p2348
sg2289
Nsg2290
Nsg2291
S'version'
p2349
sa(dp2350
g2277
S''
sg2278
L1L
sg2279
Nsg2280
S'BTREE'
p2351
sg2282
S'bugs_component_id_idx'
p2352
sg2284
S'A'
sg2285
S''
sg2286
L1L
sg2287
S'bugs'
p2353
sg2289
Nsg2290
Nsg2291
S'component_id'
p2354
sa(dp2355
g2277
S''
sg2278
L1L
sg2279
Nsg2280
S'BTREE'
p2356
sg2282
S'bugs_resolution_idx'
p2357
sg2284
S'A'
sg2285
S''
sg2286
L1L
sg2287
S'bugs'
p2358
sg2289
Nsg2290
Nsg2291
S'resolution'
p2359
sa(dp2360
g2277
S''
sg2278
L1L
sg2279
Nsg2280
S'BTREE'
p2361
sg2282
S'bugs_target_milestone_idx'
p2362
sg2284
S'A'
sg2285
S''
sg2286
L1L
sg2287
S'bugs'
p2363
sg2289
Nsg2290
Nsg2291
S'target_milestone'
p2364
sa(dp2365
g2277
S''
sg2278
L1L
sg2279
Nsg2280
S'BTREE'
p2366
sg2282
S'bugs_qa_contact_idx'
p2367
sg2284
S'A'
sg2285
S'YES'
p2368
sg2286
L1L
sg2287
S'bugs'
p2369
sg2289
Nsg2290
Nsg2291
S'qa_contact'
p2370
sa(dp2371
g2277
S''
sg2278
L1L
sg2279
Nsg2280
S'BTREE'
p2372
sg2282
S'bugs_votes_idx'
p2373
sg2284
S'A'
sg2285
S''
sg2286
L1L
sg2287
S'bugs'
p2374
sg2289
Nsg2290
Nsg2291
S'votes'
p2375
sa(dp2376
g2277
S''
sg2278
L1L
sg2279
Nsg2280
S'FULLTEXT'
p2377
sg2282
S'bugs_short_desc_idx'
p2378
sg2284
S'A'
sg2285
S''
sg2286
L1L
sg2287
S'bugs'
p2379
sg2289
Nsg2290
Nsg2291
S'short_desc'
p2380
satp2381
sS'profiles'
p2382
((lp2383
(dp2384
S'Extra'
p2385
S'auto_increment'
p2386
sS'Default'
p2387
NsS'Field'
p2388
S'userid'
p2389
sS'Key'
p2390
S'PRI'
p2391
sS'Null'
p2392
S''
sS'Type'
p2393
S'mediumint(9)'
p2394
sa(dp2395
g2385
S''
sg2387
S''
sg2388
S'login_name'
p2396
sg2390
S'UNI'
p2397
sg2392
S''
sg2393
S'varchar(255)'
p2398
sa(dp2399
g2385
S''
sg2387
Nsg2388
S'cryptpassword'
p2400
sg2390
S''
sg2392
S'YES'
p2401
sg2393
S'varchar(128)'
p2402
sa(dp2403
g2385
S''
sg2387
Nsg2388
S'realname'
p2404
sg2390
S''
sg2392
S'YES'
p2405
sg2393
S'varchar(255)'
p2406
sa(dp2407
g2385
S''
sg2387
S''
sg2388
S'disabledtext'
p2408
sg2390
S''
sg2392
S''
sg2393
S'mediumtext'
p2409
sa(dp2410
g2385
S''
sg2387
S'1'
sg2388
S'mybugslink'
p2411
sg2390
S''
sg2392
S''
sg2393
S'tinyint(4)'
p2412
sa(dp2413
g2385
S''
sg2387
S'0000-00-00 00:00:00'
p2414
sg2388
S'refreshed_when'
p2415
sg2390
S''
sg2392
S''
sg2393
S'datetime'
p2416
sa(dp2417
g2385
S''
sg2387
Nsg2388
S'extern_id'
p2418
sg2390
S''
sg2392
S'YES'
p2419
sg2393
S'varchar(64)'
p2420
sa(lp2421
(dp2422
S'Comment'
p2423
S''
sS'Non_unique'
p2424
L0L
sS'Sub_part'
p2425
NsS'Index_type'
p2426
S'BTREE'
p2427
sS'Key_name'
p2428
S'PRIMARY'
p2429
sS'Collation'
p2430
S'A'
sS'Null'
p2431
S''
sS'Seq_in_index'
p2432
L1L
sS'Table'
p2433
S'profiles'
p2434
sS'Cardinality'
p2435
L1L
sS'Packed'
p2436
NsS'Column_name'
p2437
S'userid'
p2438
sa(dp2439
g2423
S''
sg2424
L0L
sg2425
Nsg2426
S'BTREE'
p2440
sg2428
S'profiles_login_name_idx'
p2441
sg2430
S'A'
sg2431
S''
sg2432
L1L
sg2433
S'profiles'
p2442
sg2435
L1L
sg2436
Nsg2437
S'login_name'
p2443
satp2444
sS'flags'
p2445
((lp2446
(dp2447
S'Extra'
p2448
S'auto_increment'
p2449
sS'Default'
p2450
NsS'Field'
p2451
S'id'
p2452
sS'Key'
p2453
S'PRI'
p2454
sS'Null'
p2455
S''
sS'Type'
p2456
S'mediumint(9)'
p2457
sa(dp2458
g2448
S''
sg2450
S'0'
sg2451
S'type_id'
p2459
sg2453
S'MUL'
p2460
sg2455
S''
sg2456
S'smallint(6)'
p2461
sa(dp2462
g2448
S''
sg2450
S''
sg2451
S'status'
p2463
sg2453
S''
sg2455
S''
sg2456
S'char(1)'
p2464
sa(dp2465
g2448
S''
sg2450
S'0'
sg2451
S'bug_id'
p2466
sg2453
S'MUL'
p2467
sg2455
S''
sg2456
S'mediumint(9)'
p2468
sa(dp2469
g2448
S''
sg2450
Nsg2451
S'attach_id'
p2470
sg2453
S''
sg2455
S'YES'
p2471
sg2456
S'mediumint(9)'
p2472
sa(dp2473
g2448
S''
sg2450
S'0000-00-00 00:00:00'
p2474
sg2451
S'creation_date'
p2475
sg2453
S''
sg2455
S''
sg2456
S'datetime'
p2476
sa(dp2477
g2448
S''
sg2450
Nsg2451
S'modification_date'
p2478
sg2453
S''
sg2455
S'YES'
p2479
sg2456
S'datetime'
p2480
sa(dp2481
g2448
S''
sg2450
Nsg2451
S'setter_id'
p2482
sg2453
S'MUL'
p2483
sg2455
S'YES'
p2484
sg2456
S'mediumint(9)'
p2485
sa(dp2486
g2448
S''
sg2450
Nsg2451
S'requestee_id'
p2487
sg2453
S'MUL'
p2488
sg2455
S'YES'
p2489
sg2456
S'mediumint(9)'
p2490
sa(lp2491
(dp2492
S'Comment'
p2493
S''
sS'Non_unique'
p2494
L0L
sS'Sub_part'
p2495
NsS'Index_type'
p2496
S'BTREE'
p2497
sS'Key_name'
p2498
S'PRIMARY'
p2499
sS'Collation'
p2500
S'A'
sS'Null'
p2501
S''
sS'Seq_in_index'
p2502
L1L
sS'Table'
p2503
S'flags'
p2504
sS'Cardinality'
p2505
L0L
sS'Packed'
p2506
NsS'Column_name'
p2507
S'id'
p2508
sa(dp2509
g2493
S''
sg2494
L1L
sg2495
Nsg2496
S'BTREE'
p2510
sg2498
S'flags_bug_id_idx'
p2511
sg2500
S'A'
sg2501
S''
sg2502
L1L
sg2503
S'flags'
p2512
sg2505
Nsg2506
Nsg2507
S'bug_id'
p2513
sa(dp2514
g2493
S''
sg2494
L1L
sg2495
Nsg2496
S'BTREE'
p2515
sg2498
S'flags_bug_id_idx'
p2516
sg2500
S'A'
sg2501
S'YES'
p2517
sg2502
L2L
sg2503
S'flags'
p2518
sg2505
Nsg2506
Nsg2507
S'attach_id'
p2519
sa(dp2520
g2493
S''
sg2494
L1L
sg2495
Nsg2496
S'BTREE'
p2521
sg2498
S'flags_setter_id_idx'
p2522
sg2500
S'A'
sg2501
S'YES'
p2523
sg2502
L1L
sg2503
S'flags'
p2524
sg2505
Nsg2506
Nsg2507
S'setter_id'
p2525
sa(dp2526
g2493
S''
sg2494
L1L
sg2495
Nsg2496
S'BTREE'
p2527
sg2498
S'flags_requestee_id_idx'
p2528
sg2500
S'A'
sg2501
S'YES'
p2529
sg2502
L1L
sg2503
S'flags'
p2530
sg2505
Nsg2506
Nsg2507
S'requestee_id'
p2531
sa(dp2532
g2493
S''
sg2494
L1L
sg2495
Nsg2496
S'BTREE'
p2533
sg2498
S'flags_type_id_idx'
p2534
sg2500
S'A'
sg2501
S''
sg2502
L1L
sg2503
S'flags'
p2535
sg2505
Nsg2506
Nsg2507
S'type_id'
p2536
satp2537
sS'components'
p2538
((lp2539
(dp2540
S'Extra'
p2541
S'auto_increment'
p2542
sS'Default'
p2543
NsS'Field'
p2544
S'id'
p2545
sS'Key'
p2546
S'PRI'
p2547
sS'Null'
p2548
S''
sS'Type'
p2549
S'smallint(6)'
p2550
sa(dp2551
g2541
S''
sg2543
S''
sg2544
S'name'
p2552
sg2546
S'MUL'
p2553
sg2548
S''
sg2549
S'varchar(64)'
p2554
sa(dp2555
g2541
S''
sg2543
S'0'
sg2544
S'product_id'
p2556
sg2546
S'MUL'
p2557
sg2548
S''
sg2549
S'smallint(6)'
p2558
sa(dp2559
g2541
S''
sg2543
S'0'
sg2544
S'initialowner'
p2560
sg2546
S''
sg2548
S''
sg2549
S'mediumint(9)'
p2561
sa(dp2562
g2541
S''
sg2543
Nsg2544
S'initialqacontact'
p2563
sg2546
S''
sg2548
S'YES'
p2564
sg2549
S'mediumint(9)'
p2565
sa(dp2566
g2541
S''
sg2543
S''
sg2544
S'description'
p2567
sg2546
S''
sg2548
S''
sg2549
S'mediumtext'
p2568
sa(lp2569
(dp2570
S'Comment'
p2571
S''
sS'Non_unique'
p2572
L0L
sS'Sub_part'
p2573
NsS'Index_type'
p2574
S'BTREE'
p2575
sS'Key_name'
p2576
S'PRIMARY'
p2577
sS'Collation'
p2578
S'A'
sS'Null'
p2579
S''
sS'Seq_in_index'
p2580
L1L
sS'Table'
p2581
S'components'
p2582
sS'Cardinality'
p2583
L1L
sS'Packed'
p2584
NsS'Column_name'
p2585
S'id'
p2586
sa(dp2587
g2571
S''
sg2572
L0L
sg2573
Nsg2574
S'BTREE'
p2588
sg2576
S'components_product_id_idx'
p2589
sg2578
S'A'
sg2579
S''
sg2580
L1L
sg2581
S'components'
p2590
sg2583
Nsg2584
Nsg2585
S'product_id'
p2591
sa(dp2592
g2571
S''
sg2572
L0L
sg2573
Nsg2574
S'BTREE'
p2593
sg2576
S'components_product_id_idx'
p2594
sg2578
S'A'
sg2579
S''
sg2580
L2L
sg2581
S'components'
p2595
sg2583
L1L
sg2584
Nsg2585
S'name'
p2596
sa(dp2597
g2571
S''
sg2572
L1L
sg2573
Nsg2574
S'BTREE'
p2598
sg2576
S'components_name_idx'
p2599
sg2578
S'A'
sg2579
S''
sg2580
L1L
sg2581
S'components'
p2600
sg2583
Nsg2584
Nsg2585
S'name'
p2601
satp2602
sS'whine_queries'
p2603
((lp2604
(dp2605
S'Extra'
p2606
S'auto_increment'
p2607
sS'Default'
p2608
NsS'Field'
p2609
S'id'
p2610
sS'Key'
p2611
S'PRI'
p2612
sS'Null'
p2613
S''
sS'Type'
p2614
S'mediumint(9)'
p2615
sa(dp2616
g2606
S''
sg2608
S'0'
sg2609
S'eventid'
p2617
sg2611
S'MUL'
p2618
sg2613
S''
sg2614
S'mediumint(9)'
p2619
sa(dp2620
g2606
S''
sg2608
S''
sg2609
S'query_name'
p2621
sg2611
S''
sg2613
S''
sg2614
S'varchar(64)'
p2622
sa(dp2623
g2606
S''
sg2608
S'0'
sg2609
S'sortkey'
p2624
sg2611
S''
sg2613
S''
sg2614
S'smallint(6)'
p2625
sa(dp2626
g2606
S''
sg2608
S'0'
sg2609
S'onemailperbug'
p2627
sg2611
S''
sg2613
S''
sg2614
S'tinyint(4)'
p2628
sa(dp2629
g2606
S''
sg2608
S''
sg2609
S'title'
p2630
sg2611
S''
sg2613
S''
sg2614
S'varchar(128)'
p2631
sa(lp2632
(dp2633
S'Comment'
p2634
S''
sS'Non_unique'
p2635
L0L
sS'Sub_part'
p2636
NsS'Index_type'
p2637
S'BTREE'
p2638
sS'Key_name'
p2639
S'PRIMARY'
p2640
sS'Collation'
p2641
S'A'
sS'Null'
p2642
S''
sS'Seq_in_index'
p2643
L1L
sS'Table'
p2644
S'whine_queries'
p2645
sS'Cardinality'
p2646
L0L
sS'Packed'
p2647
NsS'Column_name'
p2648
S'id'
p2649
sa(dp2650
g2634
S''
sg2635
L1L
sg2636
Nsg2637
S'BTREE'
p2651
sg2639
S'whine_queries_eventid_idx'
p2652
sg2641
S'A'
sg2642
S''
sg2643
L1L
sg2644
S'whine_queries'
p2653
sg2646
Nsg2647
Nsg2648
S'eventid'
p2654
satp2655
sS'setting_value'
p2656
((lp2657
(dp2658
S'Extra'
p2659
S''
sS'Default'
p2660
S''
sS'Field'
p2661
S'name'
p2662
sS'Key'
p2663
S'PRI'
p2664
sS'Null'
p2665
S''
sS'Type'
p2666
S'varchar(32)'
p2667
sa(dp2668
g2659
S''
sg2660
S''
sg2661
S'value'
p2669
sg2663
S'PRI'
p2670
sg2665
S''
sg2666
S'varchar(32)'
p2671
sa(dp2672
g2659
S''
sg2660
S'0'
sg2661
S'sortindex'
p2673
sg2663
S''
sg2665
S''
sg2666
S'smallint(6)'
p2674
sa(lp2675
(dp2676
S'Comment'
p2677
S''
sS'Non_unique'
p2678
L0L
sS'Sub_part'
p2679
NsS'Index_type'
p2680
S'BTREE'
p2681
sS'Key_name'
p2682
S'setting_value_nv_unique_idx'
p2683
sS'Collation'
p2684
S'A'
sS'Null'
p2685
S''
sS'Seq_in_index'
p2686
L1L
sS'Table'
p2687
S'setting_value'
p2688
sS'Cardinality'
p2689
NsS'Packed'
p2690
NsS'Column_name'
p2691
S'name'
p2692
sa(dp2693
g2677
S''
sg2678
L0L
sg2679
Nsg2680
S'BTREE'
p2694
sg2682
S'setting_value_nv_unique_idx'
p2695
sg2684
S'A'
sg2685
S''
sg2686
L2L
sg2687
S'setting_value'
p2696
sg2689
L14L
sg2690
Nsg2691
S'value'
p2697
sa(dp2698
g2677
S''
sg2678
L0L
sg2679
Nsg2680
S'BTREE'
p2699
sg2682
S'setting_value_ns_unique_idx'
p2700
sg2684
S'A'
sg2685
S''
sg2686
L1L
sg2687
S'setting_value'
p2701
sg2689
Nsg2690
Nsg2691
S'name'
p2702
sa(dp2703
g2677
S''
sg2678
L0L
sg2679
Nsg2680
S'BTREE'
p2704
sg2682
S'setting_value_ns_unique_idx'
p2705
sg2684
S'A'
sg2685
S''
sg2686
L2L
sg2687
S'setting_value'
p2706
sg2689
L14L
sg2690
Nsg2691
S'sortindex'
p2707
satp2708
sS'resolution'
p2709
((lp2710
(dp2711
S'Extra'
p2712
S'auto_increment'
p2713
sS'Default'
p2714
NsS'Field'
p2715
S'id'
p2716
sS'Key'
p2717
S'PRI'
p2718
sS'Null'
p2719
S''
sS'Type'
p2720
S'smallint(6)'
p2721
sa(dp2722
g2712
S''
sg2714
S''
sg2715
S'value'
p2723
sg2717
S'UNI'
p2724
sg2719
S''
sg2720
S'varchar(64)'
p2725
sa(dp2726
g2712
S''
sg2714
S'0'
sg2715
S'sortkey'
p2727
sg2717
S'MUL'
p2728
sg2719
S''
sg2720
S'smallint(6)'
p2729
sa(dp2730
g2712
S''
sg2714
S'1'
sg2715
S'isactive'
p2731
sg2717
S''
sg2719
S''
sg2720
S'tinyint(4)'
p2732
sa(lp2733
(dp2734
S'Comment'
p2735
S''
sS'Non_unique'
p2736
L0L
sS'Sub_part'
p2737
NsS'Index_type'
p2738
S'BTREE'
p2739
sS'Key_name'
p2740
S'PRIMARY'
p2741
sS'Collation'
p2742
S'A'
sS'Null'
p2743
S''
sS'Seq_in_index'
p2744
L1L
sS'Table'
p2745
S'resolution'
p2746
sS'Cardinality'
p2747
L9L
sS'Packed'
p2748
NsS'Column_name'
p2749
S'id'
p2750
sa(dp2751
g2735
S''
sg2736
L0L
sg2737
Nsg2738
S'BTREE'
p2752
sg2740
S'resolution_value_idx'
p2753
sg2742
S'A'
sg2743
S''
sg2744
L1L
sg2745
S'resolution'
p2754
sg2747
L9L
sg2748
Nsg2749
S'value'
p2755
sa(dp2756
g2735
S''
sg2736
L1L
sg2737
Nsg2738
S'BTREE'
p2757
sg2740
S'resolution_sortkey_idx'
p2758
sg2742
S'A'
sg2743
S''
sg2744
L1L
sg2745
S'resolution'
p2759
sg2747
Nsg2748
Nsg2749
S'sortkey'
p2760
sa(dp2761
g2735
S''
sg2736
L1L
sg2737
Nsg2738
S'BTREE'
p2762
sg2740
S'resolution_sortkey_idx'
p2763
sg2742
S'A'
sg2743
S''
sg2744
L2L
sg2745
S'resolution'
p2764
sg2747
Nsg2748
Nsg2749
S'value'
p2765
satp2766
sS'op_sys'
p2767
((lp2768
(dp2769
S'Extra'
p2770
S'auto_increment'
p2771
sS'Default'
p2772
NsS'Field'
p2773
S'id'
p2774
sS'Key'
p2775
S'PRI'
p2776
sS'Null'
p2777
S''
sS'Type'
p2778
S'smallint(6)'
p2779
sa(dp2780
g2770
S''
sg2772
S''
sg2773
S'value'
p2781
sg2775
S'UNI'
p2782
sg2777
S''
sg2778
S'varchar(64)'
p2783
sa(dp2784
g2770
S''
sg2772
S'0'
sg2773
S'sortkey'
p2785
sg2775
S'MUL'
p2786
sg2777
S''
sg2778
S'smallint(6)'
p2787
sa(dp2788
g2770
S''
sg2772
S'1'
sg2773
S'isactive'
p2789
sg2775
S''
sg2777
S''
sg2778
S'tinyint(4)'
p2790
sa(lp2791
(dp2792
S'Comment'
p2793
S''
sS'Non_unique'
p2794
L0L
sS'Sub_part'
p2795
NsS'Index_type'
p2796
S'BTREE'
p2797
sS'Key_name'
p2798
S'PRIMARY'
p2799
sS'Collation'
p2800
S'A'
sS'Null'
p2801
S''
sS'Seq_in_index'
p2802
L1L
sS'Table'
p2803
S'op_sys'
p2804
sS'Cardinality'
p2805
L5L
sS'Packed'
p2806
NsS'Column_name'
p2807
S'id'
p2808
sa(dp2809
g2793
S''
sg2794
L0L
sg2795
Nsg2796
S'BTREE'
p2810
sg2798
S'op_sys_value_idx'
p2811
sg2800
S'A'
sg2801
S''
sg2802
L1L
sg2803
S'op_sys'
p2812
sg2805
L5L
sg2806
Nsg2807
S'value'
p2813
sa(dp2814
g2793
S''
sg2794
L1L
sg2795
Nsg2796
S'BTREE'
p2815
sg2798
S'op_sys_sortkey_idx'
p2816
sg2800
S'A'
sg2801
S''
sg2802
L1L
sg2803
S'op_sys'
p2817
sg2805
Nsg2806
Nsg2807
S'sortkey'
p2818
sa(dp2819
g2793
S''
sg2794
L1L
sg2795
Nsg2796
S'BTREE'
p2820
sg2798
S'op_sys_sortkey_idx'
p2821
sg2800
S'A'
sg2801
S''
sg2802
L2L
sg2803
S'op_sys'
p2822
sg2805
Nsg2806
Nsg2807
S'value'
p2823
satp2824
sS'group_control_map'
p2825
((lp2826
(dp2827
S'Extra'
p2828
S''
sS'Default'
p2829
S'0'
sS'Field'
p2830
S'group_id'
p2831
sS'Key'
p2832
S'PRI'
p2833
sS'Null'
p2834
S''
sS'Type'
p2835
S'mediumint(9)'
p2836
sa(dp2837
g2828
S''
sg2829
S'0'
sg2830
S'product_id'
p2838
sg2832
S'PRI'
p2839
sg2834
S''
sg2835
S'mediumint(9)'
p2840
sa(dp2841
g2828
S''
sg2829
S'0'
sg2830
S'entry'
p2842
sg2832
S''
sg2834
S''
sg2835
S'tinyint(4)'
p2843
sa(dp2844
g2828
S''
sg2829
S'0'
sg2830
S'membercontrol'
p2845
sg2832
S''
sg2834
S''
sg2835
S'tinyint(4)'
p2846
sa(dp2847
g2828
S''
sg2829
S'0'
sg2830
S'othercontrol'
p2848
sg2832
S''
sg2834
S''
sg2835
S'tinyint(4)'
p2849
sa(dp2850
g2828
S''
sg2829
S'0'
sg2830
S'canedit'
p2851
sg2832
S''
sg2834
S''
sg2835
S'tinyint(4)'
p2852
sa(lp2853
(dp2854
S'Comment'
p2855
S''
sS'Non_unique'
p2856
L0L
sS'Sub_part'
p2857
NsS'Index_type'
p2858
S'BTREE'
p2859
sS'Key_name'
p2860
S'group_control_map_product_id_idx'
p2861
sS'Collation'
p2862
S'A'
sS'Null'
p2863
S''
sS'Seq_in_index'
p2864
L1L
sS'Table'
p2865
S'group_control_map'
p2866
sS'Cardinality'
p2867
NsS'Packed'
p2868
NsS'Column_name'
p2869
S'product_id'
p2870
sa(dp2871
g2855
S''
sg2856
L0L
sg2857
Nsg2858
S'BTREE'
p2872
sg2860
S'group_control_map_product_id_idx'
p2873
sg2862
S'A'
sg2863
S''
sg2864
L2L
sg2865
S'group_control_map'
p2874
sg2867
L0L
sg2868
Nsg2869
S'group_id'
p2875
sa(dp2876
g2855
S''
sg2856
L1L
sg2857
Nsg2858
S'BTREE'
p2877
sg2860
S'group_control_map_group_id_idx'
p2878
sg2862
S'A'
sg2863
S''
sg2864
L1L
sg2865
S'group_control_map'
p2879
sg2867
Nsg2868
Nsg2869
S'group_id'
p2880
satp2881
st.