(S'2.23.4'
p1
(dp2
S'bug_group_map'
p3
((lp4
(dp5
S'Extra'
p6
S''
sS'Default'
p7
S'0'
sS'Field'
p8
S'bug_id'
p9
sS'Key'
p10
S'PRI'
p11
sS'Null'
p12
S''
sS'Type'
p13
S'mediumint(9)'
p14
sa(dp15
g6
S''
sg7
S'0'
sg8
S'group_id'
p16
sg10
S'PRI'
p17
sg12
S''
sg13
S'mediumint(9)'
p18
sa(lp19
(dp20
S'Comment'
p21
S''
sS'Non_unique'
p22
L0L
sS'Sub_part'
p23
NsS'Index_type'
p24
S'BTREE'
p25
sS'Key_name'
p26
S'bug_group_map_bug_id_idx'
p27
sS'Collation'
p28
S'A'
sS'Null'
p29
S''
sS'Seq_in_index'
p30
L1L
sS'Table'
p31
S'bug_group_map'
p32
sS'Cardinality'
p33
NsS'Packed'
p34
NsS'Column_name'
p35
S'bug_id'
p36
sa(dp37
g21
S''
sg22
L0L
sg23
Nsg24
S'BTREE'
p38
sg26
S'bug_group_map_bug_id_idx'
p39
sg28
S'A'
sg29
S''
sg30
L2L
sg31
S'bug_group_map'
p40
sg33
L0L
sg34
Nsg35
S'group_id'
p41
sa(dp42
g21
S''
sg22
L1L
sg23
Nsg24
S'BTREE'
p43
sg26
S'bug_group_map_group_id_idx'
p44
sg28
S'A'
sg29
S''
sg30
L1L
sg31
S'bug_group_map'
p45
sg33
Nsg34
Nsg35
S'group_id'
p46
satp47
sS'attachments'
p48
((lp49
(dp50
S'Extra'
p51
S'auto_increment'
p52
sS'Default'
p53
NsS'Field'
p54
S'attach_id'
p55
sS'Key'
p56
S'PRI'
p57
sS'Null'
p58
S''
sS'Type'
p59
S'mediumint(9)'
p60
sa(dp61
g51
S''
sg53
S'0'
sg54
S'bug_id'
p62
sg56
S'MUL'
p63
sg58
S''
sg59
S'mediumint(9)'
p64
sa(dp65
g51
S''
sg53
S'0000-00-00 00:00:00'
p66
sg54
S'creation_ts'
p67
sg56
S'MUL'
p68
sg58
S''
sg59
S'datetime'
p69
sa(dp70
g51
S''
sg53
S''
sg54
S'description'
p71
sg56
S''
sg58
S''
sg59
S'mediumtext'
p72
sa(dp73
g51
S''
sg53
S''
sg54
S'mimetype'
p74
sg56
S''
sg58
S''
sg59
S'mediumtext'
p75
sa(dp76
g51
S''
sg53
Nsg54
S'ispatch'
p77
sg56
S''
sg58
S'YES'
p78
sg59
S'tinyint(4)'
p79
sa(dp80
g51
S''
sg53
S''
sg54
S'filename'
p81
sg56
S''
sg58
S''
sg59
S'varchar(100)'
p82
sa(dp83
g51
S''
sg53
S'0'
sg54
S'submitter_id'
p84
sg56
S'MUL'
p85
sg58
S''
sg59
S'mediumint(9)'
p86
sa(dp87
g51
S''
sg53
S'0'
sg54
S'isobsolete'
p88
sg56
S''
sg58
S''
sg59
S'tinyint(4)'
p89
sa(dp90
g51
S''
sg53
S'0'
sg54
S'isprivate'
p91
sg56
S''
sg58
S''
sg59
S'tinyint(4)'
p92
sa(dp93
g51
S''
sg53
S'0'
sg54
S'isurl'
p94
sg56
S''
sg58
S''
sg59
S'tinyint(4)'
p95
sa(lp96
(dp97
S'Comment'
p98
S''
sS'Non_unique'
p99
L0L
sS'Sub_part'
p100
NsS'Index_type'
p101
S'BTREE'
p102
sS'Key_name'
p103
S'PRIMARY'
p104
sS'Collation'
p105
S'A'
sS'Null'
p106
S''
sS'Seq_in_index'
p107
L1L
sS'Table'
p108
S'attachments'
p109
sS'Cardinality'
p110
L0L
sS'Packed'
p111
NsS'Column_name'
p112
S'attach_id'
p113
sa(dp114
g98
S''
sg99
L1L
sg100
Nsg101
S'BTREE'
p115
sg103
S'attachments_bug_id_idx'
p116
sg105
S'A'
sg106
S''
sg107
L1L
sg108
S'attachments'
p117
sg110
Nsg111
Nsg112
S'bug_id'
p118
sa(dp119
g98
S''
sg99
L1L
sg100
Nsg101
S'BTREE'
p120
sg103
S'attachments_creation_ts_idx'
p121
sg105
S'A'
sg106
S''
sg107
L1L
sg108
S'attachments'
p122
sg110
Nsg111
Nsg112
S'creation_ts'
p123
sa(dp124
g98
S''
sg99
L1L
sg100
Nsg101
S'BTREE'
p125
sg103
S'attachments_submitter_id_idx'
p126
sg105
S'A'
sg106
S''
sg107
L1L
sg108
S'attachments'
p127
sg110
Nsg111
Nsg112
S'submitter_id'
p128
sa(dp129
g98
S''
sg99
L1L
sg100
Nsg101
S'BTREE'
p130
sg103
S'attachments_submitter_id_idx'
p131
sg105
S'A'
sg106
S''
sg107
L2L
sg108
S'attachments'
p132
sg110
Nsg111
Nsg112
S'bug_id'
p133
satp134
sS'namedqueries_link_in_footer'
p135
((lp136
(dp137
S'Extra'
p138
S''
sS'Default'
p139
S'0'
sS'Field'
p140
S'namedquery_id'
p141
sS'Key'
p142
S'PRI'
p143
sS'Null'
p144
S''
sS'Type'
p145
S'mediumint(9)'
p146
sa(dp147
g138
S''
sg139
S'0'
sg140
S'user_id'
p148
sg142
S'PRI'
p149
sg144
S''
sg145
S'mediumint(9)'
p150
sa(lp151
(dp152
S'Comment'
p153
S''
sS'Non_unique'
p154
L0L
sS'Sub_part'
p155
NsS'Index_type'
p156
S'BTREE'
p157
sS'Key_name'
p158
S'namedqueries_link_in_footer_id_idx'
p159
sS'Collation'
p160
S'A'
sS'Null'
p161
S''
sS'Seq_in_index'
p162
L1L
sS'Table'
p163
S'namedqueries_link_in_footer'
p164
sS'Cardinality'
p165
NsS'Packed'
p166
NsS'Column_name'
p167
S'namedquery_id'
p168
sa(dp169
g153
S''
sg154
L0L
sg155
Nsg156
S'BTREE'
p170
sg158
S'namedqueries_link_in_footer_id_idx'
p171
sg160
S'A'
sg161
S''
sg162
L2L
sg163
S'namedqueries_link_in_footer'
p172
sg165
L0L
sg166
Nsg167
S'user_id'
p173
sa(dp174
g153
S''
sg154
L1L
sg155
Nsg156
S'BTREE'
p175
sg158
S'namedqueries_link_in_footer_userid_idx'
p176
sg160
S'A'
sg161
S''
sg162
L1L
sg163
S'namedqueries_link_in_footer'
p177
sg165
Nsg166
Nsg167
S'user_id'
p178
satp179
sS'duplicates'
p180
((lp181
(dp182
S'Extra'
p183
S''
sS'Default'
p184
S'0'
sS'Field'
p185
S'dupe_of'
p186
sS'Key'
p187
S''
sS'Null'
p188
S''
sS'Type'
p189
S'mediumint(9)'
p190
sa(dp191
g183
S''
sg184
S'0'
sg185
S'dupe'
p192
sg187
S'PRI'
p193
sg188
S''
sg189
S'mediumint(9)'
p194
sa(lp195
(dp196
S'Comment'
p197
S''
sS'Non_unique'
p198
L0L
sS'Sub_part'
p199
NsS'Index_type'
p200
S'BTREE'
p201
sS'Key_name'
p202
S'PRIMARY'
p203
sS'Collation'
p204
S'A'
sS'Null'
p205
S''
sS'Seq_in_index'
p206
L1L
sS'Table'
p207
S'duplicates'
p208
sS'Cardinality'
p209
L0L
sS'Packed'
p210
NsS'Column_name'
p211
S'dupe'
p212
satp213
sS'rep_platform'
p214
((lp215
(dp216
S'Extra'
p217
S'auto_increment'
p218
sS'Default'
p219
NsS'Field'
p220
S'id'
p221
sS'Key'
p222
S'PRI'
p223
sS'Null'
p224
S''
sS'Type'
p225
S'smallint(6)'
p226
sa(dp227
g217
S''
sg219
S''
sg220
S'value'
p228
sg222
S'UNI'
p229
sg224
S''
sg225
S'varchar(64)'
p230
sa(dp231
g217
S''
sg219
S'0'
sg220
S'sortkey'
p232
sg222
S'MUL'
p233
sg224
S''
sg225
S'smallint(6)'
p234
sa(dp235
g217
S''
sg219
S'1'
sg220
S'isactive'
p236
sg222
S''
sg224
S''
sg225
S'tinyint(4)'
p237
sa(lp238
(dp239
S'Comment'
p240
S''
sS'Non_unique'
p241
L0L
sS'Sub_part'
p242
NsS'Index_type'
p243
S'BTREE'
p244
sS'Key_name'
p245
S'PRIMARY'
p246
sS'Collation'
p247
S'A'
sS'Null'
p248
S''
sS'Seq_in_index'
p249
L1L
sS'Table'
p250
S'rep_platform'
p251
sS'Cardinality'
p252
L4L
sS'Packed'
p253
NsS'Column_name'
p254
S'id'
p255
sa(dp256
g240
S''
sg241
L0L
sg242
Nsg243
S'BTREE'
p257
sg245
S'rep_platform_value_idx'
p258
sg247
S'A'
sg248
S''
sg249
L1L
sg250
S'rep_platform'
p259
sg252
L4L
sg253
Nsg254
S'value'
p260
sa(dp261
g240
S''
sg241
L1L
sg242
Nsg243
S'BTREE'
p262
sg245
S'rep_platform_sortkey_idx'
p263
sg247
S'A'
sg248
S''
sg249
L1L
sg250
S'rep_platform'
p264
sg252
Nsg253
Nsg254
S'sortkey'
p265
sa(dp266
g240
S''
sg241
L1L
sg242
Nsg243
S'BTREE'
p267
sg245
S'rep_platform_sortkey_idx'
p268
sg247
S'A'
sg248
S''
sg249
L2L
sg250
S'rep_platform'
p269
sg252
Nsg253
Nsg254
S'value'
p270
satp271
sS'quips'
p272
((lp273
(dp274
S'Extra'
p275
S'auto_increment'
p276
sS'Default'
p277
NsS'Field'
p278
S'quipid'
p279
sS'Key'
p280
S'PRI'
p281
sS'Null'
p282
S''
sS'Type'
p283
S'mediumint(9)'
p284
sa(dp285
g275
S''
sg277
Nsg278
S'userid'
p286
sg280
S''
sg282
S'YES'
p287
sg283
S'mediumint(9)'
p288
sa(dp289
g275
S''
sg277
S''
sg278
S'quip'
p290
sg280
S''
sg282
S''
sg283
S'text'
p291
sa(dp292
g275
S''
sg277
S'1'
sg278
S'approved'
p293
sg280
S''
sg282
S''
sg283
S'tinyint(4)'
p294
sa(lp295
(dp296
S'Comment'
p297
S''
sS'Non_unique'
p298
L0L
sS'Sub_part'
p299
NsS'Index_type'
p300
S'BTREE'
p301
sS'Key_name'
p302
S'PRIMARY'
p303
sS'Collation'
p304
S'A'
sS'Null'
p305
S''
sS'Seq_in_index'
p306
L1L
sS'Table'
p307
S'quips'
p308
sS'Cardinality'
p309
L0L
sS'Packed'
p310
NsS'Column_name'
p311
S'quipid'
p312
satp313
sS'series_categories'
p314
((lp315
(dp316
S'Extra'
p317
S'auto_increment'
p318
sS'Default'
p319
NsS'Field'
p320
S'id'
p321
sS'Key'
p322
S'PRI'
p323
sS'Null'
p324
S''
sS'Type'
p325
S'smallint(6)'
p326
sa(dp327
g317
S''
sg319
S''
sg320
S'name'
p328
sg322
S'UNI'
p329
sg324
S''
sg325
S'varchar(64)'
p330
sa(lp331
(dp332
S'Comment'
p333
S''
sS'Non_unique'
p334
L0L
sS'Sub_part'
p335
NsS'Index_type'
p336
S'BTREE'
p337
sS'Key_name'
p338
S'PRIMARY'
p339
sS'Collation'
p340
S'A'
sS'Null'
p341
S''
sS'Seq_in_index'
p342
L1L
sS'Table'
p343
S'series_categories'
p344
sS'Cardinality'
p345
L0L
sS'Packed'
p346
NsS'Column_name'
p347
S'id'
p348
sa(dp349
g333
S''
sg334
L0L
sg335
Nsg336
S'BTREE'
p350
sg338
S'series_categories_name_idx'
p351
sg340
S'A'
sg341
S''
sg342
L1L
sg343
S'series_categories'
p352
sg345
L0L
sg346
Nsg347
S'name'
p353
satp354
sS'group_control_map'
p355
((lp356
(dp357
S'Extra'
p358
S''
sS'Default'
p359
S'0'
sS'Field'
p360
S'group_id'
p361
sS'Key'
p362
S'PRI'
p363
sS'Null'
p364
S''
sS'Type'
p365
S'mediumint(9)'
p366
sa(dp367
g358
S''
sg359
S'0'
sg360
S'product_id'
p368
sg362
S'PRI'
p369
sg364
S''
sg365
S'mediumint(9)'
p370
sa(dp371
g358
S''
sg359
S'0'
sg360
S'entry'
p372
sg362
S''
sg364
S''
sg365
S'tinyint(4)'
p373
sa(dp374
g358
S''
sg359
S'0'
sg360
S'membercontrol'
p375
sg362
S''
sg364
S''
sg365
S'tinyint(4)'
p376
sa(dp377
g358
S''
sg359
S'0'
sg360
S'othercontrol'
p378
sg362
S''
sg364
S''
sg365
S'tinyint(4)'
p379
sa(dp380
g358
S''
sg359
S'0'
sg360
S'canedit'
p381
sg362
S''
sg364
S''
sg365
S'tinyint(4)'
p382
sa(dp383
g358
S''
sg359
S'0'
sg360
S'editcomponents'
p384
sg362
S''
sg364
S''
sg365
S'tinyint(4)'
p385
sa(dp386
g358
S''
sg359
S'0'
sg360
S'editbugs'
p387
sg362
S''
sg364
S''
sg365
S'tinyint(4)'
p388
sa(dp389
g358
S''
sg359
S'0'
sg360
S'canconfirm'
p390
sg362
S''
sg364
S''
sg365
S'tinyint(4)'
p391
sa(lp392
(dp393
S'Comment'
p394
S''
sS'Non_unique'
p395
L0L
sS'Sub_part'
p396
NsS'Index_type'
p397
S'BTREE'
p398
sS'Key_name'
p399
S'group_control_map_product_id_idx'
p400
sS'Collation'
p401
S'A'
sS'Null'
p402
S''
sS'Seq_in_index'
p403
L1L
sS'Table'
p404
S'group_control_map'
p405
sS'Cardinality'
p406
NsS'Packed'
p407
NsS'Column_name'
p408
S'product_id'
p409
sa(dp410
g394
S''
sg395
L0L
sg396
Nsg397
S'BTREE'
p411
sg399
S'group_control_map_product_id_idx'
p412
sg401
S'A'
sg402
S''
sg403
L2L
sg404
S'group_control_map'
p413
sg406
L0L
sg407
Nsg408
S'group_id'
p414
sa(dp415
g394
S''
sg395
L1L
sg396
Nsg397
S'BTREE'
p416
sg399
S'group_control_map_group_id_idx'
p417
sg401
S'A'
sg402
S''
sg403
L1L
sg404
S'group_control_map'
p418
sg406
Nsg407
Nsg408
S'group_id'
p419
satp420
sS'component_cc'
p421
((lp422
(dp423
S'Extra'
p424
S''
sS'Default'
p425
S'0'
sS'Field'
p426
S'user_id'
p427
sS'Key'
p428
S'PRI'
p429
sS'Null'
p430
S''
sS'Type'
p431
S'mediumint(9)'
p432
sa(dp433
g424
S''
sg425
S'0'
sg426
S'component_id'
p434
sg428
S'PRI'
p435
sg430
S''
sg431
S'smallint(6)'
p436
sa(lp437
(dp438
S'Comment'
p439
S''
sS'Non_unique'
p440
L0L
sS'Sub_part'
p441
NsS'Index_type'
p442
S'BTREE'
p443
sS'Key_name'
p444
S'component_cc_user_id_idx'
p445
sS'Collation'
p446
S'A'
sS'Null'
p447
S''
sS'Seq_in_index'
p448
L1L
sS'Table'
p449
S'component_cc'
p450
sS'Cardinality'
p451
NsS'Packed'
p452
NsS'Column_name'
p453
S'component_id'
p454
sa(dp455
g439
S''
sg440
L0L
sg441
Nsg442
S'BTREE'
p456
sg444
S'component_cc_user_id_idx'
p457
sg446
S'A'
sg447
S''
sg448
L2L
sg449
S'component_cc'
p458
sg451
L0L
sg452
Nsg453
S'user_id'
p459
satp460
sS'keywords'
p461
((lp462
(dp463
S'Extra'
p464
S''
sS'Default'
p465
S'0'
sS'Field'
p466
S'bug_id'
p467
sS'Key'
p468
S'PRI'
p469
sS'Null'
p470
S''
sS'Type'
p471
S'mediumint(9)'
p472
sa(dp473
g464
S''
sg465
S'0'
sg466
S'keywordid'
p474
sg468
S'PRI'
p475
sg470
S''
sg471
S'smallint(6)'
p476
sa(lp477
(dp478
S'Comment'
p479
S''
sS'Non_unique'
p480
L0L
sS'Sub_part'
p481
NsS'Index_type'
p482
S'BTREE'
p483
sS'Key_name'
p484
S'keywords_bug_id_idx'
p485
sS'Collation'
p486
S'A'
sS'Null'
p487
S''
sS'Seq_in_index'
p488
L1L
sS'Table'
p489
S'keywords'
p490
sS'Cardinality'
p491
NsS'Packed'
p492
NsS'Column_name'
p493
S'bug_id'
p494
sa(dp495
g479
S''
sg480
L0L
sg481
Nsg482
S'BTREE'
p496
sg484
S'keywords_bug_id_idx'
p497
sg486
S'A'
sg487
S''
sg488
L2L
sg489
S'keywords'
p498
sg491
L0L
sg492
Nsg493
S'keywordid'
p499
sa(dp500
g479
S''
sg480
L1L
sg481
Nsg482
S'BTREE'
p501
sg484
S'keywords_keywordid_idx'
p502
sg486
S'A'
sg487
S''
sg488
L1L
sg489
S'keywords'
p503
sg491
Nsg492
Nsg493
S'keywordid'
p504
satp505
sS'series_data'
p506
((lp507
(dp508
S'Extra'
p509
S''
sS'Default'
p510
S'0'
sS'Field'
p511
S'series_id'
p512
sS'Key'
p513
S'PRI'
p514
sS'Null'
p515
S''
sS'Type'
p516
S'mediumint(9)'
p517
sa(dp518
g509
S''
sg510
S'0000-00-00 00:00:00'
p519
sg511
S'series_date'
p520
sg513
S'PRI'
p521
sg515
S''
sg516
S'datetime'
p522
sa(dp523
g509
S''
sg510
S'0'
sg511
S'series_value'
p524
sg513
S''
sg515
S''
sg516
S'mediumint(9)'
p525
sa(lp526
(dp527
S'Comment'
p528
S''
sS'Non_unique'
p529
L0L
sS'Sub_part'
p530
NsS'Index_type'
p531
S'BTREE'
p532
sS'Key_name'
p533
S'series_data_series_id_idx'
p534
sS'Collation'
p535
S'A'
sS'Null'
p536
S''
sS'Seq_in_index'
p537
L1L
sS'Table'
p538
S'series_data'
p539
sS'Cardinality'
p540
NsS'Packed'
p541
NsS'Column_name'
p542
S'series_id'
p543
sa(dp544
g528
S''
sg529
L0L
sg530
Nsg531
S'BTREE'
p545
sg533
S'series_data_series_id_idx'
p546
sg535
S'A'
sg536
S''
sg537
L2L
sg538
S'series_data'
p547
sg540
L0L
sg541
Nsg542
S'series_date'
p548
satp549
sS'keyworddefs'
p550
((lp551
(dp552
S'Extra'
p553
S'auto_increment'
p554
sS'Default'
p555
NsS'Field'
p556
S'id'
p557
sS'Key'
p558
S'PRI'
p559
sS'Null'
p560
S''
sS'Type'
p561
S'smallint(6)'
p562
sa(dp563
g553
S''
sg555
S''
sg556
S'name'
p564
sg558
S'UNI'
p565
sg560
S''
sg561
S'varchar(64)'
p566
sa(dp567
g553
S''
sg555
Nsg556
S'description'
p568
sg558
S''
sg560
S'YES'
p569
sg561
S'mediumtext'
p570
sa(lp571
(dp572
S'Comment'
p573
S''
sS'Non_unique'
p574
L0L
sS'Sub_part'
p575
NsS'Index_type'
p576
S'BTREE'
p577
sS'Key_name'
p578
S'PRIMARY'
p579
sS'Collation'
p580
S'A'
sS'Null'
p581
S''
sS'Seq_in_index'
p582
L1L
sS'Table'
p583
S'keyworddefs'
p584
sS'Cardinality'
p585
L0L
sS'Packed'
p586
NsS'Column_name'
p587
S'id'
p588
sa(dp589
g573
S''
sg574
L0L
sg575
Nsg576
S'BTREE'
p590
sg578
S'keyworddefs_name_idx'
p591
sg580
S'A'
sg581
S''
sg582
L1L
sg583
S'keyworddefs'
p592
sg585
L0L
sg586
Nsg587
S'name'
p593
satp594
sS'namedquery_group_map'
p595
((lp596
(dp597
S'Extra'
p598
S''
sS'Default'
p599
S'0'
sS'Field'
p600
S'namedquery_id'
p601
sS'Key'
p602
S'PRI'
p603
sS'Null'
p604
S''
sS'Type'
p605
S'mediumint(9)'
p606
sa(dp607
g598
S''
sg599
S'0'
sg600
S'group_id'
p608
sg602
S'MUL'
p609
sg604
S''
sg605
S'mediumint(9)'
p610
sa(lp611
(dp612
S'Comment'
p613
S''
sS'Non_unique'
p614
L0L
sS'Sub_part'
p615
NsS'Index_type'
p616
S'BTREE'
p617
sS'Key_name'
p618
S'namedquery_group_map_namedquery_id_idx'
p619
sS'Collation'
p620
S'A'
sS'Null'
p621
S''
sS'Seq_in_index'
p622
L1L
sS'Table'
p623
S'namedquery_group_map'
p624
sS'Cardinality'
p625
L0L
sS'Packed'
p626
NsS'Column_name'
p627
S'namedquery_id'
p628
sa(dp629
g613
S''
sg614
L1L
sg615
Nsg616
S'BTREE'
p630
sg618
S'namedquery_group_map_group_id_idx'
p631
sg620
S'A'
sg621
S''
sg622
L1L
sg623
S'namedquery_group_map'
p632
sg625
Nsg626
Nsg627
S'group_id'
p633
satp634
sS'flagexclusions'
p635
((lp636
(dp637
S'Extra'
p638
S''
sS'Default'
p639
S'0'
sS'Field'
p640
S'type_id'
p641
sS'Key'
p642
S'MUL'
p643
sS'Null'
p644
S''
sS'Type'
p645
S'smallint(6)'
p646
sa(dp647
g638
S''
sg639
Nsg640
S'product_id'
p648
sg642
S''
sg644
S'YES'
p649
sg645
S'smallint(6)'
p650
sa(dp651
g638
S''
sg639
Nsg640
S'component_id'
p652
sg642
S''
sg644
S'YES'
p653
sg645
S'smallint(6)'
p654
sa(lp655
(dp656
S'Comment'
p657
S''
sS'Non_unique'
p658
L1L
sS'Sub_part'
p659
NsS'Index_type'
p660
S'BTREE'
p661
sS'Key_name'
p662
S'flagexclusions_type_id_idx'
p663
sS'Collation'
p664
S'A'
sS'Null'
p665
S''
sS'Seq_in_index'
p666
L1L
sS'Table'
p667
S'flagexclusions'
p668
sS'Cardinality'
p669
NsS'Packed'
p670
NsS'Column_name'
p671
S'type_id'
p672
sa(dp673
g657
S''
sg658
L1L
sg659
Nsg660
S'BTREE'
p674
sg662
S'flagexclusions_type_id_idx'
p675
sg664
S'A'
sg665
S'YES'
p676
sg666
L2L
sg667
S'flagexclusions'
p677
sg669
Nsg670
Nsg671
S'product_id'
p678
sa(dp679
g657
S''
sg658
L1L
sg659
Nsg660
S'BTREE'
p680
sg662
S'flagexclusions_type_id_idx'
p681
sg664
S'A'
sg665
S'YES'
p682
sg666
L3L
sg667
S'flagexclusions'
p683
sg669
Nsg670
Nsg671
S'component_id'
p684
satp685
sS'votes'
p686
((lp687
(dp688
S'Extra'
p689
S''
sS'Default'
p690
S'0'
sS'Field'
p691
S'who'
p692
sS'Key'
p693
S'MUL'
p694
sS'Null'
p695
S''
sS'Type'
p696
S'mediumint(9)'
p697
sa(dp698
g689
S''
sg690
S'0'
sg691
S'bug_id'
p699
sg693
S'MUL'
p700
sg695
S''
sg696
S'mediumint(9)'
p701
sa(dp702
g689
S''
sg690
S'0'
sg691
S'vote_count'
p703
sg693
S''
sg695
S''
sg696
S'smallint(6)'
p704
sa(lp705
(dp706
S'Comment'
p707
S''
sS'Non_unique'
p708
L1L
sS'Sub_part'
p709
NsS'Index_type'
p710
S'BTREE'
p711
sS'Key_name'
p712
S'votes_who_idx'
p713
sS'Collation'
p714
S'A'
sS'Null'
p715
S''
sS'Seq_in_index'
p716
L1L
sS'Table'
p717
S'votes'
p718
sS'Cardinality'
p719
NsS'Packed'
p720
NsS'Column_name'
p721
S'who'
p722
sa(dp723
g707
S''
sg708
L1L
sg709
Nsg710
S'BTREE'
p724
sg712
S'votes_bug_id_idx'
p725
sg714
S'A'
sg715
S''
sg716
L1L
sg717
S'votes'
p726
sg719
Nsg720
Nsg721
S'bug_id'
p727
satp728
sS'attach_data'
p729
((lp730
(dp731
S'Extra'
p732
S''
sS'Default'
p733
S'0'
sS'Field'
p734
S'id'
p735
sS'Key'
p736
S'PRI'
p737
sS'Null'
p738
S''
sS'Type'
p739
S'mediumint(9)'
p740
sa(dp741
g732
S''
sg733
S''
sg734
S'thedata'
p742
sg736
S''
sg738
S''
sg739
S'longblob'
p743
sa(lp744
(dp745
S'Comment'
p746
S''
sS'Non_unique'
p747
L0L
sS'Sub_part'
p748
NsS'Index_type'
p749
S'BTREE'
p750
sS'Key_name'
p751
S'PRIMARY'
p752
sS'Collation'
p753
S'A'
sS'Null'
p754
S''
sS'Seq_in_index'
p755
L1L
sS'Table'
p756
S'attach_data'
p757
sS'Cardinality'
p758
L0L
sS'Packed'
p759
NsS'Column_name'
p760
S'id'
p761
satp762
sS'products'
p763
((lp764
(dp765
S'Extra'
p766
S'auto_increment'
p767
sS'Default'
p768
NsS'Field'
p769
S'id'
p770
sS'Key'
p771
S'PRI'
p772
sS'Null'
p773
S''
sS'Type'
p774
S'smallint(6)'
p775
sa(dp776
g766
S''
sg768
S''
sg769
S'name'
p777
sg771
S'UNI'
p778
sg773
S''
sg774
S'varchar(64)'
p779
sa(dp780
g766
S''
sg768
S'1'
sg769
S'classification_id'
p781
sg771
S''
sg773
S''
sg774
S'smallint(6)'
p782
sa(dp783
g766
S''
sg768
Nsg769
S'description'
p784
sg771
S''
sg773
S'YES'
p785
sg774
S'mediumtext'
p786
sa(dp787
g766
S''
sg768
S''
sg769
S'milestoneurl'
p788
sg771
S''
sg773
S''
sg774
S'tinytext'
p789
sa(dp790
g766
S''
sg768
S'0'
sg769
S'disallownew'
p791
sg771
S''
sg773
S''
sg774
S'tinyint(4)'
p792
sa(dp793
g766
S''
sg768
S'0'
sg769
S'votesperuser'
p794
sg771
S''
sg773
S''
sg774
S'smallint(6)'
p795
sa(dp796
g766
S''
sg768
S'10000'
p797
sg769
S'maxvotesperbug'
p798
sg771
S''
sg773
S''
sg774
S'smallint(6)'
p799
sa(dp800
g766
S''
sg768
S'0'
sg769
S'votestoconfirm'
p801
sg771
S''
sg773
S''
sg774
S'smallint(6)'
p802
sa(dp803
g766
S''
sg768
S'---'
p804
sg769
S'defaultmilestone'
p805
sg771
S''
sg773
S''
sg774
S'varchar(20)'
p806
sa(lp807
(dp808
S'Comment'
p809
S''
sS'Non_unique'
p810
L0L
sS'Sub_part'
p811
NsS'Index_type'
p812
S'BTREE'
p813
sS'Key_name'
p814
S'PRIMARY'
p815
sS'Collation'
p816
S'A'
sS'Null'
p817
S''
sS'Seq_in_index'
p818
L1L
sS'Table'
p819
S'products'
p820
sS'Cardinality'
p821
L0L
sS'Packed'
p822
NsS'Column_name'
p823
S'id'
p824
sa(dp825
g809
S''
sg810
L0L
sg811
Nsg812
S'BTREE'
p826
sg814
S'products_name_idx'
p827
sg816
S'A'
sg817
S''
sg818
L1L
sg819
S'products'
p828
sg821
L0L
sg822
Nsg823
S'name'
p829
satp830
sS'bug_status'
p831
((lp832
(dp833
S'Extra'
p834
S'auto_increment'
p835
sS'Default'
p836
NsS'Field'
p837
S'id'
p838
sS'Key'
p839
S'PRI'
p840
sS'Null'
p841
S''
sS'Type'
p842
S'smallint(6)'
p843
sa(dp844
g834
S''
sg836
S''
sg837
S'value'
p845
sg839
S'UNI'
p846
sg841
S''
sg842
S'varchar(64)'
p847
sa(dp848
g834
S''
sg836
S'0'
sg837
S'sortkey'
p849
sg839
S'MUL'
p850
sg841
S''
sg842
S'smallint(6)'
p851
sa(dp852
g834
S''
sg836
S'1'
sg837
S'isactive'
p853
sg839
S''
sg841
S''
sg842
S'tinyint(4)'
p854
sa(lp855
(dp856
S'Comment'
p857
S''
sS'Non_unique'
p858
L0L
sS'Sub_part'
p859
NsS'Index_type'
p860
S'BTREE'
p861
sS'Key_name'
p862
S'PRIMARY'
p863
sS'Collation'
p864
S'A'
sS'Null'
p865
S''
sS'Seq_in_index'
p866
L1L
sS'Table'
p867
S'bug_status'
p868
sS'Cardinality'
p869
L7L
sS'Packed'
p870
NsS'Column_name'
p871
S'id'
p872
sa(dp873
g857
S''
sg858
L0L
sg859
Nsg860
S'BTREE'
p874
sg862
S'bug_status_value_idx'
p875
sg864
S'A'
sg865
S''
sg866
L1L
sg867
S'bug_status'
p876
sg869
L7L
sg870
Nsg871
S'value'
p877
sa(dp878
g857
S''
sg858
L1L
sg859
Nsg860
S'BTREE'
p879
sg862
S'bug_status_sortkey_idx'
p880
sg864
S'A'
sg865
S''
sg866
L1L
sg867
S'bug_status'
p881
sg869
Nsg870
Nsg871
S'sortkey'
p882
sa(dp883
g857
S''
sg858
L1L
sg859
Nsg860
S'BTREE'
p884
sg862
S'bug_status_sortkey_idx'
p885
sg864
S'A'
sg865
S''
sg866
L2L
sg867
S'bug_status'
p886
sg869
Nsg870
Nsg871
S'value'
p887
satp888
sS'priority'
p889
((lp890
(dp891
S'Extra'
p892
S'auto_increment'
p893
sS'Default'
p894
NsS'Field'
p895
S'id'
p896
sS'Key'
p897
S'PRI'
p898
sS'Null'
p899
S''
sS'Type'
p900
S'smallint(6)'
p901
sa(dp902
g892
S''
sg894
S''
sg895
S'value'
p903
sg897
S'UNI'
p904
sg899
S''
sg900
S'varchar(64)'
p905
sa(dp906
g892
S''
sg894
S'0'
sg895
S'sortkey'
p907
sg897
S'MUL'
p908
sg899
S''
sg900
S'smallint(6)'
p909
sa(dp910
g892
S''
sg894
S'1'
sg895
S'isactive'
p911
sg897
S''
sg899
S''
sg900
S'tinyint(4)'
p912
sa(lp913
(dp914
S'Comment'
p915
S''
sS'Non_unique'
p916
L0L
sS'Sub_part'
p917
NsS'Index_type'
p918
S'BTREE'
p919
sS'Key_name'
p920
S'PRIMARY'
p921
sS'Collation'
p922
S'A'
sS'Null'
p923
S''
sS'Seq_in_index'
p924
L1L
sS'Table'
p925
S'priority'
p926
sS'Cardinality'
p927
L5L
sS'Packed'
p928
NsS'Column_name'
p929
S'id'
p930
sa(dp931
g915
S''
sg916
L0L
sg917
Nsg918
S'BTREE'
p932
sg920
S'priority_value_idx'
p933
sg922
S'A'
sg923
S''
sg924
L1L
sg925
S'priority'
p934
sg927
L5L
sg928
Nsg929
S'value'
p935
sa(dp936
g915
S''
sg916
L1L
sg917
Nsg918
S'BTREE'
p937
sg920
S'priority_sortkey_idx'
p938
sg922
S'A'
sg923
S''
sg924
L1L
sg925
S'priority'
p939
sg927
Nsg928
Nsg929
S'sortkey'
p940
sa(dp941
g915
S''
sg916
L1L
sg917
Nsg918
S'BTREE'
p942
sg920
S'priority_sortkey_idx'
p943
sg922
S'A'
sg923
S''
sg924
L2L
sg925
S'priority'
p944
sg927
Nsg928
Nsg929
S'value'
p945
satp946
sS'cc'
p947
((lp948
(dp949
S'Extra'
p950
S''
sS'Default'
p951
S'0'
sS'Field'
p952
S'bug_id'
p953
sS'Key'
p954
S'PRI'
p955
sS'Null'
p956
S''
sS'Type'
p957
S'mediumint(9)'
p958
sa(dp959
g950
S''
sg951
S'0'
sg952
S'who'
p960
sg954
S'PRI'
p961
sg956
S''
sg957
S'mediumint(9)'
p962
sa(lp963
(dp964
S'Comment'
p965
S''
sS'Non_unique'
p966
L0L
sS'Sub_part'
p967
NsS'Index_type'
p968
S'BTREE'
p969
sS'Key_name'
p970
S'cc_bug_id_idx'
p971
sS'Collation'
p972
S'A'
sS'Null'
p973
S''
sS'Seq_in_index'
p974
L1L
sS'Table'
p975
S'cc'
p976
sS'Cardinality'
p977
NsS'Packed'
p978
NsS'Column_name'
p979
S'bug_id'
p980
sa(dp981
g965
S''
sg966
L0L
sg967
Nsg968
S'BTREE'
p982
sg970
S'cc_bug_id_idx'
p983
sg972
S'A'
sg973
S''
sg974
L2L
sg975
S'cc'
p984
sg977
L0L
sg978
Nsg979
S'who'
p985
sa(dp986
g965
S''
sg966
L1L
sg967
Nsg968
S'BTREE'
p987
sg970
S'cc_who_idx'
p988
sg972
S'A'
sg973
S''
sg974
L1L
sg975
S'cc'
p989
sg977
Nsg978
Nsg979
S'who'
p990
satp991
sS'setting'
p992
((lp993
(dp994
S'Extra'
p995
S''
sS'Default'
p996
S''
sS'Field'
p997
S'name'
p998
sS'Key'
p999
S'PRI'
p1000
sS'Null'
p1001
S''
sS'Type'
p1002
S'varchar(32)'
p1003
sa(dp1004
g995
S''
sg996
S''
sg997
S'default_value'
p1005
sg999
S''
sg1001
S''
sg1002
S'varchar(32)'
p1006
sa(dp1007
g995
S''
sg996
S'1'
sg997
S'is_enabled'
p1008
sg999
S''
sg1001
S''
sg1002
S'tinyint(4)'
p1009
sa(dp1010
g995
S''
sg996
Nsg997
S'subclass'
p1011
sg999
S''
sg1001
S'YES'
p1012
sg1002
S'varchar(32)'
p1013
sa(lp1014
(dp1015
S'Comment'
p1016
S''
sS'Non_unique'
p1017
L0L
sS'Sub_part'
p1018
NsS'Index_type'
p1019
S'BTREE'
p1020
sS'Key_name'
p1021
S'PRIMARY'
p1022
sS'Collation'
p1023
S'A'
sS'Null'
p1024
S''
sS'Seq_in_index'
p1025
L1L
sS'Table'
p1026
S'setting'
p1027
sS'Cardinality'
p1028
L0L
sS'Packed'
p1029
NsS'Column_name'
p1030
S'name'
p1031
satp1032
sS'email_setting'
p1033
((lp1034
(dp1035
S'Extra'
p1036
S''
sS'Default'
p1037
S'0'
sS'Field'
p1038
S'user_id'
p1039
sS'Key'
p1040
S'PRI'
p1041
sS'Null'
p1042
S''
sS'Type'
p1043
S'mediumint(9)'
p1044
sa(dp1045
g1036
S''
sg1037
S'0'
sg1038
S'relationship'
p1046
sg1040
S'PRI'
p1047
sg1042
S''
sg1043
S'tinyint(4)'
p1048
sa(dp1049
g1036
S''
sg1037
S'0'
sg1038
S'event'
p1050
sg1040
S'PRI'
p1051
sg1042
S''
sg1043
S'tinyint(4)'
p1052
sa(lp1053
(dp1054
S'Comment'
p1055
S''
sS'Non_unique'
p1056
L0L
sS'Sub_part'
p1057
NsS'Index_type'
p1058
S'BTREE'
p1059
sS'Key_name'
p1060
S'email_setting_user_id_idx'
p1061
sS'Collation'
p1062
S'A'
sS'Null'
p1063
S''
sS'Seq_in_index'
p1064
L1L
sS'Table'
p1065
S'email_setting'
p1066
sS'Cardinality'
p1067
NsS'Packed'
p1068
NsS'Column_name'
p1069
S'user_id'
p1070
sa(dp1071
g1055
S''
sg1056
L0L
sg1057
Nsg1058
S'BTREE'
p1072
sg1060
S'email_setting_user_id_idx'
p1073
sg1062
S'A'
sg1063
S''
sg1064
L2L
sg1065
S'email_setting'
p1074
sg1067
Nsg1068
Nsg1069
S'relationship'
p1075
sa(dp1076
g1055
S''
sg1056
L0L
sg1057
Nsg1058
S'BTREE'
p1077
sg1060
S'email_setting_user_id_idx'
p1078
sg1062
S'A'
sg1063
S''
sg1064
L3L
sg1065
S'email_setting'
p1079
sg1067
L0L
sg1068
Nsg1069
S'event'
p1080
satp1081
sS'series'
p1082
((lp1083
(dp1084
S'Extra'
p1085
S'auto_increment'
p1086
sS'Default'
p1087
NsS'Field'
p1088
S'series_id'
p1089
sS'Key'
p1090
S'PRI'
p1091
sS'Null'
p1092
S''
sS'Type'
p1093
S'mediumint(9)'
p1094
sa(dp1095
g1085
S''
sg1087
Nsg1088
S'creator'
p1096
sg1090
S'MUL'
p1097
sg1092
S'YES'
p1098
sg1093
S'mediumint(9)'
p1099
sa(dp1100
g1085
S''
sg1087
S'0'
sg1088
S'category'
p1101
sg1090
S''
sg1092
S''
sg1093
S'smallint(6)'
p1102
sa(dp1103
g1085
S''
sg1087
S'0'
sg1088
S'subcategory'
p1104
sg1090
S''
sg1092
S''
sg1093
S'smallint(6)'
p1105
sa(dp1106
g1085
S''
sg1087
S''
sg1088
S'name'
p1107
sg1090
S''
sg1092
S''
sg1093
S'varchar(64)'
p1108
sa(dp1109
g1085
S''
sg1087
S'0'
sg1088
S'frequency'
p1110
sg1090
S''
sg1092
S''
sg1093
S'smallint(6)'
p1111
sa(dp1112
g1085
S''
sg1087
Nsg1088
S'last_viewed'
p1113
sg1090
S''
sg1092
S'YES'
p1114
sg1093
S'datetime'
p1115
sa(dp1116
g1085
S''
sg1087
S''
sg1088
S'query'
p1117
sg1090
S''
sg1092
S''
sg1093
S'mediumtext'
p1118
sa(dp1119
g1085
S''
sg1087
S'0'
sg1088
S'is_public'
p1120
sg1090
S''
sg1092
S''
sg1093
S'tinyint(4)'
p1121
sa(lp1122
(dp1123
S'Comment'
p1124
S''
sS'Non_unique'
p1125
L0L
sS'Sub_part'
p1126
NsS'Index_type'
p1127
S'BTREE'
p1128
sS'Key_name'
p1129
S'PRIMARY'
p1130
sS'Collation'
p1131
S'A'
sS'Null'
p1132
S''
sS'Seq_in_index'
p1133
L1L
sS'Table'
p1134
S'series'
p1135
sS'Cardinality'
p1136
L0L
sS'Packed'
p1137
NsS'Column_name'
p1138
S'series_id'
p1139
sa(dp1140
g1124
S''
sg1125
L0L
sg1126
Nsg1127
S'BTREE'
p1141
sg1129
S'series_creator_idx'
p1142
sg1131
S'A'
sg1132
S'YES'
p1143
sg1133
L1L
sg1134
S'series'
p1144
sg1136
Nsg1137
Nsg1138
S'creator'
p1145
sa(dp1146
g1124
S''
sg1125
L0L
sg1126
Nsg1127
S'BTREE'
p1147
sg1129
S'series_creator_idx'
p1148
sg1131
S'A'
sg1132
S''
sg1133
L2L
sg1134
S'series'
p1149
sg1136
Nsg1137
Nsg1138
S'category'
p1150
sa(dp1151
g1124
S''
sg1125
L0L
sg1126
Nsg1127
S'BTREE'
p1152
sg1129
S'series_creator_idx'
p1153
sg1131
S'A'
sg1132
S''
sg1133
L3L
sg1134
S'series'
p1154
sg1136
Nsg1137
Nsg1138
S'subcategory'
p1155
sa(dp1156
g1124
S''
sg1125
L0L
sg1126
Nsg1127
S'BTREE'
p1157
sg1129
S'series_creator_idx'
p1158
sg1131
S'A'
sg1132
S''
sg1133
L4L
sg1134
S'series'
p1159
sg1136
Nsg1137
Nsg1138
S'name'
p1160
satp1161
sS'logincookies'
p1162
((lp1163
(dp1164
S'Extra'
p1165
S''
sS'Default'
p1166
S''
sS'Field'
p1167
S'cookie'
p1168
sS'Key'
p1169
S'PRI'
p1170
sS'Null'
p1171
S''
sS'Type'
p1172
S'varchar(16)'
p1173
sa(dp1174
g1165
S''
sg1166
S'0'
sg1167
S'userid'
p1175
sg1169
S''
sg1171
S''
sg1172
S'mediumint(9)'
p1176
sa(dp1177
g1165
S''
sg1166
S''
sg1167
S'ipaddr'
p1178
sg1169
S''
sg1171
S''
sg1172
S'varchar(40)'
p1179
sa(dp1180
g1165
S''
sg1166
S'0000-00-00 00:00:00'
p1181
sg1167
S'lastused'
p1182
sg1169
S'MUL'
p1183
sg1171
S''
sg1172
S'datetime'
p1184
sa(lp1185
(dp1186
S'Comment'
p1187
S''
sS'Non_unique'
p1188
L0L
sS'Sub_part'
p1189
NsS'Index_type'
p1190
S'BTREE'
p1191
sS'Key_name'
p1192
S'PRIMARY'
p1193
sS'Collation'
p1194
S'A'
sS'Null'
p1195
S''
sS'Seq_in_index'
p1196
L1L
sS'Table'
p1197
S'logincookies'
p1198
sS'Cardinality'
p1199
L0L
sS'Packed'
p1200
NsS'Column_name'
p1201
S'cookie'
p1202
sa(dp1203
g1187
S''
sg1188
L1L
sg1189
Nsg1190
S'BTREE'
p1204
sg1192
S'logincookies_lastused_idx'
p1205
sg1194
S'A'
sg1195
S''
sg1196
L1L
sg1197
S'logincookies'
p1206
sg1199
Nsg1200
Nsg1201
S'lastused'
p1207
satp1208
sS'fielddefs'
p1209
((lp1210
(dp1211
S'Extra'
p1212
S'auto_increment'
p1213
sS'Default'
p1214
NsS'Field'
p1215
S'id'
p1216
sS'Key'
p1217
S'PRI'
p1218
sS'Null'
p1219
S''
sS'Type'
p1220
S'mediumint(9)'
p1221
sa(dp1222
g1212
S''
sg1214
S''
sg1215
S'name'
p1223
sg1217
S'UNI'
p1224
sg1219
S''
sg1220
S'varchar(64)'
p1225
sa(dp1226
g1212
S''
sg1214
S'0'
sg1215
S'type'
p1227
sg1217
S''
sg1219
S''
sg1220
S'smallint(6)'
p1228
sa(dp1229
g1212
S''
sg1214
S'0'
sg1215
S'custom'
p1230
sg1217
S''
sg1219
S''
sg1220
S'tinyint(4)'
p1231
sa(dp1232
g1212
S''
sg1214
S''
sg1215
S'description'
p1233
sg1217
S''
sg1219
S''
sg1220
S'mediumtext'
p1234
sa(dp1235
g1212
S''
sg1214
S'0'
sg1215
S'mailhead'
p1236
sg1217
S''
sg1219
S''
sg1220
S'tinyint(4)'
p1237
sa(dp1238
g1212
S''
sg1214
S'0'
sg1215
S'sortkey'
p1239
sg1217
S'MUL'
p1240
sg1219
S''
sg1220
S'smallint(6)'
p1241
sa(dp1242
g1212
S''
sg1214
S'0'
sg1215
S'obsolete'
p1243
sg1217
S''
sg1219
S''
sg1220
S'tinyint(4)'
p1244
sa(dp1245
g1212
S''
sg1214
S'0'
sg1215
S'enter_bug'
p1246
sg1217
S''
sg1219
S''
sg1220
S'tinyint(4)'
p1247
sa(lp1248
(dp1249
S'Comment'
p1250
S''
sS'Non_unique'
p1251
L0L
sS'Sub_part'
p1252
NsS'Index_type'
p1253
S'BTREE'
p1254
sS'Key_name'
p1255
S'PRIMARY'
p1256
sS'Collation'
p1257
S'A'
sS'Null'
p1258
S''
sS'Seq_in_index'
p1259
L1L
sS'Table'
p1260
S'fielddefs'
p1261
sS'Cardinality'
p1262
L0L
sS'Packed'
p1263
NsS'Column_name'
p1264
S'id'
p1265
sa(dp1266
g1250
S''
sg1251
L0L
sg1252
Nsg1253
S'BTREE'
p1267
sg1255
S'fielddefs_name_idx'
p1268
sg1257
S'A'
sg1258
S''
sg1259
L1L
sg1260
S'fielddefs'
p1269
sg1262
L0L
sg1263
Nsg1264
S'name'
p1270
sa(dp1271
g1250
S''
sg1251
L1L
sg1252
Nsg1253
S'BTREE'
p1272
sg1255
S'fielddefs_sortkey_idx'
p1273
sg1257
S'A'
sg1258
S''
sg1259
L1L
sg1260
S'fielddefs'
p1274
sg1262
Nsg1263
Nsg1264
S'sortkey'
p1275
satp1276
sS'whine_events'
p1277
((lp1278
(dp1279
S'Extra'
p1280
S'auto_increment'
p1281
sS'Default'
p1282
NsS'Field'
p1283
S'id'
p1284
sS'Key'
p1285
S'PRI'
p1286
sS'Null'
p1287
S''
sS'Type'
p1288
S'mediumint(9)'
p1289
sa(dp1290
g1280
S''
sg1282
S'0'
sg1283
S'owner_userid'
p1291
sg1285
S''
sg1287
S''
sg1288
S'mediumint(9)'
p1292
sa(dp1293
g1280
S''
sg1282
Nsg1283
S'subject'
p1294
sg1285
S''
sg1287
S'YES'
p1295
sg1288
S'varchar(128)'
p1296
sa(dp1297
g1280
S''
sg1282
Nsg1283
S'body'
p1298
sg1285
S''
sg1287
S'YES'
p1299
sg1288
S'mediumtext'
p1300
sa(lp1301
(dp1302
S'Comment'
p1303
S''
sS'Non_unique'
p1304
L0L
sS'Sub_part'
p1305
NsS'Index_type'
p1306
S'BTREE'
p1307
sS'Key_name'
p1308
S'PRIMARY'
p1309
sS'Collation'
p1310
S'A'
sS'Null'
p1311
S''
sS'Seq_in_index'
p1312
L1L
sS'Table'
p1313
S'whine_events'
p1314
sS'Cardinality'
p1315
L0L
sS'Packed'
p1316
NsS'Column_name'
p1317
S'id'
p1318
satp1319
sS'flaginclusions'
p1320
((lp1321
(dp1322
S'Extra'
p1323
S''
sS'Default'
p1324
S'0'
sS'Field'
p1325
S'type_id'
p1326
sS'Key'
p1327
S'MUL'
p1328
sS'Null'
p1329
S''
sS'Type'
p1330
S'smallint(6)'
p1331
sa(dp1332
g1323
S''
sg1324
Nsg1325
S'product_id'
p1333
sg1327
S''
sg1329
S'YES'
p1334
sg1330
S'smallint(6)'
p1335
sa(dp1336
g1323
S''
sg1324
Nsg1325
S'component_id'
p1337
sg1327
S''
sg1329
S'YES'
p1338
sg1330
S'smallint(6)'
p1339
sa(lp1340
(dp1341
S'Comment'
p1342
S''
sS'Non_unique'
p1343
L1L
sS'Sub_part'
p1344
NsS'Index_type'
p1345
S'BTREE'
p1346
sS'Key_name'
p1347
S'flaginclusions_type_id_idx'
p1348
sS'Collation'
p1349
S'A'
sS'Null'
p1350
S''
sS'Seq_in_index'
p1351
L1L
sS'Table'
p1352
S'flaginclusions'
p1353
sS'Cardinality'
p1354
NsS'Packed'
p1355
NsS'Column_name'
p1356
S'type_id'
p1357
sa(dp1358
g1342
S''
sg1343
L1L
sg1344
Nsg1345
S'BTREE'
p1359
sg1347
S'flaginclusions_type_id_idx'
p1360
sg1349
S'A'
sg1350
S'YES'
p1361
sg1351
L2L
sg1352
S'flaginclusions'
p1362
sg1354
Nsg1355
Nsg1356
S'product_id'
p1363
sa(dp1364
g1342
S''
sg1343
L1L
sg1344
Nsg1345
S'BTREE'
p1365
sg1347
S'flaginclusions_type_id_idx'
p1366
sg1349
S'A'
sg1350
S'YES'
p1367
sg1351
L3L
sg1352
S'flaginclusions'
p1368
sg1354
Nsg1355
Nsg1356
S'component_id'
p1369
satp1370
sS'profiles_activity'
p1371
((lp1372
(dp1373
S'Extra'
p1374
S''
sS'Default'
p1375
S'0'
sS'Field'
p1376
S'userid'
p1377
sS'Key'
p1378
S'MUL'
p1379
sS'Null'
p1380
S''
sS'Type'
p1381
S'mediumint(9)'
p1382
sa(dp1383
g1374
S''
sg1375
S'0'
sg1376
S'who'
p1384
sg1378
S''
sg1380
S''
sg1381
S'mediumint(9)'
p1385
sa(dp1386
g1374
S''
sg1375
S'0000-00-00 00:00:00'
p1387
sg1376
S'profiles_when'
p1388
sg1378
S'MUL'
p1389
sg1380
S''
sg1381
S'datetime'
p1390
sa(dp1391
g1374
S''
sg1375
S'0'
sg1376
S'fieldid'
p1392
sg1378
S'MUL'
p1393
sg1380
S''
sg1381
S'mediumint(9)'
p1394
sa(dp1395
g1374
S''
sg1375
Nsg1376
S'oldvalue'
p1396
sg1378
S''
sg1380
S'YES'
p1397
sg1381
S'tinytext'
p1398
sa(dp1399
g1374
S''
sg1375
Nsg1376
S'newvalue'
p1400
sg1378
S''
sg1380
S'YES'
p1401
sg1381
S'tinytext'
p1402
sa(lp1403
(dp1404
S'Comment'
p1405
S''
sS'Non_unique'
p1406
L1L
sS'Sub_part'
p1407
NsS'Index_type'
p1408
S'BTREE'
p1409
sS'Key_name'
p1410
S'profiles_activity_userid_idx'
p1411
sS'Collation'
p1412
S'A'
sS'Null'
p1413
S''
sS'Seq_in_index'
p1414
L1L
sS'Table'
p1415
S'profiles_activity'
p1416
sS'Cardinality'
p1417
NsS'Packed'
p1418
NsS'Column_name'
p1419
S'userid'
p1420
sa(dp1421
g1405
S''
sg1406
L1L
sg1407
Nsg1408
S'BTREE'
p1422
sg1410
S'profiles_activity_profiles_when_idx'
p1423
sg1412
S'A'
sg1413
S''
sg1414
L1L
sg1415
S'profiles_activity'
p1424
sg1417
Nsg1418
Nsg1419
S'profiles_when'
p1425
sa(dp1426
g1405
S''
sg1406
L1L
sg1407
Nsg1408
S'BTREE'
p1427
sg1410
S'profiles_activity_fieldid_idx'
p1428
sg1412
S'A'
sg1413
S''
sg1414
L1L
sg1415
S'profiles_activity'
p1429
sg1417
Nsg1418
Nsg1419
S'fieldid'
p1430
satp1431
sS'bugs_activity'
p1432
((lp1433
(dp1434
S'Extra'
p1435
S''
sS'Default'
p1436
S'0'
sS'Field'
p1437
S'bug_id'
p1438
sS'Key'
p1439
S'MUL'
p1440
sS'Null'
p1441
S''
sS'Type'
p1442
S'mediumint(9)'
p1443
sa(dp1444
g1435
S''
sg1436
Nsg1437
S'attach_id'
p1445
sg1439
S''
sg1441
S'YES'
p1446
sg1442
S'mediumint(9)'
p1447
sa(dp1448
g1435
S''
sg1436
S'0'
sg1437
S'who'
p1449
sg1439
S'MUL'
p1450
sg1441
S''
sg1442
S'mediumint(9)'
p1451
sa(dp1452
g1435
S''
sg1436
S'0000-00-00 00:00:00'
p1453
sg1437
S'bug_when'
p1454
sg1439
S'MUL'
p1455
sg1441
S''
sg1442
S'datetime'
p1456
sa(dp1457
g1435
S''
sg1436
S'0'
sg1437
S'fieldid'
p1458
sg1439
S'MUL'
p1459
sg1441
S''
sg1442
S'mediumint(9)'
p1460
sa(dp1461
g1435
S''
sg1436
Nsg1437
S'added'
p1462
sg1439
S''
sg1441
S'YES'
p1463
sg1442
S'tinytext'
p1464
sa(dp1465
g1435
S''
sg1436
Nsg1437
S'removed'
p1466
sg1439
S''
sg1441
S'YES'
p1467
sg1442
S'tinytext'
p1468
sa(lp1469
(dp1470
S'Comment'
p1471
S''
sS'Non_unique'
p1472
L1L
sS'Sub_part'
p1473
NsS'Index_type'
p1474
S'BTREE'
p1475
sS'Key_name'
p1476
S'bugs_activity_bug_id_idx'
p1477
sS'Collation'
p1478
S'A'
sS'Null'
p1479
S''
sS'Seq_in_index'
p1480
L1L
sS'Table'
p1481
S'bugs_activity'
p1482
sS'Cardinality'
p1483
NsS'Packed'
p1484
NsS'Column_name'
p1485
S'bug_id'
p1486
sa(dp1487
g1471
S''
sg1472
L1L
sg1473
Nsg1474
S'BTREE'
p1488
sg1476
S'bugs_activity_who_idx'
p1489
sg1478
S'A'
sg1479
S''
sg1480
L1L
sg1481
S'bugs_activity'
p1490
sg1483
Nsg1484
Nsg1485
S'who'
p1491
sa(dp1492
g1471
S''
sg1472
L1L
sg1473
Nsg1474
S'BTREE'
p1493
sg1476
S'bugs_activity_bug_when_idx'
p1494
sg1478
S'A'
sg1479
S''
sg1480
L1L
sg1481
S'bugs_activity'
p1495
sg1483
Nsg1484
Nsg1485
S'bug_when'
p1496
sa(dp1497
g1471
S''
sg1472
L1L
sg1473
Nsg1474
S'BTREE'
p1498
sg1476
S'bugs_activity_fieldid_idx'
p1499
sg1478
S'A'
sg1479
S''
sg1480
L1L
sg1481
S'bugs_activity'
p1500
sg1483
Nsg1484
Nsg1485
S'fieldid'
p1501
satp1502
sS'watch'
p1503
((lp1504
(dp1505
S'Extra'
p1506
S''
sS'Default'
p1507
S'0'
sS'Field'
p1508
S'watcher'
p1509
sS'Key'
p1510
S'PRI'
p1511
sS'Null'
p1512
S''
sS'Type'
p1513
S'mediumint(9)'
p1514
sa(dp1515
g1506
S''
sg1507
S'0'
sg1508
S'watched'
p1516
sg1510
S'PRI'
p1517
sg1512
S''
sg1513
S'mediumint(9)'
p1518
sa(lp1519
(dp1520
S'Comment'
p1521
S''
sS'Non_unique'
p1522
L0L
sS'Sub_part'
p1523
NsS'Index_type'
p1524
S'BTREE'
p1525
sS'Key_name'
p1526
S'watch_watcher_idx'
p1527
sS'Collation'
p1528
S'A'
sS'Null'
p1529
S''
sS'Seq_in_index'
p1530
L1L
sS'Table'
p1531
S'watch'
p1532
sS'Cardinality'
p1533
NsS'Packed'
p1534
NsS'Column_name'
p1535
S'watcher'
p1536
sa(dp1537
g1521
S''
sg1522
L0L
sg1523
Nsg1524
S'BTREE'
p1538
sg1526
S'watch_watcher_idx'
p1539
sg1528
S'A'
sg1529
S''
sg1530
L2L
sg1531
S'watch'
p1540
sg1533
L0L
sg1534
Nsg1535
S'watched'
p1541
sa(dp1542
g1521
S''
sg1522
L1L
sg1523
Nsg1524
S'BTREE'
p1543
sg1526
S'watch_watched_idx'
p1544
sg1528
S'A'
sg1529
S''
sg1530
L1L
sg1531
S'watch'
p1545
sg1533
Nsg1534
Nsg1535
S'watched'
p1546
satp1547
sS'bug_severity'
p1548
((lp1549
(dp1550
S'Extra'
p1551
S'auto_increment'
p1552
sS'Default'
p1553
NsS'Field'
p1554
S'id'
p1555
sS'Key'
p1556
S'PRI'
p1557
sS'Null'
p1558
S''
sS'Type'
p1559
S'smallint(6)'
p1560
sa(dp1561
g1551
S''
sg1553
S''
sg1554
S'value'
p1562
sg1556
S'UNI'
p1563
sg1558
S''
sg1559
S'varchar(64)'
p1564
sa(dp1565
g1551
S''
sg1553
S'0'
sg1554
S'sortkey'
p1566
sg1556
S'MUL'
p1567
sg1558
S''
sg1559
S'smallint(6)'
p1568
sa(dp1569
g1551
S''
sg1553
S'1'
sg1554
S'isactive'
p1570
sg1556
S''
sg1558
S''
sg1559
S'tinyint(4)'
p1571
sa(lp1572
(dp1573
S'Comment'
p1574
S''
sS'Non_unique'
p1575
L0L
sS'Sub_part'
p1576
NsS'Index_type'
p1577
S'BTREE'
p1578
sS'Key_name'
p1579
S'PRIMARY'
p1580
sS'Collation'
p1581
S'A'
sS'Null'
p1582
S''
sS'Seq_in_index'
p1583
L1L
sS'Table'
p1584
S'bug_severity'
p1585
sS'Cardinality'
p1586
L7L
sS'Packed'
p1587
NsS'Column_name'
p1588
S'id'
p1589
sa(dp1590
g1574
S''
sg1575
L0L
sg1576
Nsg1577
S'BTREE'
p1591
sg1579
S'bug_severity_value_idx'
p1592
sg1581
S'A'
sg1582
S''
sg1583
L1L
sg1584
S'bug_severity'
p1593
sg1586
L7L
sg1587
Nsg1588
S'value'
p1594
sa(dp1595
g1574
S''
sg1575
L1L
sg1576
Nsg1577
S'BTREE'
p1596
sg1579
S'bug_severity_sortkey_idx'
p1597
sg1581
S'A'
sg1582
S''
sg1583
L1L
sg1584
S'bug_severity'
p1598
sg1586
Nsg1587
Nsg1588
S'sortkey'
p1599
sa(dp1600
g1574
S''
sg1575
L1L
sg1576
Nsg1577
S'BTREE'
p1601
sg1579
S'bug_severity_sortkey_idx'
p1602
sg1581
S'A'
sg1582
S''
sg1583
L2L
sg1584
S'bug_severity'
p1603
sg1586
Nsg1587
Nsg1588
S'value'
p1604
satp1605
sS'namedqueries'
p1606
((lp1607
(dp1608
S'Extra'
p1609
S'auto_increment'
p1610
sS'Default'
p1611
NsS'Field'
p1612
S'id'
p1613
sS'Key'
p1614
S'PRI'
p1615
sS'Null'
p1616
S''
sS'Type'
p1617
S'mediumint(9)'
p1618
sa(dp1619
g1609
S''
sg1611
S'0'
sg1612
S'userid'
p1620
sg1614
S'MUL'
p1621
sg1616
S''
sg1617
S'mediumint(9)'
p1622
sa(dp1623
g1609
S''
sg1611
S''
sg1612
S'name'
p1624
sg1614
S''
sg1616
S''
sg1617
S'varchar(64)'
p1625
sa(dp1626
g1609
S''
sg1611
S''
sg1612
S'query'
p1627
sg1614
S''
sg1616
S''
sg1617
S'mediumtext'
p1628
sa(dp1629
g1609
S''
sg1611
S'0'
sg1612
S'query_type'
p1630
sg1614
S''
sg1616
S''
sg1617
S'tinyint(4)'
p1631
sa(lp1632
(dp1633
S'Comment'
p1634
S''
sS'Non_unique'
p1635
L0L
sS'Sub_part'
p1636
NsS'Index_type'
p1637
S'BTREE'
p1638
sS'Key_name'
p1639
S'PRIMARY'
p1640
sS'Collation'
p1641
S'A'
sS'Null'
p1642
S''
sS'Seq_in_index'
p1643
L1L
sS'Table'
p1644
S'namedqueries'
p1645
sS'Cardinality'
p1646
L0L
sS'Packed'
p1647
NsS'Column_name'
p1648
S'id'
p1649
sa(dp1650
g1634
S''
sg1635
L0L
sg1636
Nsg1637
S'BTREE'
p1651
sg1639
S'namedqueries_userid_idx'
p1652
sg1641
S'A'
sg1642
S''
sg1643
L1L
sg1644
S'namedqueries'
p1653
sg1646
Nsg1647
Nsg1648
S'userid'
p1654
sa(dp1655
g1634
S''
sg1635
L0L
sg1636
Nsg1637
S'BTREE'
p1656
sg1639
S'namedqueries_userid_idx'
p1657
sg1641
S'A'
sg1642
S''
sg1643
L2L
sg1644
S'namedqueries'
p1658
sg1646
L0L
sg1647
Nsg1648
S'name'
p1659
satp1660
sS'bz_schema'
p1661
((lp1662
(dp1663
S'Extra'
p1664
S''
sS'Default'
p1665
S''
sS'Field'
p1666
S'schema_data'
p1667
sS'Key'
p1668
S''
sS'Null'
p1669
S''
sS'Type'
p1670
S'longblob'
p1671
sa(dp1672
g1664
S''
sg1665
S'0.00'
p1673
sg1666
S'version'
p1674
sg1668
S''
sg1669
S''
sg1670
S'decimal(3,2)'
p1675
sa(ltp1676
sS'tokens'
p1677
((lp1678
(dp1679
S'Extra'
p1680
S''
sS'Default'
p1681
NsS'Field'
p1682
S'userid'
p1683
sS'Key'
p1684
S'MUL'
p1685
sS'Null'
p1686
S'YES'
p1687
sS'Type'
p1688
S'mediumint(9)'
p1689
sa(dp1690
g1680
S''
sg1681
S'0000-00-00 00:00:00'
p1691
sg1682
S'issuedate'
p1692
sg1684
S''
sg1686
S''
sg1688
S'datetime'
p1693
sa(dp1694
g1680
S''
sg1681
S''
sg1682
S'token'
p1695
sg1684
S'PRI'
p1696
sg1686
S''
sg1688
S'varchar(16)'
p1697
sa(dp1698
g1680
S''
sg1681
S''
sg1682
S'tokentype'
p1699
sg1684
S''
sg1686
S''
sg1688
S'varchar(8)'
p1700
sa(dp1701
g1680
S''
sg1681
Nsg1682
S'eventdata'
p1702
sg1684
S''
sg1686
S'YES'
p1703
sg1688
S'tinytext'
p1704
sa(lp1705
(dp1706
S'Comment'
p1707
S''
sS'Non_unique'
p1708
L0L
sS'Sub_part'
p1709
NsS'Index_type'
p1710
S'BTREE'
p1711
sS'Key_name'
p1712
S'PRIMARY'
p1713
sS'Collation'
p1714
S'A'
sS'Null'
p1715
S''
sS'Seq_in_index'
p1716
L1L
sS'Table'
p1717
S'tokens'
p1718
sS'Cardinality'
p1719
L0L
sS'Packed'
p1720
NsS'Column_name'
p1721
S'token'
p1722
sa(dp1723
g1707
S''
sg1708
L1L
sg1709
Nsg1710
S'BTREE'
p1724
sg1712
S'tokens_userid_idx'
p1725
sg1714
S'A'
sg1715
S'YES'
p1726
sg1716
L1L
sg1717
S'tokens'
p1727
sg1719
Nsg1720
Nsg1721
S'userid'
p1728
satp1729
sS'whine_schedules'
p1730
((lp1731
(dp1732
S'Extra'
p1733
S'auto_increment'
p1734
sS'Default'
p1735
NsS'Field'
p1736
S'id'
p1737
sS'Key'
p1738
S'PRI'
p1739
sS'Null'
p1740
S''
sS'Type'
p1741
S'mediumint(9)'
p1742
sa(dp1743
g1733
S''
sg1735
S'0'
sg1736
S'eventid'
p1744
sg1738
S'MUL'
p1745
sg1740
S''
sg1741
S'mediumint(9)'
p1746
sa(dp1747
g1733
S''
sg1735
Nsg1736
S'run_day'
p1748
sg1738
S''
sg1740
S'YES'
p1749
sg1741
S'varchar(32)'
p1750
sa(dp1751
g1733
S''
sg1735
Nsg1736
S'run_time'
p1752
sg1738
S''
sg1740
S'YES'
p1753
sg1741
S'varchar(32)'
p1754
sa(dp1755
g1733
S''
sg1735
Nsg1736
S'run_next'
p1756
sg1738
S'MUL'
p1757
sg1740
S'YES'
p1758
sg1741
S'datetime'
p1759
sa(dp1760
g1733
S''
sg1735
S'0'
sg1736
S'mailto'
p1761
sg1738
S''
sg1740
S''
sg1741
S'mediumint(9)'
p1762
sa(dp1763
g1733
S''
sg1735
S'0'
sg1736
S'mailto_type'
p1764
sg1738
S''
sg1740
S''
sg1741
S'smallint(6)'
p1765
sa(lp1766
(dp1767
S'Comment'
p1768
S''
sS'Non_unique'
p1769
L0L
sS'Sub_part'
p1770
NsS'Index_type'
p1771
S'BTREE'
p1772
sS'Key_name'
p1773
S'PRIMARY'
p1774
sS'Collation'
p1775
S'A'
sS'Null'
p1776
S''
sS'Seq_in_index'
p1777
L1L
sS'Table'
p1778
S'whine_schedules'
p1779
sS'Cardinality'
p1780
L0L
sS'Packed'
p1781
NsS'Column_name'
p1782
S'id'
p1783
sa(dp1784
g1768
S''
sg1769
L1L
sg1770
Nsg1771
S'BTREE'
p1785
sg1773
S'whine_schedules_run_next_idx'
p1786
sg1775
S'A'
sg1776
S'YES'
p1787
sg1777
L1L
sg1778
S'whine_schedules'
p1788
sg1780
Nsg1781
Nsg1782
S'run_next'
p1789
sa(dp1790
g1768
S''
sg1769
L1L
sg1770
Nsg1771
S'BTREE'
p1791
sg1773
S'whine_schedules_eventid_idx'
p1792
sg1775
S'A'
sg1776
S''
sg1777
L1L
sg1778
S'whine_schedules'
p1793
sg1780
Nsg1781
Nsg1782
S'eventid'
p1794
satp1795
sS'dependencies'
p1796
((lp1797
(dp1798
S'Extra'
p1799
S''
sS'Default'
p1800
S'0'
sS'Field'
p1801
S'blocked'
p1802
sS'Key'
p1803
S'MUL'
p1804
sS'Null'
p1805
S''
sS'Type'
p1806
S'mediumint(9)'
p1807
sa(dp1808
g1799
S''
sg1800
S'0'
sg1801
S'dependson'
p1809
sg1803
S'MUL'
p1810
sg1805
S''
sg1806
S'mediumint(9)'
p1811
sa(lp1812
(dp1813
S'Comment'
p1814
S''
sS'Non_unique'
p1815
L1L
sS'Sub_part'
p1816
NsS'Index_type'
p1817
S'BTREE'
p1818
sS'Key_name'
p1819
S'dependencies_blocked_idx'
p1820
sS'Collation'
p1821
S'A'
sS'Null'
p1822
S''
sS'Seq_in_index'
p1823
L1L
sS'Table'
p1824
S'dependencies'
p1825
sS'Cardinality'
p1826
NsS'Packed'
p1827
NsS'Column_name'
p1828
S'blocked'
p1829
sa(dp1830
g1814
S''
sg1815
L1L
sg1816
Nsg1817
S'BTREE'
p1831
sg1819
S'dependencies_dependson_idx'
p1832
sg1821
S'A'
sg1822
S''
sg1823
L1L
sg1824
S'dependencies'
p1833
sg1826
Nsg1827
Nsg1828
S'dependson'
p1834
satp1835
sS'category_group_map'
p1836
((lp1837
(dp1838
S'Extra'
p1839
S''
sS'Default'
p1840
S'0'
sS'Field'
p1841
S'category_id'
p1842
sS'Key'
p1843
S'PRI'
p1844
sS'Null'
p1845
S''
sS'Type'
p1846
S'smallint(6)'
p1847
sa(dp1848
g1839
S''
sg1840
S'0'
sg1841
S'group_id'
p1849
sg1843
S'PRI'
p1850
sg1845
S''
sg1846
S'mediumint(9)'
p1851
sa(lp1852
(dp1853
S'Comment'
p1854
S''
sS'Non_unique'
p1855
L0L
sS'Sub_part'
p1856
NsS'Index_type'
p1857
S'BTREE'
p1858
sS'Key_name'
p1859
S'category_group_map_category_id_idx'
p1860
sS'Collation'
p1861
S'A'
sS'Null'
p1862
S''
sS'Seq_in_index'
p1863
L1L
sS'Table'
p1864
S'category_group_map'
p1865
sS'Cardinality'
p1866
NsS'Packed'
p1867
NsS'Column_name'
p1868
S'category_id'
p1869
sa(dp1870
g1854
S''
sg1855
L0L
sg1856
Nsg1857
S'BTREE'
p1871
sg1859
S'category_group_map_category_id_idx'
p1872
sg1861
S'A'
sg1862
S''
sg1863
L2L
sg1864
S'category_group_map'
p1873
sg1866
L0L
sg1867
Nsg1868
S'group_id'
p1874
satp1875
sS'groups'
p1876
((lp1877
(dp1878
S'Extra'
p1879
S'auto_increment'
p1880
sS'Default'
p1881
NsS'Field'
p1882
S'id'
p1883
sS'Key'
p1884
S'PRI'
p1885
sS'Null'
p1886
S''
sS'Type'
p1887
S'mediumint(9)'
p1888
sa(dp1889
g1879
S''
sg1881
S''
sg1882
S'name'
p1890
sg1884
S'UNI'
p1891
sg1886
S''
sg1887
S'varchar(255)'
p1892
sa(dp1893
g1879
S''
sg1881
S''
sg1882
S'description'
p1894
sg1884
S''
sg1886
S''
sg1887
S'text'
p1895
sa(dp1896
g1879
S''
sg1881
S'0'
sg1882
S'isbuggroup'
p1897
sg1884
S''
sg1886
S''
sg1887
S'tinyint(4)'
p1898
sa(dp1899
g1879
S''
sg1881
S''
sg1882
S'userregexp'
p1900
sg1884
S''
sg1886
S''
sg1887
S'tinytext'
p1901
sa(dp1902
g1879
S''
sg1881
S'1'
sg1882
S'isactive'
p1903
sg1884
S''
sg1886
S''
sg1887
S'tinyint(4)'
p1904
sa(lp1905
(dp1906
S'Comment'
p1907
S''
sS'Non_unique'
p1908
L0L
sS'Sub_part'
p1909
NsS'Index_type'
p1910
S'BTREE'
p1911
sS'Key_name'
p1912
S'PRIMARY'
p1913
sS'Collation'
p1914
S'A'
sS'Null'
p1915
S''
sS'Seq_in_index'
p1916
L1L
sS'Table'
p1917
S'groups'
p1918
sS'Cardinality'
p1919
L0L
sS'Packed'
p1920
NsS'Column_name'
p1921
S'id'
p1922
sa(dp1923
g1907
S''
sg1908
L0L
sg1909
Nsg1910
S'BTREE'
p1924
sg1912
S'groups_name_idx'
p1925
sg1914
S'A'
sg1915
S''
sg1916
L1L
sg1917
S'groups'
p1926
sg1919
L0L
sg1920
Nsg1921
S'name'
p1927
satp1928
sS'milestones'
p1929
((lp1930
(dp1931
S'Extra'
p1932
S'auto_increment'
p1933
sS'Default'
p1934
NsS'Field'
p1935
S'id'
p1936
sS'Key'
p1937
S'PRI'
p1938
sS'Null'
p1939
S''
sS'Type'
p1940
S'mediumint(9)'
p1941
sa(dp1942
g1932
S''
sg1934
S'0'
sg1935
S'product_id'
p1943
sg1937
S'MUL'
p1944
sg1939
S''
sg1940
S'smallint(6)'
p1945
sa(dp1946
g1932
S''
sg1934
S''
sg1935
S'value'
p1947
sg1937
S''
sg1939
S''
sg1940
S'varchar(20)'
p1948
sa(dp1949
g1932
S''
sg1934
S'0'
sg1935
S'sortkey'
p1950
sg1937
S''
sg1939
S''
sg1940
S'smallint(6)'
p1951
sa(lp1952
(dp1953
S'Comment'
p1954
S''
sS'Non_unique'
p1955
L0L
sS'Sub_part'
p1956
NsS'Index_type'
p1957
S'BTREE'
p1958
sS'Key_name'
p1959
S'PRIMARY'
p1960
sS'Collation'
p1961
S'A'
sS'Null'
p1962
S''
sS'Seq_in_index'
p1963
L1L
sS'Table'
p1964
S'milestones'
p1965
sS'Cardinality'
p1966
L0L
sS'Packed'
p1967
NsS'Column_name'
p1968
S'id'
p1969
sa(dp1970
g1954
S''
sg1955
L0L
sg1956
Nsg1957
S'BTREE'
p1971
sg1959
S'milestones_product_id_idx'
p1972
sg1961
S'A'
sg1962
S''
sg1963
L1L
sg1964
S'milestones'
p1973
sg1966
Nsg1967
Nsg1968
S'product_id'
p1974
sa(dp1975
g1954
S''
sg1955
L0L
sg1956
Nsg1957
S'BTREE'
p1976
sg1959
S'milestones_product_id_idx'
p1977
sg1961
S'A'
sg1962
S''
sg1963
L2L
sg1964
S'milestones'
p1978
sg1966
L0L
sg1967
Nsg1968
S'value'
p1979
satp1980
sS'classifications'
p1981
((lp1982
(dp1983
S'Extra'
p1984
S'auto_increment'
p1985
sS'Default'
p1986
NsS'Field'
p1987
S'id'
p1988
sS'Key'
p1989
S'PRI'
p1990
sS'Null'
p1991
S''
sS'Type'
p1992
S'smallint(6)'
p1993
sa(dp1994
g1984
S''
sg1986
S''
sg1987
S'name'
p1995
sg1989
S'UNI'
p1996
sg1991
S''
sg1992
S'varchar(64)'
p1997
sa(dp1998
g1984
S''
sg1986
Nsg1987
S'description'
p1999
sg1989
S''
sg1991
S'YES'
p2000
sg1992
S'mediumtext'
p2001
sa(dp2002
g1984
S''
sg1986
S'0'
sg1987
S'sortkey'
p2003
sg1989
S''
sg1991
S''
sg1992
S'smallint(6)'
p2004
sa(lp2005
(dp2006
S'Comment'
p2007
S''
sS'Non_unique'
p2008
L0L
sS'Sub_part'
p2009
NsS'Index_type'
p2010
S'BTREE'
p2011
sS'Key_name'
p2012
S'PRIMARY'
p2013
sS'Collation'
p2014
S'A'
sS'Null'
p2015
S''
sS'Seq_in_index'
p2016
L1L
sS'Table'
p2017
S'classifications'
p2018
sS'Cardinality'
p2019
L0L
sS'Packed'
p2020
NsS'Column_name'
p2021
S'id'
p2022
sa(dp2023
g2007
S''
sg2008
L0L
sg2009
Nsg2010
S'BTREE'
p2024
sg2012
S'classifications_name_idx'
p2025
sg2014
S'A'
sg2015
S''
sg2016
L1L
sg2017
S'classifications'
p2026
sg2019
L0L
sg2020
Nsg2021
S'name'
p2027
satp2028
sS'longdescs'
p2029
((lp2030
(dp2031
S'Extra'
p2032
S'auto_increment'
p2033
sS'Default'
p2034
NsS'Field'
p2035
S'comment_id'
p2036
sS'Key'
p2037
S'PRI'
p2038
sS'Null'
p2039
S''
sS'Type'
p2040
S'mediumint(9)'
p2041
sa(dp2042
g2032
S''
sg2034
S'0'
sg2035
S'bug_id'
p2043
sg2037
S'MUL'
p2044
sg2039
S''
sg2040
S'mediumint(9)'
p2045
sa(dp2046
g2032
S''
sg2034
S'0'
sg2035
S'who'
p2047
sg2037
S'MUL'
p2048
sg2039
S''
sg2040
S'mediumint(9)'
p2049
sa(dp2050
g2032
S''
sg2034
S'0000-00-00 00:00:00'
p2051
sg2035
S'bug_when'
p2052
sg2037
S'MUL'
p2053
sg2039
S''
sg2040
S'datetime'
p2054
sa(dp2055
g2032
S''
sg2034
S'0.00'
p2056
sg2035
S'work_time'
p2057
sg2037
S''
sg2039
S''
sg2040
S'decimal(5,2)'
p2058
sa(dp2059
g2032
S''
sg2034
S''
sg2035
S'thetext'
p2060
sg2037
S'MUL'
p2061
sg2039
S''
sg2040
S'mediumtext'
p2062
sa(dp2063
g2032
S''
sg2034
S'0'
sg2035
S'isprivate'
p2064
sg2037
S''
sg2039
S''
sg2040
S'tinyint(4)'
p2065
sa(dp2066
g2032
S''
sg2034
S'0'
sg2035
S'already_wrapped'
p2067
sg2037
S''
sg2039
S''
sg2040
S'tinyint(4)'
p2068
sa(dp2069
g2032
S''
sg2034
S'0'
sg2035
S'type'
p2070
sg2037
S''
sg2039
S''
sg2040
S'smallint(6)'
p2071
sa(dp2072
g2032
S''
sg2034
Nsg2035
S'extra_data'
p2073
sg2037
S''
sg2039
S'YES'
p2074
sg2040
S'varchar(255)'
p2075
sa(lp2076
(dp2077
S'Comment'
p2078
S''
sS'Non_unique'
p2079
L0L
sS'Sub_part'
p2080
NsS'Index_type'
p2081
S'BTREE'
p2082
sS'Key_name'
p2083
S'PRIMARY'
p2084
sS'Collation'
p2085
S'A'
sS'Null'
p2086
S''
sS'Seq_in_index'
p2087
L1L
sS'Table'
p2088
S'longdescs'
p2089
sS'Cardinality'
p2090
L0L
sS'Packed'
p2091
NsS'Column_name'
p2092
S'comment_id'
p2093
sa(dp2094
g2078
S''
sg2079
L1L
sg2080
Nsg2081
S'BTREE'
p2095
sg2083
S'longdescs_bug_id_idx'
p2096
sg2085
S'A'
sg2086
S''
sg2087
L1L
sg2088
S'longdescs'
p2097
sg2090
Nsg2091
Nsg2092
S'bug_id'
p2098
sa(dp2099
g2078
S''
sg2079
L1L
sg2080
Nsg2081
S'BTREE'
p2100
sg2083
S'longdescs_who_idx'
p2101
sg2085
S'A'
sg2086
S''
sg2087
L1L
sg2088
S'longdescs'
p2102
sg2090
Nsg2091
Nsg2092
S'who'
p2103
sa(dp2104
g2078
S''
sg2079
L1L
sg2080
Nsg2081
S'BTREE'
p2105
sg2083
S'longdescs_who_idx'
p2106
sg2085
S'A'
sg2086
S''
sg2087
L2L
sg2088
S'longdescs'
p2107
sg2090
Nsg2091
Nsg2092
S'bug_id'
p2108
sa(dp2109
g2078
S''
sg2079
L1L
sg2080
Nsg2081
S'BTREE'
p2110
sg2083
S'longdescs_bug_when_idx'
p2111
sg2085
S'A'
sg2086
S''
sg2087
L1L
sg2088
S'longdescs'
p2112
sg2090
Nsg2091
Nsg2092
S'bug_when'
p2113
sa(dp2114
g2078
S''
sg2079
L1L
sg2080
Nsg2081
S'FULLTEXT'
p2115
sg2083
S'longdescs_thetext_idx'
p2116
sg2085
S'A'
sg2086
S''
sg2087
L1L
sg2088
S'longdescs'
p2117
sg2090
Nsg2091
Nsg2092
S'thetext'
p2118
satp2119
sS'versions'
p2120
((lp2121
(dp2122
S'Extra'
p2123
S'auto_increment'
p2124
sS'Default'
p2125
NsS'Field'
p2126
S'id'
p2127
sS'Key'
p2128
S'PRI'
p2129
sS'Null'
p2130
S''
sS'Type'
p2131
S'mediumint(9)'
p2132
sa(dp2133
g2123
S''
sg2125
S''
sg2126
S'value'
p2134
sg2128
S''
sg2130
S''
sg2131
S'varchar(64)'
p2135
sa(dp2136
g2123
S''
sg2125
S'0'
sg2126
S'product_id'
p2137
sg2128
S'MUL'
p2138
sg2130
S''
sg2131
S'smallint(6)'
p2139
sa(lp2140
(dp2141
S'Comment'
p2142
S''
sS'Non_unique'
p2143
L0L
sS'Sub_part'
p2144
NsS'Index_type'
p2145
S'BTREE'
p2146
sS'Key_name'
p2147
S'PRIMARY'
p2148
sS'Collation'
p2149
S'A'
sS'Null'
p2150
S''
sS'Seq_in_index'
p2151
L1L
sS'Table'
p2152
S'versions'
p2153
sS'Cardinality'
p2154
L0L
sS'Packed'
p2155
NsS'Column_name'
p2156
S'id'
p2157
sa(dp2158
g2142
S''
sg2143
L0L
sg2144
Nsg2145
S'BTREE'
p2159
sg2147
S'versions_product_id_idx'
p2160
sg2149
S'A'
sg2150
S''
sg2151
L1L
sg2152
S'versions'
p2161
sg2154
Nsg2155
Nsg2156
S'product_id'
p2162
sa(dp2163
g2142
S''
sg2143
L0L
sg2144
Nsg2145
S'BTREE'
p2164
sg2147
S'versions_product_id_idx'
p2165
sg2149
S'A'
sg2150
S''
sg2151
L2L
sg2152
S'versions'
p2166
sg2154
L0L
sg2155
Nsg2156
S'value'
p2167
satp2168
sS'flagtypes'
p2169
((lp2170
(dp2171
S'Extra'
p2172
S'auto_increment'
p2173
sS'Default'
p2174
NsS'Field'
p2175
S'id'
p2176
sS'Key'
p2177
S'PRI'
p2178
sS'Null'
p2179
S''
sS'Type'
p2180
S'smallint(6)'
p2181
sa(dp2182
g2172
S''
sg2174
S''
sg2175
S'name'
p2183
sg2177
S''
sg2179
S''
sg2180
S'varchar(50)'
p2184
sa(dp2185
g2172
S''
sg2174
Nsg2175
S'description'
p2186
sg2177
S''
sg2179
S'YES'
p2187
sg2180
S'text'
p2188
sa(dp2189
g2172
S''
sg2174
Nsg2175
S'cc_list'
p2190
sg2177
S''
sg2179
S'YES'
p2191
sg2180
S'varchar(200)'
p2192
sa(dp2193
g2172
S''
sg2174
S'b'
sg2175
S'target_type'
p2194
sg2177
S''
sg2179
S''
sg2180
S'char(1)'
p2195
sa(dp2196
g2172
S''
sg2174
S'1'
sg2175
S'is_active'
p2197
sg2177
S''
sg2179
S''
sg2180
S'tinyint(4)'
p2198
sa(dp2199
g2172
S''
sg2174
S'0'
sg2175
S'is_requestable'
p2200
sg2177
S''
sg2179
S''
sg2180
S'tinyint(4)'
p2201
sa(dp2202
g2172
S''
sg2174
S'0'
sg2175
S'is_requesteeble'
p2203
sg2177
S''
sg2179
S''
sg2180
S'tinyint(4)'
p2204
sa(dp2205
g2172
S''
sg2174
S'0'
sg2175
S'is_multiplicable'
p2206
sg2177
S''
sg2179
S''
sg2180
S'tinyint(4)'
p2207
sa(dp2208
g2172
S''
sg2174
S'0'
sg2175
S'sortkey'
p2209
sg2177
S''
sg2179
S''
sg2180
S'smallint(6)'
p2210
sa(dp2211
g2172
S''
sg2174
Nsg2175
S'grant_group_id'
p2212
sg2177
S''
sg2179
S'YES'
p2213
sg2180
S'mediumint(9)'
p2214
sa(dp2215
g2172
S''
sg2174
Nsg2175
S'request_group_id'
p2216
sg2177
S''
sg2179
S'YES'
p2217
sg2180
S'mediumint(9)'
p2218
sa(lp2219
(dp2220
S'Comment'
p2221
S''
sS'Non_unique'
p2222
L0L
sS'Sub_part'
p2223
NsS'Index_type'
p2224
S'BTREE'
p2225
sS'Key_name'
p2226
S'PRIMARY'
p2227
sS'Collation'
p2228
S'A'
sS'Null'
p2229
S''
sS'Seq_in_index'
p2230
L1L
sS'Table'
p2231
S'flagtypes'
p2232
sS'Cardinality'
p2233
L0L
sS'Packed'
p2234
NsS'Column_name'
p2235
S'id'
p2236
satp2237
sS'user_group_map'
p2238
((lp2239
(dp2240
S'Extra'
p2241
S''
sS'Default'
p2242
S'0'
sS'Field'
p2243
S'user_id'
p2244
sS'Key'
p2245
S'PRI'
p2246
sS'Null'
p2247
S''
sS'Type'
p2248
S'mediumint(9)'
p2249
sa(dp2250
g2241
S''
sg2242
S'0'
sg2243
S'group_id'
p2251
sg2245
S'PRI'
p2252
sg2247
S''
sg2248
S'mediumint(9)'
p2253
sa(dp2254
g2241
S''
sg2242
S'0'
sg2243
S'isbless'
p2255
sg2245
S'PRI'
p2256
sg2247
S''
sg2248
S'tinyint(4)'
p2257
sa(dp2258
g2241
S''
sg2242
S'0'
sg2243
S'grant_type'
p2259
sg2245
S'PRI'
p2260
sg2247
S''
sg2248
S'tinyint(4)'
p2261
sa(lp2262
(dp2263
S'Comment'
p2264
S''
sS'Non_unique'
p2265
L0L
sS'Sub_part'
p2266
NsS'Index_type'
p2267
S'BTREE'
p2268
sS'Key_name'
p2269
S'user_group_map_user_id_idx'
p2270
sS'Collation'
p2271
S'A'
sS'Null'
p2272
S''
sS'Seq_in_index'
p2273
L1L
sS'Table'
p2274
S'user_group_map'
p2275
sS'Cardinality'
p2276
NsS'Packed'
p2277
NsS'Column_name'
p2278
S'user_id'
p2279
sa(dp2280
g2264
S''
sg2265
L0L
sg2266
Nsg2267
S'BTREE'
p2281
sg2269
S'user_group_map_user_id_idx'
p2282
sg2271
S'A'
sg2272
S''
sg2273
L2L
sg2274
S'user_group_map'
p2283
sg2276
Nsg2277
Nsg2278
S'group_id'
p2284
sa(dp2285
g2264
S''
sg2265
L0L
sg2266
Nsg2267
S'BTREE'
p2286
sg2269
S'user_group_map_user_id_idx'
p2287
sg2271
S'A'
sg2272
S''
sg2273
L3L
sg2274
S'user_group_map'
p2288
sg2276
Nsg2277
Nsg2278
S'grant_type'
p2289
sa(dp2290
g2264
S''
sg2265
L0L
sg2266
Nsg2267
S'BTREE'
p2291
sg2269
S'user_group_map_user_id_idx'
p2292
sg2271
S'A'
sg2272
S''
sg2273
L4L
sg2274
S'user_group_map'
p2293
sg2276
L0L
sg2277
Nsg2278
S'isbless'
p2294
satp2295
sS'bugs'
p2296
((lp2297
(dp2298
S'Extra'
p2299
S'auto_increment'
p2300
sS'Default'
p2301
NsS'Field'
p2302
S'bug_id'
p2303
sS'Key'
p2304
S'PRI'
p2305
sS'Null'
p2306
S''
sS'Type'
p2307
S'mediumint(9)'
p2308
sa(dp2309
g2299
S''
sg2301
S'0'
sg2302
S'assigned_to'
p2310
sg2304
S'MUL'
p2311
sg2306
S''
sg2307
S'mediumint(9)'
p2312
sa(dp2313
g2299
S''
sg2301
Nsg2302
S'bug_file_loc'
p2314
sg2304
S''
sg2306
S'YES'
p2315
sg2307
S'text'
p2316
sa(dp2317
g2299
S''
sg2301
S''
sg2302
S'bug_severity'
p2318
sg2304
S'MUL'
p2319
sg2306
S''
sg2307
S'varchar(64)'
p2320
sa(dp2321
g2299
S''
sg2301
S''
sg2302
S'bug_status'
p2322
sg2304
S'MUL'
p2323
sg2306
S''
sg2307
S'varchar(64)'
p2324
sa(dp2325
g2299
S''
sg2301
Nsg2302
S'creation_ts'
p2326
sg2304
S'MUL'
p2327
sg2306
S'YES'
p2328
sg2307
S'datetime'
p2329
sa(dp2330
g2299
S''
sg2301
S'0000-00-00 00:00:00'
p2331
sg2302
S'delta_ts'
p2332
sg2304
S'MUL'
p2333
sg2306
S''
sg2307
S'datetime'
p2334
sa(dp2335
g2299
S''
sg2301
S''
sg2302
S'short_desc'
p2336
sg2304
S''
sg2306
S''
sg2307
S'varchar(255)'
p2337
sa(dp2338
g2299
S''
sg2301
S''
sg2302
S'op_sys'
p2339
sg2304
S'MUL'
p2340
sg2306
S''
sg2307
S'varchar(64)'
p2341
sa(dp2342
g2299
S''
sg2301
S''
sg2302
S'priority'
p2343
sg2304
S'MUL'
p2344
sg2306
S''
sg2307
S'varchar(64)'
p2345
sa(dp2346
g2299
S''
sg2301
S'0'
sg2302
S'product_id'
p2347
sg2304
S'MUL'
p2348
sg2306
S''
sg2307
S'smallint(6)'
p2349
sa(dp2350
g2299
S''
sg2301
S''
sg2302
S'rep_platform'
p2351
sg2304
S''
sg2306
S''
sg2307
S'varchar(64)'
p2352
sa(dp2353
g2299
S''
sg2301
S'0'
sg2302
S'reporter'
p2354
sg2304
S'MUL'
p2355
sg2306
S''
sg2307
S'mediumint(9)'
p2356
sa(dp2357
g2299
S''
sg2301
S''
sg2302
S'version'
p2358
sg2304
S'MUL'
p2359
sg2306
S''
sg2307
S'varchar(64)'
p2360
sa(dp2361
g2299
S''
sg2301
S'0'
sg2302
S'component_id'
p2362
sg2304
S'MUL'
p2363
sg2306
S''
sg2307
S'smallint(6)'
p2364
sa(dp2365
g2299
S''
sg2301
S''
sg2302
S'resolution'
p2366
sg2304
S'MUL'
p2367
sg2306
S''
sg2307
S'varchar(64)'
p2368
sa(dp2369
g2299
S''
sg2301
S'---'
p2370
sg2302
S'target_milestone'
p2371
sg2304
S'MUL'
p2372
sg2306
S''
sg2307
S'varchar(20)'
p2373
sa(dp2374
g2299
S''
sg2301
Nsg2302
S'qa_contact'
p2375
sg2304
S'MUL'
p2376
sg2306
S'YES'
p2377
sg2307
S'mediumint(9)'
p2378
sa(dp2379
g2299
S''
sg2301
S''
sg2302
S'status_whiteboard'
p2380
sg2304
S''
sg2306
S''
sg2307
S'mediumtext'
p2381
sa(dp2382
g2299
S''
sg2301
S'0'
sg2302
S'votes'
p2383
sg2304
S'MUL'
p2384
sg2306
S''
sg2307
S'mediumint(9)'
p2385
sa(dp2386
g2299
S''
sg2301
S''
sg2302
S'keywords'
p2387
sg2304
S''
sg2306
S''
sg2307
S'mediumtext'
p2388
sa(dp2389
g2299
S''
sg2301
Nsg2302
S'lastdiffed'
p2390
sg2304
S''
sg2306
S'YES'
p2391
sg2307
S'datetime'
p2392
sa(dp2393
g2299
S''
sg2301
S'0'
sg2302
S'everconfirmed'
p2394
sg2304
S''
sg2306
S''
sg2307
S'tinyint(4)'
p2395
sa(dp2396
g2299
S''
sg2301
S'1'
sg2302
S'reporter_accessible'
p2397
sg2304
S''
sg2306
S''
sg2307
S'tinyint(4)'
p2398
sa(dp2399
g2299
S''
sg2301
S'1'
sg2302
S'cclist_accessible'
p2400
sg2304
S''
sg2306
S''
sg2307
S'tinyint(4)'
p2401
sa(dp2402
g2299
S''
sg2301
S'0.00'
p2403
sg2302
S'estimated_time'
p2404
sg2304
S''
sg2306
S''
sg2307
S'decimal(5,2)'
p2405
sa(dp2406
g2299
S''
sg2301
S'0.00'
p2407
sg2302
S'remaining_time'
p2408
sg2304
S''
sg2306
S''
sg2307
S'decimal(5,2)'
p2409
sa(dp2410
g2299
S''
sg2301
Nsg2302
S'deadline'
p2411
sg2304
S''
sg2306
S'YES'
p2412
sg2307
S'datetime'
p2413
sa(dp2414
g2299
S''
sg2301
Nsg2302
S'alias'
p2415
sg2304
S'MUL'
p2416
sg2306
S'YES'
p2417
sg2307
S'varchar(20)'
p2418
sa(lp2419
(dp2420
S'Comment'
p2421
S''
sS'Non_unique'
p2422
L0L
sS'Sub_part'
p2423
NsS'Index_type'
p2424
S'BTREE'
p2425
sS'Key_name'
p2426
S'PRIMARY'
p2427
sS'Collation'
p2428
S'A'
sS'Null'
p2429
S''
sS'Seq_in_index'
p2430
L1L
sS'Table'
p2431
S'bugs'
p2432
sS'Cardinality'
p2433
L0L
sS'Packed'
p2434
NsS'Column_name'
p2435
S'bug_id'
p2436
sa(dp2437
g2421
S''
sg2422
L0L
sg2423
Nsg2424
S'BTREE'
p2438
sg2426
S'bugs_alias_idx'
p2439
sg2428
S'A'
sg2429
S'YES'
p2440
sg2430
L1L
sg2431
S'bugs'
p2441
sg2433
Nsg2434
Nsg2435
S'alias'
p2442
sa(dp2443
g2421
S''
sg2422
L1L
sg2423
Nsg2424
S'BTREE'
p2444
sg2426
S'bugs_assigned_to_idx'
p2445
sg2428
S'A'
sg2429
S''
sg2430
L1L
sg2431
S'bugs'
p2446
sg2433
Nsg2434
Nsg2435
S'assigned_to'
p2447
sa(dp2448
g2421
S''
sg2422
L1L
sg2423
Nsg2424
S'BTREE'
p2449
sg2426
S'bugs_creation_ts_idx'
p2450
sg2428
S'A'
sg2429
S'YES'
p2451
sg2430
L1L
sg2431
S'bugs'
p2452
sg2433
Nsg2434
Nsg2435
S'creation_ts'
p2453
sa(dp2454
g2421
S''
sg2422
L1L
sg2423
Nsg2424
S'BTREE'
p2455
sg2426
S'bugs_delta_ts_idx'
p2456
sg2428
S'A'
sg2429
S''
sg2430
L1L
sg2431
S'bugs'
p2457
sg2433
Nsg2434
Nsg2435
S'delta_ts'
p2458
sa(dp2459
g2421
S''
sg2422
L1L
sg2423
Nsg2424
S'BTREE'
p2460
sg2426
S'bugs_bug_severity_idx'
p2461
sg2428
S'A'
sg2429
S''
sg2430
L1L
sg2431
S'bugs'
p2462
sg2433
Nsg2434
Nsg2435
S'bug_severity'
p2463
sa(dp2464
g2421
S''
sg2422
L1L
sg2423
Nsg2424
S'BTREE'
p2465
sg2426
S'bugs_bug_status_idx'
p2466
sg2428
S'A'
sg2429
S''
sg2430
L1L
sg2431
S'bugs'
p2467
sg2433
Nsg2434
Nsg2435
S'bug_status'
p2468
sa(dp2469
g2421
S''
sg2422
L1L
sg2423
Nsg2424
S'BTREE'
p2470
sg2426
S'bugs_op_sys_idx'
p2471
sg2428
S'A'
sg2429
S''
sg2430
L1L
sg2431
S'bugs'
p2472
sg2433
Nsg2434
Nsg2435
S'op_sys'
p2473
sa(dp2474
g2421
S''
sg2422
L1L
sg2423
Nsg2424
S'BTREE'
p2475
sg2426
S'bugs_priority_idx'
p2476
sg2428
S'A'
sg2429
S''
sg2430
L1L
sg2431
S'bugs'
p2477
sg2433
Nsg2434
Nsg2435
S'priority'
p2478
sa(dp2479
g2421
S''
sg2422
L1L
sg2423
Nsg2424
S'BTREE'
p2480
sg2426
S'bugs_product_id_idx'
p2481
sg2428
S'A'
sg2429
S''
sg2430
L1L
sg2431
S'bugs'
p2482
sg2433
Nsg2434
Nsg2435
S'product_id'
p2483
sa(dp2484
g2421
S''
sg2422
L1L
sg2423
Nsg2424
S'BTREE'
p2485
sg2426
S'bugs_reporter_idx'
p2486
sg2428
S'A'
sg2429
S''
sg2430
L1L
sg2431
S'bugs'
p2487
sg2433
Nsg2434
Nsg2435
S'reporter'
p2488
sa(dp2489
g2421
S''
sg2422
L1L
sg2423
Nsg2424
S'BTREE'
p2490
sg2426
S'bugs_version_idx'
p2491
sg2428
S'A'
sg2429
S''
sg2430
L1L
sg2431
S'bugs'
p2492
sg2433
Nsg2434
Nsg2435
S'version'
p2493
sa(dp2494
g2421
S''
sg2422
L1L
sg2423
Nsg2424
S'BTREE'
p2495
sg2426
S'bugs_component_id_idx'
p2496
sg2428
S'A'
sg2429
S''
sg2430
L1L
sg2431
S'bugs'
p2497
sg2433
Nsg2434
Nsg2435
S'component_id'
p2498
sa(dp2499
g2421
S''
sg2422
L1L
sg2423
Nsg2424
S'BTREE'
p2500
sg2426
S'bugs_resolution_idx'
p2501
sg2428
S'A'
sg2429
S''
sg2430
L1L
sg2431
S'bugs'
p2502
sg2433
Nsg2434
Nsg2435
S'resolution'
p2503
sa(dp2504
g2421
S''
sg2422
L1L
sg2423
Nsg2424
S'BTREE'
p2505
sg2426
S'bugs_target_milestone_idx'
p2506
sg2428
S'A'
sg2429
S''
sg2430
L1L
sg2431
S'bugs'
p2507
sg2433
Nsg2434
Nsg2435
S'target_milestone'
p2508
sa(dp2509
g2421
S''
sg2422
L1L
sg2423
Nsg2424
S'BTREE'
p2510
sg2426
S'bugs_qa_contact_idx'
p2511
sg2428
S'A'
sg2429
S'YES'
p2512
sg2430
L1L
sg2431
S'bugs'
p2513
sg2433
Nsg2434
Nsg2435
S'qa_contact'
p2514
sa(dp2515
g2421
S''
sg2422
L1L
sg2423
Nsg2424
S'BTREE'
p2516
sg2426
S'bugs_votes_idx'
p2517
sg2428
S'A'
sg2429
S''
sg2430
L1L
sg2431
S'bugs'
p2518
sg2433
Nsg2434
Nsg2435
S'votes'
p2519
satp2520
sS'profiles'
p2521
((lp2522
(dp2523
S'Extra'
p2524
S'auto_increment'
p2525
sS'Default'
p2526
NsS'Field'
p2527
S'userid'
p2528
sS'Key'
p2529
S'PRI'
p2530
sS'Null'
p2531
S''
sS'Type'
p2532
S'mediumint(9)'
p2533
sa(dp2534
g2524
S''
sg2526
S''
sg2527
S'login_name'
p2535
sg2529
S'UNI'
p2536
sg2531
S''
sg2532
S'varchar(255)'
p2537
sa(dp2538
g2524
S''
sg2526
Nsg2527
S'cryptpassword'
p2539
sg2529
S''
sg2531
S'YES'
p2540
sg2532
S'varchar(128)'
p2541
sa(dp2542
g2524
S''
sg2526
S''
sg2527
S'realname'
p2543
sg2529
S''
sg2531
S''
sg2532
S'varchar(255)'
p2544
sa(dp2545
g2524
S''
sg2526
S''
sg2527
S'disabledtext'
p2546
sg2529
S''
sg2531
S''
sg2532
S'mediumtext'
p2547
sa(dp2548
g2524
S''
sg2526
S'0'
sg2527
S'disable_mail'
p2549
sg2529
S''
sg2531
S''
sg2532
S'tinyint(4)'
p2550
sa(dp2551
g2524
S''
sg2526
S'1'
sg2527
S'mybugslink'
p2552
sg2529
S''
sg2531
S''
sg2532
S'tinyint(4)'
p2553
sa(dp2554
g2524
S''
sg2526
Nsg2527
S'extern_id'
p2555
sg2529
S''
sg2531
S'YES'
p2556
sg2532
S'varchar(64)'
p2557
sa(lp2558
(dp2559
S'Comment'
p2560
S''
sS'Non_unique'
p2561
L0L
sS'Sub_part'
p2562
NsS'Index_type'
p2563
S'BTREE'
p2564
sS'Key_name'
p2565
S'PRIMARY'
p2566
sS'Collation'
p2567
S'A'
sS'Null'
p2568
S''
sS'Seq_in_index'
p2569
L1L
sS'Table'
p2570
S'profiles'
p2571
sS'Cardinality'
p2572
L0L
sS'Packed'
p2573
NsS'Column_name'
p2574
S'userid'
p2575
sa(dp2576
g2560
S''
sg2561
L0L
sg2562
Nsg2563
S'BTREE'
p2577
sg2565
S'profiles_login_name_idx'
p2578
sg2567
S'A'
sg2568
S''
sg2569
L1L
sg2570
S'profiles'
p2579
sg2572
L0L
sg2573
Nsg2574
S'login_name'
p2580
satp2581
sS'flags'
p2582
((lp2583
(dp2584
S'Extra'
p2585
S'auto_increment'
p2586
sS'Default'
p2587
NsS'Field'
p2588
S'id'
p2589
sS'Key'
p2590
S'PRI'
p2591
sS'Null'
p2592
S''
sS'Type'
p2593
S'mediumint(9)'
p2594
sa(dp2595
g2585
S''
sg2587
S'0'
sg2588
S'type_id'
p2596
sg2590
S'MUL'
p2597
sg2592
S''
sg2593
S'smallint(6)'
p2598
sa(dp2599
g2585
S''
sg2587
S''
sg2588
S'status'
p2600
sg2590
S''
sg2592
S''
sg2593
S'char(1)'
p2601
sa(dp2602
g2585
S''
sg2587
S'0'
sg2588
S'bug_id'
p2603
sg2590
S'MUL'
p2604
sg2592
S''
sg2593
S'mediumint(9)'
p2605
sa(dp2606
g2585
S''
sg2587
Nsg2588
S'attach_id'
p2607
sg2590
S''
sg2592
S'YES'
p2608
sg2593
S'mediumint(9)'
p2609
sa(dp2610
g2585
S''
sg2587
S'0000-00-00 00:00:00'
p2611
sg2588
S'creation_date'
p2612
sg2590
S''
sg2592
S''
sg2593
S'datetime'
p2613
sa(dp2614
g2585
S''
sg2587
Nsg2588
S'modification_date'
p2615
sg2590
S''
sg2592
S'YES'
p2616
sg2593
S'datetime'
p2617
sa(dp2618
g2585
S''
sg2587
Nsg2588
S'setter_id'
p2619
sg2590
S'MUL'
p2620
sg2592
S'YES'
p2621
sg2593
S'mediumint(9)'
p2622
sa(dp2623
g2585
S''
sg2587
Nsg2588
S'requestee_id'
p2624
sg2590
S'MUL'
p2625
sg2592
S'YES'
p2626
sg2593
S'mediumint(9)'
p2627
sa(lp2628
(dp2629
S'Comment'
p2630
S''
sS'Non_unique'
p2631
L0L
sS'Sub_part'
p2632
NsS'Index_type'
p2633
S'BTREE'
p2634
sS'Key_name'
p2635
S'PRIMARY'
p2636
sS'Collation'
p2637
S'A'
sS'Null'
p2638
S''
sS'Seq_in_index'
p2639
L1L
sS'Table'
p2640
S'flags'
p2641
sS'Cardinality'
p2642
L0L
sS'Packed'
p2643
NsS'Column_name'
p2644
S'id'
p2645
sa(dp2646
g2630
S''
sg2631
L1L
sg2632
Nsg2633
S'BTREE'
p2647
sg2635
S'flags_bug_id_idx'
p2648
sg2637
S'A'
sg2638
S''
sg2639
L1L
sg2640
S'flags'
p2649
sg2642
Nsg2643
Nsg2644
S'bug_id'
p2650
sa(dp2651
g2630
S''
sg2631
L1L
sg2632
Nsg2633
S'BTREE'
p2652
sg2635
S'flags_bug_id_idx'
p2653
sg2637
S'A'
sg2638
S'YES'
p2654
sg2639
L2L
sg2640
S'flags'
p2655
sg2642
Nsg2643
Nsg2644
S'attach_id'
p2656
sa(dp2657
g2630
S''
sg2631
L1L
sg2632
Nsg2633
S'BTREE'
p2658
sg2635
S'flags_setter_id_idx'
p2659
sg2637
S'A'
sg2638
S'YES'
p2660
sg2639
L1L
sg2640
S'flags'
p2661
sg2642
Nsg2643
Nsg2644
S'setter_id'
p2662
sa(dp2663
g2630
S''
sg2631
L1L
sg2632
Nsg2633
S'BTREE'
p2664
sg2635
S'flags_requestee_id_idx'
p2665
sg2637
S'A'
sg2638
S'YES'
p2666
sg2639
L1L
sg2640
S'flags'
p2667
sg2642
Nsg2643
Nsg2644
S'requestee_id'
p2668
sa(dp2669
g2630
S''
sg2631
L1L
sg2632
Nsg2633
S'BTREE'
p2670
sg2635
S'flags_type_id_idx'
p2671
sg2637
S'A'
sg2638
S''
sg2639
L1L
sg2640
S'flags'
p2672
sg2642
Nsg2643
Nsg2644
S'type_id'
p2673
satp2674
sS'components'
p2675
((lp2676
(dp2677
S'Extra'
p2678
S'auto_increment'
p2679
sS'Default'
p2680
NsS'Field'
p2681
S'id'
p2682
sS'Key'
p2683
S'PRI'
p2684
sS'Null'
p2685
S''
sS'Type'
p2686
S'smallint(6)'
p2687
sa(dp2688
g2678
S''
sg2680
S''
sg2681
S'name'
p2689
sg2683
S'MUL'
p2690
sg2685
S''
sg2686
S'varchar(64)'
p2691
sa(dp2692
g2678
S''
sg2680
S'0'
sg2681
S'product_id'
p2693
sg2683
S'MUL'
p2694
sg2685
S''
sg2686
S'smallint(6)'
p2695
sa(dp2696
g2678
S''
sg2680
S'0'
sg2681
S'initialowner'
p2697
sg2683
S''
sg2685
S''
sg2686
S'mediumint(9)'
p2698
sa(dp2699
g2678
S''
sg2680
Nsg2681
S'initialqacontact'
p2700
sg2683
S''
sg2685
S'YES'
p2701
sg2686
S'mediumint(9)'
p2702
sa(dp2703
g2678
S''
sg2680
S''
sg2681
S'description'
p2704
sg2683
S''
sg2685
S''
sg2686
S'mediumtext'
p2705
sa(lp2706
(dp2707
S'Comment'
p2708
S''
sS'Non_unique'
p2709
L0L
sS'Sub_part'
p2710
NsS'Index_type'
p2711
S'BTREE'
p2712
sS'Key_name'
p2713
S'PRIMARY'
p2714
sS'Collation'
p2715
S'A'
sS'Null'
p2716
S''
sS'Seq_in_index'
p2717
L1L
sS'Table'
p2718
S'components'
p2719
sS'Cardinality'
p2720
L0L
sS'Packed'
p2721
NsS'Column_name'
p2722
S'id'
p2723
sa(dp2724
g2708
S''
sg2709
L0L
sg2710
Nsg2711
S'BTREE'
p2725
sg2713
S'components_product_id_idx'
p2726
sg2715
S'A'
sg2716
S''
sg2717
L1L
sg2718
S'components'
p2727
sg2720
Nsg2721
Nsg2722
S'product_id'
p2728
sa(dp2729
g2708
S''
sg2709
L0L
sg2710
Nsg2711
S'BTREE'
p2730
sg2713
S'components_product_id_idx'
p2731
sg2715
S'A'
sg2716
S''
sg2717
L2L
sg2718
S'components'
p2732
sg2720
L0L
sg2721
Nsg2722
S'name'
p2733
sa(dp2734
g2708
S''
sg2709
L1L
sg2710
Nsg2711
S'BTREE'
p2735
sg2713
S'components_name_idx'
p2736
sg2715
S'A'
sg2716
S''
sg2717
L1L
sg2718
S'components'
p2737
sg2720
Nsg2721
Nsg2722
S'name'
p2738
satp2739
sS'whine_queries'
p2740
((lp2741
(dp2742
S'Extra'
p2743
S'auto_increment'
p2744
sS'Default'
p2745
NsS'Field'
p2746
S'id'
p2747
sS'Key'
p2748
S'PRI'
p2749
sS'Null'
p2750
S''
sS'Type'
p2751
S'mediumint(9)'
p2752
sa(dp2753
g2743
S''
sg2745
S'0'
sg2746
S'eventid'
p2754
sg2748
S'MUL'
p2755
sg2750
S''
sg2751
S'mediumint(9)'
p2756
sa(dp2757
g2743
S''
sg2745
S''
sg2746
S'query_name'
p2758
sg2748
S''
sg2750
S''
sg2751
S'varchar(64)'
p2759
sa(dp2760
g2743
S''
sg2745
S'0'
sg2746
S'sortkey'
p2761
sg2748
S''
sg2750
S''
sg2751
S'smallint(6)'
p2762
sa(dp2763
g2743
S''
sg2745
S'0'
sg2746
S'onemailperbug'
p2764
sg2748
S''
sg2750
S''
sg2751
S'tinyint(4)'
p2765
sa(dp2766
g2743
S''
sg2745
S''
sg2746
S'title'
p2767
sg2748
S''
sg2750
S''
sg2751
S'varchar(128)'
p2768
sa(lp2769
(dp2770
S'Comment'
p2771
S''
sS'Non_unique'
p2772
L0L
sS'Sub_part'
p2773
NsS'Index_type'
p2774
S'BTREE'
p2775
sS'Key_name'
p2776
S'PRIMARY'
p2777
sS'Collation'
p2778
S'A'
sS'Null'
p2779
S''
sS'Seq_in_index'
p2780
L1L
sS'Table'
p2781
S'whine_queries'
p2782
sS'Cardinality'
p2783
L0L
sS'Packed'
p2784
NsS'Column_name'
p2785
S'id'
p2786
sa(dp2787
g2771
S''
sg2772
L1L
sg2773
Nsg2774
S'BTREE'
p2788
sg2776
S'whine_queries_eventid_idx'
p2789
sg2778
S'A'
sg2779
S''
sg2780
L1L
sg2781
S'whine_queries'
p2790
sg2783
Nsg2784
Nsg2785
S'eventid'
p2791
satp2792
sS'profile_setting'
p2793
((lp2794
(dp2795
S'Extra'
p2796
S''
sS'Default'
p2797
S'0'
sS'Field'
p2798
S'user_id'
p2799
sS'Key'
p2800
S'PRI'
p2801
sS'Null'
p2802
S''
sS'Type'
p2803
S'mediumint(9)'
p2804
sa(dp2805
g2796
S''
sg2797
S''
sg2798
S'setting_name'
p2806
sg2800
S'PRI'
p2807
sg2802
S''
sg2803
S'varchar(32)'
p2808
sa(dp2809
g2796
S''
sg2797
S''
sg2798
S'setting_value'
p2810
sg2800
S''
sg2802
S''
sg2803
S'varchar(32)'
p2811
sa(lp2812
(dp2813
S'Comment'
p2814
S''
sS'Non_unique'
p2815
L0L
sS'Sub_part'
p2816
NsS'Index_type'
p2817
S'BTREE'
p2818
sS'Key_name'
p2819
S'profile_setting_value_unique_idx'
p2820
sS'Collation'
p2821
S'A'
sS'Null'
p2822
S''
sS'Seq_in_index'
p2823
L1L
sS'Table'
p2824
S'profile_setting'
p2825
sS'Cardinality'
p2826
NsS'Packed'
p2827
NsS'Column_name'
p2828
S'user_id'
p2829
sa(dp2830
g2814
S''
sg2815
L0L
sg2816
Nsg2817
S'BTREE'
p2831
sg2819
S'profile_setting_value_unique_idx'
p2832
sg2821
S'A'
sg2822
S''
sg2823
L2L
sg2824
S'profile_setting'
p2833
sg2826
L0L
sg2827
Nsg2828
S'setting_name'
p2834
satp2835
sS'setting_value'
p2836
((lp2837
(dp2838
S'Extra'
p2839
S''
sS'Default'
p2840
S''
sS'Field'
p2841
S'name'
p2842
sS'Key'
p2843
S'PRI'
p2844
sS'Null'
p2845
S''
sS'Type'
p2846
S'varchar(32)'
p2847
sa(dp2848
g2839
S''
sg2840
S''
sg2841
S'value'
p2849
sg2843
S'PRI'
p2850
sg2845
S''
sg2846
S'varchar(32)'
p2851
sa(dp2852
g2839
S''
sg2840
S'0'
sg2841
S'sortindex'
p2853
sg2843
S''
sg2845
S''
sg2846
S'smallint(6)'
p2854
sa(lp2855
(dp2856
S'Comment'
p2857
S''
sS'Non_unique'
p2858
L0L
sS'Sub_part'
p2859
NsS'Index_type'
p2860
S'BTREE'
p2861
sS'Key_name'
p2862
S'setting_value_nv_unique_idx'
p2863
sS'Collation'
p2864
S'A'
sS'Null'
p2865
S''
sS'Seq_in_index'
p2866
L1L
sS'Table'
p2867
S'setting_value'
p2868
sS'Cardinality'
p2869
NsS'Packed'
p2870
NsS'Column_name'
p2871
S'name'
p2872
sa(dp2873
g2857
S''
sg2858
L0L
sg2859
Nsg2860
S'BTREE'
p2874
sg2862
S'setting_value_nv_unique_idx'
p2875
sg2864
S'A'
sg2865
S''
sg2866
L2L
sg2867
S'setting_value'
p2876
sg2869
L0L
sg2870
Nsg2871
S'value'
p2877
sa(dp2878
g2857
S''
sg2858
L0L
sg2859
Nsg2860
S'BTREE'
p2879
sg2862
S'setting_value_ns_unique_idx'
p2880
sg2864
S'A'
sg2865
S''
sg2866
L1L
sg2867
S'setting_value'
p2881
sg2869
Nsg2870
Nsg2871
S'name'
p2882
sa(dp2883
g2857
S''
sg2858
L0L
sg2859
Nsg2860
S'BTREE'
p2884
sg2862
S'setting_value_ns_unique_idx'
p2885
sg2864
S'A'
sg2865
S''
sg2866
L2L
sg2867
S'setting_value'
p2886
sg2869
L0L
sg2870
Nsg2871
S'sortindex'
p2887
satp2888
sS'resolution'
p2889
((lp2890
(dp2891
S'Extra'
p2892
S'auto_increment'
p2893
sS'Default'
p2894
NsS'Field'
p2895
S'id'
p2896
sS'Key'
p2897
S'PRI'
p2898
sS'Null'
p2899
S''
sS'Type'
p2900
S'smallint(6)'
p2901
sa(dp2902
g2892
S''
sg2894
S''
sg2895
S'value'
p2903
sg2897
S'UNI'
p2904
sg2899
S''
sg2900
S'varchar(64)'
p2905
sa(dp2906
g2892
S''
sg2894
S'0'
sg2895
S'sortkey'
p2907
sg2897
S'MUL'
p2908
sg2899
S''
sg2900
S'smallint(6)'
p2909
sa(dp2910
g2892
S''
sg2894
S'1'
sg2895
S'isactive'
p2911
sg2897
S''
sg2899
S''
sg2900
S'tinyint(4)'
p2912
sa(lp2913
(dp2914
S'Comment'
p2915
S''
sS'Non_unique'
p2916
L0L
sS'Sub_part'
p2917
NsS'Index_type'
p2918
S'BTREE'
p2919
sS'Key_name'
p2920
S'PRIMARY'
p2921
sS'Collation'
p2922
S'A'
sS'Null'
p2923
S''
sS'Seq_in_index'
p2924
L1L
sS'Table'
p2925
S'resolution'
p2926
sS'Cardinality'
p2927
L7L
sS'Packed'
p2928
NsS'Column_name'
p2929
S'id'
p2930
sa(dp2931
g2915
S''
sg2916
L0L
sg2917
Nsg2918
S'BTREE'
p2932
sg2920
S'resolution_value_idx'
p2933
sg2922
S'A'
sg2923
S''
sg2924
L1L
sg2925
S'resolution'
p2934
sg2927
L7L
sg2928
Nsg2929
S'value'
p2935
sa(dp2936
g2915
S''
sg2916
L1L
sg2917
Nsg2918
S'BTREE'
p2937
sg2920
S'resolution_sortkey_idx'
p2938
sg2922
S'A'
sg2923
S''
sg2924
L1L
sg2925
S'resolution'
p2939
sg2927
Nsg2928
Nsg2929
S'sortkey'
p2940
sa(dp2941
g2915
S''
sg2916
L1L
sg2917
Nsg2918
S'BTREE'
p2942
sg2920
S'resolution_sortkey_idx'
p2943
sg2922
S'A'
sg2923
S''
sg2924
L2L
sg2925
S'resolution'
p2944
sg2927
Nsg2928
Nsg2929
S'value'
p2945
satp2946
sS'op_sys'
p2947
((lp2948
(dp2949
S'Extra'
p2950
S'auto_increment'
p2951
sS'Default'
p2952
NsS'Field'
p2953
S'id'
p2954
sS'Key'
p2955
S'PRI'
p2956
sS'Null'
p2957
S''
sS'Type'
p2958
S'smallint(6)'
p2959
sa(dp2960
g2950
S''
sg2952
S''
sg2953
S'value'
p2961
sg2955
S'UNI'
p2962
sg2957
S''
sg2958
S'varchar(64)'
p2963
sa(dp2964
g2950
S''
sg2952
S'0'
sg2953
S'sortkey'
p2965
sg2955
S'MUL'
p2966
sg2957
S''
sg2958
S'smallint(6)'
p2967
sa(dp2968
g2950
S''
sg2952
S'1'
sg2953
S'isactive'
p2969
sg2955
S''
sg2957
S''
sg2958
S'tinyint(4)'
p2970
sa(lp2971
(dp2972
S'Comment'
p2973
S''
sS'Non_unique'
p2974
L0L
sS'Sub_part'
p2975
NsS'Index_type'
p2976
S'BTREE'
p2977
sS'Key_name'
p2978
S'PRIMARY'
p2979
sS'Collation'
p2980
S'A'
sS'Null'
p2981
S''
sS'Seq_in_index'
p2982
L1L
sS'Table'
p2983
S'op_sys'
p2984
sS'Cardinality'
p2985
L5L
sS'Packed'
p2986
NsS'Column_name'
p2987
S'id'
p2988
sa(dp2989
g2973
S''
sg2974
L0L
sg2975
Nsg2976
S'BTREE'
p2990
sg2978
S'op_sys_value_idx'
p2991
sg2980
S'A'
sg2981
S''
sg2982
L1L
sg2983
S'op_sys'
p2992
sg2985
L5L
sg2986
Nsg2987
S'value'
p2993
sa(dp2994
g2973
S''
sg2974
L1L
sg2975
Nsg2976
S'BTREE'
p2995
sg2978
S'op_sys_sortkey_idx'
p2996
sg2980
S'A'
sg2981
S''
sg2982
L1L
sg2983
S'op_sys'
p2997
sg2985
Nsg2986
Nsg2987
S'sortkey'
p2998
sa(dp2999
g2973
S''
sg2974
L1L
sg2975
Nsg2976
S'BTREE'
p3000
sg2978
S'op_sys_sortkey_idx'
p3001
sg2980
S'A'
sg2981
S''
sg2982
L2L
sg2983
S'op_sys'
p3002
sg2985
Nsg2986
Nsg2987
S'value'
p3003
satp3004
sS'group_group_map'
p3005
((lp3006
(dp3007
S'Extra'
p3008
S''
sS'Default'
p3009
S'0'
sS'Field'
p3010
S'member_id'
p3011
sS'Key'
p3012
S'PRI'
p3013
sS'Null'
p3014
S''
sS'Type'
p3015
S'mediumint(9)'
p3016
sa(dp3017
g3008
S''
sg3009
S'0'
sg3010
S'grantor_id'
p3018
sg3012
S'PRI'
p3019
sg3014
S''
sg3015
S'mediumint(9)'
p3020
sa(dp3021
g3008
S''
sg3009
S'0'
sg3010
S'grant_type'
p3022
sg3012
S'PRI'
p3023
sg3014
S''
sg3015
S'tinyint(4)'
p3024
sa(lp3025
(dp3026
S'Comment'
p3027
S''
sS'Non_unique'
p3028
L0L
sS'Sub_part'
p3029
NsS'Index_type'
p3030
S'BTREE'
p3031
sS'Key_name'
p3032
S'group_group_map_member_id_idx'
p3033
sS'Collation'
p3034
S'A'
sS'Null'
p3035
S''
sS'Seq_in_index'
p3036
L1L
sS'Table'
p3037
S'group_group_map'
p3038
sS'Cardinality'
p3039
NsS'Packed'
p3040
NsS'Column_name'
p3041
S'member_id'
p3042
sa(dp3043
g3027
S''
sg3028
L0L
sg3029
Nsg3030
S'BTREE'
p3044
sg3032
S'group_group_map_member_id_idx'
p3045
sg3034
S'A'
sg3035
S''
sg3036
L2L
sg3037
S'group_group_map'
p3046
sg3039
Nsg3040
Nsg3041
S'grantor_id'
p3047
sa(dp3048
g3027
S''
sg3028
L0L
sg3029
Nsg3030
S'BTREE'
p3049
sg3032
S'group_group_map_member_id_idx'
p3050
sg3034
S'A'
sg3035
S''
sg3036
L3L
sg3037
S'group_group_map'
p3051
sg3039
L0L
sg3040
Nsg3041
S'grant_type'
p3052
satp3053
st.