(S'2.4'
p1
(dp2
S'groups'
p3
((lp4
(dp5
S'Extra'
p6
S''
sS'Default'
p7
S'0'
sS'Field'
p8
S'bit'
p9
sS'Key'
p10
S'PRI'
p11
sS'Null'
p12
S''
sS'Type'
p13
S'bigint(20)'
p14
sa(dp15
g6
S''
sg7
S''
sg8
S'name'
p16
sg10
S'UNI'
p17
sg12
S''
sg13
S'varchar(255)'
p18
sa(dp19
g6
S''
sg7
S''
sg8
S'description'
p20
sg10
S''
sg12
S''
sg13
S'text'
p21
sa(dp22
g6
S''
sg7
S'0'
sg8
S'isbuggroup'
p23
sg10
S''
sg12
S''
sg13
S'tinyint(4)'
p24
sa(dp25
g6
S''
sg7
S''
sg8
S'userregexp'
p26
sg10
S''
sg12
S''
sg13
S'tinytext'
p27
sa(lp28
(dp29
S'Comment'
p30
S''
sS'Non_unique'
p31
L0L
sS'Sub_part'
p32
NsS'Index_type'
p33
S'BTREE'
p34
sS'Key_name'
p35
S'bit'
p36
sS'Collation'
p37
S'A'
sS'Null'
p38
S''
sS'Seq_in_index'
p39
L1L
sS'Table'
p40
S'groups'
p41
sS'Cardinality'
p42
L4L
sS'Packed'
p43
NsS'Column_name'
p44
S'bit'
p45
sa(dp46
g30
S''
sg31
L0L
sg32
Nsg33
S'BTREE'
p47
sg35
S'name'
p48
sg37
S'A'
sg38
S''
sg39
L1L
sg40
S'groups'
p49
sg42
L4L
sg43
Nsg44
S'name'
p50
satp51
sS'versions'
p52
((lp53
(dp54
S'Extra'
p55
S''
sS'Default'
p56
NsS'Field'
p57
S'value'
p58
sS'Key'
p59
S''
sS'Null'
p60
S'YES'
p61
sS'Type'
p62
S'tinytext'
p63
sa(dp64
g55
S''
sg56
Nsg57
S'program'
p65
sg59
S''
sg60
S'YES'
p66
sg62
S'tinytext'
p67
sa(lp68
tp69
sS'cc'
p70
((lp71
(dp72
S'Extra'
p73
S''
sS'Default'
p74
S'0'
sS'Field'
p75
S'bug_id'
p76
sS'Key'
p77
S'MUL'
p78
sS'Null'
p79
S''
sS'Type'
p80
S'mediumint(9)'
p81
sa(dp82
g73
S''
sg74
S'0'
sg75
S'who'
p83
sg77
S'MUL'
p84
sg79
S''
sg80
S'mediumint(9)'
p85
sa(lp86
(dp87
S'Comment'
p88
S''
sS'Non_unique'
p89
L1L
sS'Sub_part'
p90
NsS'Index_type'
p91
S'BTREE'
p92
sS'Key_name'
p93
S'bug_id'
p94
sS'Collation'
p95
S'A'
sS'Null'
p96
S''
sS'Seq_in_index'
p97
L1L
sS'Table'
p98
S'cc'
p99
sS'Cardinality'
p100
NsS'Packed'
p101
NsS'Column_name'
p102
S'bug_id'
p103
sa(dp104
g88
S''
sg89
L1L
sg90
Nsg91
S'BTREE'
p105
sg93
S'who'
p106
sg95
S'A'
sg96
S''
sg97
L1L
sg98
S'cc'
p107
sg100
Nsg101
Nsg102
S'who'
p108
satp109
sS'bugs_activity'
p110
((lp111
(dp112
S'Extra'
p113
S''
sS'Default'
p114
S'0'
sS'Field'
p115
S'bug_id'
p116
sS'Key'
p117
S'MUL'
p118
sS'Null'
p119
S''
sS'Type'
p120
S'mediumint(9)'
p121
sa(dp122
g113
S''
sg114
S'0'
sg115
S'who'
p123
sg117
S''
sg119
S''
sg120
S'mediumint(9)'
p124
sa(dp125
g113
S''
sg114
S'0000-00-00 00:00:00'
p126
sg115
S'when'
sg117
S'MUL'
p127
sg119
S''
sg120
S'datetime'
p128
sa(dp129
g113
S''
sg114
S''
sg115
S'field'
p130
sg117
S'MUL'
p131
sg119
S''
sg120
S'varchar(64)'
p132
sa(dp133
g113
S''
sg114
Nsg115
S'oldvalue'
p134
sg117
S''
sg119
S'YES'
p135
sg120
S'tinytext'
p136
sa(dp137
g113
S''
sg114
Nsg115
S'newvalue'
p138
sg117
S''
sg119
S'YES'
p139
sg120
S'tinytext'
p140
sa(lp141
(dp142
S'Comment'
p143
S''
sS'Non_unique'
p144
L1L
sS'Sub_part'
p145
NsS'Index_type'
p146
S'BTREE'
p147
sS'Key_name'
p148
S'bug_id'
p149
sS'Collation'
p150
S'A'
sS'Null'
p151
S''
sS'Seq_in_index'
p152
L1L
sS'Table'
p153
S'bugs_activity'
p154
sS'Cardinality'
p155
NsS'Packed'
p156
NsS'Column_name'
p157
S'bug_id'
p158
sa(dp159
g143
S''
sg144
L1L
sg145
Nsg146
S'BTREE'
p160
sg148
S'when'
sg150
S'A'
sg151
S''
sg152
L1L
sg153
S'bugs_activity'
p161
sg155
Nsg156
Nsg157
S'when'
sa(dp162
g143
S''
sg144
L1L
sg145
Nsg146
S'BTREE'
p163
sg148
S'field'
p164
sg150
S'A'
sg151
S''
sg152
L1L
sg153
S'bugs_activity'
p165
sg155
Nsg156
Nsg157
S'field'
p166
satp167
sS'bugs'
p168
((lp169
(dp170
S'Extra'
p171
S'auto_increment'
p172
sS'Default'
p173
NsS'Field'
p174
S'bug_id'
p175
sS'Key'
p176
S'PRI'
p177
sS'Null'
p178
S''
sS'Type'
p179
S'mediumint(9)'
p180
sa(dp181
g171
S''
sg173
S'0'
sg174
S'groupset'
p182
sg176
S''
sg178
S''
sg179
S'bigint(20)'
p183
sa(dp184
g171
S''
sg173
S'0'
sg174
S'assigned_to'
p185
sg176
S'MUL'
p186
sg178
S''
sg179
S'mediumint(9)'
p187
sa(dp188
g171
S''
sg173
Nsg174
S'bug_file_loc'
p189
sg176
S''
sg178
S'YES'
p190
sg179
S'text'
p191
sa(dp192
g171
S''
sg173
S'critical'
p193
sg174
S'bug_severity'
p194
sg176
S'MUL'
p195
sg178
S''
sg179
S"enum('critical','major','normal','minor','trivial','enhancement')"
p196
sa(dp197
g171
S''
sg173
S'NEW'
p198
sg174
S'bug_status'
p199
sg176
S'MUL'
p200
sg178
S''
sg179
S"enum('NEW','ASSIGNED','REOPENED','RESOLVED','VERIFIED','CLOSED')"
p201
sa(dp202
g171
S''
sg173
Nsg174
S'creation_ts'
p203
sg176
S''
sg178
S'YES'
p204
sg179
S'datetime'
p205
sa(dp206
g171
S''
sg173
Nsg174
S'delta_ts'
p207
sg176
S'MUL'
p208
sg178
S'YES'
p209
sg179
S'timestamp(14)'
p210
sa(dp211
g171
S''
sg173
Nsg174
S'short_desc'
p212
sg176
S''
sg178
S'YES'
p213
sg179
S'mediumtext'
p214
sa(dp215
g171
S''
sg173
Nsg174
S'long_desc'
p216
sg176
S''
sg178
S'YES'
p217
sg179
S'mediumtext'
p218
sa(dp219
g171
S''
sg173
S'All'
p220
sg174
S'op_sys'
p221
sg176
S'MUL'
p222
sg178
S''
sg179
S"enum('All','Windows 3.1','Windows 95','Windows 98','Windows NT','Mac System 7','Mac System 7.5','Mac System 7.6.1','Mac System 8.0','Mac System 8.5','AIX','BSDI','HP-UX','IRIX','Linux','FreeBSD','OSF/1','Solaris','SunOS','OS/2','other')"
p223
sa(dp224
g171
S''
sg173
S'P1'
p225
sg174
S'priority'
p226
sg176
S'MUL'
p227
sg178
S''
sg179
S"enum('P1','P2','P3','P4','P5')"
p228
sa(dp229
g171
S''
sg173
S''
sg174
S'product'
p230
sg176
S'MUL'
p231
sg178
S''
sg179
S'varchar(16)'
p232
sa(dp233
g171
S''
sg173
Nsg174
S'rep_platform'
p234
sg176
S''
sg178
S'YES'
p235
sg179
S"enum('All','DEC','HP','Macintosh','PC','SGI','Sun','Other')"
p236
sa(dp237
g171
S''
sg173
S'0'
sg174
S'reporter'
p238
sg176
S'MUL'
p239
sg178
S''
sg179
S'mediumint(9)'
p240
sa(dp241
g171
S''
sg173
S''
sg174
S'version'
p242
sg176
S'MUL'
p243
sg178
S''
sg179
S'varchar(16)'
p244
sa(dp245
g171
S''
sg173
S'BUILD'
p246
sg174
S'area'
p247
sg176
S'MUL'
p248
sg178
S''
sg179
S"enum('BUILD','CODE','CONTENT','DOC','PERFORMANCE','TEST','UI','i18n','l10n')"
p249
sa(dp250
g171
S''
sg173
S''
sg174
S'component'
p251
sg176
S'MUL'
p252
sg178
S''
sg179
S'varchar(50)'
p253
sa(dp254
g171
S''
sg173
S''
sg174
S'resolution'
p255
sg176
S'MUL'
p256
sg178
S''
sg179
S"enum('','FIXED','INVALID','WONTFIX','LATER','REMIND','DUPLICATE','WORKSFORME')"
p257
sa(dp258
g171
S''
sg173
S''
sg174
S'target_milestone'
p259
sg176
S'MUL'
p260
sg178
S''
sg179
S'varchar(20)'
p261
sa(dp262
g171
S''
sg173
S'0'
sg174
S'qa_contact'
p263
sg176
S'MUL'
p264
sg178
S''
sg179
S'mediumint(9)'
p265
sa(dp266
g171
S''
sg173
S''
sg174
S'status_whiteboard'
p267
sg176
S''
sg178
S''
sg179
S'mediumtext'
p268
sa(lp269
(dp270
S'Comment'
p271
S''
sS'Non_unique'
p272
L0L
sS'Sub_part'
p273
NsS'Index_type'
p274
S'BTREE'
p275
sS'Key_name'
p276
S'PRIMARY'
p277
sS'Collation'
p278
S'A'
sS'Null'
p279
S''
sS'Seq_in_index'
p280
L1L
sS'Table'
p281
S'bugs'
p282
sS'Cardinality'
p283
L0L
sS'Packed'
p284
NsS'Column_name'
p285
S'bug_id'
p286
sa(dp287
g271
S''
sg272
L1L
sg273
Nsg274
S'BTREE'
p288
sg276
S'assigned_to'
p289
sg278
S'A'
sg279
S''
sg280
L1L
sg281
S'bugs'
p290
sg283
Nsg284
Nsg285
S'assigned_to'
p291
sa(dp292
g271
S''
sg272
L1L
sg273
Nsg274
S'BTREE'
p293
sg276
S'delta_ts'
p294
sg278
S'A'
sg279
S''
sg280
L1L
sg281
S'bugs'
p295
sg283
Nsg284
Nsg285
S'delta_ts'
p296
sa(dp297
g271
S''
sg272
L1L
sg273
Nsg274
S'BTREE'
p298
sg276
S'bug_severity'
p299
sg278
S'A'
sg279
S''
sg280
L1L
sg281
S'bugs'
p300
sg283
Nsg284
Nsg285
S'bug_severity'
p301
sa(dp302
g271
S''
sg272
L1L
sg273
Nsg274
S'BTREE'
p303
sg276
S'bug_status'
p304
sg278
S'A'
sg279
S''
sg280
L1L
sg281
S'bugs'
p305
sg283
Nsg284
Nsg285
S'bug_status'
p306
sa(dp307
g271
S''
sg272
L1L
sg273
Nsg274
S'BTREE'
p308
sg276
S'op_sys'
p309
sg278
S'A'
sg279
S''
sg280
L1L
sg281
S'bugs'
p310
sg283
Nsg284
Nsg285
S'op_sys'
p311
sa(dp312
g271
S''
sg272
L1L
sg273
Nsg274
S'BTREE'
p313
sg276
S'priority'
p314
sg278
S'A'
sg279
S''
sg280
L1L
sg281
S'bugs'
p315
sg283
Nsg284
Nsg285
S'priority'
p316
sa(dp317
g271
S''
sg272
L1L
sg273
Nsg274
S'BTREE'
p318
sg276
S'product'
p319
sg278
S'A'
sg279
S''
sg280
L1L
sg281
S'bugs'
p320
sg283
Nsg284
Nsg285
S'product'
p321
sa(dp322
g271
S''
sg272
L1L
sg273
Nsg274
S'BTREE'
p323
sg276
S'reporter'
p324
sg278
S'A'
sg279
S''
sg280
L1L
sg281
S'bugs'
p325
sg283
Nsg284
Nsg285
S'reporter'
p326
sa(dp327
g271
S''
sg272
L1L
sg273
Nsg274
S'BTREE'
p328
sg276
S'version'
p329
sg278
S'A'
sg279
S''
sg280
L1L
sg281
S'bugs'
p330
sg283
Nsg284
Nsg285
S'version'
p331
sa(dp332
g271
S''
sg272
L1L
sg273
Nsg274
S'BTREE'
p333
sg276
S'area'
p334
sg278
S'A'
sg279
S''
sg280
L1L
sg281
S'bugs'
p335
sg283
Nsg284
Nsg285
S'area'
p336
sa(dp337
g271
S''
sg272
L1L
sg273
Nsg274
S'BTREE'
p338
sg276
S'component'
p339
sg278
S'A'
sg279
S''
sg280
L1L
sg281
S'bugs'
p340
sg283
Nsg284
Nsg285
S'component'
p341
sa(dp342
g271
S''
sg272
L1L
sg273
Nsg274
S'BTREE'
p343
sg276
S'resolution'
p344
sg278
S'A'
sg279
S''
sg280
L1L
sg281
S'bugs'
p345
sg283
Nsg284
Nsg285
S'resolution'
p346
sa(dp347
g271
S''
sg272
L1L
sg273
Nsg274
S'BTREE'
p348
sg276
S'target_milestone'
p349
sg278
S'A'
sg279
S''
sg280
L1L
sg281
S'bugs'
p350
sg283
Nsg284
Nsg285
S'target_milestone'
p351
sa(dp352
g271
S''
sg272
L1L
sg273
Nsg274
S'BTREE'
p353
sg276
S'qa_contact'
p354
sg278
S'A'
sg279
S''
sg280
L1L
sg281
S'bugs'
p355
sg283
Nsg284
Nsg285
S'qa_contact'
p356
satp357
sS'profiles'
p358
((lp359
(dp360
S'Extra'
p361
S'auto_increment'
p362
sS'Default'
p363
NsS'Field'
p364
S'userid'
p365
sS'Key'
p366
S'PRI'
p367
sS'Null'
p368
S''
sS'Type'
p369
S'mediumint(9)'
p370
sa(dp371
g361
S''
sg363
S''
sg364
S'login_name'
p372
sg366
S'MUL'
p373
sg368
S''
sg369
S'varchar(255)'
p374
sa(dp375
g361
S''
sg363
Nsg364
S'password'
p376
sg366
S''
sg368
S'YES'
p377
sg369
S'varchar(16)'
p378
sa(dp379
g361
S''
sg363
Nsg364
S'cryptpassword'
p380
sg366
S''
sg368
S'YES'
p381
sg369
S'varchar(64)'
p382
sa(dp383
g361
S''
sg363
Nsg364
S'realname'
p384
sg366
S''
sg368
S'YES'
p385
sg369
S'varchar(255)'
p386
sa(dp387
g361
S''
sg363
S'0'
sg364
S'groupset'
p388
sg366
S''
sg368
S''
sg369
S'bigint(20)'
p389
sa(lp390
(dp391
S'Comment'
p392
S''
sS'Non_unique'
p393
L0L
sS'Sub_part'
p394
NsS'Index_type'
p395
S'BTREE'
p396
sS'Key_name'
p397
S'PRIMARY'
p398
sS'Collation'
p399
S'A'
sS'Null'
p400
S''
sS'Seq_in_index'
p401
L1L
sS'Table'
p402
S'profiles'
p403
sS'Cardinality'
p404
L0L
sS'Packed'
p405
NsS'Column_name'
p406
S'userid'
p407
sa(dp408
g392
S''
sg393
L1L
sg394
Nsg395
S'BTREE'
p409
sg397
S'login_name'
p410
sg399
S'A'
sg400
S''
sg401
L1L
sg402
S'profiles'
p411
sg404
Nsg405
Nsg406
S'login_name'
p412
satp413
sS'products'
p414
((lp415
(dp416
S'Extra'
p417
S''
sS'Default'
p418
NsS'Field'
p419
S'product'
p420
sS'Key'
p421
S''
sS'Null'
p422
S'YES'
p423
sS'Type'
p424
S'tinytext'
p425
sa(dp426
g417
S''
sg418
Nsg419
S'description'
p427
sg421
S''
sg422
S'YES'
p428
sg424
S'mediumtext'
p429
sa(dp430
g417
S''
sg418
S''
sg419
S'milestoneurl'
p431
sg421
S''
sg422
S''
sg424
S'tinytext'
p432
sa(dp433
g417
S''
sg418
S'0'
sg419
S'disallownew'
p434
sg421
S''
sg422
S''
sg424
S'tinyint(4)'
p435
sa(ltp436
sS'components'
p437
((lp438
(dp439
S'Extra'
p440
S''
sS'Default'
p441
NsS'Field'
p442
S'value'
p443
sS'Key'
p444
S''
sS'Null'
p445
S'YES'
p446
sS'Type'
p447
S'tinytext'
p448
sa(dp449
g440
S''
sg441
Nsg442
S'program'
p450
sg444
S''
sg445
S'YES'
p451
sg447
S'tinytext'
p452
sa(dp453
g440
S''
sg441
S''
sg442
S'initialowner'
p454
sg444
S''
sg445
S''
sg447
S'tinytext'
p455
sa(dp456
g440
S''
sg441
S''
sg442
S'initialqacontact'
p457
sg444
S''
sg445
S''
sg447
S'tinytext'
p458
sa(dp459
g440
S''
sg441
S''
sg442
S'description'
p460
sg444
S''
sg445
S''
sg447
S'mediumtext'
p461
sa(ltp462
sS'logincookies'
p463
((lp464
(dp465
S'Extra'
p466
S'auto_increment'
p467
sS'Default'
p468
NsS'Field'
p469
S'cookie'
p470
sS'Key'
p471
S'PRI'
p472
sS'Null'
p473
S''
sS'Type'
p474
S'mediumint(9)'
p475
sa(dp476
g466
S''
sg468
S'0'
sg469
S'userid'
p477
sg471
S''
sg473
S''
sg474
S'mediumint(9)'
p478
sa(dp479
g466
S''
sg468
Nsg469
S'cryptpassword'
p480
sg471
S''
sg473
S'YES'
p481
sg474
S'varchar(64)'
p482
sa(dp483
g466
S''
sg468
Nsg469
S'hostname'
p484
sg471
S''
sg473
S'YES'
p485
sg474
S'varchar(128)'
p486
sa(dp487
g466
S''
sg468
Nsg469
S'lastused'
p488
sg471
S'MUL'
p489
sg473
S'YES'
p490
sg474
S'timestamp(14)'
p491
sa(lp492
(dp493
S'Comment'
p494
S''
sS'Non_unique'
p495
L0L
sS'Sub_part'
p496
NsS'Index_type'
p497
S'BTREE'
p498
sS'Key_name'
p499
S'PRIMARY'
p500
sS'Collation'
p501
S'A'
sS'Null'
p502
S''
sS'Seq_in_index'
p503
L1L
sS'Table'
p504
S'logincookies'
p505
sS'Cardinality'
p506
L0L
sS'Packed'
p507
NsS'Column_name'
p508
S'cookie'
p509
sa(dp510
g494
S''
sg495
L1L
sg496
Nsg497
S'BTREE'
p511
sg499
S'lastused'
p512
sg501
S'A'
sg502
S''
sg503
L1L
sg504
S'logincookies'
p513
sg506
Nsg507
Nsg508
S'lastused'
p514
satp515
st.