(S'2.6'
p1
(dp2
S'groups'
p3
((lp4
(dp5
S'Extra'
p6
S''
sS'Default'
p7
S'0'
sS'Field'
p8
S'bit'
p9
sS'Key'
p10
S'PRI'
p11
sS'Null'
p12
S''
sS'Type'
p13
S'bigint(20)'
p14
sa(dp15
g6
S''
sg7
S''
sg8
S'name'
p16
sg10
S'UNI'
p17
sg12
S''
sg13
S'varchar(255)'
p18
sa(dp19
g6
S''
sg7
S''
sg8
S'description'
p20
sg10
S''
sg12
S''
sg13
S'text'
p21
sa(dp22
g6
S''
sg7
S'0'
sg8
S'isbuggroup'
p23
sg10
S''
sg12
S''
sg13
S'tinyint(4)'
p24
sa(dp25
g6
S''
sg7
S''
sg8
S'userregexp'
p26
sg10
S''
sg12
S''
sg13
S'tinytext'
p27
sa(lp28
(dp29
S'Comment'
p30
S''
sS'Non_unique'
p31
L0L
sS'Sub_part'
p32
NsS'Index_type'
p33
S'BTREE'
p34
sS'Key_name'
p35
S'bit'
p36
sS'Collation'
p37
S'A'
sS'Null'
p38
S''
sS'Seq_in_index'
p39
L1L
sS'Table'
p40
S'groups'
p41
sS'Cardinality'
p42
L4L
sS'Packed'
p43
NsS'Column_name'
p44
S'bit'
p45
sa(dp46
g30
S''
sg31
L0L
sg32
Nsg33
S'BTREE'
p47
sg35
S'name'
p48
sg37
S'A'
sg38
S''
sg39
L1L
sg40
S'groups'
p49
sg42
L4L
sg43
Nsg44
S'name'
p50
satp51
sS'attachments'
p52
((lp53
(dp54
S'Extra'
p55
S'auto_increment'
p56
sS'Default'
p57
NsS'Field'
p58
S'attach_id'
p59
sS'Key'
p60
S'PRI'
p61
sS'Null'
p62
S''
sS'Type'
p63
S'mediumint(9)'
p64
sa(dp65
g55
S''
sg57
S'0'
sg58
S'bug_id'
p66
sg60
S'MUL'
p67
sg62
S''
sg63
S'mediumint(9)'
p68
sa(dp69
g55
S''
sg57
Nsg58
S'creation_ts'
p70
sg60
S'MUL'
p71
sg62
S'YES'
p72
sg63
S'timestamp(14)'
p73
sa(dp74
g55
S''
sg57
S''
sg58
S'description'
p75
sg60
S''
sg62
S''
sg63
S'mediumtext'
p76
sa(dp77
g55
S''
sg57
S''
sg58
S'mimetype'
p78
sg60
S''
sg62
S''
sg63
S'mediumtext'
p79
sa(dp80
g55
S''
sg57
Nsg58
S'ispatch'
p81
sg60
S''
sg62
S'YES'
p82
sg63
S'tinyint(4)'
p83
sa(dp84
g55
S''
sg57
S''
sg58
S'filename'
p85
sg60
S''
sg62
S''
sg63
S'mediumtext'
p86
sa(dp87
g55
S''
sg57
S''
sg58
S'thedata'
p88
sg60
S''
sg62
S''
sg63
S'longblob'
p89
sa(dp90
g55
S''
sg57
S'0'
sg58
S'submitter_id'
p91
sg60
S''
sg62
S''
sg63
S'mediumint(9)'
p92
sa(lp93
(dp94
S'Comment'
p95
S''
sS'Non_unique'
p96
L0L
sS'Sub_part'
p97
NsS'Index_type'
p98
S'BTREE'
p99
sS'Key_name'
p100
S'PRIMARY'
p101
sS'Collation'
p102
S'A'
sS'Null'
p103
S''
sS'Seq_in_index'
p104
L1L
sS'Table'
p105
S'attachments'
p106
sS'Cardinality'
p107
L0L
sS'Packed'
p108
NsS'Column_name'
p109
S'attach_id'
p110
sa(dp111
g95
S''
sg96
L1L
sg97
Nsg98
S'BTREE'
p112
sg100
S'bug_id'
p113
sg102
S'A'
sg103
S''
sg104
L1L
sg105
S'attachments'
p114
sg107
Nsg108
Nsg109
S'bug_id'
p115
sa(dp116
g95
S''
sg96
L1L
sg97
Nsg98
S'BTREE'
p117
sg100
S'creation_ts'
p118
sg102
S'A'
sg103
S''
sg104
L1L
sg105
S'attachments'
p119
sg107
Nsg108
Nsg109
S'creation_ts'
p120
satp121
sS'versions'
p122
((lp123
(dp124
S'Extra'
p125
S''
sS'Default'
p126
NsS'Field'
p127
S'value'
p128
sS'Key'
p129
S''
sS'Null'
p130
S'YES'
p131
sS'Type'
p132
S'tinytext'
p133
sa(dp134
g125
S''
sg126
Nsg127
S'program'
p135
sg129
S''
sg130
S'YES'
p136
sg132
S'tinytext'
p137
sa(lp138
tp139
sS'cc'
p140
((lp141
(dp142
S'Extra'
p143
S''
sS'Default'
p144
S'0'
sS'Field'
p145
S'bug_id'
p146
sS'Key'
p147
S'MUL'
p148
sS'Null'
p149
S''
sS'Type'
p150
S'mediumint(9)'
p151
sa(dp152
g143
S''
sg144
S'0'
sg145
S'who'
p153
sg147
S'MUL'
p154
sg149
S''
sg150
S'mediumint(9)'
p155
sa(lp156
(dp157
S'Comment'
p158
S''
sS'Non_unique'
p159
L1L
sS'Sub_part'
p160
NsS'Index_type'
p161
S'BTREE'
p162
sS'Key_name'
p163
S'bug_id'
p164
sS'Collation'
p165
S'A'
sS'Null'
p166
S''
sS'Seq_in_index'
p167
L1L
sS'Table'
p168
S'cc'
p169
sS'Cardinality'
p170
NsS'Packed'
p171
NsS'Column_name'
p172
S'bug_id'
p173
sa(dp174
g158
S''
sg159
L1L
sg160
Nsg161
S'BTREE'
p175
sg163
S'who'
p176
sg165
S'A'
sg166
S''
sg167
L1L
sg168
S'cc'
p177
sg170
Nsg171
Nsg172
S'who'
p178
satp179
sS'bugs_activity'
p180
((lp181
(dp182
S'Extra'
p183
S''
sS'Default'
p184
S'0'
sS'Field'
p185
S'bug_id'
p186
sS'Key'
p187
S'MUL'
p188
sS'Null'
p189
S''
sS'Type'
p190
S'mediumint(9)'
p191
sa(dp192
g183
S''
sg184
S'0'
sg185
S'who'
p193
sg187
S''
sg189
S''
sg190
S'mediumint(9)'
p194
sa(dp195
g183
S''
sg184
S'0000-00-00 00:00:00'
p196
sg185
S'when'
sg187
S'MUL'
p197
sg189
S''
sg190
S'datetime'
p198
sa(dp199
g183
S''
sg184
S''
sg185
S'field'
p200
sg187
S'MUL'
p201
sg189
S''
sg190
S'varchar(64)'
p202
sa(dp203
g183
S''
sg184
Nsg185
S'oldvalue'
p204
sg187
S''
sg189
S'YES'
p205
sg190
S'tinytext'
p206
sa(dp207
g183
S''
sg184
Nsg185
S'newvalue'
p208
sg187
S''
sg189
S'YES'
p209
sg190
S'tinytext'
p210
sa(lp211
(dp212
S'Comment'
p213
S''
sS'Non_unique'
p214
L1L
sS'Sub_part'
p215
NsS'Index_type'
p216
S'BTREE'
p217
sS'Key_name'
p218
S'bug_id'
p219
sS'Collation'
p220
S'A'
sS'Null'
p221
S''
sS'Seq_in_index'
p222
L1L
sS'Table'
p223
S'bugs_activity'
p224
sS'Cardinality'
p225
NsS'Packed'
p226
NsS'Column_name'
p227
S'bug_id'
p228
sa(dp229
g213
S''
sg214
L1L
sg215
Nsg216
S'BTREE'
p230
sg218
S'when'
sg220
S'A'
sg221
S''
sg222
L1L
sg223
S'bugs_activity'
p231
sg225
Nsg226
Nsg227
S'when'
sa(dp232
g213
S''
sg214
L1L
sg215
Nsg216
S'BTREE'
p233
sg218
S'field'
p234
sg220
S'A'
sg221
S''
sg222
L1L
sg223
S'bugs_activity'
p235
sg225
Nsg226
Nsg227
S'field'
p236
satp237
sS'bugs'
p238
((lp239
(dp240
S'Extra'
p241
S'auto_increment'
p242
sS'Default'
p243
NsS'Field'
p244
S'bug_id'
p245
sS'Key'
p246
S'PRI'
p247
sS'Null'
p248
S''
sS'Type'
p249
S'mediumint(9)'
p250
sa(dp251
g241
S''
sg243
S'0'
sg244
S'groupset'
p252
sg246
S''
sg248
S''
sg249
S'bigint(20)'
p253
sa(dp254
g241
S''
sg243
S'0'
sg244
S'assigned_to'
p255
sg246
S'MUL'
p256
sg248
S''
sg249
S'mediumint(9)'
p257
sa(dp258
g241
S''
sg243
Nsg244
S'bug_file_loc'
p259
sg246
S''
sg248
S'YES'
p260
sg249
S'text'
p261
sa(dp262
g241
S''
sg243
S'blocker'
p263
sg244
S'bug_severity'
p264
sg246
S'MUL'
p265
sg248
S''
sg249
S"enum('blocker','critical','major','normal','minor','trivial','enhancement')"
p266
sa(dp267
g241
S''
sg243
S'NEW'
p268
sg244
S'bug_status'
p269
sg246
S'MUL'
p270
sg248
S''
sg249
S"enum('NEW','ASSIGNED','REOPENED','RESOLVED','VERIFIED','CLOSED')"
p271
sa(dp272
g241
S''
sg243
S'0000-00-00 00:00:00'
p273
sg244
S'creation_ts'
p274
sg246
S'MUL'
p275
sg248
S''
sg249
S'datetime'
p276
sa(dp277
g241
S''
sg243
Nsg244
S'delta_ts'
p278
sg246
S'MUL'
p279
sg248
S'YES'
p280
sg249
S'timestamp(14)'
p281
sa(dp282
g241
S''
sg243
Nsg244
S'short_desc'
p283
sg246
S''
sg248
S'YES'
p284
sg249
S'mediumtext'
p285
sa(dp286
g241
S''
sg243
Nsg244
S'long_desc'
p287
sg246
S''
sg248
S'YES'
p288
sg249
S'mediumtext'
p289
sa(dp290
g241
S''
sg243
S'All'
p291
sg244
S'op_sys'
p292
sg246
S'MUL'
p293
sg248
S''
sg249
S"enum('All','Windows 3.1','Windows 95','Windows 98','Windows NT','Mac System 7','Mac System 7.5','Mac System 7.6.1','Mac System 8.0','Mac System 8.5','Mac System 8.6','AIX','BSDI','HP-UX','IRIX','Linux','FreeBSD','OSF/1','Solaris','SunOS','Neutrino','OS/2','BeOS','OpenVMS','other')"
p294
sa(dp295
g241
S''
sg243
S'P1'
p296
sg244
S'priority'
p297
sg246
S'MUL'
p298
sg248
S''
sg249
S"enum('P1','P2','P3','P4','P5')"
p299
sa(dp300
g241
S''
sg243
S''
sg244
S'product'
p301
sg246
S'MUL'
p302
sg248
S''
sg249
S'varchar(16)'
p303
sa(dp304
g241
S''
sg243
Nsg244
S'rep_platform'
p305
sg246
S''
sg248
S'YES'
p306
sg249
S"enum('All','DEC','HP','Macintosh','PC','SGI','Sun','Other')"
p307
sa(dp308
g241
S''
sg243
S'0'
sg244
S'reporter'
p309
sg246
S'MUL'
p310
sg248
S''
sg249
S'mediumint(9)'
p311
sa(dp312
g241
S''
sg243
S''
sg244
S'version'
p313
sg246
S'MUL'
p314
sg248
S''
sg249
S'varchar(16)'
p315
sa(dp316
g241
S''
sg243
S'BUILD'
p317
sg244
S'area'
p318
sg246
S'MUL'
p319
sg248
S''
sg249
S"enum('BUILD','CODE','CONTENT','DOC','PERFORMANCE','TEST','UI','i18n','l10n')"
p320
sa(dp321
g241
S''
sg243
S''
sg244
S'component'
p322
sg246
S'MUL'
p323
sg248
S''
sg249
S'varchar(50)'
p324
sa(dp325
g241
S''
sg243
S''
sg244
S'resolution'
p326
sg246
S'MUL'
p327
sg248
S''
sg249
S"enum('','FIXED','INVALID','WONTFIX','LATER','REMIND','DUPLICATE','WORKSFORME')"
p328
sa(dp329
g241
S''
sg243
S''
sg244
S'target_milestone'
p330
sg246
S'MUL'
p331
sg248
S''
sg249
S'varchar(20)'
p332
sa(dp333
g241
S''
sg243
S'0'
sg244
S'qa_contact'
p334
sg246
S'MUL'
p335
sg248
S''
sg249
S'mediumint(9)'
p336
sa(dp337
g241
S''
sg243
S''
sg244
S'status_whiteboard'
p338
sg246
S''
sg248
S''
sg249
S'mediumtext'
p339
sa(lp340
(dp341
S'Comment'
p342
S''
sS'Non_unique'
p343
L0L
sS'Sub_part'
p344
NsS'Index_type'
p345
S'BTREE'
p346
sS'Key_name'
p347
S'PRIMARY'
p348
sS'Collation'
p349
S'A'
sS'Null'
p350
S''
sS'Seq_in_index'
p351
L1L
sS'Table'
p352
S'bugs'
p353
sS'Cardinality'
p354
L0L
sS'Packed'
p355
NsS'Column_name'
p356
S'bug_id'
p357
sa(dp358
g342
S''
sg343
L1L
sg344
Nsg345
S'BTREE'
p359
sg347
S'assigned_to'
p360
sg349
S'A'
sg350
S''
sg351
L1L
sg352
S'bugs'
p361
sg354
Nsg355
Nsg356
S'assigned_to'
p362
sa(dp363
g342
S''
sg343
L1L
sg344
Nsg345
S'BTREE'
p364
sg347
S'creation_ts'
p365
sg349
S'A'
sg350
S''
sg351
L1L
sg352
S'bugs'
p366
sg354
Nsg355
Nsg356
S'creation_ts'
p367
sa(dp368
g342
S''
sg343
L1L
sg344
Nsg345
S'BTREE'
p369
sg347
S'delta_ts'
p370
sg349
S'A'
sg350
S''
sg351
L1L
sg352
S'bugs'
p371
sg354
Nsg355
Nsg356
S'delta_ts'
p372
sa(dp373
g342
S''
sg343
L1L
sg344
Nsg345
S'BTREE'
p374
sg347
S'bug_severity'
p375
sg349
S'A'
sg350
S''
sg351
L1L
sg352
S'bugs'
p376
sg354
Nsg355
Nsg356
S'bug_severity'
p377
sa(dp378
g342
S''
sg343
L1L
sg344
Nsg345
S'BTREE'
p379
sg347
S'bug_status'
p380
sg349
S'A'
sg350
S''
sg351
L1L
sg352
S'bugs'
p381
sg354
Nsg355
Nsg356
S'bug_status'
p382
sa(dp383
g342
S''
sg343
L1L
sg344
Nsg345
S'BTREE'
p384
sg347
S'op_sys'
p385
sg349
S'A'
sg350
S''
sg351
L1L
sg352
S'bugs'
p386
sg354
Nsg355
Nsg356
S'op_sys'
p387
sa(dp388
g342
S''
sg343
L1L
sg344
Nsg345
S'BTREE'
p389
sg347
S'priority'
p390
sg349
S'A'
sg350
S''
sg351
L1L
sg352
S'bugs'
p391
sg354
Nsg355
Nsg356
S'priority'
p392
sa(dp393
g342
S''
sg343
L1L
sg344
Nsg345
S'BTREE'
p394
sg347
S'product'
p395
sg349
S'A'
sg350
S''
sg351
L1L
sg352
S'bugs'
p396
sg354
Nsg355
Nsg356
S'product'
p397
sa(dp398
g342
S''
sg343
L1L
sg344
Nsg345
S'BTREE'
p399
sg347
S'reporter'
p400
sg349
S'A'
sg350
S''
sg351
L1L
sg352
S'bugs'
p401
sg354
Nsg355
Nsg356
S'reporter'
p402
sa(dp403
g342
S''
sg343
L1L
sg344
Nsg345
S'BTREE'
p404
sg347
S'version'
p405
sg349
S'A'
sg350
S''
sg351
L1L
sg352
S'bugs'
p406
sg354
Nsg355
Nsg356
S'version'
p407
sa(dp408
g342
S''
sg343
L1L
sg344
Nsg345
S'BTREE'
p409
sg347
S'area'
p410
sg349
S'A'
sg350
S''
sg351
L1L
sg352
S'bugs'
p411
sg354
Nsg355
Nsg356
S'area'
p412
sa(dp413
g342
S''
sg343
L1L
sg344
Nsg345
S'BTREE'
p414
sg347
S'component'
p415
sg349
S'A'
sg350
S''
sg351
L1L
sg352
S'bugs'
p416
sg354
Nsg355
Nsg356
S'component'
p417
sa(dp418
g342
S''
sg343
L1L
sg344
Nsg345
S'BTREE'
p419
sg347
S'resolution'
p420
sg349
S'A'
sg350
S''
sg351
L1L
sg352
S'bugs'
p421
sg354
Nsg355
Nsg356
S'resolution'
p422
sa(dp423
g342
S''
sg343
L1L
sg344
Nsg345
S'BTREE'
p424
sg347
S'target_milestone'
p425
sg349
S'A'
sg350
S''
sg351
L1L
sg352
S'bugs'
p426
sg354
Nsg355
Nsg356
S'target_milestone'
p427
sa(dp428
g342
S''
sg343
L1L
sg344
Nsg345
S'BTREE'
p429
sg347
S'qa_contact'
p430
sg349
S'A'
sg350
S''
sg351
L1L
sg352
S'bugs'
p431
sg354
Nsg355
Nsg356
S'qa_contact'
p432
satp433
sS'profiles'
p434
((lp435
(dp436
S'Extra'
p437
S'auto_increment'
p438
sS'Default'
p439
NsS'Field'
p440
S'userid'
p441
sS'Key'
p442
S'PRI'
p443
sS'Null'
p444
S''
sS'Type'
p445
S'mediumint(9)'
p446
sa(dp447
g437
S''
sg439
S''
sg440
S'login_name'
p448
sg442
S'MUL'
p449
sg444
S''
sg445
S'varchar(255)'
p450
sa(dp451
g437
S''
sg439
Nsg440
S'password'
p452
sg442
S''
sg444
S'YES'
p453
sg445
S'varchar(16)'
p454
sa(dp455
g437
S''
sg439
Nsg440
S'cryptpassword'
p456
sg442
S''
sg444
S'YES'
p457
sg445
S'varchar(64)'
p458
sa(dp459
g437
S''
sg439
Nsg440
S'realname'
p460
sg442
S''
sg444
S'YES'
p461
sg445
S'varchar(255)'
p462
sa(dp463
g437
S''
sg439
S'0'
sg440
S'groupset'
p464
sg442
S''
sg444
S''
sg445
S'bigint(20)'
p465
sa(dp466
g437
S''
sg439
S'ExcludeSelfChanges'
p467
sg440
S'emailnotification'
p468
sg442
S''
sg444
S''
sg445
S"enum('ExcludeSelfChanges','CConly','All')"
p469
sa(lp470
(dp471
S'Comment'
p472
S''
sS'Non_unique'
p473
L0L
sS'Sub_part'
p474
NsS'Index_type'
p475
S'BTREE'
p476
sS'Key_name'
p477
S'PRIMARY'
p478
sS'Collation'
p479
S'A'
sS'Null'
p480
S''
sS'Seq_in_index'
p481
L1L
sS'Table'
p482
S'profiles'
p483
sS'Cardinality'
p484
L0L
sS'Packed'
p485
NsS'Column_name'
p486
S'userid'
p487
sa(dp488
g472
S''
sg473
L1L
sg474
Nsg475
S'BTREE'
p489
sg477
S'login_name'
p490
sg479
S'A'
sg480
S''
sg481
L1L
sg482
S'profiles'
p491
sg484
Nsg485
Nsg486
S'login_name'
p492
satp493
sS'dependencies'
p494
((lp495
(dp496
S'Extra'
p497
S''
sS'Default'
p498
S'0'
sS'Field'
p499
S'blocked'
p500
sS'Key'
p501
S'MUL'
p502
sS'Null'
p503
S''
sS'Type'
p504
S'mediumint(9)'
p505
sa(dp506
g497
S''
sg498
S'0'
sg499
S'dependson'
p507
sg501
S'MUL'
p508
sg503
S''
sg504
S'mediumint(9)'
p509
sa(lp510
(dp511
S'Comment'
p512
S''
sS'Non_unique'
p513
L1L
sS'Sub_part'
p514
NsS'Index_type'
p515
S'BTREE'
p516
sS'Key_name'
p517
S'blocked'
p518
sS'Collation'
p519
S'A'
sS'Null'
p520
S''
sS'Seq_in_index'
p521
L1L
sS'Table'
p522
S'dependencies'
p523
sS'Cardinality'
p524
NsS'Packed'
p525
NsS'Column_name'
p526
S'blocked'
p527
sa(dp528
g512
S''
sg513
L1L
sg514
Nsg515
S'BTREE'
p529
sg517
S'dependson'
p530
sg519
S'A'
sg520
S''
sg521
L1L
sg522
S'dependencies'
p531
sg524
Nsg525
Nsg526
S'dependson'
p532
satp533
sS'products'
p534
((lp535
(dp536
S'Extra'
p537
S''
sS'Default'
p538
NsS'Field'
p539
S'product'
p540
sS'Key'
p541
S''
sS'Null'
p542
S'YES'
p543
sS'Type'
p544
S'tinytext'
p545
sa(dp546
g537
S''
sg538
Nsg539
S'description'
p547
sg541
S''
sg542
S'YES'
p548
sg544
S'mediumtext'
p549
sa(dp550
g537
S''
sg538
S''
sg539
S'milestoneurl'
p551
sg541
S''
sg542
S''
sg544
S'tinytext'
p552
sa(dp553
g537
S''
sg538
S'0'
sg539
S'disallownew'
p554
sg541
S''
sg542
S''
sg544
S'tinyint(4)'
p555
sa(ltp556
sS'components'
p557
((lp558
(dp559
S'Extra'
p560
S''
sS'Default'
p561
NsS'Field'
p562
S'value'
p563
sS'Key'
p564
S''
sS'Null'
p565
S'YES'
p566
sS'Type'
p567
S'tinytext'
p568
sa(dp569
g560
S''
sg561
Nsg562
S'program'
p570
sg564
S''
sg565
S'YES'
p571
sg567
S'tinytext'
p572
sa(dp573
g560
S''
sg561
S''
sg562
S'initialowner'
p574
sg564
S''
sg565
S''
sg567
S'tinytext'
p575
sa(dp576
g560
S''
sg561
S''
sg562
S'initialqacontact'
p577
sg564
S''
sg565
S''
sg567
S'tinytext'
p578
sa(dp579
g560
S''
sg561
S''
sg562
S'description'
p580
sg564
S''
sg565
S''
sg567
S'mediumtext'
p581
sa(ltp582
sS'logincookies'
p583
((lp584
(dp585
S'Extra'
p586
S'auto_increment'
p587
sS'Default'
p588
NsS'Field'
p589
S'cookie'
p590
sS'Key'
p591
S'PRI'
p592
sS'Null'
p593
S''
sS'Type'
p594
S'mediumint(9)'
p595
sa(dp596
g586
S''
sg588
S'0'
sg589
S'userid'
p597
sg591
S''
sg593
S''
sg594
S'mediumint(9)'
p598
sa(dp599
g586
S''
sg588
Nsg589
S'cryptpassword'
p600
sg591
S''
sg593
S'YES'
p601
sg594
S'varchar(64)'
p602
sa(dp603
g586
S''
sg588
Nsg589
S'hostname'
p604
sg591
S''
sg593
S'YES'
p605
sg594
S'varchar(128)'
p606
sa(dp607
g586
S''
sg588
Nsg589
S'lastused'
p608
sg591
S'MUL'
p609
sg593
S'YES'
p610
sg594
S'timestamp(14)'
p611
sa(lp612
(dp613
S'Comment'
p614
S''
sS'Non_unique'
p615
L0L
sS'Sub_part'
p616
NsS'Index_type'
p617
S'BTREE'
p618
sS'Key_name'
p619
S'PRIMARY'
p620
sS'Collation'
p621
S'A'
sS'Null'
p622
S''
sS'Seq_in_index'
p623
L1L
sS'Table'
p624
S'logincookies'
p625
sS'Cardinality'
p626
L0L
sS'Packed'
p627
NsS'Column_name'
p628
S'cookie'
p629
sa(dp630
g614
S''
sg615
L1L
sg616
Nsg617
S'BTREE'
p631
sg619
S'lastused'
p632
sg621
S'A'
sg622
S''
sg623
L1L
sg624
S'logincookies'
p633
sg626
Nsg627
Nsg628
S'lastused'
p634
satp635
st.