(S'2.8'
p1
(dp2
S'groups'
p3
((lp4
(dp5
S'Extra'
p6
S''
sS'Default'
p7
S'0'
sS'Field'
p8
S'bit'
p9
sS'Key'
p10
S'PRI'
p11
sS'Null'
p12
S''
sS'Type'
p13
S'bigint(20)'
p14
sa(dp15
g6
S''
sg7
S''
sg8
S'name'
p16
sg10
S'UNI'
p17
sg12
S''
sg13
S'varchar(255)'
p18
sa(dp19
g6
S''
sg7
S''
sg8
S'description'
p20
sg10
S''
sg12
S''
sg13
S'text'
p21
sa(dp22
g6
S''
sg7
S'0'
sg8
S'isbuggroup'
p23
sg10
S''
sg12
S''
sg13
S'tinyint(4)'
p24
sa(dp25
g6
S''
sg7
S''
sg8
S'userregexp'
p26
sg10
S''
sg12
S''
sg13
S'tinytext'
p27
sa(lp28
(dp29
S'Comment'
p30
S''
sS'Non_unique'
p31
L0L
sS'Sub_part'
p32
NsS'Index_type'
p33
S'BTREE'
p34
sS'Key_name'
p35
S'bit'
p36
sS'Collation'
p37
S'A'
sS'Null'
p38
S''
sS'Seq_in_index'
p39
L1L
sS'Table'
p40
S'groups'
p41
sS'Cardinality'
p42
L4L
sS'Packed'
p43
NsS'Column_name'
p44
S'bit'
p45
sa(dp46
g30
S''
sg31
L0L
sg32
Nsg33
S'BTREE'
p47
sg35
S'name'
p48
sg37
S'A'
sg38
S''
sg39
L1L
sg40
S'groups'
p49
sg42
L4L
sg43
Nsg44
S'name'
p50
satp51
sS'votes'
p52
((lp53
(dp54
S'Extra'
p55
S''
sS'Default'
p56
S'0'
sS'Field'
p57
S'who'
p58
sS'Key'
p59
S'MUL'
p60
sS'Null'
p61
S''
sS'Type'
p62
S'mediumint(9)'
p63
sa(dp64
g55
S''
sg56
S'0'
sg57
S'bug_id'
p65
sg59
S'MUL'
p66
sg61
S''
sg62
S'mediumint(9)'
p67
sa(dp68
g55
S''
sg56
S'0'
sg57
S'count'
p69
sg59
S''
sg61
S''
sg62
S'smallint(6)'
p70
sa(lp71
(dp72
S'Comment'
p73
S''
sS'Non_unique'
p74
L1L
sS'Sub_part'
p75
NsS'Index_type'
p76
S'BTREE'
p77
sS'Key_name'
p78
S'who'
p79
sS'Collation'
p80
S'A'
sS'Null'
p81
S''
sS'Seq_in_index'
p82
L1L
sS'Table'
p83
S'votes'
p84
sS'Cardinality'
p85
NsS'Packed'
p86
NsS'Column_name'
p87
S'who'
p88
sa(dp89
g73
S''
sg74
L1L
sg75
Nsg76
S'BTREE'
p90
sg78
S'bug_id'
p91
sg80
S'A'
sg81
S''
sg82
L1L
sg83
S'votes'
p92
sg85
Nsg86
Nsg87
S'bug_id'
p93
satp94
sS'attachments'
p95
((lp96
(dp97
S'Extra'
p98
S'auto_increment'
p99
sS'Default'
p100
NsS'Field'
p101
S'attach_id'
p102
sS'Key'
p103
S'PRI'
p104
sS'Null'
p105
S''
sS'Type'
p106
S'mediumint(9)'
p107
sa(dp108
g98
S''
sg100
S'0'
sg101
S'bug_id'
p109
sg103
S'MUL'
p110
sg105
S''
sg106
S'mediumint(9)'
p111
sa(dp112
g98
S''
sg100
Nsg101
S'creation_ts'
p113
sg103
S'MUL'
p114
sg105
S'YES'
p115
sg106
S'timestamp(14)'
p116
sa(dp117
g98
S''
sg100
S''
sg101
S'description'
p118
sg103
S''
sg105
S''
sg106
S'mediumtext'
p119
sa(dp120
g98
S''
sg100
S''
sg101
S'mimetype'
p121
sg103
S''
sg105
S''
sg106
S'mediumtext'
p122
sa(dp123
g98
S''
sg100
Nsg101
S'ispatch'
p124
sg103
S''
sg105
S'YES'
p125
sg106
S'tinyint(4)'
p126
sa(dp127
g98
S''
sg100
S''
sg101
S'filename'
p128
sg103
S''
sg105
S''
sg106
S'mediumtext'
p129
sa(dp130
g98
S''
sg100
S''
sg101
S'thedata'
p131
sg103
S''
sg105
S''
sg106
S'longblob'
p132
sa(dp133
g98
S''
sg100
S'0'
sg101
S'submitter_id'
p134
sg103
S''
sg105
S''
sg106
S'mediumint(9)'
p135
sa(lp136
(dp137
S'Comment'
p138
S''
sS'Non_unique'
p139
L0L
sS'Sub_part'
p140
NsS'Index_type'
p141
S'BTREE'
p142
sS'Key_name'
p143
S'PRIMARY'
p144
sS'Collation'
p145
S'A'
sS'Null'
p146
S''
sS'Seq_in_index'
p147
L1L
sS'Table'
p148
S'attachments'
p149
sS'Cardinality'
p150
L0L
sS'Packed'
p151
NsS'Column_name'
p152
S'attach_id'
p153
sa(dp154
g138
S''
sg139
L1L
sg140
Nsg141
S'BTREE'
p155
sg143
S'bug_id'
p156
sg145
S'A'
sg146
S''
sg147
L1L
sg148
S'attachments'
p157
sg150
Nsg151
Nsg152
S'bug_id'
p158
sa(dp159
g138
S''
sg139
L1L
sg140
Nsg141
S'BTREE'
p160
sg143
S'creation_ts'
p161
sg145
S'A'
sg146
S''
sg147
L1L
sg148
S'attachments'
p162
sg150
Nsg151
Nsg152
S'creation_ts'
p163
satp164
sS'versions'
p165
((lp166
(dp167
S'Extra'
p168
S''
sS'Default'
p169
NsS'Field'
p170
S'value'
p171
sS'Key'
p172
S''
sS'Null'
p173
S'YES'
p174
sS'Type'
p175
S'tinytext'
p176
sa(dp177
g168
S''
sg169
Nsg170
S'program'
p178
sg172
S''
sg173
S'YES'
p179
sg175
S'varchar(64)'
p180
sa(ltp181
sS'cc'
p182
((lp183
(dp184
S'Extra'
p185
S''
sS'Default'
p186
S'0'
sS'Field'
p187
S'bug_id'
p188
sS'Key'
p189
S'MUL'
p190
sS'Null'
p191
S''
sS'Type'
p192
S'mediumint(9)'
p193
sa(dp194
g185
S''
sg186
S'0'
sg187
S'who'
p195
sg189
S'MUL'
p196
sg191
S''
sg192
S'mediumint(9)'
p197
sa(lp198
(dp199
S'Comment'
p200
S''
sS'Non_unique'
p201
L1L
sS'Sub_part'
p202
NsS'Index_type'
p203
S'BTREE'
p204
sS'Key_name'
p205
S'bug_id'
p206
sS'Collation'
p207
S'A'
sS'Null'
p208
S''
sS'Seq_in_index'
p209
L1L
sS'Table'
p210
S'cc'
p211
sS'Cardinality'
p212
NsS'Packed'
p213
NsS'Column_name'
p214
S'bug_id'
p215
sa(dp216
g200
S''
sg201
L1L
sg202
Nsg203
S'BTREE'
p217
sg205
S'who'
p218
sg207
S'A'
sg208
S''
sg209
L1L
sg210
S'cc'
p219
sg212
Nsg213
Nsg214
S'who'
p220
satp221
sS'bugs_activity'
p222
((lp223
(dp224
S'Extra'
p225
S''
sS'Default'
p226
S'0'
sS'Field'
p227
S'bug_id'
p228
sS'Key'
p229
S'MUL'
p230
sS'Null'
p231
S''
sS'Type'
p232
S'mediumint(9)'
p233
sa(dp234
g225
S''
sg226
S'0'
sg227
S'who'
p235
sg229
S''
sg231
S''
sg232
S'mediumint(9)'
p236
sa(dp237
g225
S''
sg226
S'0000-00-00 00:00:00'
p238
sg227
S'bug_when'
p239
sg229
S'MUL'
p240
sg231
S''
sg232
S'datetime'
p241
sa(dp242
g225
S''
sg226
S''
sg227
S'field'
p243
sg229
S'MUL'
p244
sg231
S''
sg232
S'varchar(64)'
p245
sa(dp246
g225
S''
sg226
Nsg227
S'oldvalue'
p247
sg229
S''
sg231
S'YES'
p248
sg232
S'tinytext'
p249
sa(dp250
g225
S''
sg226
Nsg227
S'newvalue'
p251
sg229
S''
sg231
S'YES'
p252
sg232
S'tinytext'
p253
sa(lp254
(dp255
S'Comment'
p256
S''
sS'Non_unique'
p257
L1L
sS'Sub_part'
p258
NsS'Index_type'
p259
S'BTREE'
p260
sS'Key_name'
p261
S'bug_id'
p262
sS'Collation'
p263
S'A'
sS'Null'
p264
S''
sS'Seq_in_index'
p265
L1L
sS'Table'
p266
S'bugs_activity'
p267
sS'Cardinality'
p268
NsS'Packed'
p269
NsS'Column_name'
p270
S'bug_id'
p271
sa(dp272
g256
S''
sg257
L1L
sg258
Nsg259
S'BTREE'
p273
sg261
S'bug_when'
p274
sg263
S'A'
sg264
S''
sg265
L1L
sg266
S'bugs_activity'
p275
sg268
Nsg269
Nsg270
S'bug_when'
p276
sa(dp277
g256
S''
sg257
L1L
sg258
Nsg259
S'BTREE'
p278
sg261
S'field'
p279
sg263
S'A'
sg264
S''
sg265
L1L
sg266
S'bugs_activity'
p280
sg268
Nsg269
Nsg270
S'field'
p281
satp282
sS'bugs'
p283
((lp284
(dp285
S'Extra'
p286
S'auto_increment'
p287
sS'Default'
p288
NsS'Field'
p289
S'bug_id'
p290
sS'Key'
p291
S'PRI'
p292
sS'Null'
p293
S''
sS'Type'
p294
S'mediumint(9)'
p295
sa(dp296
g286
S''
sg288
S'0'
sg289
S'groupset'
p297
sg291
S''
sg293
S''
sg294
S'bigint(20)'
p298
sa(dp299
g286
S''
sg288
S'0'
sg289
S'assigned_to'
p300
sg291
S'MUL'
p301
sg293
S''
sg294
S'mediumint(9)'
p302
sa(dp303
g286
S''
sg288
Nsg289
S'bug_file_loc'
p304
sg291
S''
sg293
S'YES'
p305
sg294
S'text'
p306
sa(dp307
g286
S''
sg288
S'blocker'
p308
sg289
S'bug_severity'
p309
sg291
S'MUL'
p310
sg293
S''
sg294
S"enum('blocker','critical','major','normal','minor','trivial','enhancement')"
p311
sa(dp312
g286
S''
sg288
S'NEW'
p313
sg289
S'bug_status'
p314
sg291
S'MUL'
p315
sg293
S''
sg294
S"enum('NEW','ASSIGNED','REOPENED','RESOLVED','VERIFIED','CLOSED')"
p316
sa(dp317
g286
S''
sg288
S'0000-00-00 00:00:00'
p318
sg289
S'creation_ts'
p319
sg291
S'MUL'
p320
sg293
S''
sg294
S'datetime'
p321
sa(dp322
g286
S''
sg288
Nsg289
S'delta_ts'
p323
sg291
S'MUL'
p324
sg293
S'YES'
p325
sg294
S'timestamp(14)'
p326
sa(dp327
g286
S''
sg288
Nsg289
S'short_desc'
p328
sg291
S''
sg293
S'YES'
p329
sg294
S'mediumtext'
p330
sa(dp331
g286
S''
sg288
Nsg289
S'long_desc'
p332
sg291
S''
sg293
S'YES'
p333
sg294
S'mediumtext'
p334
sa(dp335
g286
S''
sg288
S'All'
p336
sg289
S'op_sys'
p337
sg291
S'MUL'
p338
sg293
S''
sg294
S"enum('All','Windows 3.1','Windows 95','Windows 98','Windows NT','Mac System 7','Mac System 7.5','Mac System 7.6.1','Mac System 8.0','Mac System 8.5','Mac System 8.6','AIX','BSDI','HP-UX','IRIX','Linux','FreeBSD','OSF/1','Solaris','SunOS','Neutrino','OS/2','BeOS','OpenVMS','other')"
p339
sa(dp340
g286
S''
sg288
S'P1'
p341
sg289
S'priority'
p342
sg291
S'MUL'
p343
sg293
S''
sg294
S"enum('P1','P2','P3','P4','P5')"
p344
sa(dp345
g286
S''
sg288
S''
sg289
S'product'
p346
sg291
S'MUL'
p347
sg293
S''
sg294
S'varchar(64)'
p348
sa(dp349
g286
S''
sg288
Nsg289
S'rep_platform'
p350
sg291
S''
sg293
S'YES'
p351
sg294
S"enum('All','DEC','HP','Macintosh','PC','SGI','Sun','Other')"
p352
sa(dp353
g286
S''
sg288
S'0'
sg289
S'reporter'
p354
sg291
S'MUL'
p355
sg293
S''
sg294
S'mediumint(9)'
p356
sa(dp357
g286
S''
sg288
S''
sg289
S'version'
p358
sg291
S'MUL'
p359
sg293
S''
sg294
S'varchar(16)'
p360
sa(dp361
g286
S''
sg288
S''
sg289
S'component'
p362
sg291
S'MUL'
p363
sg293
S''
sg294
S'varchar(50)'
p364
sa(dp365
g286
S''
sg288
S''
sg289
S'resolution'
p366
sg291
S'MUL'
p367
sg293
S''
sg294
S"enum('','FIXED','INVALID','WONTFIX','LATER','REMIND','DUPLICATE','WORKSFORME')"
p368
sa(dp369
g286
S''
sg288
S''
sg289
S'target_milestone'
p370
sg291
S'MUL'
p371
sg293
S''
sg294
S'varchar(20)'
p372
sa(dp373
g286
S''
sg288
S'0'
sg289
S'qa_contact'
p374
sg291
S'MUL'
p375
sg293
S''
sg294
S'mediumint(9)'
p376
sa(dp377
g286
S''
sg288
S''
sg289
S'status_whiteboard'
p378
sg291
S''
sg293
S''
sg294
S'mediumtext'
p379
sa(dp380
g286
S''
sg288
S'0'
sg289
S'votes'
p381
sg291
S'MUL'
p382
sg293
S''
sg294
S'mediumint(9)'
p383
sa(lp384
(dp385
S'Comment'
p386
S''
sS'Non_unique'
p387
L0L
sS'Sub_part'
p388
NsS'Index_type'
p389
S'BTREE'
p390
sS'Key_name'
p391
S'PRIMARY'
p392
sS'Collation'
p393
S'A'
sS'Null'
p394
S''
sS'Seq_in_index'
p395
L1L
sS'Table'
p396
S'bugs'
p397
sS'Cardinality'
p398
L0L
sS'Packed'
p399
NsS'Column_name'
p400
S'bug_id'
p401
sa(dp402
g386
S''
sg387
L1L
sg388
Nsg389
S'BTREE'
p403
sg391
S'assigned_to'
p404
sg393
S'A'
sg394
S''
sg395
L1L
sg396
S'bugs'
p405
sg398
Nsg399
Nsg400
S'assigned_to'
p406
sa(dp407
g386
S''
sg387
L1L
sg388
Nsg389
S'BTREE'
p408
sg391
S'creation_ts'
p409
sg393
S'A'
sg394
S''
sg395
L1L
sg396
S'bugs'
p410
sg398
Nsg399
Nsg400
S'creation_ts'
p411
sa(dp412
g386
S''
sg387
L1L
sg388
Nsg389
S'BTREE'
p413
sg391
S'delta_ts'
p414
sg393
S'A'
sg394
S''
sg395
L1L
sg396
S'bugs'
p415
sg398
Nsg399
Nsg400
S'delta_ts'
p416
sa(dp417
g386
S''
sg387
L1L
sg388
Nsg389
S'BTREE'
p418
sg391
S'bug_severity'
p419
sg393
S'A'
sg394
S''
sg395
L1L
sg396
S'bugs'
p420
sg398
Nsg399
Nsg400
S'bug_severity'
p421
sa(dp422
g386
S''
sg387
L1L
sg388
Nsg389
S'BTREE'
p423
sg391
S'bug_status'
p424
sg393
S'A'
sg394
S''
sg395
L1L
sg396
S'bugs'
p425
sg398
Nsg399
Nsg400
S'bug_status'
p426
sa(dp427
g386
S''
sg387
L1L
sg388
Nsg389
S'BTREE'
p428
sg391
S'op_sys'
p429
sg393
S'A'
sg394
S''
sg395
L1L
sg396
S'bugs'
p430
sg398
Nsg399
Nsg400
S'op_sys'
p431
sa(dp432
g386
S''
sg387
L1L
sg388
Nsg389
S'BTREE'
p433
sg391
S'priority'
p434
sg393
S'A'
sg394
S''
sg395
L1L
sg396
S'bugs'
p435
sg398
Nsg399
Nsg400
S'priority'
p436
sa(dp437
g386
S''
sg387
L1L
sg388
Nsg389
S'BTREE'
p438
sg391
S'product'
p439
sg393
S'A'
sg394
S''
sg395
L1L
sg396
S'bugs'
p440
sg398
Nsg399
Nsg400
S'product'
p441
sa(dp442
g386
S''
sg387
L1L
sg388
Nsg389
S'BTREE'
p443
sg391
S'reporter'
p444
sg393
S'A'
sg394
S''
sg395
L1L
sg396
S'bugs'
p445
sg398
Nsg399
Nsg400
S'reporter'
p446
sa(dp447
g386
S''
sg387
L1L
sg388
Nsg389
S'BTREE'
p448
sg391
S'version'
p449
sg393
S'A'
sg394
S''
sg395
L1L
sg396
S'bugs'
p450
sg398
Nsg399
Nsg400
S'version'
p451
sa(dp452
g386
S''
sg387
L1L
sg388
Nsg389
S'BTREE'
p453
sg391
S'component'
p454
sg393
S'A'
sg394
S''
sg395
L1L
sg396
S'bugs'
p455
sg398
Nsg399
Nsg400
S'component'
p456
sa(dp457
g386
S''
sg387
L1L
sg388
Nsg389
S'BTREE'
p458
sg391
S'resolution'
p459
sg393
S'A'
sg394
S''
sg395
L1L
sg396
S'bugs'
p460
sg398
Nsg399
Nsg400
S'resolution'
p461
sa(dp462
g386
S''
sg387
L1L
sg388
Nsg389
S'BTREE'
p463
sg391
S'target_milestone'
p464
sg393
S'A'
sg394
S''
sg395
L1L
sg396
S'bugs'
p465
sg398
Nsg399
Nsg400
S'target_milestone'
p466
sa(dp467
g386
S''
sg387
L1L
sg388
Nsg389
S'BTREE'
p468
sg391
S'qa_contact'
p469
sg393
S'A'
sg394
S''
sg395
L1L
sg396
S'bugs'
p470
sg398
Nsg399
Nsg400
S'qa_contact'
p471
sa(dp472
g386
S''
sg387
L1L
sg388
Nsg389
S'BTREE'
p473
sg391
S'votes'
p474
sg393
S'A'
sg394
S''
sg395
L1L
sg396
S'bugs'
p475
sg398
Nsg399
Nsg400
S'votes'
p476
satp477
sS'profiles'
p478
((lp479
(dp480
S'Extra'
p481
S'auto_increment'
p482
sS'Default'
p483
NsS'Field'
p484
S'userid'
p485
sS'Key'
p486
S'PRI'
p487
sS'Null'
p488
S''
sS'Type'
p489
S'mediumint(9)'
p490
sa(dp491
g481
S''
sg483
S''
sg484
S'login_name'
p492
sg486
S'MUL'
p493
sg488
S''
sg489
S'varchar(255)'
p494
sa(dp495
g481
S''
sg483
Nsg484
S'password'
p496
sg486
S''
sg488
S'YES'
p497
sg489
S'varchar(16)'
p498
sa(dp499
g481
S''
sg483
Nsg484
S'cryptpassword'
p500
sg486
S''
sg488
S'YES'
p501
sg489
S'varchar(64)'
p502
sa(dp503
g481
S''
sg483
Nsg484
S'realname'
p504
sg486
S''
sg488
S'YES'
p505
sg489
S'varchar(255)'
p506
sa(dp507
g481
S''
sg483
S'0'
sg484
S'groupset'
p508
sg486
S''
sg488
S''
sg489
S'bigint(20)'
p509
sa(dp510
g481
S''
sg483
S'ExcludeSelfChanges'
p511
sg484
S'emailnotification'
p512
sg486
S''
sg488
S''
sg489
S"enum('ExcludeSelfChanges','CConly','All')"
p513
sa(lp514
(dp515
S'Comment'
p516
S''
sS'Non_unique'
p517
L0L
sS'Sub_part'
p518
NsS'Index_type'
p519
S'BTREE'
p520
sS'Key_name'
p521
S'PRIMARY'
p522
sS'Collation'
p523
S'A'
sS'Null'
p524
S''
sS'Seq_in_index'
p525
L1L
sS'Table'
p526
S'profiles'
p527
sS'Cardinality'
p528
L0L
sS'Packed'
p529
NsS'Column_name'
p530
S'userid'
p531
sa(dp532
g516
S''
sg517
L1L
sg518
Nsg519
S'BTREE'
p533
sg521
S'login_name'
p534
sg523
S'A'
sg524
S''
sg525
L1L
sg526
S'profiles'
p535
sg528
Nsg529
Nsg530
S'login_name'
p536
satp537
sS'dependencies'
p538
((lp539
(dp540
S'Extra'
p541
S''
sS'Default'
p542
S'0'
sS'Field'
p543
S'blocked'
p544
sS'Key'
p545
S'MUL'
p546
sS'Null'
p547
S''
sS'Type'
p548
S'mediumint(9)'
p549
sa(dp550
g541
S''
sg542
S'0'
sg543
S'dependson'
p551
sg545
S'MUL'
p552
sg547
S''
sg548
S'mediumint(9)'
p553
sa(lp554
(dp555
S'Comment'
p556
S''
sS'Non_unique'
p557
L1L
sS'Sub_part'
p558
NsS'Index_type'
p559
S'BTREE'
p560
sS'Key_name'
p561
S'blocked'
p562
sS'Collation'
p563
S'A'
sS'Null'
p564
S''
sS'Seq_in_index'
p565
L1L
sS'Table'
p566
S'dependencies'
p567
sS'Cardinality'
p568
NsS'Packed'
p569
NsS'Column_name'
p570
S'blocked'
p571
sa(dp572
g556
S''
sg557
L1L
sg558
Nsg559
S'BTREE'
p573
sg561
S'dependson'
p574
sg563
S'A'
sg564
S''
sg565
L1L
sg566
S'dependencies'
p575
sg568
Nsg569
Nsg570
S'dependson'
p576
satp577
sS'products'
p578
((lp579
(dp580
S'Extra'
p581
S''
sS'Default'
p582
NsS'Field'
p583
S'product'
p584
sS'Key'
p585
S''
sS'Null'
p586
S'YES'
p587
sS'Type'
p588
S'varchar(64)'
p589
sa(dp590
g581
S''
sg582
Nsg583
S'description'
p591
sg585
S''
sg586
S'YES'
p592
sg588
S'mediumtext'
p593
sa(dp594
g581
S''
sg582
S''
sg583
S'milestoneurl'
p595
sg585
S''
sg586
S''
sg588
S'tinytext'
p596
sa(dp597
g581
S''
sg582
S'0'
sg583
S'disallownew'
p598
sg585
S''
sg586
S''
sg588
S'tinyint(4)'
p599
sa(dp600
g581
S''
sg582
S'0'
sg583
S'votesperuser'
p601
sg585
S''
sg586
S''
sg588
S'smallint(6)'
p602
sa(ltp603
sS'components'
p604
((lp605
(dp606
S'Extra'
p607
S''
sS'Default'
p608
NsS'Field'
p609
S'value'
p610
sS'Key'
p611
S''
sS'Null'
p612
S'YES'
p613
sS'Type'
p614
S'tinytext'
p615
sa(dp616
g607
S''
sg608
Nsg609
S'program'
p617
sg611
S''
sg612
S'YES'
p618
sg614
S'varchar(64)'
p619
sa(dp620
g607
S''
sg608
S''
sg609
S'initialowner'
p621
sg611
S''
sg612
S''
sg614
S'tinytext'
p622
sa(dp623
g607
S''
sg608
S''
sg609
S'initialqacontact'
p624
sg611
S''
sg612
S''
sg614
S'tinytext'
p625
sa(dp626
g607
S''
sg608
S''
sg609
S'description'
p627
sg611
S''
sg612
S''
sg614
S'mediumtext'
p628
sa(ltp629
sS'logincookies'
p630
((lp631
(dp632
S'Extra'
p633
S'auto_increment'
p634
sS'Default'
p635
NsS'Field'
p636
S'cookie'
p637
sS'Key'
p638
S'PRI'
p639
sS'Null'
p640
S''
sS'Type'
p641
S'mediumint(9)'
p642
sa(dp643
g633
S''
sg635
S'0'
sg636
S'userid'
p644
sg638
S''
sg640
S''
sg641
S'mediumint(9)'
p645
sa(dp646
g633
S''
sg635
Nsg636
S'cryptpassword'
p647
sg638
S''
sg640
S'YES'
p648
sg641
S'varchar(64)'
p649
sa(dp650
g633
S''
sg635
Nsg636
S'hostname'
p651
sg638
S''
sg640
S'YES'
p652
sg641
S'varchar(128)'
p653
sa(dp654
g633
S''
sg635
Nsg636
S'lastused'
p655
sg638
S'MUL'
p656
sg640
S'YES'
p657
sg641
S'timestamp(14)'
p658
sa(lp659
(dp660
S'Comment'
p661
S''
sS'Non_unique'
p662
L0L
sS'Sub_part'
p663
NsS'Index_type'
p664
S'BTREE'
p665
sS'Key_name'
p666
S'PRIMARY'
p667
sS'Collation'
p668
S'A'
sS'Null'
p669
S''
sS'Seq_in_index'
p670
L1L
sS'Table'
p671
S'logincookies'
p672
sS'Cardinality'
p673
L0L
sS'Packed'
p674
NsS'Column_name'
p675
S'cookie'
p676
sa(dp677
g661
S''
sg662
L1L
sg663
Nsg664
S'BTREE'
p678
sg666
S'lastused'
p679
sg668
S'A'
sg669
S''
sg670
L1L
sg671
S'logincookies'
p680
sg673
Nsg674
Nsg675
S'lastused'
p681
satp682
st.