(S'3.1.1'
p1
(dp2
S'bug_group_map'
p3
((lp4
(dp5
S'Extra'
p6
S''
sS'Default'
p7
S''
sS'Field'
p8
S'bug_id'
p9
sS'Key'
p10
S'PRI'
p11
sS'Null'
p12
S'NO'
p13
sS'Type'
p14
S'mediumint(9)'
p15
sa(dp16
g6
S''
sg7
S''
sg8
S'group_id'
p17
sg10
S'PRI'
p18
sg12
S'NO'
p19
sg14
S'mediumint(9)'
p20
sa(lp21
(dp22
S'Comment'
p23
S''
sS'Non_unique'
p24
L0L
sS'Sub_part'
p25
NsS'Index_type'
p26
S'BTREE'
p27
sS'Key_name'
p28
S'bug_group_map_bug_id_idx'
p29
sS'Collation'
p30
S'A'
sS'Null'
p31
S''
sS'Seq_in_index'
p32
L1L
sS'Table'
p33
S'bug_group_map'
p34
sS'Cardinality'
p35
L0L
sS'Packed'
p36
NsS'Column_name'
p37
S'bug_id'
p38
sa(dp39
g23
S''
sg24
L0L
sg25
Nsg26
S'BTREE'
p40
sg28
S'bug_group_map_bug_id_idx'
p41
sg30
S'A'
sg31
S''
sg32
L2L
sg33
S'bug_group_map'
p42
sg35
L0L
sg36
Nsg37
S'group_id'
p43
sa(dp44
g23
S''
sg24
L1L
sg25
Nsg26
S'BTREE'
p45
sg28
S'bug_group_map_group_id_idx'
p46
sg30
S'A'
sg31
S''
sg32
L1L
sg33
S'bug_group_map'
p47
sg35
L0L
sg36
Nsg37
S'group_id'
p48
satp49
sS'attachments'
p50
((lp51
(dp52
S'Extra'
p53
S'auto_increment'
p54
sS'Default'
p55
NsS'Field'
p56
S'attach_id'
p57
sS'Key'
p58
S'PRI'
p59
sS'Null'
p60
S'NO'
p61
sS'Type'
p62
S'mediumint(9)'
p63
sa(dp64
g53
S''
sg55
S''
sg56
S'bug_id'
p65
sg58
S'MUL'
p66
sg60
S'NO'
p67
sg62
S'mediumint(9)'
p68
sa(dp69
g53
S''
sg55
S''
sg56
S'creation_ts'
p70
sg58
S'MUL'
p71
sg60
S'NO'
p72
sg62
S'datetime'
p73
sa(dp74
g53
S''
sg55
S''
sg56
S'description'
p75
sg58
S''
sg60
S'NO'
p76
sg62
S'mediumtext'
p77
sa(dp78
g53
S''
sg55
S''
sg56
S'mimetype'
p79
sg58
S''
sg60
S'NO'
p80
sg62
S'mediumtext'
p81
sa(dp82
g53
S''
sg55
Nsg56
S'ispatch'
p83
sg58
S''
sg60
S'YES'
p84
sg62
S'tinyint(4)'
p85
sa(dp86
g53
S''
sg55
S''
sg56
S'filename'
p87
sg58
S''
sg60
S'NO'
p88
sg62
S'varchar(100)'
p89
sa(dp90
g53
S''
sg55
S''
sg56
S'submitter_id'
p91
sg58
S'MUL'
p92
sg60
S'NO'
p93
sg62
S'mediumint(9)'
p94
sa(dp95
g53
S''
sg55
S'0'
sg56
S'isobsolete'
p96
sg58
S''
sg60
S'NO'
p97
sg62
S'tinyint(4)'
p98
sa(dp99
g53
S''
sg55
S'0'
sg56
S'isprivate'
p100
sg58
S''
sg60
S'NO'
p101
sg62
S'tinyint(4)'
p102
sa(dp103
g53
S''
sg55
S'0'
sg56
S'isurl'
p104
sg58
S''
sg60
S'NO'
p105
sg62
S'tinyint(4)'
p106
sa(lp107
(dp108
S'Comment'
p109
S''
sS'Non_unique'
p110
L0L
sS'Sub_part'
p111
NsS'Index_type'
p112
S'BTREE'
p113
sS'Key_name'
p114
S'PRIMARY'
p115
sS'Collation'
p116
S'A'
sS'Null'
p117
S''
sS'Seq_in_index'
p118
L1L
sS'Table'
p119
S'attachments'
p120
sS'Cardinality'
p121
L0L
sS'Packed'
p122
NsS'Column_name'
p123
S'attach_id'
p124
sa(dp125
g109
S''
sg110
L1L
sg111
Nsg112
S'BTREE'
p126
sg114
S'attachments_bug_id_idx'
p127
sg116
S'A'
sg117
S''
sg118
L1L
sg119
S'attachments'
p128
sg121
L0L
sg122
Nsg123
S'bug_id'
p129
sa(dp130
g109
S''
sg110
L1L
sg111
Nsg112
S'BTREE'
p131
sg114
S'attachments_creation_ts_idx'
p132
sg116
S'A'
sg117
S''
sg118
L1L
sg119
S'attachments'
p133
sg121
L0L
sg122
Nsg123
S'creation_ts'
p134
sa(dp135
g109
S''
sg110
L1L
sg111
Nsg112
S'BTREE'
p136
sg114
S'attachments_submitter_id_idx'
p137
sg116
S'A'
sg117
S''
sg118
L1L
sg119
S'attachments'
p138
sg121
L0L
sg122
Nsg123
S'submitter_id'
p139
sa(dp140
g109
S''
sg110
L1L
sg111
Nsg112
S'BTREE'
p141
sg114
S'attachments_submitter_id_idx'
p142
sg116
S'A'
sg117
S''
sg118
L2L
sg119
S'attachments'
p143
sg121
L0L
sg122
Nsg123
S'bug_id'
p144
satp145
sS'namedqueries_link_in_footer'
p146
((lp147
(dp148
S'Extra'
p149
S''
sS'Default'
p150
S''
sS'Field'
p151
S'namedquery_id'
p152
sS'Key'
p153
S'PRI'
p154
sS'Null'
p155
S'NO'
p156
sS'Type'
p157
S'mediumint(9)'
p158
sa(dp159
g149
S''
sg150
S''
sg151
S'user_id'
p160
sg153
S'PRI'
p161
sg155
S'NO'
p162
sg157
S'mediumint(9)'
p163
sa(lp164
(dp165
S'Comment'
p166
S''
sS'Non_unique'
p167
L0L
sS'Sub_part'
p168
NsS'Index_type'
p169
S'BTREE'
p170
sS'Key_name'
p171
S'namedqueries_link_in_footer_id_idx'
p172
sS'Collation'
p173
S'A'
sS'Null'
p174
S''
sS'Seq_in_index'
p175
L1L
sS'Table'
p176
S'namedqueries_link_in_footer'
p177
sS'Cardinality'
p178
L0L
sS'Packed'
p179
NsS'Column_name'
p180
S'namedquery_id'
p181
sa(dp182
g166
S''
sg167
L0L
sg168
Nsg169
S'BTREE'
p183
sg171
S'namedqueries_link_in_footer_id_idx'
p184
sg173
S'A'
sg174
S''
sg175
L2L
sg176
S'namedqueries_link_in_footer'
p185
sg178
L0L
sg179
Nsg180
S'user_id'
p186
sa(dp187
g166
S''
sg167
L1L
sg168
Nsg169
S'BTREE'
p188
sg171
S'namedqueries_link_in_footer_userid_idx'
p189
sg173
S'A'
sg174
S''
sg175
L1L
sg176
S'namedqueries_link_in_footer'
p190
sg178
L0L
sg179
Nsg180
S'user_id'
p191
satp192
sS'duplicates'
p193
((lp194
(dp195
S'Extra'
p196
S''
sS'Default'
p197
S''
sS'Field'
p198
S'dupe_of'
p199
sS'Key'
p200
S''
sS'Null'
p201
S'NO'
p202
sS'Type'
p203
S'mediumint(9)'
p204
sa(dp205
g196
S''
sg197
S''
sg198
S'dupe'
p206
sg200
S'PRI'
p207
sg201
S'NO'
p208
sg203
S'mediumint(9)'
p209
sa(lp210
(dp211
S'Comment'
p212
S''
sS'Non_unique'
p213
L0L
sS'Sub_part'
p214
NsS'Index_type'
p215
S'BTREE'
p216
sS'Key_name'
p217
S'PRIMARY'
p218
sS'Collation'
p219
S'A'
sS'Null'
p220
S''
sS'Seq_in_index'
p221
L1L
sS'Table'
p222
S'duplicates'
p223
sS'Cardinality'
p224
L0L
sS'Packed'
p225
NsS'Column_name'
p226
S'dupe'
p227
satp228
sS'rep_platform'
p229
((lp230
(dp231
S'Extra'
p232
S'auto_increment'
p233
sS'Default'
p234
NsS'Field'
p235
S'id'
p236
sS'Key'
p237
S'PRI'
p238
sS'Null'
p239
S'NO'
p240
sS'Type'
p241
S'smallint(6)'
p242
sa(dp243
g232
S''
sg234
S''
sg235
S'value'
p244
sg237
S'UNI'
p245
sg239
S'NO'
p246
sg241
S'varchar(64)'
p247
sa(dp248
g232
S''
sg234
S'0'
sg235
S'sortkey'
p249
sg237
S'MUL'
p250
sg239
S'NO'
p251
sg241
S'smallint(6)'
p252
sa(dp253
g232
S''
sg234
S'1'
sg235
S'isactive'
p254
sg237
S''
sg239
S'NO'
p255
sg241
S'tinyint(4)'
p256
sa(lp257
(dp258
S'Comment'
p259
S''
sS'Non_unique'
p260
L0L
sS'Sub_part'
p261
NsS'Index_type'
p262
S'BTREE'
p263
sS'Key_name'
p264
S'PRIMARY'
p265
sS'Collation'
p266
S'A'
sS'Null'
p267
S''
sS'Seq_in_index'
p268
L1L
sS'Table'
p269
S'rep_platform'
p270
sS'Cardinality'
p271
L4L
sS'Packed'
p272
NsS'Column_name'
p273
S'id'
p274
sa(dp275
g259
S''
sg260
L0L
sg261
Nsg262
S'BTREE'
p276
sg264
S'rep_platform_value_idx'
p277
sg266
S'A'
sg267
S''
sg268
L1L
sg269
S'rep_platform'
p278
sg271
L4L
sg272
Nsg273
S'value'
p279
sa(dp280
g259
S''
sg260
L1L
sg261
Nsg262
S'BTREE'
p281
sg264
S'rep_platform_sortkey_idx'
p282
sg266
S'A'
sg267
S''
sg268
L1L
sg269
S'rep_platform'
p283
sg271
L4L
sg272
Nsg273
S'sortkey'
p284
sa(dp285
g259
S''
sg260
L1L
sg261
Nsg262
S'BTREE'
p286
sg264
S'rep_platform_sortkey_idx'
p287
sg266
S'A'
sg267
S''
sg268
L2L
sg269
S'rep_platform'
p288
sg271
L4L
sg272
Nsg273
S'value'
p289
satp290
sS'quips'
p291
((lp292
(dp293
S'Extra'
p294
S'auto_increment'
p295
sS'Default'
p296
NsS'Field'
p297
S'quipid'
p298
sS'Key'
p299
S'PRI'
p300
sS'Null'
p301
S'NO'
p302
sS'Type'
p303
S'mediumint(9)'
p304
sa(dp305
g294
S''
sg296
Nsg297
S'userid'
p306
sg299
S''
sg301
S'YES'
p307
sg303
S'mediumint(9)'
p308
sa(dp309
g294
S''
sg296
S''
sg297
S'quip'
p310
sg299
S''
sg301
S'NO'
p311
sg303
S'text'
p312
sa(dp313
g294
S''
sg296
S'1'
sg297
S'approved'
p314
sg299
S''
sg301
S'NO'
p315
sg303
S'tinyint(4)'
p316
sa(lp317
(dp318
S'Comment'
p319
S''
sS'Non_unique'
p320
L0L
sS'Sub_part'
p321
NsS'Index_type'
p322
S'BTREE'
p323
sS'Key_name'
p324
S'PRIMARY'
p325
sS'Collation'
p326
S'A'
sS'Null'
p327
S''
sS'Seq_in_index'
p328
L1L
sS'Table'
p329
S'quips'
p330
sS'Cardinality'
p331
L0L
sS'Packed'
p332
NsS'Column_name'
p333
S'quipid'
p334
satp335
sS'series_categories'
p336
((lp337
(dp338
S'Extra'
p339
S'auto_increment'
p340
sS'Default'
p341
NsS'Field'
p342
S'id'
p343
sS'Key'
p344
S'PRI'
p345
sS'Null'
p346
S'NO'
p347
sS'Type'
p348
S'smallint(6)'
p349
sa(dp350
g339
S''
sg341
S''
sg342
S'name'
p351
sg344
S'UNI'
p352
sg346
S'NO'
p353
sg348
S'varchar(64)'
p354
sa(lp355
(dp356
S'Comment'
p357
S''
sS'Non_unique'
p358
L0L
sS'Sub_part'
p359
NsS'Index_type'
p360
S'BTREE'
p361
sS'Key_name'
p362
S'PRIMARY'
p363
sS'Collation'
p364
S'A'
sS'Null'
p365
S''
sS'Seq_in_index'
p366
L1L
sS'Table'
p367
S'series_categories'
p368
sS'Cardinality'
p369
L0L
sS'Packed'
p370
NsS'Column_name'
p371
S'id'
p372
sa(dp373
g357
S''
sg358
L0L
sg359
Nsg360
S'BTREE'
p374
sg362
S'series_categories_name_idx'
p375
sg364
S'A'
sg365
S''
sg366
L1L
sg367
S'series_categories'
p376
sg369
L0L
sg370
Nsg371
S'name'
p377
satp378
sS'group_control_map'
p379
((lp380
(dp381
S'Extra'
p382
S''
sS'Default'
p383
S''
sS'Field'
p384
S'group_id'
p385
sS'Key'
p386
S'PRI'
p387
sS'Null'
p388
S'NO'
p389
sS'Type'
p390
S'mediumint(9)'
p391
sa(dp392
g382
S''
sg383
S''
sg384
S'product_id'
p393
sg386
S'PRI'
p394
sg388
S'NO'
p395
sg390
S'mediumint(9)'
p396
sa(dp397
g382
S''
sg383
S''
sg384
S'entry'
p398
sg386
S''
sg388
S'NO'
p399
sg390
S'tinyint(4)'
p400
sa(dp401
g382
S''
sg383
S''
sg384
S'membercontrol'
p402
sg386
S''
sg388
S'NO'
p403
sg390
S'tinyint(4)'
p404
sa(dp405
g382
S''
sg383
S''
sg384
S'othercontrol'
p406
sg386
S''
sg388
S'NO'
p407
sg390
S'tinyint(4)'
p408
sa(dp409
g382
S''
sg383
S''
sg384
S'canedit'
p410
sg386
S''
sg388
S'NO'
p411
sg390
S'tinyint(4)'
p412
sa(dp413
g382
S''
sg383
S'0'
sg384
S'editcomponents'
p414
sg386
S''
sg388
S'NO'
p415
sg390
S'tinyint(4)'
p416
sa(dp417
g382
S''
sg383
S'0'
sg384
S'editbugs'
p418
sg386
S''
sg388
S'NO'
p419
sg390
S'tinyint(4)'
p420
sa(dp421
g382
S''
sg383
S'0'
sg384
S'canconfirm'
p422
sg386
S''
sg388
S'NO'
p423
sg390
S'tinyint(4)'
p424
sa(lp425
(dp426
S'Comment'
p427
S''
sS'Non_unique'
p428
L0L
sS'Sub_part'
p429
NsS'Index_type'
p430
S'BTREE'
p431
sS'Key_name'
p432
S'group_control_map_product_id_idx'
p433
sS'Collation'
p434
S'A'
sS'Null'
p435
S''
sS'Seq_in_index'
p436
L1L
sS'Table'
p437
S'group_control_map'
p438
sS'Cardinality'
p439
L0L
sS'Packed'
p440
NsS'Column_name'
p441
S'product_id'
p442
sa(dp443
g427
S''
sg428
L0L
sg429
Nsg430
S'BTREE'
p444
sg432
S'group_control_map_product_id_idx'
p445
sg434
S'A'
sg435
S''
sg436
L2L
sg437
S'group_control_map'
p446
sg439
L0L
sg440
Nsg441
S'group_id'
p447
sa(dp448
g427
S''
sg428
L1L
sg429
Nsg430
S'BTREE'
p449
sg432
S'group_control_map_group_id_idx'
p450
sg434
S'A'
sg435
S''
sg436
L1L
sg437
S'group_control_map'
p451
sg439
L0L
sg440
Nsg441
S'group_id'
p452
satp453
sS'component_cc'
p454
((lp455
(dp456
S'Extra'
p457
S''
sS'Default'
p458
S''
sS'Field'
p459
S'user_id'
p460
sS'Key'
p461
S'PRI'
p462
sS'Null'
p463
S'NO'
p464
sS'Type'
p465
S'mediumint(9)'
p466
sa(dp467
g457
S''
sg458
S''
sg459
S'component_id'
p468
sg461
S'PRI'
p469
sg463
S'NO'
p470
sg465
S'smallint(6)'
p471
sa(lp472
(dp473
S'Comment'
p474
S''
sS'Non_unique'
p475
L0L
sS'Sub_part'
p476
NsS'Index_type'
p477
S'BTREE'
p478
sS'Key_name'
p479
S'component_cc_user_id_idx'
p480
sS'Collation'
p481
S'A'
sS'Null'
p482
S''
sS'Seq_in_index'
p483
L1L
sS'Table'
p484
S'component_cc'
p485
sS'Cardinality'
p486
L0L
sS'Packed'
p487
NsS'Column_name'
p488
S'component_id'
p489
sa(dp490
g474
S''
sg475
L0L
sg476
Nsg477
S'BTREE'
p491
sg479
S'component_cc_user_id_idx'
p492
sg481
S'A'
sg482
S''
sg483
L2L
sg484
S'component_cc'
p493
sg486
L0L
sg487
Nsg488
S'user_id'
p494
sa(dp495
g474
S''
sg475
L1L
sg476
Nsg477
S'BTREE'
p496
sg479
S'fk_component_cc_user_id_profiles_userid'
p497
sg481
S'A'
sg482
S''
sg483
L1L
sg484
S'component_cc'
p498
sg486
L0L
sg487
Nsg488
S'user_id'
p499
satp500
sS'keywords'
p501
((lp502
(dp503
S'Extra'
p504
S''
sS'Default'
p505
S''
sS'Field'
p506
S'bug_id'
p507
sS'Key'
p508
S'PRI'
p509
sS'Null'
p510
S'NO'
p511
sS'Type'
p512
S'mediumint(9)'
p513
sa(dp514
g504
S''
sg505
S''
sg506
S'keywordid'
p515
sg508
S'PRI'
p516
sg510
S'NO'
p517
sg512
S'smallint(6)'
p518
sa(lp519
(dp520
S'Comment'
p521
S''
sS'Non_unique'
p522
L0L
sS'Sub_part'
p523
NsS'Index_type'
p524
S'BTREE'
p525
sS'Key_name'
p526
S'keywords_bug_id_idx'
p527
sS'Collation'
p528
S'A'
sS'Null'
p529
S''
sS'Seq_in_index'
p530
L1L
sS'Table'
p531
S'keywords'
p532
sS'Cardinality'
p533
L0L
sS'Packed'
p534
NsS'Column_name'
p535
S'bug_id'
p536
sa(dp537
g521
S''
sg522
L0L
sg523
Nsg524
S'BTREE'
p538
sg526
S'keywords_bug_id_idx'
p539
sg528
S'A'
sg529
S''
sg530
L2L
sg531
S'keywords'
p540
sg533
L0L
sg534
Nsg535
S'keywordid'
p541
sa(dp542
g521
S''
sg522
L1L
sg523
Nsg524
S'BTREE'
p543
sg526
S'keywords_keywordid_idx'
p544
sg528
S'A'
sg529
S''
sg530
L1L
sg531
S'keywords'
p545
sg533
L0L
sg534
Nsg535
S'keywordid'
p546
satp547
sS'series_data'
p548
((lp549
(dp550
S'Extra'
p551
S''
sS'Default'
p552
S''
sS'Field'
p553
S'series_id'
p554
sS'Key'
p555
S'PRI'
p556
sS'Null'
p557
S'NO'
p558
sS'Type'
p559
S'mediumint(9)'
p560
sa(dp561
g551
S''
sg552
S''
sg553
S'series_date'
p562
sg555
S'PRI'
p563
sg557
S'NO'
p564
sg559
S'datetime'
p565
sa(dp566
g551
S''
sg552
S''
sg553
S'series_value'
p567
sg555
S''
sg557
S'NO'
p568
sg559
S'mediumint(9)'
p569
sa(lp570
(dp571
S'Comment'
p572
S''
sS'Non_unique'
p573
L0L
sS'Sub_part'
p574
NsS'Index_type'
p575
S'BTREE'
p576
sS'Key_name'
p577
S'series_data_series_id_idx'
p578
sS'Collation'
p579
S'A'
sS'Null'
p580
S''
sS'Seq_in_index'
p581
L1L
sS'Table'
p582
S'series_data'
p583
sS'Cardinality'
p584
L0L
sS'Packed'
p585
NsS'Column_name'
p586
S'series_id'
p587
sa(dp588
g572
S''
sg573
L0L
sg574
Nsg575
S'BTREE'
p589
sg577
S'series_data_series_id_idx'
p590
sg579
S'A'
sg580
S''
sg581
L2L
sg582
S'series_data'
p591
sg584
L0L
sg585
Nsg586
S'series_date'
p592
satp593
sS'keyworddefs'
p594
((lp595
(dp596
S'Extra'
p597
S'auto_increment'
p598
sS'Default'
p599
NsS'Field'
p600
S'id'
p601
sS'Key'
p602
S'PRI'
p603
sS'Null'
p604
S'NO'
p605
sS'Type'
p606
S'smallint(6)'
p607
sa(dp608
g597
S''
sg599
S''
sg600
S'name'
p609
sg602
S'UNI'
p610
sg604
S'NO'
p611
sg606
S'varchar(64)'
p612
sa(dp613
g597
S''
sg599
Nsg600
S'description'
p614
sg602
S''
sg604
S'YES'
p615
sg606
S'mediumtext'
p616
sa(lp617
(dp618
S'Comment'
p619
S''
sS'Non_unique'
p620
L0L
sS'Sub_part'
p621
NsS'Index_type'
p622
S'BTREE'
p623
sS'Key_name'
p624
S'PRIMARY'
p625
sS'Collation'
p626
S'A'
sS'Null'
p627
S''
sS'Seq_in_index'
p628
L1L
sS'Table'
p629
S'keyworddefs'
p630
sS'Cardinality'
p631
L0L
sS'Packed'
p632
NsS'Column_name'
p633
S'id'
p634
sa(dp635
g619
S''
sg620
L0L
sg621
Nsg622
S'BTREE'
p636
sg624
S'keyworddefs_name_idx'
p637
sg626
S'A'
sg627
S''
sg628
L1L
sg629
S'keyworddefs'
p638
sg631
L0L
sg632
Nsg633
S'name'
p639
satp640
sS'namedquery_group_map'
p641
((lp642
(dp643
S'Extra'
p644
S''
sS'Default'
p645
S''
sS'Field'
p646
S'namedquery_id'
p647
sS'Key'
p648
S'PRI'
p649
sS'Null'
p650
S'NO'
p651
sS'Type'
p652
S'mediumint(9)'
p653
sa(dp654
g644
S''
sg645
S''
sg646
S'group_id'
p655
sg648
S'MUL'
p656
sg650
S'NO'
p657
sg652
S'mediumint(9)'
p658
sa(lp659
(dp660
S'Comment'
p661
S''
sS'Non_unique'
p662
L0L
sS'Sub_part'
p663
NsS'Index_type'
p664
S'BTREE'
p665
sS'Key_name'
p666
S'namedquery_group_map_namedquery_id_idx'
p667
sS'Collation'
p668
S'A'
sS'Null'
p669
S''
sS'Seq_in_index'
p670
L1L
sS'Table'
p671
S'namedquery_group_map'
p672
sS'Cardinality'
p673
L0L
sS'Packed'
p674
NsS'Column_name'
p675
S'namedquery_id'
p676
sa(dp677
g661
S''
sg662
L1L
sg663
Nsg664
S'BTREE'
p678
sg666
S'namedquery_group_map_group_id_idx'
p679
sg668
S'A'
sg669
S''
sg670
L1L
sg671
S'namedquery_group_map'
p680
sg673
L0L
sg674
Nsg675
S'group_id'
p681
satp682
sS'flagexclusions'
p683
((lp684
(dp685
S'Extra'
p686
S''
sS'Default'
p687
S''
sS'Field'
p688
S'type_id'
p689
sS'Key'
p690
S'MUL'
p691
sS'Null'
p692
S'NO'
p693
sS'Type'
p694
S'smallint(6)'
p695
sa(dp696
g686
S''
sg687
Nsg688
S'product_id'
p697
sg690
S''
sg692
S'YES'
p698
sg694
S'smallint(6)'
p699
sa(dp700
g686
S''
sg687
Nsg688
S'component_id'
p701
sg690
S''
sg692
S'YES'
p702
sg694
S'smallint(6)'
p703
sa(lp704
(dp705
S'Comment'
p706
S''
sS'Non_unique'
p707
L1L
sS'Sub_part'
p708
NsS'Index_type'
p709
S'BTREE'
p710
sS'Key_name'
p711
S'flagexclusions_type_id_idx'
p712
sS'Collation'
p713
S'A'
sS'Null'
p714
S''
sS'Seq_in_index'
p715
L1L
sS'Table'
p716
S'flagexclusions'
p717
sS'Cardinality'
p718
L0L
sS'Packed'
p719
NsS'Column_name'
p720
S'type_id'
p721
sa(dp722
g706
S''
sg707
L1L
sg708
Nsg709
S'BTREE'
p723
sg711
S'flagexclusions_type_id_idx'
p724
sg713
S'A'
sg714
S'YES'
p725
sg715
L2L
sg716
S'flagexclusions'
p726
sg718
L0L
sg719
Nsg720
S'product_id'
p727
sa(dp728
g706
S''
sg707
L1L
sg708
Nsg709
S'BTREE'
p729
sg711
S'flagexclusions_type_id_idx'
p730
sg713
S'A'
sg714
S'YES'
p731
sg715
L3L
sg716
S'flagexclusions'
p732
sg718
L0L
sg719
Nsg720
S'component_id'
p733
satp734
sS'votes'
p735
((lp736
(dp737
S'Extra'
p738
S''
sS'Default'
p739
S''
sS'Field'
p740
S'who'
p741
sS'Key'
p742
S'MUL'
p743
sS'Null'
p744
S'NO'
p745
sS'Type'
p746
S'mediumint(9)'
p747
sa(dp748
g738
S''
sg739
S''
sg740
S'bug_id'
p749
sg742
S'MUL'
p750
sg744
S'NO'
p751
sg746
S'mediumint(9)'
p752
sa(dp753
g738
S''
sg739
S''
sg740
S'vote_count'
p754
sg742
S''
sg744
S'NO'
p755
sg746
S'smallint(6)'
p756
sa(lp757
(dp758
S'Comment'
p759
S''
sS'Non_unique'
p760
L1L
sS'Sub_part'
p761
NsS'Index_type'
p762
S'BTREE'
p763
sS'Key_name'
p764
S'votes_who_idx'
p765
sS'Collation'
p766
S'A'
sS'Null'
p767
S''
sS'Seq_in_index'
p768
L1L
sS'Table'
p769
S'votes'
p770
sS'Cardinality'
p771
L0L
sS'Packed'
p772
NsS'Column_name'
p773
S'who'
p774
sa(dp775
g759
S''
sg760
L1L
sg761
Nsg762
S'BTREE'
p776
sg764
S'votes_bug_id_idx'
p777
sg766
S'A'
sg767
S''
sg768
L1L
sg769
S'votes'
p778
sg771
L0L
sg772
Nsg773
S'bug_id'
p779
satp780
sS'attach_data'
p781
((lp782
(dp783
S'Extra'
p784
S''
sS'Default'
p785
S''
sS'Field'
p786
S'id'
p787
sS'Key'
p788
S'PRI'
p789
sS'Null'
p790
S'NO'
p791
sS'Type'
p792
S'mediumint(9)'
p793
sa(dp794
g784
S''
sg785
S''
sg786
S'thedata'
p795
sg788
S''
sg790
S'NO'
p796
sg792
S'longblob'
p797
sa(lp798
(dp799
S'Comment'
p800
S''
sS'Non_unique'
p801
L0L
sS'Sub_part'
p802
NsS'Index_type'
p803
S'BTREE'
p804
sS'Key_name'
p805
S'PRIMARY'
p806
sS'Collation'
p807
S'A'
sS'Null'
p808
S''
sS'Seq_in_index'
p809
L1L
sS'Table'
p810
S'attach_data'
p811
sS'Cardinality'
p812
L0L
sS'Packed'
p813
NsS'Column_name'
p814
S'id'
p815
satp816
sS'products'
p817
((lp818
(dp819
S'Extra'
p820
S'auto_increment'
p821
sS'Default'
p822
NsS'Field'
p823
S'id'
p824
sS'Key'
p825
S'PRI'
p826
sS'Null'
p827
S'NO'
p828
sS'Type'
p829
S'smallint(6)'
p830
sa(dp831
g820
S''
sg822
S''
sg823
S'name'
p832
sg825
S'UNI'
p833
sg827
S'NO'
p834
sg829
S'varchar(64)'
p835
sa(dp836
g820
S''
sg822
S'1'
sg823
S'classification_id'
p837
sg825
S''
sg827
S'NO'
p838
sg829
S'smallint(6)'
p839
sa(dp840
g820
S''
sg822
Nsg823
S'description'
p841
sg825
S''
sg827
S'YES'
p842
sg829
S'mediumtext'
p843
sa(dp844
g820
S''
sg822
S''
sg823
S'milestoneurl'
p845
sg825
S''
sg827
S'NO'
p846
sg829
S'tinytext'
p847
sa(dp848
g820
S''
sg822
S'0'
sg823
S'disallownew'
p849
sg825
S''
sg827
S'NO'
p850
sg829
S'tinyint(4)'
p851
sa(dp852
g820
S''
sg822
S'0'
sg823
S'votesperuser'
p853
sg825
S''
sg827
S'NO'
p854
sg829
S'smallint(6)'
p855
sa(dp856
g820
S''
sg822
S'10000'
p857
sg823
S'maxvotesperbug'
p858
sg825
S''
sg827
S'NO'
p859
sg829
S'smallint(6)'
p860
sa(dp861
g820
S''
sg822
S'0'
sg823
S'votestoconfirm'
p862
sg825
S''
sg827
S'NO'
p863
sg829
S'smallint(6)'
p864
sa(dp865
g820
S''
sg822
S'---'
p866
sg823
S'defaultmilestone'
p867
sg825
S''
sg827
S'NO'
p868
sg829
S'varchar(20)'
p869
sa(lp870
(dp871
S'Comment'
p872
S''
sS'Non_unique'
p873
L0L
sS'Sub_part'
p874
NsS'Index_type'
p875
S'BTREE'
p876
sS'Key_name'
p877
S'PRIMARY'
p878
sS'Collation'
p879
S'A'
sS'Null'
p880
S''
sS'Seq_in_index'
p881
L1L
sS'Table'
p882
S'products'
p883
sS'Cardinality'
p884
L1L
sS'Packed'
p885
NsS'Column_name'
p886
S'id'
p887
sa(dp888
g872
S''
sg873
L0L
sg874
Nsg875
S'BTREE'
p889
sg877
S'products_name_idx'
p890
sg879
S'A'
sg880
S''
sg881
L1L
sg882
S'products'
p891
sg884
L1L
sg885
Nsg886
S'name'
p892
satp893
sS'bug_status'
p894
((lp895
(dp896
S'Extra'
p897
S'auto_increment'
p898
sS'Default'
p899
NsS'Field'
p900
S'id'
p901
sS'Key'
p902
S'PRI'
p903
sS'Null'
p904
S'NO'
p905
sS'Type'
p906
S'smallint(6)'
p907
sa(dp908
g897
S''
sg899
S''
sg900
S'value'
p909
sg902
S'UNI'
p910
sg904
S'NO'
p911
sg906
S'varchar(64)'
p912
sa(dp913
g897
S''
sg899
S'0'
sg900
S'sortkey'
p914
sg902
S'MUL'
p915
sg904
S'NO'
p916
sg906
S'smallint(6)'
p917
sa(dp918
g897
S''
sg899
S'1'
sg900
S'isactive'
p919
sg902
S''
sg904
S'NO'
p920
sg906
S'tinyint(4)'
p921
sa(dp922
g897
S''
sg899
S'1'
sg900
S'is_open'
p923
sg902
S''
sg904
S'NO'
p924
sg906
S'tinyint(4)'
p925
sa(lp926
(dp927
S'Comment'
p928
S''
sS'Non_unique'
p929
L0L
sS'Sub_part'
p930
NsS'Index_type'
p931
S'BTREE'
p932
sS'Key_name'
p933
S'PRIMARY'
p934
sS'Collation'
p935
S'A'
sS'Null'
p936
S''
sS'Seq_in_index'
p937
L1L
sS'Table'
p938
S'bug_status'
p939
sS'Cardinality'
p940
L7L
sS'Packed'
p941
NsS'Column_name'
p942
S'id'
p943
sa(dp944
g928
S''
sg929
L0L
sg930
Nsg931
S'BTREE'
p945
sg933
S'bug_status_value_idx'
p946
sg935
S'A'
sg936
S''
sg937
L1L
sg938
S'bug_status'
p947
sg940
L7L
sg941
Nsg942
S'value'
p948
sa(dp949
g928
S''
sg929
L1L
sg930
Nsg931
S'BTREE'
p950
sg933
S'bug_status_sortkey_idx'
p951
sg935
S'A'
sg936
S''
sg937
L1L
sg938
S'bug_status'
p952
sg940
L7L
sg941
Nsg942
S'sortkey'
p953
sa(dp954
g928
S''
sg929
L1L
sg930
Nsg931
S'BTREE'
p955
sg933
S'bug_status_sortkey_idx'
p956
sg935
S'A'
sg936
S''
sg937
L2L
sg938
S'bug_status'
p957
sg940
L7L
sg941
Nsg942
S'value'
p958
satp959
sS'priority'
p960
((lp961
(dp962
S'Extra'
p963
S'auto_increment'
p964
sS'Default'
p965
NsS'Field'
p966
S'id'
p967
sS'Key'
p968
S'PRI'
p969
sS'Null'
p970
S'NO'
p971
sS'Type'
p972
S'smallint(6)'
p973
sa(dp974
g963
S''
sg965
S''
sg966
S'value'
p975
sg968
S'UNI'
p976
sg970
S'NO'
p977
sg972
S'varchar(64)'
p978
sa(dp979
g963
S''
sg965
S'0'
sg966
S'sortkey'
p980
sg968
S'MUL'
p981
sg970
S'NO'
p982
sg972
S'smallint(6)'
p983
sa(dp984
g963
S''
sg965
S'1'
sg966
S'isactive'
p985
sg968
S''
sg970
S'NO'
p986
sg972
S'tinyint(4)'
p987
sa(lp988
(dp989
S'Comment'
p990
S''
sS'Non_unique'
p991
L0L
sS'Sub_part'
p992
NsS'Index_type'
p993
S'BTREE'
p994
sS'Key_name'
p995
S'PRIMARY'
p996
sS'Collation'
p997
S'A'
sS'Null'
p998
S''
sS'Seq_in_index'
p999
L1L
sS'Table'
p1000
S'priority'
p1001
sS'Cardinality'
p1002
L5L
sS'Packed'
p1003
NsS'Column_name'
p1004
S'id'
p1005
sa(dp1006
g990
S''
sg991
L0L
sg992
Nsg993
S'BTREE'
p1007
sg995
S'priority_value_idx'
p1008
sg997
S'A'
sg998
S''
sg999
L1L
sg1000
S'priority'
p1009
sg1002
L5L
sg1003
Nsg1004
S'value'
p1010
sa(dp1011
g990
S''
sg991
L1L
sg992
Nsg993
S'BTREE'
p1012
sg995
S'priority_sortkey_idx'
p1013
sg997
S'A'
sg998
S''
sg999
L1L
sg1000
S'priority'
p1014
sg1002
L5L
sg1003
Nsg1004
S'sortkey'
p1015
sa(dp1016
g990
S''
sg991
L1L
sg992
Nsg993
S'BTREE'
p1017
sg995
S'priority_sortkey_idx'
p1018
sg997
S'A'
sg998
S''
sg999
L2L
sg1000
S'priority'
p1019
sg1002
L5L
sg1003
Nsg1004
S'value'
p1020
satp1021
sS'cc'
p1022
((lp1023
(dp1024
S'Extra'
p1025
S''
sS'Default'
p1026
S''
sS'Field'
p1027
S'bug_id'
p1028
sS'Key'
p1029
S'PRI'
p1030
sS'Null'
p1031
S'NO'
p1032
sS'Type'
p1033
S'mediumint(9)'
p1034
sa(dp1035
g1025
S''
sg1026
S''
sg1027
S'who'
p1036
sg1029
S'PRI'
p1037
sg1031
S'NO'
p1038
sg1033
S'mediumint(9)'
p1039
sa(lp1040
(dp1041
S'Comment'
p1042
S''
sS'Non_unique'
p1043
L0L
sS'Sub_part'
p1044
NsS'Index_type'
p1045
S'BTREE'
p1046
sS'Key_name'
p1047
S'cc_bug_id_idx'
p1048
sS'Collation'
p1049
S'A'
sS'Null'
p1050
S''
sS'Seq_in_index'
p1051
L1L
sS'Table'
p1052
S'cc'
p1053
sS'Cardinality'
p1054
L0L
sS'Packed'
p1055
NsS'Column_name'
p1056
S'bug_id'
p1057
sa(dp1058
g1042
S''
sg1043
L0L
sg1044
Nsg1045
S'BTREE'
p1059
sg1047
S'cc_bug_id_idx'
p1060
sg1049
S'A'
sg1050
S''
sg1051
L2L
sg1052
S'cc'
p1061
sg1054
L0L
sg1055
Nsg1056
S'who'
p1062
sa(dp1063
g1042
S''
sg1043
L1L
sg1044
Nsg1045
S'BTREE'
p1064
sg1047
S'cc_who_idx'
p1065
sg1049
S'A'
sg1050
S''
sg1051
L1L
sg1052
S'cc'
p1066
sg1054
L0L
sg1055
Nsg1056
S'who'
p1067
satp1068
sS'setting'
p1069
((lp1070
(dp1071
S'Extra'
p1072
S''
sS'Default'
p1073
S''
sS'Field'
p1074
S'name'
p1075
sS'Key'
p1076
S'PRI'
p1077
sS'Null'
p1078
S'NO'
p1079
sS'Type'
p1080
S'varchar(32)'
p1081
sa(dp1082
g1072
S''
sg1073
S''
sg1074
S'default_value'
p1083
sg1076
S''
sg1078
S'NO'
p1084
sg1080
S'varchar(32)'
p1085
sa(dp1086
g1072
S''
sg1073
S'1'
sg1074
S'is_enabled'
p1087
sg1076
S''
sg1078
S'NO'
p1088
sg1080
S'tinyint(4)'
p1089
sa(dp1090
g1072
S''
sg1073
Nsg1074
S'subclass'
p1091
sg1076
S''
sg1078
S'YES'
p1092
sg1080
S'varchar(32)'
p1093
sa(lp1094
(dp1095
S'Comment'
p1096
S''
sS'Non_unique'
p1097
L0L
sS'Sub_part'
p1098
NsS'Index_type'
p1099
S'BTREE'
p1100
sS'Key_name'
p1101
S'PRIMARY'
p1102
sS'Collation'
p1103
S'A'
sS'Null'
p1104
S''
sS'Seq_in_index'
p1105
L1L
sS'Table'
p1106
S'setting'
p1107
sS'Cardinality'
p1108
L10L
sS'Packed'
p1109
NsS'Column_name'
p1110
S'name'
p1111
satp1112
sS'email_setting'
p1113
((lp1114
(dp1115
S'Extra'
p1116
S''
sS'Default'
p1117
S''
sS'Field'
p1118
S'user_id'
p1119
sS'Key'
p1120
S'PRI'
p1121
sS'Null'
p1122
S'NO'
p1123
sS'Type'
p1124
S'mediumint(9)'
p1125
sa(dp1126
g1116
S''
sg1117
S''
sg1118
S'relationship'
p1127
sg1120
S'PRI'
p1128
sg1122
S'NO'
p1129
sg1124
S'tinyint(4)'
p1130
sa(dp1131
g1116
S''
sg1117
S''
sg1118
S'event'
p1132
sg1120
S'PRI'
p1133
sg1122
S'NO'
p1134
sg1124
S'tinyint(4)'
p1135
sa(lp1136
(dp1137
S'Comment'
p1138
S''
sS'Non_unique'
p1139
L0L
sS'Sub_part'
p1140
NsS'Index_type'
p1141
S'BTREE'
p1142
sS'Key_name'
p1143
S'email_setting_user_id_idx'
p1144
sS'Collation'
p1145
S'A'
sS'Null'
p1146
S''
sS'Seq_in_index'
p1147
L1L
sS'Table'
p1148
S'email_setting'
p1149
sS'Cardinality'
p1150
L63L
sS'Packed'
p1151
NsS'Column_name'
p1152
S'user_id'
p1153
sa(dp1154
g1138
S''
sg1139
L0L
sg1140
Nsg1141
S'BTREE'
p1155
sg1143
S'email_setting_user_id_idx'
p1156
sg1145
S'A'
sg1146
S''
sg1147
L2L
sg1148
S'email_setting'
p1157
sg1150
L63L
sg1151
Nsg1152
S'relationship'
p1158
sa(dp1159
g1138
S''
sg1139
L0L
sg1140
Nsg1141
S'BTREE'
p1160
sg1143
S'email_setting_user_id_idx'
p1161
sg1145
S'A'
sg1146
S''
sg1147
L3L
sg1148
S'email_setting'
p1162
sg1150
L63L
sg1151
Nsg1152
S'event'
p1163
satp1164
sS'series'
p1165
((lp1166
(dp1167
S'Extra'
p1168
S'auto_increment'
p1169
sS'Default'
p1170
NsS'Field'
p1171
S'series_id'
p1172
sS'Key'
p1173
S'PRI'
p1174
sS'Null'
p1175
S'NO'
p1176
sS'Type'
p1177
S'mediumint(9)'
p1178
sa(dp1179
g1168
S''
sg1170
Nsg1171
S'creator'
p1180
sg1173
S'MUL'
p1181
sg1175
S'YES'
p1182
sg1177
S'mediumint(9)'
p1183
sa(dp1184
g1168
S''
sg1170
S''
sg1171
S'category'
p1185
sg1173
S''
sg1175
S'NO'
p1186
sg1177
S'smallint(6)'
p1187
sa(dp1188
g1168
S''
sg1170
S''
sg1171
S'subcategory'
p1189
sg1173
S''
sg1175
S'NO'
p1190
sg1177
S'smallint(6)'
p1191
sa(dp1192
g1168
S''
sg1170
S''
sg1171
S'name'
p1193
sg1173
S''
sg1175
S'NO'
p1194
sg1177
S'varchar(64)'
p1195
sa(dp1196
g1168
S''
sg1170
S''
sg1171
S'frequency'
p1197
sg1173
S''
sg1175
S'NO'
p1198
sg1177
S'smallint(6)'
p1199
sa(dp1200
g1168
S''
sg1170
Nsg1171
S'last_viewed'
p1201
sg1173
S''
sg1175
S'YES'
p1202
sg1177
S'datetime'
p1203
sa(dp1204
g1168
S''
sg1170
S''
sg1171
S'query'
p1205
sg1173
S''
sg1175
S'NO'
p1206
sg1177
S'mediumtext'
p1207
sa(dp1208
g1168
S''
sg1170
S'0'
sg1171
S'is_public'
p1209
sg1173
S''
sg1175
S'NO'
p1210
sg1177
S'tinyint(4)'
p1211
sa(lp1212
(dp1213
S'Comment'
p1214
S''
sS'Non_unique'
p1215
L0L
sS'Sub_part'
p1216
NsS'Index_type'
p1217
S'BTREE'
p1218
sS'Key_name'
p1219
S'PRIMARY'
p1220
sS'Collation'
p1221
S'A'
sS'Null'
p1222
S''
sS'Seq_in_index'
p1223
L1L
sS'Table'
p1224
S'series'
p1225
sS'Cardinality'
p1226
L0L
sS'Packed'
p1227
NsS'Column_name'
p1228
S'series_id'
p1229
sa(dp1230
g1214
S''
sg1215
L0L
sg1216
Nsg1217
S'BTREE'
p1231
sg1219
S'series_creator_idx'
p1232
sg1221
S'A'
sg1222
S'YES'
p1233
sg1223
L1L
sg1224
S'series'
p1234
sg1226
L0L
sg1227
Nsg1228
S'creator'
p1235
sa(dp1236
g1214
S''
sg1215
L0L
sg1216
Nsg1217
S'BTREE'
p1237
sg1219
S'series_creator_idx'
p1238
sg1221
S'A'
sg1222
S''
sg1223
L2L
sg1224
S'series'
p1239
sg1226
L0L
sg1227
Nsg1228
S'category'
p1240
sa(dp1241
g1214
S''
sg1215
L0L
sg1216
Nsg1217
S'BTREE'
p1242
sg1219
S'series_creator_idx'
p1243
sg1221
S'A'
sg1222
S''
sg1223
L3L
sg1224
S'series'
p1244
sg1226
L0L
sg1227
Nsg1228
S'subcategory'
p1245
sa(dp1246
g1214
S''
sg1215
L0L
sg1216
Nsg1217
S'BTREE'
p1247
sg1219
S'series_creator_idx'
p1248
sg1221
S'A'
sg1222
S''
sg1223
L4L
sg1224
S'series'
p1249
sg1226
L0L
sg1227
Nsg1228
S'name'
p1250
satp1251
sS'logincookies'
p1252
((lp1253
(dp1254
S'Extra'
p1255
S''
sS'Default'
p1256
S''
sS'Field'
p1257
S'cookie'
p1258
sS'Key'
p1259
S'PRI'
p1260
sS'Null'
p1261
S'NO'
p1262
sS'Type'
p1263
S'varchar(16)'
p1264
sa(dp1265
g1255
S''
sg1256
S''
sg1257
S'userid'
p1266
sg1259
S'MUL'
p1267
sg1261
S'NO'
p1268
sg1263
S'mediumint(9)'
p1269
sa(dp1270
g1255
S''
sg1256
S''
sg1257
S'ipaddr'
p1271
sg1259
S''
sg1261
S'NO'
p1272
sg1263
S'varchar(40)'
p1273
sa(dp1274
g1255
S''
sg1256
S''
sg1257
S'lastused'
p1275
sg1259
S'MUL'
p1276
sg1261
S'NO'
p1277
sg1263
S'datetime'
p1278
sa(lp1279
(dp1280
S'Comment'
p1281
S''
sS'Non_unique'
p1282
L0L
sS'Sub_part'
p1283
NsS'Index_type'
p1284
S'BTREE'
p1285
sS'Key_name'
p1286
S'PRIMARY'
p1287
sS'Collation'
p1288
S'A'
sS'Null'
p1289
S''
sS'Seq_in_index'
p1290
L1L
sS'Table'
p1291
S'logincookies'
p1292
sS'Cardinality'
p1293
L0L
sS'Packed'
p1294
NsS'Column_name'
p1295
S'cookie'
p1296
sa(dp1297
g1281
S''
sg1282
L1L
sg1283
Nsg1284
S'BTREE'
p1298
sg1286
S'logincookies_lastused_idx'
p1299
sg1288
S'A'
sg1289
S''
sg1290
L1L
sg1291
S'logincookies'
p1300
sg1293
L0L
sg1294
Nsg1295
S'lastused'
p1301
sa(dp1302
g1281
S''
sg1282
L1L
sg1283
Nsg1284
S'BTREE'
p1303
sg1286
S'fk_logincookies_userid_profiles_userid'
p1304
sg1288
S'A'
sg1289
S''
sg1290
L1L
sg1291
S'logincookies'
p1305
sg1293
L0L
sg1294
Nsg1295
S'userid'
p1306
satp1307
sS'fielddefs'
p1308
((lp1309
(dp1310
S'Extra'
p1311
S'auto_increment'
p1312
sS'Default'
p1313
NsS'Field'
p1314
S'id'
p1315
sS'Key'
p1316
S'PRI'
p1317
sS'Null'
p1318
S'NO'
p1319
sS'Type'
p1320
S'mediumint(9)'
p1321
sa(dp1322
g1311
S''
sg1313
S''
sg1314
S'name'
p1323
sg1316
S'UNI'
p1324
sg1318
S'NO'
p1325
sg1320
S'varchar(64)'
p1326
sa(dp1327
g1311
S''
sg1313
S'0'
sg1314
S'type'
p1328
sg1316
S''
sg1318
S'NO'
p1329
sg1320
S'smallint(6)'
p1330
sa(dp1331
g1311
S''
sg1313
S'0'
sg1314
S'custom'
p1332
sg1316
S''
sg1318
S'NO'
p1333
sg1320
S'tinyint(4)'
p1334
sa(dp1335
g1311
S''
sg1313
S''
sg1314
S'description'
p1336
sg1316
S''
sg1318
S'NO'
p1337
sg1320
S'mediumtext'
p1338
sa(dp1339
g1311
S''
sg1313
S'0'
sg1314
S'mailhead'
p1340
sg1316
S''
sg1318
S'NO'
p1341
sg1320
S'tinyint(4)'
p1342
sa(dp1343
g1311
S''
sg1313
S''
sg1314
S'sortkey'
p1344
sg1316
S'MUL'
p1345
sg1318
S'NO'
p1346
sg1320
S'smallint(6)'
p1347
sa(dp1348
g1311
S''
sg1313
S'0'
sg1314
S'obsolete'
p1349
sg1316
S''
sg1318
S'NO'
p1350
sg1320
S'tinyint(4)'
p1351
sa(dp1352
g1311
S''
sg1313
S'0'
sg1314
S'enter_bug'
p1353
sg1316
S''
sg1318
S'NO'
p1354
sg1320
S'tinyint(4)'
p1355
sa(lp1356
(dp1357
S'Comment'
p1358
S''
sS'Non_unique'
p1359
L0L
sS'Sub_part'
p1360
NsS'Index_type'
p1361
S'BTREE'
p1362
sS'Key_name'
p1363
S'PRIMARY'
p1364
sS'Collation'
p1365
S'A'
sS'Null'
p1366
S''
sS'Seq_in_index'
p1367
L1L
sS'Table'
p1368
S'fielddefs'
p1369
sS'Cardinality'
p1370
L53L
sS'Packed'
p1371
NsS'Column_name'
p1372
S'id'
p1373
sa(dp1374
g1358
S''
sg1359
L0L
sg1360
Nsg1361
S'BTREE'
p1375
sg1363
S'fielddefs_name_idx'
p1376
sg1365
S'A'
sg1366
S''
sg1367
L1L
sg1368
S'fielddefs'
p1377
sg1370
L53L
sg1371
Nsg1372
S'name'
p1378
sa(dp1379
g1358
S''
sg1359
L1L
sg1360
Nsg1361
S'BTREE'
p1380
sg1363
S'fielddefs_sortkey_idx'
p1381
sg1365
S'A'
sg1366
S''
sg1367
L1L
sg1368
S'fielddefs'
p1382
sg1370
L53L
sg1371
Nsg1372
S'sortkey'
p1383
satp1384
sS'whine_events'
p1385
((lp1386
(dp1387
S'Extra'
p1388
S'auto_increment'
p1389
sS'Default'
p1390
NsS'Field'
p1391
S'id'
p1392
sS'Key'
p1393
S'PRI'
p1394
sS'Null'
p1395
S'NO'
p1396
sS'Type'
p1397
S'mediumint(9)'
p1398
sa(dp1399
g1388
S''
sg1390
S''
sg1391
S'owner_userid'
p1400
sg1393
S'MUL'
p1401
sg1395
S'NO'
p1402
sg1397
S'mediumint(9)'
p1403
sa(dp1404
g1388
S''
sg1390
Nsg1391
S'subject'
p1405
sg1393
S''
sg1395
S'YES'
p1406
sg1397
S'varchar(128)'
p1407
sa(dp1408
g1388
S''
sg1390
Nsg1391
S'body'
p1409
sg1393
S''
sg1395
S'YES'
p1410
sg1397
S'mediumtext'
p1411
sa(lp1412
(dp1413
S'Comment'
p1414
S''
sS'Non_unique'
p1415
L0L
sS'Sub_part'
p1416
NsS'Index_type'
p1417
S'BTREE'
p1418
sS'Key_name'
p1419
S'PRIMARY'
p1420
sS'Collation'
p1421
S'A'
sS'Null'
p1422
S''
sS'Seq_in_index'
p1423
L1L
sS'Table'
p1424
S'whine_events'
p1425
sS'Cardinality'
p1426
L0L
sS'Packed'
p1427
NsS'Column_name'
p1428
S'id'
p1429
sa(dp1430
g1414
S''
sg1415
L1L
sg1416
Nsg1417
S'BTREE'
p1431
sg1419
S'fk_whine_events_owner_userid_profiles_userid'
p1432
sg1421
S'A'
sg1422
S''
sg1423
L1L
sg1424
S'whine_events'
p1433
sg1426
L0L
sg1427
Nsg1428
S'owner_userid'
p1434
satp1435
sS'flaginclusions'
p1436
((lp1437
(dp1438
S'Extra'
p1439
S''
sS'Default'
p1440
S''
sS'Field'
p1441
S'type_id'
p1442
sS'Key'
p1443
S'MUL'
p1444
sS'Null'
p1445
S'NO'
p1446
sS'Type'
p1447
S'smallint(6)'
p1448
sa(dp1449
g1439
S''
sg1440
Nsg1441
S'product_id'
p1450
sg1443
S''
sg1445
S'YES'
p1451
sg1447
S'smallint(6)'
p1452
sa(dp1453
g1439
S''
sg1440
Nsg1441
S'component_id'
p1454
sg1443
S''
sg1445
S'YES'
p1455
sg1447
S'smallint(6)'
p1456
sa(lp1457
(dp1458
S'Comment'
p1459
S''
sS'Non_unique'
p1460
L1L
sS'Sub_part'
p1461
NsS'Index_type'
p1462
S'BTREE'
p1463
sS'Key_name'
p1464
S'flaginclusions_type_id_idx'
p1465
sS'Collation'
p1466
S'A'
sS'Null'
p1467
S''
sS'Seq_in_index'
p1468
L1L
sS'Table'
p1469
S'flaginclusions'
p1470
sS'Cardinality'
p1471
L0L
sS'Packed'
p1472
NsS'Column_name'
p1473
S'type_id'
p1474
sa(dp1475
g1459
S''
sg1460
L1L
sg1461
Nsg1462
S'BTREE'
p1476
sg1464
S'flaginclusions_type_id_idx'
p1477
sg1466
S'A'
sg1467
S'YES'
p1478
sg1468
L2L
sg1469
S'flaginclusions'
p1479
sg1471
L0L
sg1472
Nsg1473
S'product_id'
p1480
sa(dp1481
g1459
S''
sg1460
L1L
sg1461
Nsg1462
S'BTREE'
p1482
sg1464
S'flaginclusions_type_id_idx'
p1483
sg1466
S'A'
sg1467
S'YES'
p1484
sg1468
L3L
sg1469
S'flaginclusions'
p1485
sg1471
L0L
sg1472
Nsg1473
S'component_id'
p1486
satp1487
sS'profiles_activity'
p1488
((lp1489
(dp1490
S'Extra'
p1491
S''
sS'Default'
p1492
S''
sS'Field'
p1493
S'userid'
p1494
sS'Key'
p1495
S'MUL'
p1496
sS'Null'
p1497
S'NO'
p1498
sS'Type'
p1499
S'mediumint(9)'
p1500
sa(dp1501
g1491
S''
sg1492
S''
sg1493
S'who'
p1502
sg1495
S'MUL'
p1503
sg1497
S'NO'
p1504
sg1499
S'mediumint(9)'
p1505
sa(dp1506
g1491
S''
sg1492
S''
sg1493
S'profiles_when'
p1507
sg1495
S'MUL'
p1508
sg1497
S'NO'
p1509
sg1499
S'datetime'
p1510
sa(dp1511
g1491
S''
sg1492
S''
sg1493
S'fieldid'
p1512
sg1495
S'MUL'
p1513
sg1497
S'NO'
p1514
sg1499
S'mediumint(9)'
p1515
sa(dp1516
g1491
S''
sg1492
Nsg1493
S'oldvalue'
p1517
sg1495
S''
sg1497
S'YES'
p1518
sg1499
S'tinytext'
p1519
sa(dp1520
g1491
S''
sg1492
Nsg1493
S'newvalue'
p1521
sg1495
S''
sg1497
S'YES'
p1522
sg1499
S'tinytext'
p1523
sa(lp1524
(dp1525
S'Comment'
p1526
S''
sS'Non_unique'
p1527
L1L
sS'Sub_part'
p1528
NsS'Index_type'
p1529
S'BTREE'
p1530
sS'Key_name'
p1531
S'profiles_activity_userid_idx'
p1532
sS'Collation'
p1533
S'A'
sS'Null'
p1534
S''
sS'Seq_in_index'
p1535
L1L
sS'Table'
p1536
S'profiles_activity'
p1537
sS'Cardinality'
p1538
L1L
sS'Packed'
p1539
NsS'Column_name'
p1540
S'userid'
p1541
sa(dp1542
g1526
S''
sg1527
L1L
sg1528
Nsg1529
S'BTREE'
p1543
sg1531
S'profiles_activity_profiles_when_idx'
p1544
sg1533
S'A'
sg1534
S''
sg1535
L1L
sg1536
S'profiles_activity'
p1545
sg1538
L1L
sg1539
Nsg1540
S'profiles_when'
p1546
sa(dp1547
g1526
S''
sg1527
L1L
sg1528
Nsg1529
S'BTREE'
p1548
sg1531
S'profiles_activity_fieldid_idx'
p1549
sg1533
S'A'
sg1534
S''
sg1535
L1L
sg1536
S'profiles_activity'
p1550
sg1538
L1L
sg1539
Nsg1540
S'fieldid'
p1551
sa(dp1552
g1526
S''
sg1527
L1L
sg1528
Nsg1529
S'BTREE'
p1553
sg1531
S'fk_profiles_activity_who_profiles_userid'
p1554
sg1533
S'A'
sg1534
S''
sg1535
L1L
sg1536
S'profiles_activity'
p1555
sg1538
L1L
sg1539
Nsg1540
S'who'
p1556
satp1557
sS'bugs_activity'
p1558
((lp1559
(dp1560
S'Extra'
p1561
S''
sS'Default'
p1562
S''
sS'Field'
p1563
S'bug_id'
p1564
sS'Key'
p1565
S'MUL'
p1566
sS'Null'
p1567
S'NO'
p1568
sS'Type'
p1569
S'mediumint(9)'
p1570
sa(dp1571
g1561
S''
sg1562
Nsg1563
S'attach_id'
p1572
sg1565
S''
sg1567
S'YES'
p1573
sg1569
S'mediumint(9)'
p1574
sa(dp1575
g1561
S''
sg1562
S''
sg1563
S'who'
p1576
sg1565
S'MUL'
p1577
sg1567
S'NO'
p1578
sg1569
S'mediumint(9)'
p1579
sa(dp1580
g1561
S''
sg1562
S''
sg1563
S'bug_when'
p1581
sg1565
S'MUL'
p1582
sg1567
S'NO'
p1583
sg1569
S'datetime'
p1584
sa(dp1585
g1561
S''
sg1562
S''
sg1563
S'fieldid'
p1586
sg1565
S'MUL'
p1587
sg1567
S'NO'
p1588
sg1569
S'mediumint(9)'
p1589
sa(dp1590
g1561
S''
sg1562
Nsg1563
S'added'
p1591
sg1565
S''
sg1567
S'YES'
p1592
sg1569
S'tinytext'
p1593
sa(dp1594
g1561
S''
sg1562
Nsg1563
S'removed'
p1595
sg1565
S''
sg1567
S'YES'
p1596
sg1569
S'tinytext'
p1597
sa(lp1598
(dp1599
S'Comment'
p1600
S''
sS'Non_unique'
p1601
L1L
sS'Sub_part'
p1602
NsS'Index_type'
p1603
S'BTREE'
p1604
sS'Key_name'
p1605
S'bugs_activity_bug_id_idx'
p1606
sS'Collation'
p1607
S'A'
sS'Null'
p1608
S''
sS'Seq_in_index'
p1609
L1L
sS'Table'
p1610
S'bugs_activity'
p1611
sS'Cardinality'
p1612
L0L
sS'Packed'
p1613
NsS'Column_name'
p1614
S'bug_id'
p1615
sa(dp1616
g1600
S''
sg1601
L1L
sg1602
Nsg1603
S'BTREE'
p1617
sg1605
S'bugs_activity_who_idx'
p1618
sg1607
S'A'
sg1608
S''
sg1609
L1L
sg1610
S'bugs_activity'
p1619
sg1612
L0L
sg1613
Nsg1614
S'who'
p1620
sa(dp1621
g1600
S''
sg1601
L1L
sg1602
Nsg1603
S'BTREE'
p1622
sg1605
S'bugs_activity_bug_when_idx'
p1623
sg1607
S'A'
sg1608
S''
sg1609
L1L
sg1610
S'bugs_activity'
p1624
sg1612
L0L
sg1613
Nsg1614
S'bug_when'
p1625
sa(dp1626
g1600
S''
sg1601
L1L
sg1602
Nsg1603
S'BTREE'
p1627
sg1605
S'bugs_activity_fieldid_idx'
p1628
sg1607
S'A'
sg1608
S''
sg1609
L1L
sg1610
S'bugs_activity'
p1629
sg1612
L0L
sg1613
Nsg1614
S'fieldid'
p1630
satp1631
sS'watch'
p1632
((lp1633
(dp1634
S'Extra'
p1635
S''
sS'Default'
p1636
S''
sS'Field'
p1637
S'watcher'
p1638
sS'Key'
p1639
S'PRI'
p1640
sS'Null'
p1641
S'NO'
p1642
sS'Type'
p1643
S'mediumint(9)'
p1644
sa(dp1645
g1635
S''
sg1636
S''
sg1637
S'watched'
p1646
sg1639
S'PRI'
p1647
sg1641
S'NO'
p1648
sg1643
S'mediumint(9)'
p1649
sa(lp1650
(dp1651
S'Comment'
p1652
S''
sS'Non_unique'
p1653
L0L
sS'Sub_part'
p1654
NsS'Index_type'
p1655
S'BTREE'
p1656
sS'Key_name'
p1657
S'watch_watcher_idx'
p1658
sS'Collation'
p1659
S'A'
sS'Null'
p1660
S''
sS'Seq_in_index'
p1661
L1L
sS'Table'
p1662
S'watch'
p1663
sS'Cardinality'
p1664
L0L
sS'Packed'
p1665
NsS'Column_name'
p1666
S'watcher'
p1667
sa(dp1668
g1652
S''
sg1653
L0L
sg1654
Nsg1655
S'BTREE'
p1669
sg1657
S'watch_watcher_idx'
p1670
sg1659
S'A'
sg1660
S''
sg1661
L2L
sg1662
S'watch'
p1671
sg1664
L0L
sg1665
Nsg1666
S'watched'
p1672
sa(dp1673
g1652
S''
sg1653
L1L
sg1654
Nsg1655
S'BTREE'
p1674
sg1657
S'watch_watched_idx'
p1675
sg1659
S'A'
sg1660
S''
sg1661
L1L
sg1662
S'watch'
p1676
sg1664
L0L
sg1665
Nsg1666
S'watched'
p1677
satp1678
sS'bug_severity'
p1679
((lp1680
(dp1681
S'Extra'
p1682
S'auto_increment'
p1683
sS'Default'
p1684
NsS'Field'
p1685
S'id'
p1686
sS'Key'
p1687
S'PRI'
p1688
sS'Null'
p1689
S'NO'
p1690
sS'Type'
p1691
S'smallint(6)'
p1692
sa(dp1693
g1682
S''
sg1684
S''
sg1685
S'value'
p1694
sg1687
S'UNI'
p1695
sg1689
S'NO'
p1696
sg1691
S'varchar(64)'
p1697
sa(dp1698
g1682
S''
sg1684
S'0'
sg1685
S'sortkey'
p1699
sg1687
S'MUL'
p1700
sg1689
S'NO'
p1701
sg1691
S'smallint(6)'
p1702
sa(dp1703
g1682
S''
sg1684
S'1'
sg1685
S'isactive'
p1704
sg1687
S''
sg1689
S'NO'
p1705
sg1691
S'tinyint(4)'
p1706
sa(lp1707
(dp1708
S'Comment'
p1709
S''
sS'Non_unique'
p1710
L0L
sS'Sub_part'
p1711
NsS'Index_type'
p1712
S'BTREE'
p1713
sS'Key_name'
p1714
S'PRIMARY'
p1715
sS'Collation'
p1716
S'A'
sS'Null'
p1717
S''
sS'Seq_in_index'
p1718
L1L
sS'Table'
p1719
S'bug_severity'
p1720
sS'Cardinality'
p1721
L7L
sS'Packed'
p1722
NsS'Column_name'
p1723
S'id'
p1724
sa(dp1725
g1709
S''
sg1710
L0L
sg1711
Nsg1712
S'BTREE'
p1726
sg1714
S'bug_severity_value_idx'
p1727
sg1716
S'A'
sg1717
S''
sg1718
L1L
sg1719
S'bug_severity'
p1728
sg1721
L7L
sg1722
Nsg1723
S'value'
p1729
sa(dp1730
g1709
S''
sg1710
L1L
sg1711
Nsg1712
S'BTREE'
p1731
sg1714
S'bug_severity_sortkey_idx'
p1732
sg1716
S'A'
sg1717
S''
sg1718
L1L
sg1719
S'bug_severity'
p1733
sg1721
L7L
sg1722
Nsg1723
S'sortkey'
p1734
sa(dp1735
g1709
S''
sg1710
L1L
sg1711
Nsg1712
S'BTREE'
p1736
sg1714
S'bug_severity_sortkey_idx'
p1737
sg1716
S'A'
sg1717
S''
sg1718
L2L
sg1719
S'bug_severity'
p1738
sg1721
L7L
sg1722
Nsg1723
S'value'
p1739
satp1740
sS'namedqueries'
p1741
((lp1742
(dp1743
S'Extra'
p1744
S'auto_increment'
p1745
sS'Default'
p1746
NsS'Field'
p1747
S'id'
p1748
sS'Key'
p1749
S'PRI'
p1750
sS'Null'
p1751
S'NO'
p1752
sS'Type'
p1753
S'mediumint(9)'
p1754
sa(dp1755
g1744
S''
sg1746
S''
sg1747
S'userid'
p1756
sg1749
S'MUL'
p1757
sg1751
S'NO'
p1758
sg1753
S'mediumint(9)'
p1759
sa(dp1760
g1744
S''
sg1746
S''
sg1747
S'name'
p1761
sg1749
S''
sg1751
S'NO'
p1762
sg1753
S'varchar(64)'
p1763
sa(dp1764
g1744
S''
sg1746
S''
sg1747
S'query'
p1765
sg1749
S''
sg1751
S'NO'
p1766
sg1753
S'mediumtext'
p1767
sa(dp1768
g1744
S''
sg1746
S''
sg1747
S'query_type'
p1769
sg1749
S''
sg1751
S'NO'
p1770
sg1753
S'tinyint(4)'
p1771
sa(lp1772
(dp1773
S'Comment'
p1774
S''
sS'Non_unique'
p1775
L0L
sS'Sub_part'
p1776
NsS'Index_type'
p1777
S'BTREE'
p1778
sS'Key_name'
p1779
S'PRIMARY'
p1780
sS'Collation'
p1781
S'A'
sS'Null'
p1782
S''
sS'Seq_in_index'
p1783
L1L
sS'Table'
p1784
S'namedqueries'
p1785
sS'Cardinality'
p1786
L0L
sS'Packed'
p1787
NsS'Column_name'
p1788
S'id'
p1789
sa(dp1790
g1774
S''
sg1775
L0L
sg1776
Nsg1777
S'BTREE'
p1791
sg1779
S'namedqueries_userid_idx'
p1792
sg1781
S'A'
sg1782
S''
sg1783
L1L
sg1784
S'namedqueries'
p1793
sg1786
L0L
sg1787
Nsg1788
S'userid'
p1794
sa(dp1795
g1774
S''
sg1775
L0L
sg1776
Nsg1777
S'BTREE'
p1796
sg1779
S'namedqueries_userid_idx'
p1797
sg1781
S'A'
sg1782
S''
sg1783
L2L
sg1784
S'namedqueries'
p1798
sg1786
L0L
sg1787
Nsg1788
S'name'
p1799
satp1800
sS'bz_schema'
p1801
((lp1802
(dp1803
S'Extra'
p1804
S''
sS'Default'
p1805
S''
sS'Field'
p1806
S'schema_data'
p1807
sS'Key'
p1808
S''
sS'Null'
p1809
S'NO'
p1810
sS'Type'
p1811
S'longblob'
p1812
sa(dp1813
g1804
S''
sg1805
S''
sg1806
S'version'
p1814
sg1808
S''
sg1809
S'NO'
p1815
sg1811
S'decimal(3,2)'
p1816
sa(ltp1817
sS'tokens'
p1818
((lp1819
(dp1820
S'Extra'
p1821
S''
sS'Default'
p1822
NsS'Field'
p1823
S'userid'
p1824
sS'Key'
p1825
S'MUL'
p1826
sS'Null'
p1827
S'YES'
p1828
sS'Type'
p1829
S'mediumint(9)'
p1830
sa(dp1831
g1821
S''
sg1822
S''
sg1823
S'issuedate'
p1832
sg1825
S''
sg1827
S'NO'
p1833
sg1829
S'datetime'
p1834
sa(dp1835
g1821
S''
sg1822
S''
sg1823
S'token'
p1836
sg1825
S'PRI'
p1837
sg1827
S'NO'
p1838
sg1829
S'varchar(16)'
p1839
sa(dp1840
g1821
S''
sg1822
S''
sg1823
S'tokentype'
p1841
sg1825
S''
sg1827
S'NO'
p1842
sg1829
S'varchar(8)'
p1843
sa(dp1844
g1821
S''
sg1822
Nsg1823
S'eventdata'
p1845
sg1825
S''
sg1827
S'YES'
p1846
sg1829
S'tinytext'
p1847
sa(lp1848
(dp1849
S'Comment'
p1850
S''
sS'Non_unique'
p1851
L0L
sS'Sub_part'
p1852
NsS'Index_type'
p1853
S'BTREE'
p1854
sS'Key_name'
p1855
S'PRIMARY'
p1856
sS'Collation'
p1857
S'A'
sS'Null'
p1858
S''
sS'Seq_in_index'
p1859
L1L
sS'Table'
p1860
S'tokens'
p1861
sS'Cardinality'
p1862
L0L
sS'Packed'
p1863
NsS'Column_name'
p1864
S'token'
p1865
sa(dp1866
g1850
S''
sg1851
L1L
sg1852
Nsg1853
S'BTREE'
p1867
sg1855
S'tokens_userid_idx'
p1868
sg1857
S'A'
sg1858
S'YES'
p1869
sg1859
L1L
sg1860
S'tokens'
p1870
sg1862
L0L
sg1863
Nsg1864
S'userid'
p1871
satp1872
sS'whine_schedules'
p1873
((lp1874
(dp1875
S'Extra'
p1876
S'auto_increment'
p1877
sS'Default'
p1878
NsS'Field'
p1879
S'id'
p1880
sS'Key'
p1881
S'PRI'
p1882
sS'Null'
p1883
S'NO'
p1884
sS'Type'
p1885
S'mediumint(9)'
p1886
sa(dp1887
g1876
S''
sg1878
S''
sg1879
S'eventid'
p1888
sg1881
S'MUL'
p1889
sg1883
S'NO'
p1890
sg1885
S'mediumint(9)'
p1891
sa(dp1892
g1876
S''
sg1878
Nsg1879
S'run_day'
p1893
sg1881
S''
sg1883
S'YES'
p1894
sg1885
S'varchar(32)'
p1895
sa(dp1896
g1876
S''
sg1878
Nsg1879
S'run_time'
p1897
sg1881
S''
sg1883
S'YES'
p1898
sg1885
S'varchar(32)'
p1899
sa(dp1900
g1876
S''
sg1878
Nsg1879
S'run_next'
p1901
sg1881
S'MUL'
p1902
sg1883
S'YES'
p1903
sg1885
S'datetime'
p1904
sa(dp1905
g1876
S''
sg1878
S''
sg1879
S'mailto'
p1906
sg1881
S''
sg1883
S'NO'
p1907
sg1885
S'mediumint(9)'
p1908
sa(dp1909
g1876
S''
sg1878
S'0'
sg1879
S'mailto_type'
p1910
sg1881
S''
sg1883
S'NO'
p1911
sg1885
S'smallint(6)'
p1912
sa(lp1913
(dp1914
S'Comment'
p1915
S''
sS'Non_unique'
p1916
L0L
sS'Sub_part'
p1917
NsS'Index_type'
p1918
S'BTREE'
p1919
sS'Key_name'
p1920
S'PRIMARY'
p1921
sS'Collation'
p1922
S'A'
sS'Null'
p1923
S''
sS'Seq_in_index'
p1924
L1L
sS'Table'
p1925
S'whine_schedules'
p1926
sS'Cardinality'
p1927
L0L
sS'Packed'
p1928
NsS'Column_name'
p1929
S'id'
p1930
sa(dp1931
g1915
S''
sg1916
L1L
sg1917
Nsg1918
S'BTREE'
p1932
sg1920
S'whine_schedules_run_next_idx'
p1933
sg1922
S'A'
sg1923
S'YES'
p1934
sg1924
L1L
sg1925
S'whine_schedules'
p1935
sg1927
L0L
sg1928
Nsg1929
S'run_next'
p1936
sa(dp1937
g1915
S''
sg1916
L1L
sg1917
Nsg1918
S'BTREE'
p1938
sg1920
S'whine_schedules_eventid_idx'
p1939
sg1922
S'A'
sg1923
S''
sg1924
L1L
sg1925
S'whine_schedules'
p1940
sg1927
L0L
sg1928
Nsg1929
S'eventid'
p1941
satp1942
sS'dependencies'
p1943
((lp1944
(dp1945
S'Extra'
p1946
S''
sS'Default'
p1947
S''
sS'Field'
p1948
S'blocked'
p1949
sS'Key'
p1950
S'MUL'
p1951
sS'Null'
p1952
S'NO'
p1953
sS'Type'
p1954
S'mediumint(9)'
p1955
sa(dp1956
g1946
S''
sg1947
S''
sg1948
S'dependson'
p1957
sg1950
S'MUL'
p1958
sg1952
S'NO'
p1959
sg1954
S'mediumint(9)'
p1960
sa(lp1961
(dp1962
S'Comment'
p1963
S''
sS'Non_unique'
p1964
L1L
sS'Sub_part'
p1965
NsS'Index_type'
p1966
S'BTREE'
p1967
sS'Key_name'
p1968
S'dependencies_blocked_idx'
p1969
sS'Collation'
p1970
S'A'
sS'Null'
p1971
S''
sS'Seq_in_index'
p1972
L1L
sS'Table'
p1973
S'dependencies'
p1974
sS'Cardinality'
p1975
L0L
sS'Packed'
p1976
NsS'Column_name'
p1977
S'blocked'
p1978
sa(dp1979
g1963
S''
sg1964
L1L
sg1965
Nsg1966
S'BTREE'
p1980
sg1968
S'dependencies_dependson_idx'
p1981
sg1970
S'A'
sg1971
S''
sg1972
L1L
sg1973
S'dependencies'
p1982
sg1975
L0L
sg1976
Nsg1977
S'dependson'
p1983
satp1984
sS'category_group_map'
p1985
((lp1986
(dp1987
S'Extra'
p1988
S''
sS'Default'
p1989
S''
sS'Field'
p1990
S'category_id'
p1991
sS'Key'
p1992
S'PRI'
p1993
sS'Null'
p1994
S'NO'
p1995
sS'Type'
p1996
S'smallint(6)'
p1997
sa(dp1998
g1988
S''
sg1989
S''
sg1990
S'group_id'
p1999
sg1992
S'PRI'
p2000
sg1994
S'NO'
p2001
sg1996
S'mediumint(9)'
p2002
sa(lp2003
(dp2004
S'Comment'
p2005
S''
sS'Non_unique'
p2006
L0L
sS'Sub_part'
p2007
NsS'Index_type'
p2008
S'BTREE'
p2009
sS'Key_name'
p2010
S'category_group_map_category_id_idx'
p2011
sS'Collation'
p2012
S'A'
sS'Null'
p2013
S''
sS'Seq_in_index'
p2014
L1L
sS'Table'
p2015
S'category_group_map'
p2016
sS'Cardinality'
p2017
L0L
sS'Packed'
p2018
NsS'Column_name'
p2019
S'category_id'
p2020
sa(dp2021
g2005
S''
sg2006
L0L
sg2007
Nsg2008
S'BTREE'
p2022
sg2010
S'category_group_map_category_id_idx'
p2023
sg2012
S'A'
sg2013
S''
sg2014
L2L
sg2015
S'category_group_map'
p2024
sg2017
L0L
sg2018
Nsg2019
S'group_id'
p2025
satp2026
sS'groups'
p2027
((lp2028
(dp2029
S'Extra'
p2030
S'auto_increment'
p2031
sS'Default'
p2032
NsS'Field'
p2033
S'id'
p2034
sS'Key'
p2035
S'PRI'
p2036
sS'Null'
p2037
S'NO'
p2038
sS'Type'
p2039
S'mediumint(9)'
p2040
sa(dp2041
g2030
S''
sg2032
S''
sg2033
S'name'
p2042
sg2035
S'UNI'
p2043
sg2037
S'NO'
p2044
sg2039
S'varchar(255)'
p2045
sa(dp2046
g2030
S''
sg2032
S''
sg2033
S'description'
p2047
sg2035
S''
sg2037
S'NO'
p2048
sg2039
S'text'
p2049
sa(dp2050
g2030
S''
sg2032
S''
sg2033
S'isbuggroup'
p2051
sg2035
S''
sg2037
S'NO'
p2052
sg2039
S'tinyint(4)'
p2053
sa(dp2054
g2030
S''
sg2032
S''
sg2033
S'userregexp'
p2055
sg2035
S''
sg2037
S'NO'
p2056
sg2039
S'tinytext'
p2057
sa(dp2058
g2030
S''
sg2032
S'1'
sg2033
S'isactive'
p2059
sg2035
S''
sg2037
S'NO'
p2060
sg2039
S'tinyint(4)'
p2061
sa(dp2062
g2030
S''
sg2032
Nsg2033
S'icon_url'
p2063
sg2035
S''
sg2037
S'YES'
p2064
sg2039
S'tinytext'
p2065
sa(lp2066
(dp2067
S'Comment'
p2068
S''
sS'Non_unique'
p2069
L0L
sS'Sub_part'
p2070
NsS'Index_type'
p2071
S'BTREE'
p2072
sS'Key_name'
p2073
S'PRIMARY'
p2074
sS'Collation'
p2075
S'A'
sS'Null'
p2076
S''
sS'Seq_in_index'
p2077
L1L
sS'Table'
p2078
S'groups'
p2079
sS'Cardinality'
p2080
L13L
sS'Packed'
p2081
NsS'Column_name'
p2082
S'id'
p2083
sa(dp2084
g2068
S''
sg2069
L0L
sg2070
Nsg2071
S'BTREE'
p2085
sg2073
S'groups_name_idx'
p2086
sg2075
S'A'
sg2076
S''
sg2077
L1L
sg2078
S'groups'
p2087
sg2080
L13L
sg2081
Nsg2082
S'name'
p2088
satp2089
sS'status_workflow'
p2090
((lp2091
(dp2092
S'Extra'
p2093
S''
sS'Default'
p2094
NsS'Field'
p2095
S'old_status'
p2096
sS'Key'
p2097
S'MUL'
p2098
sS'Null'
p2099
S'YES'
p2100
sS'Type'
p2101
S'smallint(6)'
p2102
sa(dp2103
g2093
S''
sg2094
S''
sg2095
S'new_status'
p2104
sg2097
S''
sg2099
S'NO'
p2105
sg2101
S'smallint(6)'
p2106
sa(dp2107
g2093
S''
sg2094
S'0'
sg2095
S'require_comment'
p2108
sg2097
S''
sg2099
S'NO'
p2109
sg2101
S'tinyint(4)'
p2110
sa(lp2111
(dp2112
S'Comment'
p2113
S''
sS'Non_unique'
p2114
L0L
sS'Sub_part'
p2115
NsS'Index_type'
p2116
S'BTREE'
p2117
sS'Key_name'
p2118
S'status_workflow_idx'
p2119
sS'Collation'
p2120
S'A'
sS'Null'
p2121
S'YES'
p2122
sS'Seq_in_index'
p2123
L1L
sS'Table'
p2124
S'status_workflow'
p2125
sS'Cardinality'
p2126
L24L
sS'Packed'
p2127
NsS'Column_name'
p2128
S'old_status'
p2129
sa(dp2130
g2113
S''
sg2114
L0L
sg2115
Nsg2116
S'BTREE'
p2131
sg2118
S'status_workflow_idx'
p2132
sg2120
S'A'
sg2121
S''
sg2123
L2L
sg2124
S'status_workflow'
p2133
sg2126
L24L
sg2127
Nsg2128
S'new_status'
p2134
satp2135
sS'milestones'
p2136
((lp2137
(dp2138
S'Extra'
p2139
S'auto_increment'
p2140
sS'Default'
p2141
NsS'Field'
p2142
S'id'
p2143
sS'Key'
p2144
S'PRI'
p2145
sS'Null'
p2146
S'NO'
p2147
sS'Type'
p2148
S'mediumint(9)'
p2149
sa(dp2150
g2139
S''
sg2141
S''
sg2142
S'product_id'
p2151
sg2144
S'MUL'
p2152
sg2146
S'NO'
p2153
sg2148
S'smallint(6)'
p2154
sa(dp2155
g2139
S''
sg2141
S''
sg2142
S'value'
p2156
sg2144
S''
sg2146
S'NO'
p2157
sg2148
S'varchar(20)'
p2158
sa(dp2159
g2139
S''
sg2141
S'0'
sg2142
S'sortkey'
p2160
sg2144
S''
sg2146
S'NO'
p2161
sg2148
S'smallint(6)'
p2162
sa(lp2163
(dp2164
S'Comment'
p2165
S''
sS'Non_unique'
p2166
L0L
sS'Sub_part'
p2167
NsS'Index_type'
p2168
S'BTREE'
p2169
sS'Key_name'
p2170
S'PRIMARY'
p2171
sS'Collation'
p2172
S'A'
sS'Null'
p2173
S''
sS'Seq_in_index'
p2174
L1L
sS'Table'
p2175
S'milestones'
p2176
sS'Cardinality'
p2177
L1L
sS'Packed'
p2178
NsS'Column_name'
p2179
S'id'
p2180
sa(dp2181
g2165
S''
sg2166
L0L
sg2167
Nsg2168
S'BTREE'
p2182
sg2170
S'milestones_product_id_idx'
p2183
sg2172
S'A'
sg2173
S''
sg2174
L1L
sg2175
S'milestones'
p2184
sg2177
L1L
sg2178
Nsg2179
S'product_id'
p2185
sa(dp2186
g2165
S''
sg2166
L0L
sg2167
Nsg2168
S'BTREE'
p2187
sg2170
S'milestones_product_id_idx'
p2188
sg2172
S'A'
sg2173
S''
sg2174
L2L
sg2175
S'milestones'
p2189
sg2177
L1L
sg2178
Nsg2179
S'value'
p2190
satp2191
sS'classifications'
p2192
((lp2193
(dp2194
S'Extra'
p2195
S'auto_increment'
p2196
sS'Default'
p2197
NsS'Field'
p2198
S'id'
p2199
sS'Key'
p2200
S'PRI'
p2201
sS'Null'
p2202
S'NO'
p2203
sS'Type'
p2204
S'smallint(6)'
p2205
sa(dp2206
g2195
S''
sg2197
S''
sg2198
S'name'
p2207
sg2200
S'UNI'
p2208
sg2202
S'NO'
p2209
sg2204
S'varchar(64)'
p2210
sa(dp2211
g2195
S''
sg2197
Nsg2198
S'description'
p2212
sg2200
S''
sg2202
S'YES'
p2213
sg2204
S'mediumtext'
p2214
sa(dp2215
g2195
S''
sg2197
S'0'
sg2198
S'sortkey'
p2216
sg2200
S''
sg2202
S'NO'
p2217
sg2204
S'smallint(6)'
p2218
sa(lp2219
(dp2220
S'Comment'
p2221
S''
sS'Non_unique'
p2222
L0L
sS'Sub_part'
p2223
NsS'Index_type'
p2224
S'BTREE'
p2225
sS'Key_name'
p2226
S'PRIMARY'
p2227
sS'Collation'
p2228
S'A'
sS'Null'
p2229
S''
sS'Seq_in_index'
p2230
L1L
sS'Table'
p2231
S'classifications'
p2232
sS'Cardinality'
p2233
L1L
sS'Packed'
p2234
NsS'Column_name'
p2235
S'id'
p2236
sa(dp2237
g2221
S''
sg2222
L0L
sg2223
Nsg2224
S'BTREE'
p2238
sg2226
S'classifications_name_idx'
p2239
sg2228
S'A'
sg2229
S''
sg2230
L1L
sg2231
S'classifications'
p2240
sg2233
L1L
sg2234
Nsg2235
S'name'
p2241
satp2242
sS'longdescs'
p2243
((lp2244
(dp2245
S'Extra'
p2246
S'auto_increment'
p2247
sS'Default'
p2248
NsS'Field'
p2249
S'comment_id'
p2250
sS'Key'
p2251
S'PRI'
p2252
sS'Null'
p2253
S'NO'
p2254
sS'Type'
p2255
S'mediumint(9)'
p2256
sa(dp2257
g2246
S''
sg2248
S''
sg2249
S'bug_id'
p2258
sg2251
S'MUL'
p2259
sg2253
S'NO'
p2260
sg2255
S'mediumint(9)'
p2261
sa(dp2262
g2246
S''
sg2248
S''
sg2249
S'who'
p2263
sg2251
S'MUL'
p2264
sg2253
S'NO'
p2265
sg2255
S'mediumint(9)'
p2266
sa(dp2267
g2246
S''
sg2248
S''
sg2249
S'bug_when'
p2268
sg2251
S'MUL'
p2269
sg2253
S'NO'
p2270
sg2255
S'datetime'
p2271
sa(dp2272
g2246
S''
sg2248
S'0.00'
p2273
sg2249
S'work_time'
p2274
sg2251
S''
sg2253
S'NO'
p2275
sg2255
S'decimal(5,2)'
p2276
sa(dp2277
g2246
S''
sg2248
S''
sg2249
S'thetext'
p2278
sg2251
S'MUL'
p2279
sg2253
S'NO'
p2280
sg2255
S'mediumtext'
p2281
sa(dp2282
g2246
S''
sg2248
S'0'
sg2249
S'isprivate'
p2283
sg2251
S''
sg2253
S'NO'
p2284
sg2255
S'tinyint(4)'
p2285
sa(dp2286
g2246
S''
sg2248
S'0'
sg2249
S'already_wrapped'
p2287
sg2251
S''
sg2253
S'NO'
p2288
sg2255
S'tinyint(4)'
p2289
sa(dp2290
g2246
S''
sg2248
S'0'
sg2249
S'type'
p2291
sg2251
S''
sg2253
S'NO'
p2292
sg2255
S'smallint(6)'
p2293
sa(dp2294
g2246
S''
sg2248
Nsg2249
S'extra_data'
p2295
sg2251
S''
sg2253
S'YES'
p2296
sg2255
S'varchar(255)'
p2297
sa(lp2298
(dp2299
S'Comment'
p2300
S''
sS'Non_unique'
p2301
L0L
sS'Sub_part'
p2302
NsS'Index_type'
p2303
S'BTREE'
p2304
sS'Key_name'
p2305
S'PRIMARY'
p2306
sS'Collation'
p2307
S'A'
sS'Null'
p2308
S''
sS'Seq_in_index'
p2309
L1L
sS'Table'
p2310
S'longdescs'
p2311
sS'Cardinality'
p2312
L0L
sS'Packed'
p2313
NsS'Column_name'
p2314
S'comment_id'
p2315
sa(dp2316
g2300
S''
sg2301
L1L
sg2302
Nsg2303
S'BTREE'
p2317
sg2305
S'longdescs_bug_id_idx'
p2318
sg2307
S'A'
sg2308
S''
sg2309
L1L
sg2310
S'longdescs'
p2319
sg2312
Nsg2313
Nsg2314
S'bug_id'
p2320
sa(dp2321
g2300
S''
sg2301
L1L
sg2302
Nsg2303
S'BTREE'
p2322
sg2305
S'longdescs_who_idx'
p2323
sg2307
S'A'
sg2308
S''
sg2309
L1L
sg2310
S'longdescs'
p2324
sg2312
Nsg2313
Nsg2314
S'who'
p2325
sa(dp2326
g2300
S''
sg2301
L1L
sg2302
Nsg2303
S'BTREE'
p2327
sg2305
S'longdescs_who_idx'
p2328
sg2307
S'A'
sg2308
S''
sg2309
L2L
sg2310
S'longdescs'
p2329
sg2312
Nsg2313
Nsg2314
S'bug_id'
p2330
sa(dp2331
g2300
S''
sg2301
L1L
sg2302
Nsg2303
S'BTREE'
p2332
sg2305
S'longdescs_bug_when_idx'
p2333
sg2307
S'A'
sg2308
S''
sg2309
L1L
sg2310
S'longdescs'
p2334
sg2312
Nsg2313
Nsg2314
S'bug_when'
p2335
sa(dp2336
g2300
S''
sg2301
L1L
sg2302
Nsg2303
S'FULLTEXT'
p2337
sg2305
S'longdescs_thetext_idx'
p2338
sg2307
Nsg2308
S''
sg2309
L1L
sg2310
S'longdescs'
p2339
sg2312
Nsg2313
Nsg2314
S'thetext'
p2340
satp2341
sS'versions'
p2342
((lp2343
(dp2344
S'Extra'
p2345
S'auto_increment'
p2346
sS'Default'
p2347
NsS'Field'
p2348
S'id'
p2349
sS'Key'
p2350
S'PRI'
p2351
sS'Null'
p2352
S'NO'
p2353
sS'Type'
p2354
S'mediumint(9)'
p2355
sa(dp2356
g2345
S''
sg2347
S''
sg2348
S'value'
p2357
sg2350
S''
sg2352
S'NO'
p2358
sg2354
S'varchar(64)'
p2359
sa(dp2360
g2345
S''
sg2347
S''
sg2348
S'product_id'
p2361
sg2350
S'MUL'
p2362
sg2352
S'NO'
p2363
sg2354
S'smallint(6)'
p2364
sa(lp2365
(dp2366
S'Comment'
p2367
S''
sS'Non_unique'
p2368
L0L
sS'Sub_part'
p2369
NsS'Index_type'
p2370
S'BTREE'
p2371
sS'Key_name'
p2372
S'PRIMARY'
p2373
sS'Collation'
p2374
S'A'
sS'Null'
p2375
S''
sS'Seq_in_index'
p2376
L1L
sS'Table'
p2377
S'versions'
p2378
sS'Cardinality'
p2379
L1L
sS'Packed'
p2380
NsS'Column_name'
p2381
S'id'
p2382
sa(dp2383
g2367
S''
sg2368
L0L
sg2369
Nsg2370
S'BTREE'
p2384
sg2372
S'versions_product_id_idx'
p2385
sg2374
S'A'
sg2375
S''
sg2376
L1L
sg2377
S'versions'
p2386
sg2379
L1L
sg2380
Nsg2381
S'product_id'
p2387
sa(dp2388
g2367
S''
sg2368
L0L
sg2369
Nsg2370
S'BTREE'
p2389
sg2372
S'versions_product_id_idx'
p2390
sg2374
S'A'
sg2375
S''
sg2376
L2L
sg2377
S'versions'
p2391
sg2379
L1L
sg2380
Nsg2381
S'value'
p2392
satp2393
sS'flagtypes'
p2394
((lp2395
(dp2396
S'Extra'
p2397
S'auto_increment'
p2398
sS'Default'
p2399
NsS'Field'
p2400
S'id'
p2401
sS'Key'
p2402
S'PRI'
p2403
sS'Null'
p2404
S'NO'
p2405
sS'Type'
p2406
S'smallint(6)'
p2407
sa(dp2408
g2397
S''
sg2399
S''
sg2400
S'name'
p2409
sg2402
S''
sg2404
S'NO'
p2410
sg2406
S'varchar(50)'
p2411
sa(dp2412
g2397
S''
sg2399
Nsg2400
S'description'
p2413
sg2402
S''
sg2404
S'YES'
p2414
sg2406
S'text'
p2415
sa(dp2416
g2397
S''
sg2399
Nsg2400
S'cc_list'
p2417
sg2402
S''
sg2404
S'YES'
p2418
sg2406
S'varchar(200)'
p2419
sa(dp2420
g2397
S''
sg2399
S'b'
sg2400
S'target_type'
p2421
sg2402
S''
sg2404
S'NO'
p2422
sg2406
S'char(1)'
p2423
sa(dp2424
g2397
S''
sg2399
S'1'
sg2400
S'is_active'
p2425
sg2402
S''
sg2404
S'NO'
p2426
sg2406
S'tinyint(4)'
p2427
sa(dp2428
g2397
S''
sg2399
S'0'
sg2400
S'is_requestable'
p2429
sg2402
S''
sg2404
S'NO'
p2430
sg2406
S'tinyint(4)'
p2431
sa(dp2432
g2397
S''
sg2399
S'0'
sg2400
S'is_requesteeble'
p2433
sg2402
S''
sg2404
S'NO'
p2434
sg2406
S'tinyint(4)'
p2435
sa(dp2436
g2397
S''
sg2399
S'0'
sg2400
S'is_multiplicable'
p2437
sg2402
S''
sg2404
S'NO'
p2438
sg2406
S'tinyint(4)'
p2439
sa(dp2440
g2397
S''
sg2399
S'0'
sg2400
S'sortkey'
p2441
sg2402
S''
sg2404
S'NO'
p2442
sg2406
S'smallint(6)'
p2443
sa(dp2444
g2397
S''
sg2399
Nsg2400
S'grant_group_id'
p2445
sg2402
S''
sg2404
S'YES'
p2446
sg2406
S'mediumint(9)'
p2447
sa(dp2448
g2397
S''
sg2399
Nsg2400
S'request_group_id'
p2449
sg2402
S''
sg2404
S'YES'
p2450
sg2406
S'mediumint(9)'
p2451
sa(lp2452
(dp2453
S'Comment'
p2454
S''
sS'Non_unique'
p2455
L0L
sS'Sub_part'
p2456
NsS'Index_type'
p2457
S'BTREE'
p2458
sS'Key_name'
p2459
S'PRIMARY'
p2460
sS'Collation'
p2461
S'A'
sS'Null'
p2462
S''
sS'Seq_in_index'
p2463
L1L
sS'Table'
p2464
S'flagtypes'
p2465
sS'Cardinality'
p2466
L0L
sS'Packed'
p2467
NsS'Column_name'
p2468
S'id'
p2469
satp2470
sS'user_group_map'
p2471
((lp2472
(dp2473
S'Extra'
p2474
S''
sS'Default'
p2475
S''
sS'Field'
p2476
S'user_id'
p2477
sS'Key'
p2478
S'PRI'
p2479
sS'Null'
p2480
S'NO'
p2481
sS'Type'
p2482
S'mediumint(9)'
p2483
sa(dp2484
g2474
S''
sg2475
S''
sg2476
S'group_id'
p2485
sg2478
S'PRI'
p2486
sg2480
S'NO'
p2487
sg2482
S'mediumint(9)'
p2488
sa(dp2489
g2474
S''
sg2475
S'0'
sg2476
S'isbless'
p2490
sg2478
S'PRI'
p2491
sg2480
S'NO'
p2492
sg2482
S'tinyint(4)'
p2493
sa(dp2494
g2474
S''
sg2475
S'0'
sg2476
S'grant_type'
p2495
sg2478
S'PRI'
p2496
sg2480
S'NO'
p2497
sg2482
S'tinyint(4)'
p2498
sa(lp2499
(dp2500
S'Comment'
p2501
S''
sS'Non_unique'
p2502
L0L
sS'Sub_part'
p2503
NsS'Index_type'
p2504
S'BTREE'
p2505
sS'Key_name'
p2506
S'user_group_map_user_id_idx'
p2507
sS'Collation'
p2508
S'A'
sS'Null'
p2509
S''
sS'Seq_in_index'
p2510
L1L
sS'Table'
p2511
S'user_group_map'
p2512
sS'Cardinality'
p2513
L4L
sS'Packed'
p2514
NsS'Column_name'
p2515
S'user_id'
p2516
sa(dp2517
g2501
S''
sg2502
L0L
sg2503
Nsg2504
S'BTREE'
p2518
sg2506
S'user_group_map_user_id_idx'
p2519
sg2508
S'A'
sg2509
S''
sg2510
L2L
sg2511
S'user_group_map'
p2520
sg2513
L4L
sg2514
Nsg2515
S'group_id'
p2521
sa(dp2522
g2501
S''
sg2502
L0L
sg2503
Nsg2504
S'BTREE'
p2523
sg2506
S'user_group_map_user_id_idx'
p2524
sg2508
S'A'
sg2509
S''
sg2510
L3L
sg2511
S'user_group_map'
p2525
sg2513
L4L
sg2514
Nsg2515
S'grant_type'
p2526
sa(dp2527
g2501
S''
sg2502
L0L
sg2503
Nsg2504
S'BTREE'
p2528
sg2506
S'user_group_map_user_id_idx'
p2529
sg2508
S'A'
sg2509
S''
sg2510
L4L
sg2511
S'user_group_map'
p2530
sg2513
L4L
sg2514
Nsg2515
S'isbless'
p2531
satp2532
sS'bugs'
p2533
((lp2534
(dp2535
S'Extra'
p2536
S'auto_increment'
p2537
sS'Default'
p2538
NsS'Field'
p2539
S'bug_id'
p2540
sS'Key'
p2541
S'PRI'
p2542
sS'Null'
p2543
S'NO'
p2544
sS'Type'
p2545
S'mediumint(9)'
p2546
sa(dp2547
g2536
S''
sg2538
S''
sg2539
S'assigned_to'
p2548
sg2541
S'MUL'
p2549
sg2543
S'NO'
p2550
sg2545
S'mediumint(9)'
p2551
sa(dp2552
g2536
S''
sg2538
Nsg2539
S'bug_file_loc'
p2553
sg2541
S''
sg2543
S'YES'
p2554
sg2545
S'text'
p2555
sa(dp2556
g2536
S''
sg2538
S''
sg2539
S'bug_severity'
p2557
sg2541
S'MUL'
p2558
sg2543
S'NO'
p2559
sg2545
S'varchar(64)'
p2560
sa(dp2561
g2536
S''
sg2538
S''
sg2539
S'bug_status'
p2562
sg2541
S'MUL'
p2563
sg2543
S'NO'
p2564
sg2545
S'varchar(64)'
p2565
sa(dp2566
g2536
S''
sg2538
Nsg2539
S'creation_ts'
p2567
sg2541
S'MUL'
p2568
sg2543
S'YES'
p2569
sg2545
S'datetime'
p2570
sa(dp2571
g2536
S''
sg2538
S''
sg2539
S'delta_ts'
p2572
sg2541
S'MUL'
p2573
sg2543
S'NO'
p2574
sg2545
S'datetime'
p2575
sa(dp2576
g2536
S''
sg2538
S''
sg2539
S'short_desc'
p2577
sg2541
S''
sg2543
S'NO'
p2578
sg2545
S'varchar(255)'
p2579
sa(dp2580
g2536
S''
sg2538
S''
sg2539
S'op_sys'
p2581
sg2541
S'MUL'
p2582
sg2543
S'NO'
p2583
sg2545
S'varchar(64)'
p2584
sa(dp2585
g2536
S''
sg2538
S''
sg2539
S'priority'
p2586
sg2541
S'MUL'
p2587
sg2543
S'NO'
p2588
sg2545
S'varchar(64)'
p2589
sa(dp2590
g2536
S''
sg2538
S''
sg2539
S'product_id'
p2591
sg2541
S'MUL'
p2592
sg2543
S'NO'
p2593
sg2545
S'smallint(6)'
p2594
sa(dp2595
g2536
S''
sg2538
S''
sg2539
S'rep_platform'
p2596
sg2541
S''
sg2543
S'NO'
p2597
sg2545
S'varchar(64)'
p2598
sa(dp2599
g2536
S''
sg2538
S''
sg2539
S'reporter'
p2600
sg2541
S'MUL'
p2601
sg2543
S'NO'
p2602
sg2545
S'mediumint(9)'
p2603
sa(dp2604
g2536
S''
sg2538
S''
sg2539
S'version'
p2605
sg2541
S'MUL'
p2606
sg2543
S'NO'
p2607
sg2545
S'varchar(64)'
p2608
sa(dp2609
g2536
S''
sg2538
S''
sg2539
S'component_id'
p2610
sg2541
S'MUL'
p2611
sg2543
S'NO'
p2612
sg2545
S'smallint(6)'
p2613
sa(dp2614
g2536
S''
sg2538
S''
sg2539
S'resolution'
p2615
sg2541
S'MUL'
p2616
sg2543
S'NO'
p2617
sg2545
S'varchar(64)'
p2618
sa(dp2619
g2536
S''
sg2538
S'---'
p2620
sg2539
S'target_milestone'
p2621
sg2541
S'MUL'
p2622
sg2543
S'NO'
p2623
sg2545
S'varchar(20)'
p2624
sa(dp2625
g2536
S''
sg2538
Nsg2539
S'qa_contact'
p2626
sg2541
S'MUL'
p2627
sg2543
S'YES'
p2628
sg2545
S'mediumint(9)'
p2629
sa(dp2630
g2536
S''
sg2538
S''
sg2539
S'status_whiteboard'
p2631
sg2541
S''
sg2543
S'NO'
p2632
sg2545
S'mediumtext'
p2633
sa(dp2634
g2536
S''
sg2538
S'0'
sg2539
S'votes'
p2635
sg2541
S'MUL'
p2636
sg2543
S'NO'
p2637
sg2545
S'mediumint(9)'
p2638
sa(dp2639
g2536
S''
sg2538
S''
sg2539
S'keywords'
p2640
sg2541
S''
sg2543
S'NO'
p2641
sg2545
S'mediumtext'
p2642
sa(dp2643
g2536
S''
sg2538
Nsg2539
S'lastdiffed'
p2644
sg2541
S''
sg2543
S'YES'
p2645
sg2545
S'datetime'
p2646
sa(dp2647
g2536
S''
sg2538
S''
sg2539
S'everconfirmed'
p2648
sg2541
S''
sg2543
S'NO'
p2649
sg2545
S'tinyint(4)'
p2650
sa(dp2651
g2536
S''
sg2538
S'1'
sg2539
S'reporter_accessible'
p2652
sg2541
S''
sg2543
S'NO'
p2653
sg2545
S'tinyint(4)'
p2654
sa(dp2655
g2536
S''
sg2538
S'1'
sg2539
S'cclist_accessible'
p2656
sg2541
S''
sg2543
S'NO'
p2657
sg2545
S'tinyint(4)'
p2658
sa(dp2659
g2536
S''
sg2538
S'0.00'
p2660
sg2539
S'estimated_time'
p2661
sg2541
S''
sg2543
S'NO'
p2662
sg2545
S'decimal(5,2)'
p2663
sa(dp2664
g2536
S''
sg2538
S'0.00'
p2665
sg2539
S'remaining_time'
p2666
sg2541
S''
sg2543
S'NO'
p2667
sg2545
S'decimal(5,2)'
p2668
sa(dp2669
g2536
S''
sg2538
Nsg2539
S'deadline'
p2670
sg2541
S''
sg2543
S'YES'
p2671
sg2545
S'datetime'
p2672
sa(dp2673
g2536
S''
sg2538
Nsg2539
S'alias'
p2674
sg2541
S'UNI'
p2675
sg2543
S'YES'
p2676
sg2545
S'varchar(20)'
p2677
sa(lp2678
(dp2679
S'Comment'
p2680
S''
sS'Non_unique'
p2681
L0L
sS'Sub_part'
p2682
NsS'Index_type'
p2683
S'BTREE'
p2684
sS'Key_name'
p2685
S'PRIMARY'
p2686
sS'Collation'
p2687
S'A'
sS'Null'
p2688
S''
sS'Seq_in_index'
p2689
L1L
sS'Table'
p2690
S'bugs'
p2691
sS'Cardinality'
p2692
L0L
sS'Packed'
p2693
NsS'Column_name'
p2694
S'bug_id'
p2695
sa(dp2696
g2680
S''
sg2681
L0L
sg2682
Nsg2683
S'BTREE'
p2697
sg2685
S'bugs_alias_idx'
p2698
sg2687
S'A'
sg2688
S'YES'
p2699
sg2689
L1L
sg2690
S'bugs'
p2700
sg2692
L0L
sg2693
Nsg2694
S'alias'
p2701
sa(dp2702
g2680
S''
sg2681
L1L
sg2682
Nsg2683
S'BTREE'
p2703
sg2685
S'bugs_assigned_to_idx'
p2704
sg2687
S'A'
sg2688
S''
sg2689
L1L
sg2690
S'bugs'
p2705
sg2692
L0L
sg2693
Nsg2694
S'assigned_to'
p2706
sa(dp2707
g2680
S''
sg2681
L1L
sg2682
Nsg2683
S'BTREE'
p2708
sg2685
S'bugs_creation_ts_idx'
p2709
sg2687
S'A'
sg2688
S'YES'
p2710
sg2689
L1L
sg2690
S'bugs'
p2711
sg2692
L0L
sg2693
Nsg2694
S'creation_ts'
p2712
sa(dp2713
g2680
S''
sg2681
L1L
sg2682
Nsg2683
S'BTREE'
p2714
sg2685
S'bugs_delta_ts_idx'
p2715
sg2687
S'A'
sg2688
S''
sg2689
L1L
sg2690
S'bugs'
p2716
sg2692
L0L
sg2693
Nsg2694
S'delta_ts'
p2717
sa(dp2718
g2680
S''
sg2681
L1L
sg2682
Nsg2683
S'BTREE'
p2719
sg2685
S'bugs_bug_severity_idx'
p2720
sg2687
S'A'
sg2688
S''
sg2689
L1L
sg2690
S'bugs'
p2721
sg2692
L0L
sg2693
Nsg2694
S'bug_severity'
p2722
sa(dp2723
g2680
S''
sg2681
L1L
sg2682
Nsg2683
S'BTREE'
p2724
sg2685
S'bugs_bug_status_idx'
p2725
sg2687
S'A'
sg2688
S''
sg2689
L1L
sg2690
S'bugs'
p2726
sg2692
L0L
sg2693
Nsg2694
S'bug_status'
p2727
sa(dp2728
g2680
S''
sg2681
L1L
sg2682
Nsg2683
S'BTREE'
p2729
sg2685
S'bugs_op_sys_idx'
p2730
sg2687
S'A'
sg2688
S''
sg2689
L1L
sg2690
S'bugs'
p2731
sg2692
L0L
sg2693
Nsg2694
S'op_sys'
p2732
sa(dp2733
g2680
S''
sg2681
L1L
sg2682
Nsg2683
S'BTREE'
p2734
sg2685
S'bugs_priority_idx'
p2735
sg2687
S'A'
sg2688
S''
sg2689
L1L
sg2690
S'bugs'
p2736
sg2692
L0L
sg2693
Nsg2694
S'priority'
p2737
sa(dp2738
g2680
S''
sg2681
L1L
sg2682
Nsg2683
S'BTREE'
p2739
sg2685
S'bugs_product_id_idx'
p2740
sg2687
S'A'
sg2688
S''
sg2689
L1L
sg2690
S'bugs'
p2741
sg2692
L0L
sg2693
Nsg2694
S'product_id'
p2742
sa(dp2743
g2680
S''
sg2681
L1L
sg2682
Nsg2683
S'BTREE'
p2744
sg2685
S'bugs_reporter_idx'
p2745
sg2687
S'A'
sg2688
S''
sg2689
L1L
sg2690
S'bugs'
p2746
sg2692
L0L
sg2693
Nsg2694
S'reporter'
p2747
sa(dp2748
g2680
S''
sg2681
L1L
sg2682
Nsg2683
S'BTREE'
p2749
sg2685
S'bugs_version_idx'
p2750
sg2687
S'A'
sg2688
S''
sg2689
L1L
sg2690
S'bugs'
p2751
sg2692
L0L
sg2693
Nsg2694
S'version'
p2752
sa(dp2753
g2680
S''
sg2681
L1L
sg2682
Nsg2683
S'BTREE'
p2754
sg2685
S'bugs_component_id_idx'
p2755
sg2687
S'A'
sg2688
S''
sg2689
L1L
sg2690
S'bugs'
p2756
sg2692
L0L
sg2693
Nsg2694
S'component_id'
p2757
sa(dp2758
g2680
S''
sg2681
L1L
sg2682
Nsg2683
S'BTREE'
p2759
sg2685
S'bugs_resolution_idx'
p2760
sg2687
S'A'
sg2688
S''
sg2689
L1L
sg2690
S'bugs'
p2761
sg2692
L0L
sg2693
Nsg2694
S'resolution'
p2762
sa(dp2763
g2680
S''
sg2681
L1L
sg2682
Nsg2683
S'BTREE'
p2764
sg2685
S'bugs_target_milestone_idx'
p2765
sg2687
S'A'
sg2688
S''
sg2689
L1L
sg2690
S'bugs'
p2766
sg2692
L0L
sg2693
Nsg2694
S'target_milestone'
p2767
sa(dp2768
g2680
S''
sg2681
L1L
sg2682
Nsg2683
S'BTREE'
p2769
sg2685
S'bugs_qa_contact_idx'
p2770
sg2687
S'A'
sg2688
S'YES'
p2771
sg2689
L1L
sg2690
S'bugs'
p2772
sg2692
L0L
sg2693
Nsg2694
S'qa_contact'
p2773
sa(dp2774
g2680
S''
sg2681
L1L
sg2682
Nsg2683
S'BTREE'
p2775
sg2685
S'bugs_votes_idx'
p2776
sg2687
S'A'
sg2688
S''
sg2689
L1L
sg2690
S'bugs'
p2777
sg2692
L0L
sg2693
Nsg2694
S'votes'
p2778
satp2779
sS'profiles'
p2780
((lp2781
(dp2782
S'Extra'
p2783
S'auto_increment'
p2784
sS'Default'
p2785
NsS'Field'
p2786
S'userid'
p2787
sS'Key'
p2788
S'PRI'
p2789
sS'Null'
p2790
S'NO'
p2791
sS'Type'
p2792
S'mediumint(9)'
p2793
sa(dp2794
g2783
S''
sg2785
S''
sg2786
S'login_name'
p2795
sg2788
S'UNI'
p2796
sg2790
S'NO'
p2797
sg2792
S'varchar(255)'
p2798
sa(dp2799
g2783
S''
sg2785
Nsg2786
S'cryptpassword'
p2800
sg2788
S''
sg2790
S'YES'
p2801
sg2792
S'varchar(128)'
p2802
sa(dp2803
g2783
S''
sg2785
S''
sg2786
S'realname'
p2804
sg2788
S''
sg2790
S'NO'
p2805
sg2792
S'varchar(255)'
p2806
sa(dp2807
g2783
S''
sg2785
S''
sg2786
S'disabledtext'
p2808
sg2788
S''
sg2790
S'NO'
p2809
sg2792
S'mediumtext'
p2810
sa(dp2811
g2783
S''
sg2785
S'0'
sg2786
S'disable_mail'
p2812
sg2788
S''
sg2790
S'NO'
p2813
sg2792
S'tinyint(4)'
p2814
sa(dp2815
g2783
S''
sg2785
S'1'
sg2786
S'mybugslink'
p2816
sg2788
S''
sg2790
S'NO'
p2817
sg2792
S'tinyint(4)'
p2818
sa(dp2819
g2783
S''
sg2785
Nsg2786
S'extern_id'
p2820
sg2788
S''
sg2790
S'YES'
p2821
sg2792
S'varchar(64)'
p2822
sa(lp2823
(dp2824
S'Comment'
p2825
S''
sS'Non_unique'
p2826
L0L
sS'Sub_part'
p2827
NsS'Index_type'
p2828
S'BTREE'
p2829
sS'Key_name'
p2830
S'PRIMARY'
p2831
sS'Collation'
p2832
S'A'
sS'Null'
p2833
S''
sS'Seq_in_index'
p2834
L1L
sS'Table'
p2835
S'profiles'
p2836
sS'Cardinality'
p2837
L1L
sS'Packed'
p2838
NsS'Column_name'
p2839
S'userid'
p2840
sa(dp2841
g2825
S''
sg2826
L0L
sg2827
Nsg2828
S'BTREE'
p2842
sg2830
S'profiles_login_name_idx'
p2843
sg2832
S'A'
sg2833
S''
sg2834
L1L
sg2835
S'profiles'
p2844
sg2837
L1L
sg2838
Nsg2839
S'login_name'
p2845
satp2846
sS'flags'
p2847
((lp2848
(dp2849
S'Extra'
p2850
S'auto_increment'
p2851
sS'Default'
p2852
NsS'Field'
p2853
S'id'
p2854
sS'Key'
p2855
S'PRI'
p2856
sS'Null'
p2857
S'NO'
p2858
sS'Type'
p2859
S'mediumint(9)'
p2860
sa(dp2861
g2850
S''
sg2852
S''
sg2853
S'type_id'
p2862
sg2855
S'MUL'
p2863
sg2857
S'NO'
p2864
sg2859
S'smallint(6)'
p2865
sa(dp2866
g2850
S''
sg2852
S''
sg2853
S'status'
p2867
sg2855
S''
sg2857
S'NO'
p2868
sg2859
S'char(1)'
p2869
sa(dp2870
g2850
S''
sg2852
S''
sg2853
S'bug_id'
p2871
sg2855
S'MUL'
p2872
sg2857
S'NO'
p2873
sg2859
S'mediumint(9)'
p2874
sa(dp2875
g2850
S''
sg2852
Nsg2853
S'attach_id'
p2876
sg2855
S''
sg2857
S'YES'
p2877
sg2859
S'mediumint(9)'
p2878
sa(dp2879
g2850
S''
sg2852
S''
sg2853
S'creation_date'
p2880
sg2855
S''
sg2857
S'NO'
p2881
sg2859
S'datetime'
p2882
sa(dp2883
g2850
S''
sg2852
Nsg2853
S'modification_date'
p2884
sg2855
S''
sg2857
S'YES'
p2885
sg2859
S'datetime'
p2886
sa(dp2887
g2850
S''
sg2852
Nsg2853
S'setter_id'
p2888
sg2855
S'MUL'
p2889
sg2857
S'YES'
p2890
sg2859
S'mediumint(9)'
p2891
sa(dp2892
g2850
S''
sg2852
Nsg2853
S'requestee_id'
p2893
sg2855
S'MUL'
p2894
sg2857
S'YES'
p2895
sg2859
S'mediumint(9)'
p2896
sa(lp2897
(dp2898
S'Comment'
p2899
S''
sS'Non_unique'
p2900
L0L
sS'Sub_part'
p2901
NsS'Index_type'
p2902
S'BTREE'
p2903
sS'Key_name'
p2904
S'PRIMARY'
p2905
sS'Collation'
p2906
S'A'
sS'Null'
p2907
S''
sS'Seq_in_index'
p2908
L1L
sS'Table'
p2909
S'flags'
p2910
sS'Cardinality'
p2911
L0L
sS'Packed'
p2912
NsS'Column_name'
p2913
S'id'
p2914
sa(dp2915
g2899
S''
sg2900
L1L
sg2901
Nsg2902
S'BTREE'
p2916
sg2904
S'flags_bug_id_idx'
p2917
sg2906
S'A'
sg2907
S''
sg2908
L1L
sg2909
S'flags'
p2918
sg2911
L0L
sg2912
Nsg2913
S'bug_id'
p2919
sa(dp2920
g2899
S''
sg2900
L1L
sg2901
Nsg2902
S'BTREE'
p2921
sg2904
S'flags_bug_id_idx'
p2922
sg2906
S'A'
sg2907
S'YES'
p2923
sg2908
L2L
sg2909
S'flags'
p2924
sg2911
L0L
sg2912
Nsg2913
S'attach_id'
p2925
sa(dp2926
g2899
S''
sg2900
L1L
sg2901
Nsg2902
S'BTREE'
p2927
sg2904
S'flags_setter_id_idx'
p2928
sg2906
S'A'
sg2907
S'YES'
p2929
sg2908
L1L
sg2909
S'flags'
p2930
sg2911
L0L
sg2912
Nsg2913
S'setter_id'
p2931
sa(dp2932
g2899
S''
sg2900
L1L
sg2901
Nsg2902
S'BTREE'
p2933
sg2904
S'flags_requestee_id_idx'
p2934
sg2906
S'A'
sg2907
S'YES'
p2935
sg2908
L1L
sg2909
S'flags'
p2936
sg2911
L0L
sg2912
Nsg2913
S'requestee_id'
p2937
sa(dp2938
g2899
S''
sg2900
L1L
sg2901
Nsg2902
S'BTREE'
p2939
sg2904
S'flags_type_id_idx'
p2940
sg2906
S'A'
sg2907
S''
sg2908
L1L
sg2909
S'flags'
p2941
sg2911
L0L
sg2912
Nsg2913
S'type_id'
p2942
satp2943
sS'components'
p2944
((lp2945
(dp2946
S'Extra'
p2947
S'auto_increment'
p2948
sS'Default'
p2949
NsS'Field'
p2950
S'id'
p2951
sS'Key'
p2952
S'PRI'
p2953
sS'Null'
p2954
S'NO'
p2955
sS'Type'
p2956
S'smallint(6)'
p2957
sa(dp2958
g2947
S''
sg2949
S''
sg2950
S'name'
p2959
sg2952
S'MUL'
p2960
sg2954
S'NO'
p2961
sg2956
S'varchar(64)'
p2962
sa(dp2963
g2947
S''
sg2949
S''
sg2950
S'product_id'
p2964
sg2952
S'MUL'
p2965
sg2954
S'NO'
p2966
sg2956
S'smallint(6)'
p2967
sa(dp2968
g2947
S''
sg2949
S''
sg2950
S'initialowner'
p2969
sg2952
S'MUL'
p2970
sg2954
S'NO'
p2971
sg2956
S'mediumint(9)'
p2972
sa(dp2973
g2947
S''
sg2949
Nsg2950
S'initialqacontact'
p2974
sg2952
S'MUL'
p2975
sg2954
S'YES'
p2976
sg2956
S'mediumint(9)'
p2977
sa(dp2978
g2947
S''
sg2949
S''
sg2950
S'description'
p2979
sg2952
S''
sg2954
S'NO'
p2980
sg2956
S'mediumtext'
p2981
sa(lp2982
(dp2983
S'Comment'
p2984
S''
sS'Non_unique'
p2985
L0L
sS'Sub_part'
p2986
NsS'Index_type'
p2987
S'BTREE'
p2988
sS'Key_name'
p2989
S'PRIMARY'
p2990
sS'Collation'
p2991
S'A'
sS'Null'
p2992
S''
sS'Seq_in_index'
p2993
L1L
sS'Table'
p2994
S'components'
p2995
sS'Cardinality'
p2996
L1L
sS'Packed'
p2997
NsS'Column_name'
p2998
S'id'
p2999
sa(dp3000
g2984
S''
sg2985
L0L
sg2986
Nsg2987
S'BTREE'
p3001
sg2989
S'components_product_id_idx'
p3002
sg2991
S'A'
sg2992
S''
sg2993
L1L
sg2994
S'components'
p3003
sg2996
L1L
sg2997
Nsg2998
S'product_id'
p3004
sa(dp3005
g2984
S''
sg2985
L0L
sg2986
Nsg2987
S'BTREE'
p3006
sg2989
S'components_product_id_idx'
p3007
sg2991
S'A'
sg2992
S''
sg2993
L2L
sg2994
S'components'
p3008
sg2996
L1L
sg2997
Nsg2998
S'name'
p3009
sa(dp3010
g2984
S''
sg2985
L1L
sg2986
Nsg2987
S'BTREE'
p3011
sg2989
S'components_name_idx'
p3012
sg2991
S'A'
sg2992
S''
sg2993
L1L
sg2994
S'components'
p3013
sg2996
L1L
sg2997
Nsg2998
S'name'
p3014
sa(dp3015
g2984
S''
sg2985
L1L
sg2986
Nsg2987
S'BTREE'
p3016
sg2989
S'fk_components_initialowner_profiles_userid'
p3017
sg2991
S'A'
sg2992
S''
sg2993
L1L
sg2994
S'components'
p3018
sg2996
L1L
sg2997
Nsg2998
S'initialowner'
p3019
sa(dp3020
g2984
S''
sg2985
L1L
sg2986
Nsg2987
S'BTREE'
p3021
sg2989
S'fk_components_initialqacontact_profiles_userid'
p3022
sg2991
S'A'
sg2992
S'YES'
p3023
sg2993
L1L
sg2994
S'components'
p3024
sg2996
L1L
sg2997
Nsg2998
S'initialqacontact'
p3025
satp3026
sS'whine_queries'
p3027
((lp3028
(dp3029
S'Extra'
p3030
S'auto_increment'
p3031
sS'Default'
p3032
NsS'Field'
p3033
S'id'
p3034
sS'Key'
p3035
S'PRI'
p3036
sS'Null'
p3037
S'NO'
p3038
sS'Type'
p3039
S'mediumint(9)'
p3040
sa(dp3041
g3030
S''
sg3032
S''
sg3033
S'eventid'
p3042
sg3035
S'MUL'
p3043
sg3037
S'NO'
p3044
sg3039
S'mediumint(9)'
p3045
sa(dp3046
g3030
S''
sg3032
S''
sg3033
S'query_name'
p3047
sg3035
S''
sg3037
S'NO'
p3048
sg3039
S'varchar(64)'
p3049
sa(dp3050
g3030
S''
sg3032
S'0'
sg3033
S'sortkey'
p3051
sg3035
S''
sg3037
S'NO'
p3052
sg3039
S'smallint(6)'
p3053
sa(dp3054
g3030
S''
sg3032
S'0'
sg3033
S'onemailperbug'
p3055
sg3035
S''
sg3037
S'NO'
p3056
sg3039
S'tinyint(4)'
p3057
sa(dp3058
g3030
S''
sg3032
S''
sg3033
S'title'
p3059
sg3035
S''
sg3037
S'NO'
p3060
sg3039
S'varchar(128)'
p3061
sa(lp3062
(dp3063
S'Comment'
p3064
S''
sS'Non_unique'
p3065
L0L
sS'Sub_part'
p3066
NsS'Index_type'
p3067
S'BTREE'
p3068
sS'Key_name'
p3069
S'PRIMARY'
p3070
sS'Collation'
p3071
S'A'
sS'Null'
p3072
S''
sS'Seq_in_index'
p3073
L1L
sS'Table'
p3074
S'whine_queries'
p3075
sS'Cardinality'
p3076
L0L
sS'Packed'
p3077
NsS'Column_name'
p3078
S'id'
p3079
sa(dp3080
g3064
S''
sg3065
L1L
sg3066
Nsg3067
S'BTREE'
p3081
sg3069
S'whine_queries_eventid_idx'
p3082
sg3071
S'A'
sg3072
S''
sg3073
L1L
sg3074
S'whine_queries'
p3083
sg3076
L0L
sg3077
Nsg3078
S'eventid'
p3084
satp3085
sS'profile_setting'
p3086
((lp3087
(dp3088
S'Extra'
p3089
S''
sS'Default'
p3090
S''
sS'Field'
p3091
S'user_id'
p3092
sS'Key'
p3093
S'PRI'
p3094
sS'Null'
p3095
S'NO'
p3096
sS'Type'
p3097
S'mediumint(9)'
p3098
sa(dp3099
g3089
S''
sg3090
S''
sg3091
S'setting_name'
p3100
sg3093
S'PRI'
p3101
sg3095
S'NO'
p3102
sg3097
S'varchar(32)'
p3103
sa(dp3104
g3089
S''
sg3090
S''
sg3091
S'setting_value'
p3105
sg3093
S''
sg3095
S'NO'
p3106
sg3097
S'varchar(32)'
p3107
sa(lp3108
(dp3109
S'Comment'
p3110
S''
sS'Non_unique'
p3111
L0L
sS'Sub_part'
p3112
NsS'Index_type'
p3113
S'BTREE'
p3114
sS'Key_name'
p3115
S'profile_setting_value_unique_idx'
p3116
sS'Collation'
p3117
S'A'
sS'Null'
p3118
S''
sS'Seq_in_index'
p3119
L1L
sS'Table'
p3120
S'profile_setting'
p3121
sS'Cardinality'
p3122
L0L
sS'Packed'
p3123
NsS'Column_name'
p3124
S'user_id'
p3125
sa(dp3126
g3110
S''
sg3111
L0L
sg3112
Nsg3113
S'BTREE'
p3127
sg3115
S'profile_setting_value_unique_idx'
p3128
sg3117
S'A'
sg3118
S''
sg3119
L2L
sg3120
S'profile_setting'
p3129
sg3122
L0L
sg3123
Nsg3124
S'setting_name'
p3130
satp3131
sS'setting_value'
p3132
((lp3133
(dp3134
S'Extra'
p3135
S''
sS'Default'
p3136
S''
sS'Field'
p3137
S'name'
p3138
sS'Key'
p3139
S'PRI'
p3140
sS'Null'
p3141
S'NO'
p3142
sS'Type'
p3143
S'varchar(32)'
p3144
sa(dp3145
g3135
S''
sg3136
S''
sg3137
S'value'
p3146
sg3139
S'PRI'
p3147
sg3141
S'NO'
p3148
sg3143
S'varchar(32)'
p3149
sa(dp3150
g3135
S''
sg3136
S''
sg3137
S'sortindex'
p3151
sg3139
S''
sg3141
S'NO'
p3152
sg3143
S'smallint(6)'
p3153
sa(lp3154
(dp3155
S'Comment'
p3156
S''
sS'Non_unique'
p3157
L0L
sS'Sub_part'
p3158
NsS'Index_type'
p3159
S'BTREE'
p3160
sS'Key_name'
p3161
S'setting_value_nv_unique_idx'
p3162
sS'Collation'
p3163
S'A'
sS'Null'
p3164
S''
sS'Seq_in_index'
p3165
L1L
sS'Table'
p3166
S'setting_value'
p3167
sS'Cardinality'
p3168
L20L
sS'Packed'
p3169
NsS'Column_name'
p3170
S'name'
p3171
sa(dp3172
g3156
S''
sg3157
L0L
sg3158
Nsg3159
S'BTREE'
p3173
sg3161
S'setting_value_nv_unique_idx'
p3174
sg3163
S'A'
sg3164
S''
sg3165
L2L
sg3166
S'setting_value'
p3175
sg3168
L20L
sg3169
Nsg3170
S'value'
p3176
sa(dp3177
g3156
S''
sg3157
L0L
sg3158
Nsg3159
S'BTREE'
p3178
sg3161
S'setting_value_ns_unique_idx'
p3179
sg3163
S'A'
sg3164
S''
sg3165
L1L
sg3166
S'setting_value'
p3180
sg3168
L20L
sg3169
Nsg3170
S'name'
p3181
sa(dp3182
g3156
S''
sg3157
L0L
sg3158
Nsg3159
S'BTREE'
p3183
sg3161
S'setting_value_ns_unique_idx'
p3184
sg3163
S'A'
sg3164
S''
sg3165
L2L
sg3166
S'setting_value'
p3185
sg3168
L20L
sg3169
Nsg3170
S'sortindex'
p3186
satp3187
sS'resolution'
p3188
((lp3189
(dp3190
S'Extra'
p3191
S'auto_increment'
p3192
sS'Default'
p3193
NsS'Field'
p3194
S'id'
p3195
sS'Key'
p3196
S'PRI'
p3197
sS'Null'
p3198
S'NO'
p3199
sS'Type'
p3200
S'smallint(6)'
p3201
sa(dp3202
g3191
S''
sg3193
S''
sg3194
S'value'
p3203
sg3196
S'UNI'
p3204
sg3198
S'NO'
p3205
sg3200
S'varchar(64)'
p3206
sa(dp3207
g3191
S''
sg3193
S'0'
sg3194
S'sortkey'
p3208
sg3196
S'MUL'
p3209
sg3198
S'NO'
p3210
sg3200
S'smallint(6)'
p3211
sa(dp3212
g3191
S''
sg3193
S'1'
sg3194
S'isactive'
p3213
sg3196
S''
sg3198
S'NO'
p3214
sg3200
S'tinyint(4)'
p3215
sa(lp3216
(dp3217
S'Comment'
p3218
S''
sS'Non_unique'
p3219
L0L
sS'Sub_part'
p3220
NsS'Index_type'
p3221
S'BTREE'
p3222
sS'Key_name'
p3223
S'PRIMARY'
p3224
sS'Collation'
p3225
S'A'
sS'Null'
p3226
S''
sS'Seq_in_index'
p3227
L1L
sS'Table'
p3228
S'resolution'
p3229
sS'Cardinality'
p3230
L7L
sS'Packed'
p3231
NsS'Column_name'
p3232
S'id'
p3233
sa(dp3234
g3218
S''
sg3219
L0L
sg3220
Nsg3221
S'BTREE'
p3235
sg3223
S'resolution_value_idx'
p3236
sg3225
S'A'
sg3226
S''
sg3227
L1L
sg3228
S'resolution'
p3237
sg3230
L7L
sg3231
Nsg3232
S'value'
p3238
sa(dp3239
g3218
S''
sg3219
L1L
sg3220
Nsg3221
S'BTREE'
p3240
sg3223
S'resolution_sortkey_idx'
p3241
sg3225
S'A'
sg3226
S''
sg3227
L1L
sg3228
S'resolution'
p3242
sg3230
L7L
sg3231
Nsg3232
S'sortkey'
p3243
sa(dp3244
g3218
S''
sg3219
L1L
sg3220
Nsg3221
S'BTREE'
p3245
sg3223
S'resolution_sortkey_idx'
p3246
sg3225
S'A'
sg3226
S''
sg3227
L2L
sg3228
S'resolution'
p3247
sg3230
L7L
sg3231
Nsg3232
S'value'
p3248
satp3249
sS'op_sys'
p3250
((lp3251
(dp3252
S'Extra'
p3253
S'auto_increment'
p3254
sS'Default'
p3255
NsS'Field'
p3256
S'id'
p3257
sS'Key'
p3258
S'PRI'
p3259
sS'Null'
p3260
S'NO'
p3261
sS'Type'
p3262
S'smallint(6)'
p3263
sa(dp3264
g3253
S''
sg3255
S''
sg3256
S'value'
p3265
sg3258
S'UNI'
p3266
sg3260
S'NO'
p3267
sg3262
S'varchar(64)'
p3268
sa(dp3269
g3253
S''
sg3255
S'0'
sg3256
S'sortkey'
p3270
sg3258
S'MUL'
p3271
sg3260
S'NO'
p3272
sg3262
S'smallint(6)'
p3273
sa(dp3274
g3253
S''
sg3255
S'1'
sg3256
S'isactive'
p3275
sg3258
S''
sg3260
S'NO'
p3276
sg3262
S'tinyint(4)'
p3277
sa(lp3278
(dp3279
S'Comment'
p3280
S''
sS'Non_unique'
p3281
L0L
sS'Sub_part'
p3282
NsS'Index_type'
p3283
S'BTREE'
p3284
sS'Key_name'
p3285
S'PRIMARY'
p3286
sS'Collation'
p3287
S'A'
sS'Null'
p3288
S''
sS'Seq_in_index'
p3289
L1L
sS'Table'
p3290
S'op_sys'
p3291
sS'Cardinality'
p3292
L5L
sS'Packed'
p3293
NsS'Column_name'
p3294
S'id'
p3295
sa(dp3296
g3280
S''
sg3281
L0L
sg3282
Nsg3283
S'BTREE'
p3297
sg3285
S'op_sys_value_idx'
p3298
sg3287
S'A'
sg3288
S''
sg3289
L1L
sg3290
S'op_sys'
p3299
sg3292
L5L
sg3293
Nsg3294
S'value'
p3300
sa(dp3301
g3280
S''
sg3281
L1L
sg3282
Nsg3283
S'BTREE'
p3302
sg3285
S'op_sys_sortkey_idx'
p3303
sg3287
S'A'
sg3288
S''
sg3289
L1L
sg3290
S'op_sys'
p3304
sg3292
L5L
sg3293
Nsg3294
S'sortkey'
p3305
sa(dp3306
g3280
S''
sg3281
L1L
sg3282
Nsg3283
S'BTREE'
p3307
sg3285
S'op_sys_sortkey_idx'
p3308
sg3287
S'A'
sg3288
S''
sg3289
L2L
sg3290
S'op_sys'
p3309
sg3292
L5L
sg3293
Nsg3294
S'value'
p3310
satp3311
sS'group_group_map'
p3312
((lp3313
(dp3314
S'Extra'
p3315
S''
sS'Default'
p3316
S''
sS'Field'
p3317
S'member_id'
p3318
sS'Key'
p3319
S'PRI'
p3320
sS'Null'
p3321
S'NO'
p3322
sS'Type'
p3323
S'mediumint(9)'
p3324
sa(dp3325
g3315
S''
sg3316
S''
sg3317
S'grantor_id'
p3326
sg3319
S'PRI'
p3327
sg3321
S'NO'
p3328
sg3323
S'mediumint(9)'
p3329
sa(dp3330
g3315
S''
sg3316
S'0'
sg3317
S'grant_type'
p3331
sg3319
S'PRI'
p3332
sg3321
S'NO'
p3333
sg3323
S'tinyint(4)'
p3334
sa(lp3335
(dp3336
S'Comment'
p3337
S''
sS'Non_unique'
p3338
L0L
sS'Sub_part'
p3339
NsS'Index_type'
p3340
S'BTREE'
p3341
sS'Key_name'
p3342
S'group_group_map_member_id_idx'
p3343
sS'Collation'
p3344
S'A'
sS'Null'
p3345
S''
sS'Seq_in_index'
p3346
L1L
sS'Table'
p3347
S'group_group_map'
p3348
sS'Cardinality'
p3349
L41L
sS'Packed'
p3350
NsS'Column_name'
p3351
S'member_id'
p3352
sa(dp3353
g3337
S''
sg3338
L0L
sg3339
Nsg3340
S'BTREE'
p3354
sg3342
S'group_group_map_member_id_idx'
p3355
sg3344
S'A'
sg3345
S''
sg3346
L2L
sg3347
S'group_group_map'
p3356
sg3349
L41L
sg3350
Nsg3351
S'grantor_id'
p3357
sa(dp3358
g3337
S''
sg3338
L0L
sg3339
Nsg3340
S'BTREE'
p3359
sg3342
S'group_group_map_member_id_idx'
p3360
sg3344
S'A'
sg3345
S''
sg3346
L3L
sg3347
S'group_group_map'
p3361
sg3349
L41L
sg3350
Nsg3351
S'grant_type'
p3362
satp3363
st.