(S'3.1.3'
p1
(dp2
S'bug_group_map'
p3
((lp4
(dp5
S'Extra'
p6
S''
sS'Default'
p7
S''
sS'Field'
p8
S'bug_id'
p9
sS'Key'
p10
S'PRI'
p11
sS'Null'
p12
S'NO'
p13
sS'Type'
p14
S'mediumint(9)'
p15
sa(dp16
g6
S''
sg7
S''
sg8
S'group_id'
p17
sg10
S'PRI'
p18
sg12
S'NO'
p19
sg14
S'mediumint(9)'
p20
sa(lp21
(dp22
S'Comment'
p23
S''
sS'Non_unique'
p24
L0L
sS'Sub_part'
p25
NsS'Index_type'
p26
S'BTREE'
p27
sS'Key_name'
p28
S'bug_group_map_bug_id_idx'
p29
sS'Collation'
p30
S'A'
sS'Null'
p31
S''
sS'Seq_in_index'
p32
L1L
sS'Table'
p33
S'bug_group_map'
p34
sS'Cardinality'
p35
L0L
sS'Packed'
p36
NsS'Column_name'
p37
S'bug_id'
p38
sa(dp39
g23
S''
sg24
L0L
sg25
Nsg26
S'BTREE'
p40
sg28
S'bug_group_map_bug_id_idx'
p41
sg30
S'A'
sg31
S''
sg32
L2L
sg33
S'bug_group_map'
p42
sg35
L0L
sg36
Nsg37
S'group_id'
p43
sa(dp44
g23
S''
sg24
L1L
sg25
Nsg26
S'BTREE'
p45
sg28
S'bug_group_map_group_id_idx'
p46
sg30
S'A'
sg31
S''
sg32
L1L
sg33
S'bug_group_map'
p47
sg35
L0L
sg36
Nsg37
S'group_id'
p48
satp49
sS'attachments'
p50
((lp51
(dp52
S'Extra'
p53
S'auto_increment'
p54
sS'Default'
p55
NsS'Field'
p56
S'attach_id'
p57
sS'Key'
p58
S'PRI'
p59
sS'Null'
p60
S'NO'
p61
sS'Type'
p62
S'mediumint(9)'
p63
sa(dp64
g53
S''
sg55
S''
sg56
S'bug_id'
p65
sg58
S'MUL'
p66
sg60
S'NO'
p67
sg62
S'mediumint(9)'
p68
sa(dp69
g53
S''
sg55
S''
sg56
S'creation_ts'
p70
sg58
S'MUL'
p71
sg60
S'NO'
p72
sg62
S'datetime'
p73
sa(dp74
g53
S''
sg55
S''
sg56
S'modification_time'
p75
sg58
S'MUL'
p76
sg60
S'NO'
p77
sg62
S'datetime'
p78
sa(dp79
g53
S''
sg55
S''
sg56
S'description'
p80
sg58
S''
sg60
S'NO'
p81
sg62
S'tinytext'
p82
sa(dp83
g53
S''
sg55
S''
sg56
S'mimetype'
p84
sg58
S''
sg60
S'NO'
p85
sg62
S'tinytext'
p86
sa(dp87
g53
S''
sg55
Nsg56
S'ispatch'
p88
sg58
S''
sg60
S'YES'
p89
sg62
S'tinyint(4)'
p90
sa(dp91
g53
S''
sg55
S''
sg56
S'filename'
p92
sg58
S''
sg60
S'NO'
p93
sg62
S'varchar(100)'
p94
sa(dp95
g53
S''
sg55
S''
sg56
S'submitter_id'
p96
sg58
S'MUL'
p97
sg60
S'NO'
p98
sg62
S'mediumint(9)'
p99
sa(dp100
g53
S''
sg55
S'0'
sg56
S'isobsolete'
p101
sg58
S''
sg60
S'NO'
p102
sg62
S'tinyint(4)'
p103
sa(dp104
g53
S''
sg55
S'0'
sg56
S'isprivate'
p105
sg58
S''
sg60
S'NO'
p106
sg62
S'tinyint(4)'
p107
sa(dp108
g53
S''
sg55
S'0'
sg56
S'isurl'
p109
sg58
S''
sg60
S'NO'
p110
sg62
S'tinyint(4)'
p111
sa(lp112
(dp113
S'Comment'
p114
S''
sS'Non_unique'
p115
L0L
sS'Sub_part'
p116
NsS'Index_type'
p117
S'BTREE'
p118
sS'Key_name'
p119
S'PRIMARY'
p120
sS'Collation'
p121
S'A'
sS'Null'
p122
S''
sS'Seq_in_index'
p123
L1L
sS'Table'
p124
S'attachments'
p125
sS'Cardinality'
p126
L0L
sS'Packed'
p127
NsS'Column_name'
p128
S'attach_id'
p129
sa(dp130
g114
S''
sg115
L1L
sg116
Nsg117
S'BTREE'
p131
sg119
S'attachments_bug_id_idx'
p132
sg121
S'A'
sg122
S''
sg123
L1L
sg124
S'attachments'
p133
sg126
L0L
sg127
Nsg128
S'bug_id'
p134
sa(dp135
g114
S''
sg115
L1L
sg116
Nsg117
S'BTREE'
p136
sg119
S'attachments_creation_ts_idx'
p137
sg121
S'A'
sg122
S''
sg123
L1L
sg124
S'attachments'
p138
sg126
L0L
sg127
Nsg128
S'creation_ts'
p139
sa(dp140
g114
S''
sg115
L1L
sg116
Nsg117
S'BTREE'
p141
sg119
S'attachments_modification_time_idx'
p142
sg121
S'A'
sg122
S''
sg123
L1L
sg124
S'attachments'
p143
sg126
L0L
sg127
Nsg128
S'modification_time'
p144
sa(dp145
g114
S''
sg115
L1L
sg116
Nsg117
S'BTREE'
p146
sg119
S'attachments_submitter_id_idx'
p147
sg121
S'A'
sg122
S''
sg123
L1L
sg124
S'attachments'
p148
sg126
L0L
sg127
Nsg128
S'submitter_id'
p149
sa(dp150
g114
S''
sg115
L1L
sg116
Nsg117
S'BTREE'
p151
sg119
S'attachments_submitter_id_idx'
p152
sg121
S'A'
sg122
S''
sg123
L2L
sg124
S'attachments'
p153
sg126
L0L
sg127
Nsg128
S'bug_id'
p154
satp155
sS'namedqueries_link_in_footer'
p156
((lp157
(dp158
S'Extra'
p159
S''
sS'Default'
p160
S''
sS'Field'
p161
S'namedquery_id'
p162
sS'Key'
p163
S'PRI'
p164
sS'Null'
p165
S'NO'
p166
sS'Type'
p167
S'mediumint(9)'
p168
sa(dp169
g159
S''
sg160
S''
sg161
S'user_id'
p170
sg163
S'PRI'
p171
sg165
S'NO'
p172
sg167
S'mediumint(9)'
p173
sa(lp174
(dp175
S'Comment'
p176
S''
sS'Non_unique'
p177
L0L
sS'Sub_part'
p178
NsS'Index_type'
p179
S'BTREE'
p180
sS'Key_name'
p181
S'namedqueries_link_in_footer_id_idx'
p182
sS'Collation'
p183
S'A'
sS'Null'
p184
S''
sS'Seq_in_index'
p185
L1L
sS'Table'
p186
S'namedqueries_link_in_footer'
p187
sS'Cardinality'
p188
L0L
sS'Packed'
p189
NsS'Column_name'
p190
S'namedquery_id'
p191
sa(dp192
g176
S''
sg177
L0L
sg178
Nsg179
S'BTREE'
p193
sg181
S'namedqueries_link_in_footer_id_idx'
p194
sg183
S'A'
sg184
S''
sg185
L2L
sg186
S'namedqueries_link_in_footer'
p195
sg188
L0L
sg189
Nsg190
S'user_id'
p196
sa(dp197
g176
S''
sg177
L1L
sg178
Nsg179
S'BTREE'
p198
sg181
S'namedqueries_link_in_footer_userid_idx'
p199
sg183
S'A'
sg184
S''
sg185
L1L
sg186
S'namedqueries_link_in_footer'
p200
sg188
L0L
sg189
Nsg190
S'user_id'
p201
satp202
sS'duplicates'
p203
((lp204
(dp205
S'Extra'
p206
S''
sS'Default'
p207
S''
sS'Field'
p208
S'dupe_of'
p209
sS'Key'
p210
S''
sS'Null'
p211
S'NO'
p212
sS'Type'
p213
S'mediumint(9)'
p214
sa(dp215
g206
S''
sg207
S''
sg208
S'dupe'
p216
sg210
S'PRI'
p217
sg211
S'NO'
p218
sg213
S'mediumint(9)'
p219
sa(lp220
(dp221
S'Comment'
p222
S''
sS'Non_unique'
p223
L0L
sS'Sub_part'
p224
NsS'Index_type'
p225
S'BTREE'
p226
sS'Key_name'
p227
S'PRIMARY'
p228
sS'Collation'
p229
S'A'
sS'Null'
p230
S''
sS'Seq_in_index'
p231
L1L
sS'Table'
p232
S'duplicates'
p233
sS'Cardinality'
p234
L0L
sS'Packed'
p235
NsS'Column_name'
p236
S'dupe'
p237
satp238
sS'rep_platform'
p239
((lp240
(dp241
S'Extra'
p242
S'auto_increment'
p243
sS'Default'
p244
NsS'Field'
p245
S'id'
p246
sS'Key'
p247
S'PRI'
p248
sS'Null'
p249
S'NO'
p250
sS'Type'
p251
S'smallint(6)'
p252
sa(dp253
g242
S''
sg244
S''
sg245
S'value'
p254
sg247
S'UNI'
p255
sg249
S'NO'
p256
sg251
S'varchar(64)'
p257
sa(dp258
g242
S''
sg244
S'0'
sg245
S'sortkey'
p259
sg247
S'MUL'
p260
sg249
S'NO'
p261
sg251
S'smallint(6)'
p262
sa(dp263
g242
S''
sg244
S'1'
sg245
S'isactive'
p264
sg247
S''
sg249
S'NO'
p265
sg251
S'tinyint(4)'
p266
sa(lp267
(dp268
S'Comment'
p269
S''
sS'Non_unique'
p270
L0L
sS'Sub_part'
p271
NsS'Index_type'
p272
S'BTREE'
p273
sS'Key_name'
p274
S'PRIMARY'
p275
sS'Collation'
p276
S'A'
sS'Null'
p277
S''
sS'Seq_in_index'
p278
L1L
sS'Table'
p279
S'rep_platform'
p280
sS'Cardinality'
p281
L2L
sS'Packed'
p282
NsS'Column_name'
p283
S'id'
p284
sa(dp285
g269
S''
sg270
L0L
sg271
Nsg272
S'BTREE'
p286
sg274
S'rep_platform_value_idx'
p287
sg276
S'A'
sg277
S''
sg278
L1L
sg279
S'rep_platform'
p288
sg281
L2L
sg282
Nsg283
S'value'
p289
sa(dp290
g269
S''
sg270
L1L
sg271
Nsg272
S'BTREE'
p291
sg274
S'rep_platform_sortkey_idx'
p292
sg276
S'A'
sg277
S''
sg278
L1L
sg279
S'rep_platform'
p293
sg281
L2L
sg282
Nsg283
S'sortkey'
p294
sa(dp295
g269
S''
sg270
L1L
sg271
Nsg272
S'BTREE'
p296
sg274
S'rep_platform_sortkey_idx'
p297
sg276
S'A'
sg277
S''
sg278
L2L
sg279
S'rep_platform'
p298
sg281
L2L
sg282
Nsg283
S'value'
p299
satp300
sS'quips'
p301
((lp302
(dp303
S'Extra'
p304
S'auto_increment'
p305
sS'Default'
p306
NsS'Field'
p307
S'quipid'
p308
sS'Key'
p309
S'PRI'
p310
sS'Null'
p311
S'NO'
p312
sS'Type'
p313
S'mediumint(9)'
p314
sa(dp315
g304
S''
sg306
Nsg307
S'userid'
p316
sg309
S''
sg311
S'YES'
p317
sg313
S'mediumint(9)'
p318
sa(dp319
g304
S''
sg306
S''
sg307
S'quip'
p320
sg309
S''
sg311
S'NO'
p321
sg313
S'mediumtext'
p322
sa(dp323
g304
S''
sg306
S'1'
sg307
S'approved'
p324
sg309
S''
sg311
S'NO'
p325
sg313
S'tinyint(4)'
p326
sa(lp327
(dp328
S'Comment'
p329
S''
sS'Non_unique'
p330
L0L
sS'Sub_part'
p331
NsS'Index_type'
p332
S'BTREE'
p333
sS'Key_name'
p334
S'PRIMARY'
p335
sS'Collation'
p336
S'A'
sS'Null'
p337
S''
sS'Seq_in_index'
p338
L1L
sS'Table'
p339
S'quips'
p340
sS'Cardinality'
p341
L0L
sS'Packed'
p342
NsS'Column_name'
p343
S'quipid'
p344
satp345
sS'series_categories'
p346
((lp347
(dp348
S'Extra'
p349
S'auto_increment'
p350
sS'Default'
p351
NsS'Field'
p352
S'id'
p353
sS'Key'
p354
S'PRI'
p355
sS'Null'
p356
S'NO'
p357
sS'Type'
p358
S'smallint(6)'
p359
sa(dp360
g349
S''
sg351
S''
sg352
S'name'
p361
sg354
S'UNI'
p362
sg356
S'NO'
p363
sg358
S'varchar(64)'
p364
sa(lp365
(dp366
S'Comment'
p367
S''
sS'Non_unique'
p368
L0L
sS'Sub_part'
p369
NsS'Index_type'
p370
S'BTREE'
p371
sS'Key_name'
p372
S'PRIMARY'
p373
sS'Collation'
p374
S'A'
sS'Null'
p375
S''
sS'Seq_in_index'
p376
L1L
sS'Table'
p377
S'series_categories'
p378
sS'Cardinality'
p379
L0L
sS'Packed'
p380
NsS'Column_name'
p381
S'id'
p382
sa(dp383
g367
S''
sg368
L0L
sg369
Nsg370
S'BTREE'
p384
sg372
S'series_categories_name_idx'
p385
sg374
S'A'
sg375
S''
sg376
L1L
sg377
S'series_categories'
p386
sg379
L0L
sg380
Nsg381
S'name'
p387
satp388
sS'group_control_map'
p389
((lp390
(dp391
S'Extra'
p392
S''
sS'Default'
p393
S''
sS'Field'
p394
S'group_id'
p395
sS'Key'
p396
S'PRI'
p397
sS'Null'
p398
S'NO'
p399
sS'Type'
p400
S'mediumint(9)'
p401
sa(dp402
g392
S''
sg393
S''
sg394
S'product_id'
p403
sg396
S'PRI'
p404
sg398
S'NO'
p405
sg400
S'mediumint(9)'
p406
sa(dp407
g392
S''
sg393
S''
sg394
S'entry'
p408
sg396
S''
sg398
S'NO'
p409
sg400
S'tinyint(4)'
p410
sa(dp411
g392
S''
sg393
S''
sg394
S'membercontrol'
p412
sg396
S''
sg398
S'NO'
p413
sg400
S'tinyint(4)'
p414
sa(dp415
g392
S''
sg393
S''
sg394
S'othercontrol'
p416
sg396
S''
sg398
S'NO'
p417
sg400
S'tinyint(4)'
p418
sa(dp419
g392
S''
sg393
S''
sg394
S'canedit'
p420
sg396
S''
sg398
S'NO'
p421
sg400
S'tinyint(4)'
p422
sa(dp423
g392
S''
sg393
S'0'
sg394
S'editcomponents'
p424
sg396
S''
sg398
S'NO'
p425
sg400
S'tinyint(4)'
p426
sa(dp427
g392
S''
sg393
S'0'
sg394
S'editbugs'
p428
sg396
S''
sg398
S'NO'
p429
sg400
S'tinyint(4)'
p430
sa(dp431
g392
S''
sg393
S'0'
sg394
S'canconfirm'
p432
sg396
S''
sg398
S'NO'
p433
sg400
S'tinyint(4)'
p434
sa(lp435
(dp436
S'Comment'
p437
S''
sS'Non_unique'
p438
L0L
sS'Sub_part'
p439
NsS'Index_type'
p440
S'BTREE'
p441
sS'Key_name'
p442
S'group_control_map_product_id_idx'
p443
sS'Collation'
p444
S'A'
sS'Null'
p445
S''
sS'Seq_in_index'
p446
L1L
sS'Table'
p447
S'group_control_map'
p448
sS'Cardinality'
p449
L0L
sS'Packed'
p450
NsS'Column_name'
p451
S'product_id'
p452
sa(dp453
g437
S''
sg438
L0L
sg439
Nsg440
S'BTREE'
p454
sg442
S'group_control_map_product_id_idx'
p455
sg444
S'A'
sg445
S''
sg446
L2L
sg447
S'group_control_map'
p456
sg449
L0L
sg450
Nsg451
S'group_id'
p457
sa(dp458
g437
S''
sg438
L1L
sg439
Nsg440
S'BTREE'
p459
sg442
S'group_control_map_group_id_idx'
p460
sg444
S'A'
sg445
S''
sg446
L1L
sg447
S'group_control_map'
p461
sg449
L0L
sg450
Nsg451
S'group_id'
p462
satp463
sS'component_cc'
p464
((lp465
(dp466
S'Extra'
p467
S''
sS'Default'
p468
S''
sS'Field'
p469
S'user_id'
p470
sS'Key'
p471
S'PRI'
p472
sS'Null'
p473
S'NO'
p474
sS'Type'
p475
S'mediumint(9)'
p476
sa(dp477
g467
S''
sg468
S''
sg469
S'component_id'
p478
sg471
S'PRI'
p479
sg473
S'NO'
p480
sg475
S'smallint(6)'
p481
sa(lp482
(dp483
S'Comment'
p484
S''
sS'Non_unique'
p485
L0L
sS'Sub_part'
p486
NsS'Index_type'
p487
S'BTREE'
p488
sS'Key_name'
p489
S'component_cc_user_id_idx'
p490
sS'Collation'
p491
S'A'
sS'Null'
p492
S''
sS'Seq_in_index'
p493
L1L
sS'Table'
p494
S'component_cc'
p495
sS'Cardinality'
p496
L0L
sS'Packed'
p497
NsS'Column_name'
p498
S'component_id'
p499
sa(dp500
g484
S''
sg485
L0L
sg486
Nsg487
S'BTREE'
p501
sg489
S'component_cc_user_id_idx'
p502
sg491
S'A'
sg492
S''
sg493
L2L
sg494
S'component_cc'
p503
sg496
L0L
sg497
Nsg498
S'user_id'
p504
sa(dp505
g484
S''
sg485
L1L
sg486
Nsg487
S'BTREE'
p506
sg489
S'fk_component_cc_user_id_profiles_userid'
p507
sg491
S'A'
sg492
S''
sg493
L1L
sg494
S'component_cc'
p508
sg496
L0L
sg497
Nsg498
S'user_id'
p509
satp510
sS'keywords'
p511
((lp512
(dp513
S'Extra'
p514
S''
sS'Default'
p515
S''
sS'Field'
p516
S'bug_id'
p517
sS'Key'
p518
S'PRI'
p519
sS'Null'
p520
S'NO'
p521
sS'Type'
p522
S'mediumint(9)'
p523
sa(dp524
g514
S''
sg515
S''
sg516
S'keywordid'
p525
sg518
S'PRI'
p526
sg520
S'NO'
p527
sg522
S'smallint(6)'
p528
sa(lp529
(dp530
S'Comment'
p531
S''
sS'Non_unique'
p532
L0L
sS'Sub_part'
p533
NsS'Index_type'
p534
S'BTREE'
p535
sS'Key_name'
p536
S'keywords_bug_id_idx'
p537
sS'Collation'
p538
S'A'
sS'Null'
p539
S''
sS'Seq_in_index'
p540
L1L
sS'Table'
p541
S'keywords'
p542
sS'Cardinality'
p543
L0L
sS'Packed'
p544
NsS'Column_name'
p545
S'bug_id'
p546
sa(dp547
g531
S''
sg532
L0L
sg533
Nsg534
S'BTREE'
p548
sg536
S'keywords_bug_id_idx'
p549
sg538
S'A'
sg539
S''
sg540
L2L
sg541
S'keywords'
p550
sg543
L0L
sg544
Nsg545
S'keywordid'
p551
sa(dp552
g531
S''
sg532
L1L
sg533
Nsg534
S'BTREE'
p553
sg536
S'keywords_keywordid_idx'
p554
sg538
S'A'
sg539
S''
sg540
L1L
sg541
S'keywords'
p555
sg543
L0L
sg544
Nsg545
S'keywordid'
p556
satp557
sS'series_data'
p558
((lp559
(dp560
S'Extra'
p561
S''
sS'Default'
p562
S''
sS'Field'
p563
S'series_id'
p564
sS'Key'
p565
S'PRI'
p566
sS'Null'
p567
S'NO'
p568
sS'Type'
p569
S'mediumint(9)'
p570
sa(dp571
g561
S''
sg562
S''
sg563
S'series_date'
p572
sg565
S'PRI'
p573
sg567
S'NO'
p574
sg569
S'datetime'
p575
sa(dp576
g561
S''
sg562
S''
sg563
S'series_value'
p577
sg565
S''
sg567
S'NO'
p578
sg569
S'mediumint(9)'
p579
sa(lp580
(dp581
S'Comment'
p582
S''
sS'Non_unique'
p583
L0L
sS'Sub_part'
p584
NsS'Index_type'
p585
S'BTREE'
p586
sS'Key_name'
p587
S'series_data_series_id_idx'
p588
sS'Collation'
p589
S'A'
sS'Null'
p590
S''
sS'Seq_in_index'
p591
L1L
sS'Table'
p592
S'series_data'
p593
sS'Cardinality'
p594
L0L
sS'Packed'
p595
NsS'Column_name'
p596
S'series_id'
p597
sa(dp598
g582
S''
sg583
L0L
sg584
Nsg585
S'BTREE'
p599
sg587
S'series_data_series_id_idx'
p600
sg589
S'A'
sg590
S''
sg591
L2L
sg592
S'series_data'
p601
sg594
L0L
sg595
Nsg596
S'series_date'
p602
satp603
sS'keyworddefs'
p604
((lp605
(dp606
S'Extra'
p607
S'auto_increment'
p608
sS'Default'
p609
NsS'Field'
p610
S'id'
p611
sS'Key'
p612
S'PRI'
p613
sS'Null'
p614
S'NO'
p615
sS'Type'
p616
S'smallint(6)'
p617
sa(dp618
g607
S''
sg609
S''
sg610
S'name'
p619
sg612
S'UNI'
p620
sg614
S'NO'
p621
sg616
S'varchar(64)'
p622
sa(dp623
g607
S''
sg609
Nsg610
S'description'
p624
sg612
S''
sg614
S'YES'
p625
sg616
S'mediumtext'
p626
sa(lp627
(dp628
S'Comment'
p629
S''
sS'Non_unique'
p630
L0L
sS'Sub_part'
p631
NsS'Index_type'
p632
S'BTREE'
p633
sS'Key_name'
p634
S'PRIMARY'
p635
sS'Collation'
p636
S'A'
sS'Null'
p637
S''
sS'Seq_in_index'
p638
L1L
sS'Table'
p639
S'keyworddefs'
p640
sS'Cardinality'
p641
L0L
sS'Packed'
p642
NsS'Column_name'
p643
S'id'
p644
sa(dp645
g629
S''
sg630
L0L
sg631
Nsg632
S'BTREE'
p646
sg634
S'keyworddefs_name_idx'
p647
sg636
S'A'
sg637
S''
sg638
L1L
sg639
S'keyworddefs'
p648
sg641
L0L
sg642
Nsg643
S'name'
p649
satp650
sS'namedquery_group_map'
p651
((lp652
(dp653
S'Extra'
p654
S''
sS'Default'
p655
S''
sS'Field'
p656
S'namedquery_id'
p657
sS'Key'
p658
S'PRI'
p659
sS'Null'
p660
S'NO'
p661
sS'Type'
p662
S'mediumint(9)'
p663
sa(dp664
g654
S''
sg655
S''
sg656
S'group_id'
p665
sg658
S'MUL'
p666
sg660
S'NO'
p667
sg662
S'mediumint(9)'
p668
sa(lp669
(dp670
S'Comment'
p671
S''
sS'Non_unique'
p672
L0L
sS'Sub_part'
p673
NsS'Index_type'
p674
S'BTREE'
p675
sS'Key_name'
p676
S'namedquery_group_map_namedquery_id_idx'
p677
sS'Collation'
p678
S'A'
sS'Null'
p679
S''
sS'Seq_in_index'
p680
L1L
sS'Table'
p681
S'namedquery_group_map'
p682
sS'Cardinality'
p683
L0L
sS'Packed'
p684
NsS'Column_name'
p685
S'namedquery_id'
p686
sa(dp687
g671
S''
sg672
L1L
sg673
Nsg674
S'BTREE'
p688
sg676
S'namedquery_group_map_group_id_idx'
p689
sg678
S'A'
sg679
S''
sg680
L1L
sg681
S'namedquery_group_map'
p690
sg683
L0L
sg684
Nsg685
S'group_id'
p691
satp692
sS'flagexclusions'
p693
((lp694
(dp695
S'Extra'
p696
S''
sS'Default'
p697
S''
sS'Field'
p698
S'type_id'
p699
sS'Key'
p700
S'MUL'
p701
sS'Null'
p702
S'NO'
p703
sS'Type'
p704
S'smallint(6)'
p705
sa(dp706
g696
S''
sg697
Nsg698
S'product_id'
p707
sg700
S''
sg702
S'YES'
p708
sg704
S'smallint(6)'
p709
sa(dp710
g696
S''
sg697
Nsg698
S'component_id'
p711
sg700
S''
sg702
S'YES'
p712
sg704
S'smallint(6)'
p713
sa(lp714
(dp715
S'Comment'
p716
S''
sS'Non_unique'
p717
L1L
sS'Sub_part'
p718
NsS'Index_type'
p719
S'BTREE'
p720
sS'Key_name'
p721
S'flagexclusions_type_id_idx'
p722
sS'Collation'
p723
S'A'
sS'Null'
p724
S''
sS'Seq_in_index'
p725
L1L
sS'Table'
p726
S'flagexclusions'
p727
sS'Cardinality'
p728
L0L
sS'Packed'
p729
NsS'Column_name'
p730
S'type_id'
p731
sa(dp732
g716
S''
sg717
L1L
sg718
Nsg719
S'BTREE'
p733
sg721
S'flagexclusions_type_id_idx'
p734
sg723
S'A'
sg724
S'YES'
p735
sg725
L2L
sg726
S'flagexclusions'
p736
sg728
L0L
sg729
Nsg730
S'product_id'
p737
sa(dp738
g716
S''
sg717
L1L
sg718
Nsg719
S'BTREE'
p739
sg721
S'flagexclusions_type_id_idx'
p740
sg723
S'A'
sg724
S'YES'
p741
sg725
L3L
sg726
S'flagexclusions'
p742
sg728
L0L
sg729
Nsg730
S'component_id'
p743
satp744
sS'votes'
p745
((lp746
(dp747
S'Extra'
p748
S''
sS'Default'
p749
S''
sS'Field'
p750
S'who'
p751
sS'Key'
p752
S'MUL'
p753
sS'Null'
p754
S'NO'
p755
sS'Type'
p756
S'mediumint(9)'
p757
sa(dp758
g748
S''
sg749
S''
sg750
S'bug_id'
p759
sg752
S'MUL'
p760
sg754
S'NO'
p761
sg756
S'mediumint(9)'
p762
sa(dp763
g748
S''
sg749
S''
sg750
S'vote_count'
p764
sg752
S''
sg754
S'NO'
p765
sg756
S'smallint(6)'
p766
sa(lp767
(dp768
S'Comment'
p769
S''
sS'Non_unique'
p770
L1L
sS'Sub_part'
p771
NsS'Index_type'
p772
S'BTREE'
p773
sS'Key_name'
p774
S'votes_who_idx'
p775
sS'Collation'
p776
S'A'
sS'Null'
p777
S''
sS'Seq_in_index'
p778
L1L
sS'Table'
p779
S'votes'
p780
sS'Cardinality'
p781
L0L
sS'Packed'
p782
NsS'Column_name'
p783
S'who'
p784
sa(dp785
g769
S''
sg770
L1L
sg771
Nsg772
S'BTREE'
p786
sg774
S'votes_bug_id_idx'
p787
sg776
S'A'
sg777
S''
sg778
L1L
sg779
S'votes'
p788
sg781
L0L
sg782
Nsg783
S'bug_id'
p789
satp790
sS'attach_data'
p791
((lp792
(dp793
S'Extra'
p794
S''
sS'Default'
p795
S''
sS'Field'
p796
S'id'
p797
sS'Key'
p798
S'PRI'
p799
sS'Null'
p800
S'NO'
p801
sS'Type'
p802
S'mediumint(9)'
p803
sa(dp804
g794
S''
sg795
S''
sg796
S'thedata'
p805
sg798
S''
sg800
S'NO'
p806
sg802
S'longblob'
p807
sa(lp808
(dp809
S'Comment'
p810
S''
sS'Non_unique'
p811
L0L
sS'Sub_part'
p812
NsS'Index_type'
p813
S'BTREE'
p814
sS'Key_name'
p815
S'PRIMARY'
p816
sS'Collation'
p817
S'A'
sS'Null'
p818
S''
sS'Seq_in_index'
p819
L1L
sS'Table'
p820
S'attach_data'
p821
sS'Cardinality'
p822
L0L
sS'Packed'
p823
NsS'Column_name'
p824
S'id'
p825
satp826
sS'products'
p827
((lp828
(dp829
S'Extra'
p830
S'auto_increment'
p831
sS'Default'
p832
NsS'Field'
p833
S'id'
p834
sS'Key'
p835
S'PRI'
p836
sS'Null'
p837
S'NO'
p838
sS'Type'
p839
S'smallint(6)'
p840
sa(dp841
g830
S''
sg832
S''
sg833
S'name'
p842
sg835
S'UNI'
p843
sg837
S'NO'
p844
sg839
S'varchar(64)'
p845
sa(dp846
g830
S''
sg832
S'1'
sg833
S'classification_id'
p847
sg835
S''
sg837
S'NO'
p848
sg839
S'smallint(6)'
p849
sa(dp850
g830
S''
sg832
Nsg833
S'description'
p851
sg835
S''
sg837
S'YES'
p852
sg839
S'mediumtext'
p853
sa(dp854
g830
S''
sg832
S''
sg833
S'milestoneurl'
p855
sg835
S''
sg837
S'NO'
p856
sg839
S'tinytext'
p857
sa(dp858
g830
S''
sg832
S'0'
sg833
S'disallownew'
p859
sg835
S''
sg837
S'NO'
p860
sg839
S'tinyint(4)'
p861
sa(dp862
g830
S''
sg832
S'0'
sg833
S'votesperuser'
p863
sg835
S''
sg837
S'NO'
p864
sg839
S'smallint(6)'
p865
sa(dp866
g830
S''
sg832
S'10000'
p867
sg833
S'maxvotesperbug'
p868
sg835
S''
sg837
S'NO'
p869
sg839
S'smallint(6)'
p870
sa(dp871
g830
S''
sg832
S'0'
sg833
S'votestoconfirm'
p872
sg835
S''
sg837
S'NO'
p873
sg839
S'smallint(6)'
p874
sa(dp875
g830
S''
sg832
S'---'
p876
sg833
S'defaultmilestone'
p877
sg835
S''
sg837
S'NO'
p878
sg839
S'varchar(20)'
p879
sa(lp880
(dp881
S'Comment'
p882
S''
sS'Non_unique'
p883
L0L
sS'Sub_part'
p884
NsS'Index_type'
p885
S'BTREE'
p886
sS'Key_name'
p887
S'PRIMARY'
p888
sS'Collation'
p889
S'A'
sS'Null'
p890
S''
sS'Seq_in_index'
p891
L1L
sS'Table'
p892
S'products'
p893
sS'Cardinality'
p894
L1L
sS'Packed'
p895
NsS'Column_name'
p896
S'id'
p897
sa(dp898
g882
S''
sg883
L0L
sg884
Nsg885
S'BTREE'
p899
sg887
S'products_name_idx'
p900
sg889
S'A'
sg890
S''
sg891
L1L
sg892
S'products'
p901
sg894
L1L
sg895
Nsg896
S'name'
p902
satp903
sS'bug_status'
p904
((lp905
(dp906
S'Extra'
p907
S'auto_increment'
p908
sS'Default'
p909
NsS'Field'
p910
S'id'
p911
sS'Key'
p912
S'PRI'
p913
sS'Null'
p914
S'NO'
p915
sS'Type'
p916
S'smallint(6)'
p917
sa(dp918
g907
S''
sg909
S''
sg910
S'value'
p919
sg912
S'UNI'
p920
sg914
S'NO'
p921
sg916
S'varchar(64)'
p922
sa(dp923
g907
S''
sg909
S'0'
sg910
S'sortkey'
p924
sg912
S'MUL'
p925
sg914
S'NO'
p926
sg916
S'smallint(6)'
p927
sa(dp928
g907
S''
sg909
S'1'
sg910
S'isactive'
p929
sg912
S''
sg914
S'NO'
p930
sg916
S'tinyint(4)'
p931
sa(dp932
g907
S''
sg909
S'1'
sg910
S'is_open'
p933
sg912
S''
sg914
S'NO'
p934
sg916
S'tinyint(4)'
p935
sa(lp936
(dp937
S'Comment'
p938
S''
sS'Non_unique'
p939
L0L
sS'Sub_part'
p940
NsS'Index_type'
p941
S'BTREE'
p942
sS'Key_name'
p943
S'PRIMARY'
p944
sS'Collation'
p945
S'A'
sS'Null'
p946
S''
sS'Seq_in_index'
p947
L1L
sS'Table'
p948
S'bug_status'
p949
sS'Cardinality'
p950
L2L
sS'Packed'
p951
NsS'Column_name'
p952
S'id'
p953
sa(dp954
g938
S''
sg939
L0L
sg940
Nsg941
S'BTREE'
p955
sg943
S'bug_status_value_idx'
p956
sg945
S'A'
sg946
S''
sg947
L1L
sg948
S'bug_status'
p957
sg950
L2L
sg951
Nsg952
S'value'
p958
sa(dp959
g938
S''
sg939
L1L
sg940
Nsg941
S'BTREE'
p960
sg943
S'bug_status_sortkey_idx'
p961
sg945
S'A'
sg946
S''
sg947
L1L
sg948
S'bug_status'
p962
sg950
L2L
sg951
Nsg952
S'sortkey'
p963
sa(dp964
g938
S''
sg939
L1L
sg940
Nsg941
S'BTREE'
p965
sg943
S'bug_status_sortkey_idx'
p966
sg945
S'A'
sg946
S''
sg947
L2L
sg948
S'bug_status'
p967
sg950
L2L
sg951
Nsg952
S'value'
p968
satp969
sS'priority'
p970
((lp971
(dp972
S'Extra'
p973
S'auto_increment'
p974
sS'Default'
p975
NsS'Field'
p976
S'id'
p977
sS'Key'
p978
S'PRI'
p979
sS'Null'
p980
S'NO'
p981
sS'Type'
p982
S'smallint(6)'
p983
sa(dp984
g973
S''
sg975
S''
sg976
S'value'
p985
sg978
S'UNI'
p986
sg980
S'NO'
p987
sg982
S'varchar(64)'
p988
sa(dp989
g973
S''
sg975
S'0'
sg976
S'sortkey'
p990
sg978
S'MUL'
p991
sg980
S'NO'
p992
sg982
S'smallint(6)'
p993
sa(dp994
g973
S''
sg975
S'1'
sg976
S'isactive'
p995
sg978
S''
sg980
S'NO'
p996
sg982
S'tinyint(4)'
p997
sa(lp998
(dp999
S'Comment'
p1000
S''
sS'Non_unique'
p1001
L0L
sS'Sub_part'
p1002
NsS'Index_type'
p1003
S'BTREE'
p1004
sS'Key_name'
p1005
S'PRIMARY'
p1006
sS'Collation'
p1007
S'A'
sS'Null'
p1008
S''
sS'Seq_in_index'
p1009
L1L
sS'Table'
p1010
S'priority'
p1011
sS'Cardinality'
p1012
L2L
sS'Packed'
p1013
NsS'Column_name'
p1014
S'id'
p1015
sa(dp1016
g1000
S''
sg1001
L0L
sg1002
Nsg1003
S'BTREE'
p1017
sg1005
S'priority_value_idx'
p1018
sg1007
S'A'
sg1008
S''
sg1009
L1L
sg1010
S'priority'
p1019
sg1012
L2L
sg1013
Nsg1014
S'value'
p1020
sa(dp1021
g1000
S''
sg1001
L1L
sg1002
Nsg1003
S'BTREE'
p1022
sg1005
S'priority_sortkey_idx'
p1023
sg1007
S'A'
sg1008
S''
sg1009
L1L
sg1010
S'priority'
p1024
sg1012
L2L
sg1013
Nsg1014
S'sortkey'
p1025
sa(dp1026
g1000
S''
sg1001
L1L
sg1002
Nsg1003
S'BTREE'
p1027
sg1005
S'priority_sortkey_idx'
p1028
sg1007
S'A'
sg1008
S''
sg1009
L2L
sg1010
S'priority'
p1029
sg1012
L2L
sg1013
Nsg1014
S'value'
p1030
satp1031
sS'cc'
p1032
((lp1033
(dp1034
S'Extra'
p1035
S''
sS'Default'
p1036
S''
sS'Field'
p1037
S'bug_id'
p1038
sS'Key'
p1039
S'PRI'
p1040
sS'Null'
p1041
S'NO'
p1042
sS'Type'
p1043
S'mediumint(9)'
p1044
sa(dp1045
g1035
S''
sg1036
S''
sg1037
S'who'
p1046
sg1039
S'PRI'
p1047
sg1041
S'NO'
p1048
sg1043
S'mediumint(9)'
p1049
sa(lp1050
(dp1051
S'Comment'
p1052
S''
sS'Non_unique'
p1053
L0L
sS'Sub_part'
p1054
NsS'Index_type'
p1055
S'BTREE'
p1056
sS'Key_name'
p1057
S'cc_bug_id_idx'
p1058
sS'Collation'
p1059
S'A'
sS'Null'
p1060
S''
sS'Seq_in_index'
p1061
L1L
sS'Table'
p1062
S'cc'
p1063
sS'Cardinality'
p1064
L0L
sS'Packed'
p1065
NsS'Column_name'
p1066
S'bug_id'
p1067
sa(dp1068
g1052
S''
sg1053
L0L
sg1054
Nsg1055
S'BTREE'
p1069
sg1057
S'cc_bug_id_idx'
p1070
sg1059
S'A'
sg1060
S''
sg1061
L2L
sg1062
S'cc'
p1071
sg1064
L0L
sg1065
Nsg1066
S'who'
p1072
sa(dp1073
g1052
S''
sg1053
L1L
sg1054
Nsg1055
S'BTREE'
p1074
sg1057
S'cc_who_idx'
p1075
sg1059
S'A'
sg1060
S''
sg1061
L1L
sg1062
S'cc'
p1076
sg1064
L0L
sg1065
Nsg1066
S'who'
p1077
satp1078
sS'setting'
p1079
((lp1080
(dp1081
S'Extra'
p1082
S''
sS'Default'
p1083
S''
sS'Field'
p1084
S'name'
p1085
sS'Key'
p1086
S'PRI'
p1087
sS'Null'
p1088
S'NO'
p1089
sS'Type'
p1090
S'varchar(32)'
p1091
sa(dp1092
g1082
S''
sg1083
S''
sg1084
S'default_value'
p1093
sg1086
S''
sg1088
S'NO'
p1094
sg1090
S'varchar(32)'
p1095
sa(dp1096
g1082
S''
sg1083
S'1'
sg1084
S'is_enabled'
p1097
sg1086
S''
sg1088
S'NO'
p1098
sg1090
S'tinyint(4)'
p1099
sa(dp1100
g1082
S''
sg1083
Nsg1084
S'subclass'
p1101
sg1086
S''
sg1088
S'YES'
p1102
sg1090
S'varchar(32)'
p1103
sa(lp1104
(dp1105
S'Comment'
p1106
S''
sS'Non_unique'
p1107
L0L
sS'Sub_part'
p1108
NsS'Index_type'
p1109
S'BTREE'
p1110
sS'Key_name'
p1111
S'PRIMARY'
p1112
sS'Collation'
p1113
S'A'
sS'Null'
p1114
S''
sS'Seq_in_index'
p1115
L1L
sS'Table'
p1116
S'setting'
p1117
sS'Cardinality'
p1118
L2L
sS'Packed'
p1119
NsS'Column_name'
p1120
S'name'
p1121
satp1122
sS'email_setting'
p1123
((lp1124
(dp1125
S'Extra'
p1126
S''
sS'Default'
p1127
S''
sS'Field'
p1128
S'user_id'
p1129
sS'Key'
p1130
S'PRI'
p1131
sS'Null'
p1132
S'NO'
p1133
sS'Type'
p1134
S'mediumint(9)'
p1135
sa(dp1136
g1126
S''
sg1127
S''
sg1128
S'relationship'
p1137
sg1130
S'PRI'
p1138
sg1132
S'NO'
p1139
sg1134
S'tinyint(4)'
p1140
sa(dp1141
g1126
S''
sg1127
S''
sg1128
S'event'
p1142
sg1130
S'PRI'
p1143
sg1132
S'NO'
p1144
sg1134
S'tinyint(4)'
p1145
sa(lp1146
(dp1147
S'Comment'
p1148
S''
sS'Non_unique'
p1149
L0L
sS'Sub_part'
p1150
NsS'Index_type'
p1151
S'BTREE'
p1152
sS'Key_name'
p1153
S'email_setting_user_id_idx'
p1154
sS'Collation'
p1155
S'A'
sS'Null'
p1156
S''
sS'Seq_in_index'
p1157
L1L
sS'Table'
p1158
S'email_setting'
p1159
sS'Cardinality'
p1160
L2L
sS'Packed'
p1161
NsS'Column_name'
p1162
S'user_id'
p1163
sa(dp1164
g1148
S''
sg1149
L0L
sg1150
Nsg1151
S'BTREE'
p1165
sg1153
S'email_setting_user_id_idx'
p1166
sg1155
S'A'
sg1156
S''
sg1157
L2L
sg1158
S'email_setting'
p1167
sg1160
L12L
sg1161
Nsg1162
S'relationship'
p1168
sa(dp1169
g1148
S''
sg1149
L0L
sg1150
Nsg1151
S'BTREE'
p1170
sg1153
S'email_setting_user_id_idx'
p1171
sg1155
S'A'
sg1156
S''
sg1157
L3L
sg1158
S'email_setting'
p1172
sg1160
L63L
sg1161
Nsg1162
S'event'
p1173
satp1174
sS'series'
p1175
((lp1176
(dp1177
S'Extra'
p1178
S'auto_increment'
p1179
sS'Default'
p1180
NsS'Field'
p1181
S'series_id'
p1182
sS'Key'
p1183
S'PRI'
p1184
sS'Null'
p1185
S'NO'
p1186
sS'Type'
p1187
S'mediumint(9)'
p1188
sa(dp1189
g1178
S''
sg1180
Nsg1181
S'creator'
p1190
sg1183
S'MUL'
p1191
sg1185
S'YES'
p1192
sg1187
S'mediumint(9)'
p1193
sa(dp1194
g1178
S''
sg1180
S''
sg1181
S'category'
p1195
sg1183
S''
sg1185
S'NO'
p1196
sg1187
S'smallint(6)'
p1197
sa(dp1198
g1178
S''
sg1180
S''
sg1181
S'subcategory'
p1199
sg1183
S''
sg1185
S'NO'
p1200
sg1187
S'smallint(6)'
p1201
sa(dp1202
g1178
S''
sg1180
S''
sg1181
S'name'
p1203
sg1183
S''
sg1185
S'NO'
p1204
sg1187
S'varchar(64)'
p1205
sa(dp1206
g1178
S''
sg1180
S''
sg1181
S'frequency'
p1207
sg1183
S''
sg1185
S'NO'
p1208
sg1187
S'smallint(6)'
p1209
sa(dp1210
g1178
S''
sg1180
Nsg1181
S'last_viewed'
p1211
sg1183
S''
sg1185
S'YES'
p1212
sg1187
S'datetime'
p1213
sa(dp1214
g1178
S''
sg1180
S''
sg1181
S'query'
p1215
sg1183
S''
sg1185
S'NO'
p1216
sg1187
S'mediumtext'
p1217
sa(dp1218
g1178
S''
sg1180
S'0'
sg1181
S'is_public'
p1219
sg1183
S''
sg1185
S'NO'
p1220
sg1187
S'tinyint(4)'
p1221
sa(lp1222
(dp1223
S'Comment'
p1224
S''
sS'Non_unique'
p1225
L0L
sS'Sub_part'
p1226
NsS'Index_type'
p1227
S'BTREE'
p1228
sS'Key_name'
p1229
S'PRIMARY'
p1230
sS'Collation'
p1231
S'A'
sS'Null'
p1232
S''
sS'Seq_in_index'
p1233
L1L
sS'Table'
p1234
S'series'
p1235
sS'Cardinality'
p1236
L0L
sS'Packed'
p1237
NsS'Column_name'
p1238
S'series_id'
p1239
sa(dp1240
g1224
S''
sg1225
L0L
sg1226
Nsg1227
S'BTREE'
p1241
sg1229
S'series_creator_idx'
p1242
sg1231
S'A'
sg1232
S'YES'
p1243
sg1233
L1L
sg1234
S'series'
p1244
sg1236
L0L
sg1237
Nsg1238
S'creator'
p1245
sa(dp1246
g1224
S''
sg1225
L0L
sg1226
Nsg1227
S'BTREE'
p1247
sg1229
S'series_creator_idx'
p1248
sg1231
S'A'
sg1232
S''
sg1233
L2L
sg1234
S'series'
p1249
sg1236
L0L
sg1237
Nsg1238
S'category'
p1250
sa(dp1251
g1224
S''
sg1225
L0L
sg1226
Nsg1227
S'BTREE'
p1252
sg1229
S'series_creator_idx'
p1253
sg1231
S'A'
sg1232
S''
sg1233
L3L
sg1234
S'series'
p1254
sg1236
L0L
sg1237
Nsg1238
S'subcategory'
p1255
sa(dp1256
g1224
S''
sg1225
L0L
sg1226
Nsg1227
S'BTREE'
p1257
sg1229
S'series_creator_idx'
p1258
sg1231
S'A'
sg1232
S''
sg1233
L4L
sg1234
S'series'
p1259
sg1236
L0L
sg1237
Nsg1238
S'name'
p1260
satp1261
sS'logincookies'
p1262
((lp1263
(dp1264
S'Extra'
p1265
S''
sS'Default'
p1266
S''
sS'Field'
p1267
S'cookie'
p1268
sS'Key'
p1269
S'PRI'
p1270
sS'Null'
p1271
S'NO'
p1272
sS'Type'
p1273
S'varchar(16)'
p1274
sa(dp1275
g1265
S''
sg1266
S''
sg1267
S'userid'
p1276
sg1269
S'MUL'
p1277
sg1271
S'NO'
p1278
sg1273
S'mediumint(9)'
p1279
sa(dp1280
g1265
S''
sg1266
S''
sg1267
S'ipaddr'
p1281
sg1269
S''
sg1271
S'NO'
p1282
sg1273
S'varchar(40)'
p1283
sa(dp1284
g1265
S''
sg1266
S''
sg1267
S'lastused'
p1285
sg1269
S'MUL'
p1286
sg1271
S'NO'
p1287
sg1273
S'datetime'
p1288
sa(lp1289
(dp1290
S'Comment'
p1291
S''
sS'Non_unique'
p1292
L0L
sS'Sub_part'
p1293
NsS'Index_type'
p1294
S'BTREE'
p1295
sS'Key_name'
p1296
S'PRIMARY'
p1297
sS'Collation'
p1298
S'A'
sS'Null'
p1299
S''
sS'Seq_in_index'
p1300
L1L
sS'Table'
p1301
S'logincookies'
p1302
sS'Cardinality'
p1303
L0L
sS'Packed'
p1304
NsS'Column_name'
p1305
S'cookie'
p1306
sa(dp1307
g1291
S''
sg1292
L1L
sg1293
Nsg1294
S'BTREE'
p1308
sg1296
S'logincookies_lastused_idx'
p1309
sg1298
S'A'
sg1299
S''
sg1300
L1L
sg1301
S'logincookies'
p1310
sg1303
L0L
sg1304
Nsg1305
S'lastused'
p1311
sa(dp1312
g1291
S''
sg1292
L1L
sg1293
Nsg1294
S'BTREE'
p1313
sg1296
S'fk_logincookies_userid_profiles_userid'
p1314
sg1298
S'A'
sg1299
S''
sg1300
L1L
sg1301
S'logincookies'
p1315
sg1303
L0L
sg1304
Nsg1305
S'userid'
p1316
satp1317
sS'fielddefs'
p1318
((lp1319
(dp1320
S'Extra'
p1321
S'auto_increment'
p1322
sS'Default'
p1323
NsS'Field'
p1324
S'id'
p1325
sS'Key'
p1326
S'PRI'
p1327
sS'Null'
p1328
S'NO'
p1329
sS'Type'
p1330
S'mediumint(9)'
p1331
sa(dp1332
g1321
S''
sg1323
S''
sg1324
S'name'
p1333
sg1326
S'UNI'
p1334
sg1328
S'NO'
p1335
sg1330
S'varchar(64)'
p1336
sa(dp1337
g1321
S''
sg1323
S'0'
sg1324
S'type'
p1338
sg1326
S''
sg1328
S'NO'
p1339
sg1330
S'smallint(6)'
p1340
sa(dp1341
g1321
S''
sg1323
S'0'
sg1324
S'custom'
p1342
sg1326
S''
sg1328
S'NO'
p1343
sg1330
S'tinyint(4)'
p1344
sa(dp1345
g1321
S''
sg1323
S''
sg1324
S'description'
p1346
sg1326
S''
sg1328
S'NO'
p1347
sg1330
S'tinytext'
p1348
sa(dp1349
g1321
S''
sg1323
S'0'
sg1324
S'mailhead'
p1350
sg1326
S''
sg1328
S'NO'
p1351
sg1330
S'tinyint(4)'
p1352
sa(dp1353
g1321
S''
sg1323
S''
sg1324
S'sortkey'
p1354
sg1326
S'MUL'
p1355
sg1328
S'NO'
p1356
sg1330
S'smallint(6)'
p1357
sa(dp1358
g1321
S''
sg1323
S'0'
sg1324
S'obsolete'
p1359
sg1326
S''
sg1328
S'NO'
p1360
sg1330
S'tinyint(4)'
p1361
sa(dp1362
g1321
S''
sg1323
S'0'
sg1324
S'enter_bug'
p1363
sg1326
S''
sg1328
S'NO'
p1364
sg1330
S'tinyint(4)'
p1365
sa(lp1366
(dp1367
S'Comment'
p1368
S''
sS'Non_unique'
p1369
L0L
sS'Sub_part'
p1370
NsS'Index_type'
p1371
S'BTREE'
p1372
sS'Key_name'
p1373
S'PRIMARY'
p1374
sS'Collation'
p1375
S'A'
sS'Null'
p1376
S''
sS'Seq_in_index'
p1377
L1L
sS'Table'
p1378
S'fielddefs'
p1379
sS'Cardinality'
p1380
L53L
sS'Packed'
p1381
NsS'Column_name'
p1382
S'id'
p1383
sa(dp1384
g1368
S''
sg1369
L0L
sg1370
Nsg1371
S'BTREE'
p1385
sg1373
S'fielddefs_name_idx'
p1386
sg1375
S'A'
sg1376
S''
sg1377
L1L
sg1378
S'fielddefs'
p1387
sg1380
L53L
sg1381
Nsg1382
S'name'
p1388
sa(dp1389
g1368
S''
sg1369
L1L
sg1370
Nsg1371
S'BTREE'
p1390
sg1373
S'fielddefs_sortkey_idx'
p1391
sg1375
S'A'
sg1376
S''
sg1377
L1L
sg1378
S'fielddefs'
p1392
sg1380
L53L
sg1381
Nsg1382
S'sortkey'
p1393
satp1394
sS'whine_events'
p1395
((lp1396
(dp1397
S'Extra'
p1398
S'auto_increment'
p1399
sS'Default'
p1400
NsS'Field'
p1401
S'id'
p1402
sS'Key'
p1403
S'PRI'
p1404
sS'Null'
p1405
S'NO'
p1406
sS'Type'
p1407
S'mediumint(9)'
p1408
sa(dp1409
g1398
S''
sg1400
S''
sg1401
S'owner_userid'
p1410
sg1403
S'MUL'
p1411
sg1405
S'NO'
p1412
sg1407
S'mediumint(9)'
p1413
sa(dp1414
g1398
S''
sg1400
Nsg1401
S'subject'
p1415
sg1403
S''
sg1405
S'YES'
p1416
sg1407
S'varchar(128)'
p1417
sa(dp1418
g1398
S''
sg1400
Nsg1401
S'body'
p1419
sg1403
S''
sg1405
S'YES'
p1420
sg1407
S'mediumtext'
p1421
sa(lp1422
(dp1423
S'Comment'
p1424
S''
sS'Non_unique'
p1425
L0L
sS'Sub_part'
p1426
NsS'Index_type'
p1427
S'BTREE'
p1428
sS'Key_name'
p1429
S'PRIMARY'
p1430
sS'Collation'
p1431
S'A'
sS'Null'
p1432
S''
sS'Seq_in_index'
p1433
L1L
sS'Table'
p1434
S'whine_events'
p1435
sS'Cardinality'
p1436
L0L
sS'Packed'
p1437
NsS'Column_name'
p1438
S'id'
p1439
sa(dp1440
g1424
S''
sg1425
L1L
sg1426
Nsg1427
S'BTREE'
p1441
sg1429
S'fk_whine_events_owner_userid_profiles_userid'
p1442
sg1431
S'A'
sg1432
S''
sg1433
L1L
sg1434
S'whine_events'
p1443
sg1436
L0L
sg1437
Nsg1438
S'owner_userid'
p1444
satp1445
sS'flaginclusions'
p1446
((lp1447
(dp1448
S'Extra'
p1449
S''
sS'Default'
p1450
S''
sS'Field'
p1451
S'type_id'
p1452
sS'Key'
p1453
S'MUL'
p1454
sS'Null'
p1455
S'NO'
p1456
sS'Type'
p1457
S'smallint(6)'
p1458
sa(dp1459
g1449
S''
sg1450
Nsg1451
S'product_id'
p1460
sg1453
S''
sg1455
S'YES'
p1461
sg1457
S'smallint(6)'
p1462
sa(dp1463
g1449
S''
sg1450
Nsg1451
S'component_id'
p1464
sg1453
S''
sg1455
S'YES'
p1465
sg1457
S'smallint(6)'
p1466
sa(lp1467
(dp1468
S'Comment'
p1469
S''
sS'Non_unique'
p1470
L1L
sS'Sub_part'
p1471
NsS'Index_type'
p1472
S'BTREE'
p1473
sS'Key_name'
p1474
S'flaginclusions_type_id_idx'
p1475
sS'Collation'
p1476
S'A'
sS'Null'
p1477
S''
sS'Seq_in_index'
p1478
L1L
sS'Table'
p1479
S'flaginclusions'
p1480
sS'Cardinality'
p1481
L0L
sS'Packed'
p1482
NsS'Column_name'
p1483
S'type_id'
p1484
sa(dp1485
g1469
S''
sg1470
L1L
sg1471
Nsg1472
S'BTREE'
p1486
sg1474
S'flaginclusions_type_id_idx'
p1487
sg1476
S'A'
sg1477
S'YES'
p1488
sg1478
L2L
sg1479
S'flaginclusions'
p1489
sg1481
L0L
sg1482
Nsg1483
S'product_id'
p1490
sa(dp1491
g1469
S''
sg1470
L1L
sg1471
Nsg1472
S'BTREE'
p1492
sg1474
S'flaginclusions_type_id_idx'
p1493
sg1476
S'A'
sg1477
S'YES'
p1494
sg1478
L3L
sg1479
S'flaginclusions'
p1495
sg1481
L0L
sg1482
Nsg1483
S'component_id'
p1496
satp1497
sS'profiles_activity'
p1498
((lp1499
(dp1500
S'Extra'
p1501
S''
sS'Default'
p1502
S''
sS'Field'
p1503
S'userid'
p1504
sS'Key'
p1505
S'MUL'
p1506
sS'Null'
p1507
S'NO'
p1508
sS'Type'
p1509
S'mediumint(9)'
p1510
sa(dp1511
g1501
S''
sg1502
S''
sg1503
S'who'
p1512
sg1505
S'MUL'
p1513
sg1507
S'NO'
p1514
sg1509
S'mediumint(9)'
p1515
sa(dp1516
g1501
S''
sg1502
S''
sg1503
S'profiles_when'
p1517
sg1505
S'MUL'
p1518
sg1507
S'NO'
p1519
sg1509
S'datetime'
p1520
sa(dp1521
g1501
S''
sg1502
S''
sg1503
S'fieldid'
p1522
sg1505
S'MUL'
p1523
sg1507
S'NO'
p1524
sg1509
S'mediumint(9)'
p1525
sa(dp1526
g1501
S''
sg1502
Nsg1503
S'oldvalue'
p1527
sg1505
S''
sg1507
S'YES'
p1528
sg1509
S'tinytext'
p1529
sa(dp1530
g1501
S''
sg1502
Nsg1503
S'newvalue'
p1531
sg1505
S''
sg1507
S'YES'
p1532
sg1509
S'tinytext'
p1533
sa(lp1534
(dp1535
S'Comment'
p1536
S''
sS'Non_unique'
p1537
L1L
sS'Sub_part'
p1538
NsS'Index_type'
p1539
S'BTREE'
p1540
sS'Key_name'
p1541
S'profiles_activity_userid_idx'
p1542
sS'Collation'
p1543
S'A'
sS'Null'
p1544
S''
sS'Seq_in_index'
p1545
L1L
sS'Table'
p1546
S'profiles_activity'
p1547
sS'Cardinality'
p1548
L1L
sS'Packed'
p1549
NsS'Column_name'
p1550
S'userid'
p1551
sa(dp1552
g1536
S''
sg1537
L1L
sg1538
Nsg1539
S'BTREE'
p1553
sg1541
S'profiles_activity_profiles_when_idx'
p1554
sg1543
S'A'
sg1544
S''
sg1545
L1L
sg1546
S'profiles_activity'
p1555
sg1548
L1L
sg1549
Nsg1550
S'profiles_when'
p1556
sa(dp1557
g1536
S''
sg1537
L1L
sg1538
Nsg1539
S'BTREE'
p1558
sg1541
S'profiles_activity_fieldid_idx'
p1559
sg1543
S'A'
sg1544
S''
sg1545
L1L
sg1546
S'profiles_activity'
p1560
sg1548
L1L
sg1549
Nsg1550
S'fieldid'
p1561
sa(dp1562
g1536
S''
sg1537
L1L
sg1538
Nsg1539
S'BTREE'
p1563
sg1541
S'fk_profiles_activity_who_profiles_userid'
p1564
sg1543
S'A'
sg1544
S''
sg1545
L1L
sg1546
S'profiles_activity'
p1565
sg1548
L1L
sg1549
Nsg1550
S'who'
p1566
satp1567
sS'bugs_activity'
p1568
((lp1569
(dp1570
S'Extra'
p1571
S''
sS'Default'
p1572
S''
sS'Field'
p1573
S'bug_id'
p1574
sS'Key'
p1575
S'MUL'
p1576
sS'Null'
p1577
S'NO'
p1578
sS'Type'
p1579
S'mediumint(9)'
p1580
sa(dp1581
g1571
S''
sg1572
Nsg1573
S'attach_id'
p1582
sg1575
S''
sg1577
S'YES'
p1583
sg1579
S'mediumint(9)'
p1584
sa(dp1585
g1571
S''
sg1572
S''
sg1573
S'who'
p1586
sg1575
S'MUL'
p1587
sg1577
S'NO'
p1588
sg1579
S'mediumint(9)'
p1589
sa(dp1590
g1571
S''
sg1572
S''
sg1573
S'bug_when'
p1591
sg1575
S'MUL'
p1592
sg1577
S'NO'
p1593
sg1579
S'datetime'
p1594
sa(dp1595
g1571
S''
sg1572
S''
sg1573
S'fieldid'
p1596
sg1575
S'MUL'
p1597
sg1577
S'NO'
p1598
sg1579
S'mediumint(9)'
p1599
sa(dp1600
g1571
S''
sg1572
Nsg1573
S'added'
p1601
sg1575
S''
sg1577
S'YES'
p1602
sg1579
S'tinytext'
p1603
sa(dp1604
g1571
S''
sg1572
Nsg1573
S'removed'
p1605
sg1575
S''
sg1577
S'YES'
p1606
sg1579
S'tinytext'
p1607
sa(lp1608
(dp1609
S'Comment'
p1610
S''
sS'Non_unique'
p1611
L1L
sS'Sub_part'
p1612
NsS'Index_type'
p1613
S'BTREE'
p1614
sS'Key_name'
p1615
S'bugs_activity_bug_id_idx'
p1616
sS'Collation'
p1617
S'A'
sS'Null'
p1618
S''
sS'Seq_in_index'
p1619
L1L
sS'Table'
p1620
S'bugs_activity'
p1621
sS'Cardinality'
p1622
L0L
sS'Packed'
p1623
NsS'Column_name'
p1624
S'bug_id'
p1625
sa(dp1626
g1610
S''
sg1611
L1L
sg1612
Nsg1613
S'BTREE'
p1627
sg1615
S'bugs_activity_who_idx'
p1628
sg1617
S'A'
sg1618
S''
sg1619
L1L
sg1620
S'bugs_activity'
p1629
sg1622
L0L
sg1623
Nsg1624
S'who'
p1630
sa(dp1631
g1610
S''
sg1611
L1L
sg1612
Nsg1613
S'BTREE'
p1632
sg1615
S'bugs_activity_bug_when_idx'
p1633
sg1617
S'A'
sg1618
S''
sg1619
L1L
sg1620
S'bugs_activity'
p1634
sg1622
L0L
sg1623
Nsg1624
S'bug_when'
p1635
sa(dp1636
g1610
S''
sg1611
L1L
sg1612
Nsg1613
S'BTREE'
p1637
sg1615
S'bugs_activity_fieldid_idx'
p1638
sg1617
S'A'
sg1618
S''
sg1619
L1L
sg1620
S'bugs_activity'
p1639
sg1622
L0L
sg1623
Nsg1624
S'fieldid'
p1640
satp1641
sS'watch'
p1642
((lp1643
(dp1644
S'Extra'
p1645
S''
sS'Default'
p1646
S''
sS'Field'
p1647
S'watcher'
p1648
sS'Key'
p1649
S'PRI'
p1650
sS'Null'
p1651
S'NO'
p1652
sS'Type'
p1653
S'mediumint(9)'
p1654
sa(dp1655
g1645
S''
sg1646
S''
sg1647
S'watched'
p1656
sg1649
S'PRI'
p1657
sg1651
S'NO'
p1658
sg1653
S'mediumint(9)'
p1659
sa(lp1660
(dp1661
S'Comment'
p1662
S''
sS'Non_unique'
p1663
L0L
sS'Sub_part'
p1664
NsS'Index_type'
p1665
S'BTREE'
p1666
sS'Key_name'
p1667
S'watch_watcher_idx'
p1668
sS'Collation'
p1669
S'A'
sS'Null'
p1670
S''
sS'Seq_in_index'
p1671
L1L
sS'Table'
p1672
S'watch'
p1673
sS'Cardinality'
p1674
L0L
sS'Packed'
p1675
NsS'Column_name'
p1676
S'watcher'
p1677
sa(dp1678
g1662
S''
sg1663
L0L
sg1664
Nsg1665
S'BTREE'
p1679
sg1667
S'watch_watcher_idx'
p1680
sg1669
S'A'
sg1670
S''
sg1671
L2L
sg1672
S'watch'
p1681
sg1674
L0L
sg1675
Nsg1676
S'watched'
p1682
sa(dp1683
g1662
S''
sg1663
L1L
sg1664
Nsg1665
S'BTREE'
p1684
sg1667
S'watch_watched_idx'
p1685
sg1669
S'A'
sg1670
S''
sg1671
L1L
sg1672
S'watch'
p1686
sg1674
L0L
sg1675
Nsg1676
S'watched'
p1687
satp1688
sS'bug_severity'
p1689
((lp1690
(dp1691
S'Extra'
p1692
S'auto_increment'
p1693
sS'Default'
p1694
NsS'Field'
p1695
S'id'
p1696
sS'Key'
p1697
S'PRI'
p1698
sS'Null'
p1699
S'NO'
p1700
sS'Type'
p1701
S'smallint(6)'
p1702
sa(dp1703
g1692
S''
sg1694
S''
sg1695
S'value'
p1704
sg1697
S'UNI'
p1705
sg1699
S'NO'
p1706
sg1701
S'varchar(64)'
p1707
sa(dp1708
g1692
S''
sg1694
S'0'
sg1695
S'sortkey'
p1709
sg1697
S'MUL'
p1710
sg1699
S'NO'
p1711
sg1701
S'smallint(6)'
p1712
sa(dp1713
g1692
S''
sg1694
S'1'
sg1695
S'isactive'
p1714
sg1697
S''
sg1699
S'NO'
p1715
sg1701
S'tinyint(4)'
p1716
sa(lp1717
(dp1718
S'Comment'
p1719
S''
sS'Non_unique'
p1720
L0L
sS'Sub_part'
p1721
NsS'Index_type'
p1722
S'BTREE'
p1723
sS'Key_name'
p1724
S'PRIMARY'
p1725
sS'Collation'
p1726
S'A'
sS'Null'
p1727
S''
sS'Seq_in_index'
p1728
L1L
sS'Table'
p1729
S'bug_severity'
p1730
sS'Cardinality'
p1731
L2L
sS'Packed'
p1732
NsS'Column_name'
p1733
S'id'
p1734
sa(dp1735
g1719
S''
sg1720
L0L
sg1721
Nsg1722
S'BTREE'
p1736
sg1724
S'bug_severity_value_idx'
p1737
sg1726
S'A'
sg1727
S''
sg1728
L1L
sg1729
S'bug_severity'
p1738
sg1731
L2L
sg1732
Nsg1733
S'value'
p1739
sa(dp1740
g1719
S''
sg1720
L1L
sg1721
Nsg1722
S'BTREE'
p1741
sg1724
S'bug_severity_sortkey_idx'
p1742
sg1726
S'A'
sg1727
S''
sg1728
L1L
sg1729
S'bug_severity'
p1743
sg1731
L2L
sg1732
Nsg1733
S'sortkey'
p1744
sa(dp1745
g1719
S''
sg1720
L1L
sg1721
Nsg1722
S'BTREE'
p1746
sg1724
S'bug_severity_sortkey_idx'
p1747
sg1726
S'A'
sg1727
S''
sg1728
L2L
sg1729
S'bug_severity'
p1748
sg1731
L2L
sg1732
Nsg1733
S'value'
p1749
satp1750
sS'namedqueries'
p1751
((lp1752
(dp1753
S'Extra'
p1754
S'auto_increment'
p1755
sS'Default'
p1756
NsS'Field'
p1757
S'id'
p1758
sS'Key'
p1759
S'PRI'
p1760
sS'Null'
p1761
S'NO'
p1762
sS'Type'
p1763
S'mediumint(9)'
p1764
sa(dp1765
g1754
S''
sg1756
S''
sg1757
S'userid'
p1766
sg1759
S'MUL'
p1767
sg1761
S'NO'
p1768
sg1763
S'mediumint(9)'
p1769
sa(dp1770
g1754
S''
sg1756
S''
sg1757
S'name'
p1771
sg1759
S''
sg1761
S'NO'
p1772
sg1763
S'varchar(64)'
p1773
sa(dp1774
g1754
S''
sg1756
S''
sg1757
S'query'
p1775
sg1759
S''
sg1761
S'NO'
p1776
sg1763
S'mediumtext'
p1777
sa(dp1778
g1754
S''
sg1756
S'0'
sg1757
S'query_type'
p1779
sg1759
S''
sg1761
S'NO'
p1780
sg1763
S'tinyint(4)'
p1781
sa(lp1782
(dp1783
S'Comment'
p1784
S''
sS'Non_unique'
p1785
L0L
sS'Sub_part'
p1786
NsS'Index_type'
p1787
S'BTREE'
p1788
sS'Key_name'
p1789
S'PRIMARY'
p1790
sS'Collation'
p1791
S'A'
sS'Null'
p1792
S''
sS'Seq_in_index'
p1793
L1L
sS'Table'
p1794
S'namedqueries'
p1795
sS'Cardinality'
p1796
L0L
sS'Packed'
p1797
NsS'Column_name'
p1798
S'id'
p1799
sa(dp1800
g1784
S''
sg1785
L0L
sg1786
Nsg1787
S'BTREE'
p1801
sg1789
S'namedqueries_userid_idx'
p1802
sg1791
S'A'
sg1792
S''
sg1793
L1L
sg1794
S'namedqueries'
p1803
sg1796
L0L
sg1797
Nsg1798
S'userid'
p1804
sa(dp1805
g1784
S''
sg1785
L0L
sg1786
Nsg1787
S'BTREE'
p1806
sg1789
S'namedqueries_userid_idx'
p1807
sg1791
S'A'
sg1792
S''
sg1793
L2L
sg1794
S'namedqueries'
p1808
sg1796
L0L
sg1797
Nsg1798
S'name'
p1809
satp1810
sS'bz_schema'
p1811
((lp1812
(dp1813
S'Extra'
p1814
S''
sS'Default'
p1815
S''
sS'Field'
p1816
S'schema_data'
p1817
sS'Key'
p1818
S''
sS'Null'
p1819
S'NO'
p1820
sS'Type'
p1821
S'longblob'
p1822
sa(dp1823
g1814
S''
sg1815
S''
sg1816
S'version'
p1824
sg1818
S''
sg1819
S'NO'
p1825
sg1821
S'decimal(3,2)'
p1826
sa(ltp1827
sS'tokens'
p1828
((lp1829
(dp1830
S'Extra'
p1831
S''
sS'Default'
p1832
NsS'Field'
p1833
S'userid'
p1834
sS'Key'
p1835
S'MUL'
p1836
sS'Null'
p1837
S'YES'
p1838
sS'Type'
p1839
S'mediumint(9)'
p1840
sa(dp1841
g1831
S''
sg1832
S''
sg1833
S'issuedate'
p1842
sg1835
S''
sg1837
S'NO'
p1843
sg1839
S'datetime'
p1844
sa(dp1845
g1831
S''
sg1832
S''
sg1833
S'token'
p1846
sg1835
S'PRI'
p1847
sg1837
S'NO'
p1848
sg1839
S'varchar(16)'
p1849
sa(dp1850
g1831
S''
sg1832
S''
sg1833
S'tokentype'
p1851
sg1835
S''
sg1837
S'NO'
p1852
sg1839
S'varchar(8)'
p1853
sa(dp1854
g1831
S''
sg1832
Nsg1833
S'eventdata'
p1855
sg1835
S''
sg1837
S'YES'
p1856
sg1839
S'tinytext'
p1857
sa(lp1858
(dp1859
S'Comment'
p1860
S''
sS'Non_unique'
p1861
L0L
sS'Sub_part'
p1862
NsS'Index_type'
p1863
S'BTREE'
p1864
sS'Key_name'
p1865
S'PRIMARY'
p1866
sS'Collation'
p1867
S'A'
sS'Null'
p1868
S''
sS'Seq_in_index'
p1869
L1L
sS'Table'
p1870
S'tokens'
p1871
sS'Cardinality'
p1872
L0L
sS'Packed'
p1873
NsS'Column_name'
p1874
S'token'
p1875
sa(dp1876
g1860
S''
sg1861
L1L
sg1862
Nsg1863
S'BTREE'
p1877
sg1865
S'tokens_userid_idx'
p1878
sg1867
S'A'
sg1868
S'YES'
p1879
sg1869
L1L
sg1870
S'tokens'
p1880
sg1872
L0L
sg1873
Nsg1874
S'userid'
p1881
satp1882
sS'whine_schedules'
p1883
((lp1884
(dp1885
S'Extra'
p1886
S'auto_increment'
p1887
sS'Default'
p1888
NsS'Field'
p1889
S'id'
p1890
sS'Key'
p1891
S'PRI'
p1892
sS'Null'
p1893
S'NO'
p1894
sS'Type'
p1895
S'mediumint(9)'
p1896
sa(dp1897
g1886
S''
sg1888
S''
sg1889
S'eventid'
p1898
sg1891
S'MUL'
p1899
sg1893
S'NO'
p1900
sg1895
S'mediumint(9)'
p1901
sa(dp1902
g1886
S''
sg1888
Nsg1889
S'run_day'
p1903
sg1891
S''
sg1893
S'YES'
p1904
sg1895
S'varchar(32)'
p1905
sa(dp1906
g1886
S''
sg1888
Nsg1889
S'run_time'
p1907
sg1891
S''
sg1893
S'YES'
p1908
sg1895
S'varchar(32)'
p1909
sa(dp1910
g1886
S''
sg1888
Nsg1889
S'run_next'
p1911
sg1891
S'MUL'
p1912
sg1893
S'YES'
p1913
sg1895
S'datetime'
p1914
sa(dp1915
g1886
S''
sg1888
S''
sg1889
S'mailto'
p1916
sg1891
S''
sg1893
S'NO'
p1917
sg1895
S'mediumint(9)'
p1918
sa(dp1919
g1886
S''
sg1888
S'0'
sg1889
S'mailto_type'
p1920
sg1891
S''
sg1893
S'NO'
p1921
sg1895
S'smallint(6)'
p1922
sa(lp1923
(dp1924
S'Comment'
p1925
S''
sS'Non_unique'
p1926
L0L
sS'Sub_part'
p1927
NsS'Index_type'
p1928
S'BTREE'
p1929
sS'Key_name'
p1930
S'PRIMARY'
p1931
sS'Collation'
p1932
S'A'
sS'Null'
p1933
S''
sS'Seq_in_index'
p1934
L1L
sS'Table'
p1935
S'whine_schedules'
p1936
sS'Cardinality'
p1937
L0L
sS'Packed'
p1938
NsS'Column_name'
p1939
S'id'
p1940
sa(dp1941
g1925
S''
sg1926
L1L
sg1927
Nsg1928
S'BTREE'
p1942
sg1930
S'whine_schedules_run_next_idx'
p1943
sg1932
S'A'
sg1933
S'YES'
p1944
sg1934
L1L
sg1935
S'whine_schedules'
p1945
sg1937
L0L
sg1938
Nsg1939
S'run_next'
p1946
sa(dp1947
g1925
S''
sg1926
L1L
sg1927
Nsg1928
S'BTREE'
p1948
sg1930
S'whine_schedules_eventid_idx'
p1949
sg1932
S'A'
sg1933
S''
sg1934
L1L
sg1935
S'whine_schedules'
p1950
sg1937
L0L
sg1938
Nsg1939
S'eventid'
p1951
satp1952
sS'dependencies'
p1953
((lp1954
(dp1955
S'Extra'
p1956
S''
sS'Default'
p1957
S''
sS'Field'
p1958
S'blocked'
p1959
sS'Key'
p1960
S'MUL'
p1961
sS'Null'
p1962
S'NO'
p1963
sS'Type'
p1964
S'mediumint(9)'
p1965
sa(dp1966
g1956
S''
sg1957
S''
sg1958
S'dependson'
p1967
sg1960
S'MUL'
p1968
sg1962
S'NO'
p1969
sg1964
S'mediumint(9)'
p1970
sa(lp1971
(dp1972
S'Comment'
p1973
S''
sS'Non_unique'
p1974
L1L
sS'Sub_part'
p1975
NsS'Index_type'
p1976
S'BTREE'
p1977
sS'Key_name'
p1978
S'dependencies_blocked_idx'
p1979
sS'Collation'
p1980
S'A'
sS'Null'
p1981
S''
sS'Seq_in_index'
p1982
L1L
sS'Table'
p1983
S'dependencies'
p1984
sS'Cardinality'
p1985
L0L
sS'Packed'
p1986
NsS'Column_name'
p1987
S'blocked'
p1988
sa(dp1989
g1973
S''
sg1974
L1L
sg1975
Nsg1976
S'BTREE'
p1990
sg1978
S'dependencies_dependson_idx'
p1991
sg1980
S'A'
sg1981
S''
sg1982
L1L
sg1983
S'dependencies'
p1992
sg1985
L0L
sg1986
Nsg1987
S'dependson'
p1993
satp1994
sS'category_group_map'
p1995
((lp1996
(dp1997
S'Extra'
p1998
S''
sS'Default'
p1999
S''
sS'Field'
p2000
S'category_id'
p2001
sS'Key'
p2002
S'PRI'
p2003
sS'Null'
p2004
S'NO'
p2005
sS'Type'
p2006
S'smallint(6)'
p2007
sa(dp2008
g1998
S''
sg1999
S''
sg2000
S'group_id'
p2009
sg2002
S'PRI'
p2010
sg2004
S'NO'
p2011
sg2006
S'mediumint(9)'
p2012
sa(lp2013
(dp2014
S'Comment'
p2015
S''
sS'Non_unique'
p2016
L0L
sS'Sub_part'
p2017
NsS'Index_type'
p2018
S'BTREE'
p2019
sS'Key_name'
p2020
S'category_group_map_category_id_idx'
p2021
sS'Collation'
p2022
S'A'
sS'Null'
p2023
S''
sS'Seq_in_index'
p2024
L1L
sS'Table'
p2025
S'category_group_map'
p2026
sS'Cardinality'
p2027
L0L
sS'Packed'
p2028
NsS'Column_name'
p2029
S'category_id'
p2030
sa(dp2031
g2015
S''
sg2016
L0L
sg2017
Nsg2018
S'BTREE'
p2032
sg2020
S'category_group_map_category_id_idx'
p2033
sg2022
S'A'
sg2023
S''
sg2024
L2L
sg2025
S'category_group_map'
p2034
sg2027
L0L
sg2028
Nsg2029
S'group_id'
p2035
satp2036
sS'groups'
p2037
((lp2038
(dp2039
S'Extra'
p2040
S'auto_increment'
p2041
sS'Default'
p2042
NsS'Field'
p2043
S'id'
p2044
sS'Key'
p2045
S'PRI'
p2046
sS'Null'
p2047
S'NO'
p2048
sS'Type'
p2049
S'mediumint(9)'
p2050
sa(dp2051
g2040
S''
sg2042
S''
sg2043
S'name'
p2052
sg2045
S'UNI'
p2053
sg2047
S'NO'
p2054
sg2049
S'varchar(255)'
p2055
sa(dp2056
g2040
S''
sg2042
S''
sg2043
S'description'
p2057
sg2045
S''
sg2047
S'NO'
p2058
sg2049
S'mediumtext'
p2059
sa(dp2060
g2040
S''
sg2042
S''
sg2043
S'isbuggroup'
p2061
sg2045
S''
sg2047
S'NO'
p2062
sg2049
S'tinyint(4)'
p2063
sa(dp2064
g2040
S''
sg2042
S''
sg2043
S'userregexp'
p2065
sg2045
S''
sg2047
S'NO'
p2066
sg2049
S'tinytext'
p2067
sa(dp2068
g2040
S''
sg2042
S'1'
sg2043
S'isactive'
p2069
sg2045
S''
sg2047
S'NO'
p2070
sg2049
S'tinyint(4)'
p2071
sa(dp2072
g2040
S''
sg2042
Nsg2043
S'icon_url'
p2073
sg2045
S''
sg2047
S'YES'
p2074
sg2049
S'tinytext'
p2075
sa(lp2076
(dp2077
S'Comment'
p2078
S''
sS'Non_unique'
p2079
L0L
sS'Sub_part'
p2080
NsS'Index_type'
p2081
S'BTREE'
p2082
sS'Key_name'
p2083
S'PRIMARY'
p2084
sS'Collation'
p2085
S'A'
sS'Null'
p2086
S''
sS'Seq_in_index'
p2087
L1L
sS'Table'
p2088
S'groups'
p2089
sS'Cardinality'
p2090
L2L
sS'Packed'
p2091
NsS'Column_name'
p2092
S'id'
p2093
sa(dp2094
g2078
S''
sg2079
L0L
sg2080
Nsg2081
S'BTREE'
p2095
sg2083
S'groups_name_idx'
p2096
sg2085
S'A'
sg2086
S''
sg2087
L1L
sg2088
S'groups'
p2097
sg2090
L2L
sg2091
Nsg2092
S'name'
p2098
satp2099
sS'status_workflow'
p2100
((lp2101
(dp2102
S'Extra'
p2103
S''
sS'Default'
p2104
NsS'Field'
p2105
S'old_status'
p2106
sS'Key'
p2107
S'MUL'
p2108
sS'Null'
p2109
S'YES'
p2110
sS'Type'
p2111
S'smallint(6)'
p2112
sa(dp2113
g2103
S''
sg2104
S''
sg2105
S'new_status'
p2114
sg2107
S''
sg2109
S'NO'
p2115
sg2111
S'smallint(6)'
p2116
sa(dp2117
g2103
S''
sg2104
S'0'
sg2105
S'require_comment'
p2118
sg2107
S''
sg2109
S'NO'
p2119
sg2111
S'tinyint(4)'
p2120
sa(lp2121
(dp2122
S'Comment'
p2123
S''
sS'Non_unique'
p2124
L0L
sS'Sub_part'
p2125
NsS'Index_type'
p2126
S'BTREE'
p2127
sS'Key_name'
p2128
S'status_workflow_idx'
p2129
sS'Collation'
p2130
S'A'
sS'Null'
p2131
S'YES'
p2132
sS'Seq_in_index'
p2133
L1L
sS'Table'
p2134
S'status_workflow'
p2135
sS'Cardinality'
p2136
L24L
sS'Packed'
p2137
NsS'Column_name'
p2138
S'old_status'
p2139
sa(dp2140
g2123
S''
sg2124
L0L
sg2125
Nsg2126
S'BTREE'
p2141
sg2128
S'status_workflow_idx'
p2142
sg2130
S'A'
sg2131
S''
sg2133
L2L
sg2134
S'status_workflow'
p2143
sg2136
L24L
sg2137
Nsg2138
S'new_status'
p2144
satp2145
sS'milestones'
p2146
((lp2147
(dp2148
S'Extra'
p2149
S'auto_increment'
p2150
sS'Default'
p2151
NsS'Field'
p2152
S'id'
p2153
sS'Key'
p2154
S'PRI'
p2155
sS'Null'
p2156
S'NO'
p2157
sS'Type'
p2158
S'mediumint(9)'
p2159
sa(dp2160
g2149
S''
sg2151
S''
sg2152
S'product_id'
p2161
sg2154
S'MUL'
p2162
sg2156
S'NO'
p2163
sg2158
S'smallint(6)'
p2164
sa(dp2165
g2149
S''
sg2151
S''
sg2152
S'value'
p2166
sg2154
S''
sg2156
S'NO'
p2167
sg2158
S'varchar(20)'
p2168
sa(dp2169
g2149
S''
sg2151
S'0'
sg2152
S'sortkey'
p2170
sg2154
S''
sg2156
S'NO'
p2171
sg2158
S'smallint(6)'
p2172
sa(lp2173
(dp2174
S'Comment'
p2175
S''
sS'Non_unique'
p2176
L0L
sS'Sub_part'
p2177
NsS'Index_type'
p2178
S'BTREE'
p2179
sS'Key_name'
p2180
S'PRIMARY'
p2181
sS'Collation'
p2182
S'A'
sS'Null'
p2183
S''
sS'Seq_in_index'
p2184
L1L
sS'Table'
p2185
S'milestones'
p2186
sS'Cardinality'
p2187
L1L
sS'Packed'
p2188
NsS'Column_name'
p2189
S'id'
p2190
sa(dp2191
g2175
S''
sg2176
L0L
sg2177
Nsg2178
S'BTREE'
p2192
sg2180
S'milestones_product_id_idx'
p2193
sg2182
S'A'
sg2183
S''
sg2184
L1L
sg2185
S'milestones'
p2194
sg2187
L1L
sg2188
Nsg2189
S'product_id'
p2195
sa(dp2196
g2175
S''
sg2176
L0L
sg2177
Nsg2178
S'BTREE'
p2197
sg2180
S'milestones_product_id_idx'
p2198
sg2182
S'A'
sg2183
S''
sg2184
L2L
sg2185
S'milestones'
p2199
sg2187
L1L
sg2188
Nsg2189
S'value'
p2200
satp2201
sS'classifications'
p2202
((lp2203
(dp2204
S'Extra'
p2205
S'auto_increment'
p2206
sS'Default'
p2207
NsS'Field'
p2208
S'id'
p2209
sS'Key'
p2210
S'PRI'
p2211
sS'Null'
p2212
S'NO'
p2213
sS'Type'
p2214
S'smallint(6)'
p2215
sa(dp2216
g2205
S''
sg2207
S''
sg2208
S'name'
p2217
sg2210
S'UNI'
p2218
sg2212
S'NO'
p2219
sg2214
S'varchar(64)'
p2220
sa(dp2221
g2205
S''
sg2207
Nsg2208
S'description'
p2222
sg2210
S''
sg2212
S'YES'
p2223
sg2214
S'mediumtext'
p2224
sa(dp2225
g2205
S''
sg2207
S'0'
sg2208
S'sortkey'
p2226
sg2210
S''
sg2212
S'NO'
p2227
sg2214
S'smallint(6)'
p2228
sa(lp2229
(dp2230
S'Comment'
p2231
S''
sS'Non_unique'
p2232
L0L
sS'Sub_part'
p2233
NsS'Index_type'
p2234
S'BTREE'
p2235
sS'Key_name'
p2236
S'PRIMARY'
p2237
sS'Collation'
p2238
S'A'
sS'Null'
p2239
S''
sS'Seq_in_index'
p2240
L1L
sS'Table'
p2241
S'classifications'
p2242
sS'Cardinality'
p2243
L1L
sS'Packed'
p2244
NsS'Column_name'
p2245
S'id'
p2246
sa(dp2247
g2231
S''
sg2232
L0L
sg2233
Nsg2234
S'BTREE'
p2248
sg2236
S'classifications_name_idx'
p2249
sg2238
S'A'
sg2239
S''
sg2240
L1L
sg2241
S'classifications'
p2250
sg2243
L1L
sg2244
Nsg2245
S'name'
p2251
satp2252
sS'longdescs'
p2253
((lp2254
(dp2255
S'Extra'
p2256
S'auto_increment'
p2257
sS'Default'
p2258
NsS'Field'
p2259
S'comment_id'
p2260
sS'Key'
p2261
S'PRI'
p2262
sS'Null'
p2263
S'NO'
p2264
sS'Type'
p2265
S'mediumint(9)'
p2266
sa(dp2267
g2256
S''
sg2258
S''
sg2259
S'bug_id'
p2268
sg2261
S'MUL'
p2269
sg2263
S'NO'
p2270
sg2265
S'mediumint(9)'
p2271
sa(dp2272
g2256
S''
sg2258
S''
sg2259
S'who'
p2273
sg2261
S'MUL'
p2274
sg2263
S'NO'
p2275
sg2265
S'mediumint(9)'
p2276
sa(dp2277
g2256
S''
sg2258
S''
sg2259
S'bug_when'
p2278
sg2261
S'MUL'
p2279
sg2263
S'NO'
p2280
sg2265
S'datetime'
p2281
sa(dp2282
g2256
S''
sg2258
S'0.00'
p2283
sg2259
S'work_time'
p2284
sg2261
S''
sg2263
S'NO'
p2285
sg2265
S'decimal(5,2)'
p2286
sa(dp2287
g2256
S''
sg2258
S''
sg2259
S'thetext'
p2288
sg2261
S'MUL'
p2289
sg2263
S'NO'
p2290
sg2265
S'mediumtext'
p2291
sa(dp2292
g2256
S''
sg2258
S'0'
sg2259
S'isprivate'
p2293
sg2261
S''
sg2263
S'NO'
p2294
sg2265
S'tinyint(4)'
p2295
sa(dp2296
g2256
S''
sg2258
S'0'
sg2259
S'already_wrapped'
p2297
sg2261
S''
sg2263
S'NO'
p2298
sg2265
S'tinyint(4)'
p2299
sa(dp2300
g2256
S''
sg2258
S'0'
sg2259
S'type'
p2301
sg2261
S''
sg2263
S'NO'
p2302
sg2265
S'smallint(6)'
p2303
sa(dp2304
g2256
S''
sg2258
Nsg2259
S'extra_data'
p2305
sg2261
S''
sg2263
S'YES'
p2306
sg2265
S'varchar(255)'
p2307
sa(lp2308
(dp2309
S'Comment'
p2310
S''
sS'Non_unique'
p2311
L0L
sS'Sub_part'
p2312
NsS'Index_type'
p2313
S'BTREE'
p2314
sS'Key_name'
p2315
S'PRIMARY'
p2316
sS'Collation'
p2317
S'A'
sS'Null'
p2318
S''
sS'Seq_in_index'
p2319
L1L
sS'Table'
p2320
S'longdescs'
p2321
sS'Cardinality'
p2322
L0L
sS'Packed'
p2323
NsS'Column_name'
p2324
S'comment_id'
p2325
sa(dp2326
g2310
S''
sg2311
L1L
sg2312
Nsg2313
S'BTREE'
p2327
sg2315
S'longdescs_bug_id_idx'
p2328
sg2317
S'A'
sg2318
S''
sg2319
L1L
sg2320
S'longdescs'
p2329
sg2322
Nsg2323
Nsg2324
S'bug_id'
p2330
sa(dp2331
g2310
S''
sg2311
L1L
sg2312
Nsg2313
S'BTREE'
p2332
sg2315
S'longdescs_who_idx'
p2333
sg2317
S'A'
sg2318
S''
sg2319
L1L
sg2320
S'longdescs'
p2334
sg2322
Nsg2323
Nsg2324
S'who'
p2335
sa(dp2336
g2310
S''
sg2311
L1L
sg2312
Nsg2313
S'BTREE'
p2337
sg2315
S'longdescs_who_idx'
p2338
sg2317
S'A'
sg2318
S''
sg2319
L2L
sg2320
S'longdescs'
p2339
sg2322
Nsg2323
Nsg2324
S'bug_id'
p2340
sa(dp2341
g2310
S''
sg2311
L1L
sg2312
Nsg2313
S'BTREE'
p2342
sg2315
S'longdescs_bug_when_idx'
p2343
sg2317
S'A'
sg2318
S''
sg2319
L1L
sg2320
S'longdescs'
p2344
sg2322
Nsg2323
Nsg2324
S'bug_when'
p2345
sa(dp2346
g2310
S''
sg2311
L1L
sg2312
Nsg2313
S'FULLTEXT'
p2347
sg2315
S'longdescs_thetext_idx'
p2348
sg2317
Nsg2318
S''
sg2319
L1L
sg2320
S'longdescs'
p2349
sg2322
Nsg2323
Nsg2324
S'thetext'
p2350
satp2351
sS'versions'
p2352
((lp2353
(dp2354
S'Extra'
p2355
S'auto_increment'
p2356
sS'Default'
p2357
NsS'Field'
p2358
S'id'
p2359
sS'Key'
p2360
S'PRI'
p2361
sS'Null'
p2362
S'NO'
p2363
sS'Type'
p2364
S'mediumint(9)'
p2365
sa(dp2366
g2355
S''
sg2357
S''
sg2358
S'value'
p2367
sg2360
S''
sg2362
S'NO'
p2368
sg2364
S'varchar(64)'
p2369
sa(dp2370
g2355
S''
sg2357
S''
sg2358
S'product_id'
p2371
sg2360
S'MUL'
p2372
sg2362
S'NO'
p2373
sg2364
S'smallint(6)'
p2374
sa(lp2375
(dp2376
S'Comment'
p2377
S''
sS'Non_unique'
p2378
L0L
sS'Sub_part'
p2379
NsS'Index_type'
p2380
S'BTREE'
p2381
sS'Key_name'
p2382
S'PRIMARY'
p2383
sS'Collation'
p2384
S'A'
sS'Null'
p2385
S''
sS'Seq_in_index'
p2386
L1L
sS'Table'
p2387
S'versions'
p2388
sS'Cardinality'
p2389
L1L
sS'Packed'
p2390
NsS'Column_name'
p2391
S'id'
p2392
sa(dp2393
g2377
S''
sg2378
L0L
sg2379
Nsg2380
S'BTREE'
p2394
sg2382
S'versions_product_id_idx'
p2395
sg2384
S'A'
sg2385
S''
sg2386
L1L
sg2387
S'versions'
p2396
sg2389
L1L
sg2390
Nsg2391
S'product_id'
p2397
sa(dp2398
g2377
S''
sg2378
L0L
sg2379
Nsg2380
S'BTREE'
p2399
sg2382
S'versions_product_id_idx'
p2400
sg2384
S'A'
sg2385
S''
sg2386
L2L
sg2387
S'versions'
p2401
sg2389
L1L
sg2390
Nsg2391
S'value'
p2402
satp2403
sS'flagtypes'
p2404
((lp2405
(dp2406
S'Extra'
p2407
S'auto_increment'
p2408
sS'Default'
p2409
NsS'Field'
p2410
S'id'
p2411
sS'Key'
p2412
S'PRI'
p2413
sS'Null'
p2414
S'NO'
p2415
sS'Type'
p2416
S'smallint(6)'
p2417
sa(dp2418
g2407
S''
sg2409
S''
sg2410
S'name'
p2419
sg2412
S''
sg2414
S'NO'
p2420
sg2416
S'varchar(50)'
p2421
sa(dp2422
g2407
S''
sg2409
S''
sg2410
S'description'
p2423
sg2412
S''
sg2414
S'NO'
p2424
sg2416
S'mediumtext'
p2425
sa(dp2426
g2407
S''
sg2409
Nsg2410
S'cc_list'
p2427
sg2412
S''
sg2414
S'YES'
p2428
sg2416
S'varchar(200)'
p2429
sa(dp2430
g2407
S''
sg2409
S'b'
sg2410
S'target_type'
p2431
sg2412
S''
sg2414
S'NO'
p2432
sg2416
S'char(1)'
p2433
sa(dp2434
g2407
S''
sg2409
S'1'
sg2410
S'is_active'
p2435
sg2412
S''
sg2414
S'NO'
p2436
sg2416
S'tinyint(4)'
p2437
sa(dp2438
g2407
S''
sg2409
S'0'
sg2410
S'is_requestable'
p2439
sg2412
S''
sg2414
S'NO'
p2440
sg2416
S'tinyint(4)'
p2441
sa(dp2442
g2407
S''
sg2409
S'0'
sg2410
S'is_requesteeble'
p2443
sg2412
S''
sg2414
S'NO'
p2444
sg2416
S'tinyint(4)'
p2445
sa(dp2446
g2407
S''
sg2409
S'0'
sg2410
S'is_multiplicable'
p2447
sg2412
S''
sg2414
S'NO'
p2448
sg2416
S'tinyint(4)'
p2449
sa(dp2450
g2407
S''
sg2409
S'0'
sg2410
S'sortkey'
p2451
sg2412
S''
sg2414
S'NO'
p2452
sg2416
S'smallint(6)'
p2453
sa(dp2454
g2407
S''
sg2409
Nsg2410
S'grant_group_id'
p2455
sg2412
S''
sg2414
S'YES'
p2456
sg2416
S'mediumint(9)'
p2457
sa(dp2458
g2407
S''
sg2409
Nsg2410
S'request_group_id'
p2459
sg2412
S''
sg2414
S'YES'
p2460
sg2416
S'mediumint(9)'
p2461
sa(lp2462
(dp2463
S'Comment'
p2464
S''
sS'Non_unique'
p2465
L0L
sS'Sub_part'
p2466
NsS'Index_type'
p2467
S'BTREE'
p2468
sS'Key_name'
p2469
S'PRIMARY'
p2470
sS'Collation'
p2471
S'A'
sS'Null'
p2472
S''
sS'Seq_in_index'
p2473
L1L
sS'Table'
p2474
S'flagtypes'
p2475
sS'Cardinality'
p2476
L0L
sS'Packed'
p2477
NsS'Column_name'
p2478
S'id'
p2479
satp2480
sS'user_group_map'
p2481
((lp2482
(dp2483
S'Extra'
p2484
S''
sS'Default'
p2485
S''
sS'Field'
p2486
S'user_id'
p2487
sS'Key'
p2488
S'PRI'
p2489
sS'Null'
p2490
S'NO'
p2491
sS'Type'
p2492
S'mediumint(9)'
p2493
sa(dp2494
g2484
S''
sg2485
S''
sg2486
S'group_id'
p2495
sg2488
S'PRI'
p2496
sg2490
S'NO'
p2497
sg2492
S'mediumint(9)'
p2498
sa(dp2499
g2484
S''
sg2485
S'0'
sg2486
S'isbless'
p2500
sg2488
S'PRI'
p2501
sg2490
S'NO'
p2502
sg2492
S'tinyint(4)'
p2503
sa(dp2504
g2484
S''
sg2485
S'0'
sg2486
S'grant_type'
p2505
sg2488
S'PRI'
p2506
sg2490
S'NO'
p2507
sg2492
S'tinyint(4)'
p2508
sa(lp2509
(dp2510
S'Comment'
p2511
S''
sS'Non_unique'
p2512
L0L
sS'Sub_part'
p2513
NsS'Index_type'
p2514
S'BTREE'
p2515
sS'Key_name'
p2516
S'user_group_map_user_id_idx'
p2517
sS'Collation'
p2518
S'A'
sS'Null'
p2519
S''
sS'Seq_in_index'
p2520
L1L
sS'Table'
p2521
S'user_group_map'
p2522
sS'Cardinality'
p2523
L2L
sS'Packed'
p2524
NsS'Column_name'
p2525
S'user_id'
p2526
sa(dp2527
g2511
S''
sg2512
L0L
sg2513
Nsg2514
S'BTREE'
p2528
sg2516
S'user_group_map_user_id_idx'
p2529
sg2518
S'A'
sg2519
S''
sg2520
L2L
sg2521
S'user_group_map'
p2530
sg2523
L2L
sg2524
Nsg2525
S'group_id'
p2531
sa(dp2532
g2511
S''
sg2512
L0L
sg2513
Nsg2514
S'BTREE'
p2533
sg2516
S'user_group_map_user_id_idx'
p2534
sg2518
S'A'
sg2519
S''
sg2520
L3L
sg2521
S'user_group_map'
p2535
sg2523
L2L
sg2524
Nsg2525
S'grant_type'
p2536
sa(dp2537
g2511
S''
sg2512
L0L
sg2513
Nsg2514
S'BTREE'
p2538
sg2516
S'user_group_map_user_id_idx'
p2539
sg2518
S'A'
sg2519
S''
sg2520
L4L
sg2521
S'user_group_map'
p2540
sg2523
L2L
sg2524
Nsg2525
S'isbless'
p2541
satp2542
sS'bugs'
p2543
((lp2544
(dp2545
S'Extra'
p2546
S'auto_increment'
p2547
sS'Default'
p2548
NsS'Field'
p2549
S'bug_id'
p2550
sS'Key'
p2551
S'PRI'
p2552
sS'Null'
p2553
S'NO'
p2554
sS'Type'
p2555
S'mediumint(9)'
p2556
sa(dp2557
g2546
S''
sg2548
S''
sg2549
S'assigned_to'
p2558
sg2551
S'MUL'
p2559
sg2553
S'NO'
p2560
sg2555
S'mediumint(9)'
p2561
sa(dp2562
g2546
S''
sg2548
Nsg2549
S'bug_file_loc'
p2563
sg2551
S''
sg2553
S'YES'
p2564
sg2555
S'mediumtext'
p2565
sa(dp2566
g2546
S''
sg2548
S''
sg2549
S'bug_severity'
p2567
sg2551
S'MUL'
p2568
sg2553
S'NO'
p2569
sg2555
S'varchar(64)'
p2570
sa(dp2571
g2546
S''
sg2548
S''
sg2549
S'bug_status'
p2572
sg2551
S'MUL'
p2573
sg2553
S'NO'
p2574
sg2555
S'varchar(64)'
p2575
sa(dp2576
g2546
S''
sg2548
Nsg2549
S'creation_ts'
p2577
sg2551
S'MUL'
p2578
sg2553
S'YES'
p2579
sg2555
S'datetime'
p2580
sa(dp2581
g2546
S''
sg2548
S''
sg2549
S'delta_ts'
p2582
sg2551
S'MUL'
p2583
sg2553
S'NO'
p2584
sg2555
S'datetime'
p2585
sa(dp2586
g2546
S''
sg2548
S''
sg2549
S'short_desc'
p2587
sg2551
S''
sg2553
S'NO'
p2588
sg2555
S'varchar(255)'
p2589
sa(dp2590
g2546
S''
sg2548
S''
sg2549
S'op_sys'
p2591
sg2551
S'MUL'
p2592
sg2553
S'NO'
p2593
sg2555
S'varchar(64)'
p2594
sa(dp2595
g2546
S''
sg2548
S''
sg2549
S'priority'
p2596
sg2551
S'MUL'
p2597
sg2553
S'NO'
p2598
sg2555
S'varchar(64)'
p2599
sa(dp2600
g2546
S''
sg2548
S''
sg2549
S'product_id'
p2601
sg2551
S'MUL'
p2602
sg2553
S'NO'
p2603
sg2555
S'smallint(6)'
p2604
sa(dp2605
g2546
S''
sg2548
S''
sg2549
S'rep_platform'
p2606
sg2551
S''
sg2553
S'NO'
p2607
sg2555
S'varchar(64)'
p2608
sa(dp2609
g2546
S''
sg2548
S''
sg2549
S'reporter'
p2610
sg2551
S'MUL'
p2611
sg2553
S'NO'
p2612
sg2555
S'mediumint(9)'
p2613
sa(dp2614
g2546
S''
sg2548
S''
sg2549
S'version'
p2615
sg2551
S'MUL'
p2616
sg2553
S'NO'
p2617
sg2555
S'varchar(64)'
p2618
sa(dp2619
g2546
S''
sg2548
S''
sg2549
S'component_id'
p2620
sg2551
S'MUL'
p2621
sg2553
S'NO'
p2622
sg2555
S'smallint(6)'
p2623
sa(dp2624
g2546
S''
sg2548
S''
sg2549
S'resolution'
p2625
sg2551
S'MUL'
p2626
sg2553
S'NO'
p2627
sg2555
S'varchar(64)'
p2628
sa(dp2629
g2546
S''
sg2548
S'---'
p2630
sg2549
S'target_milestone'
p2631
sg2551
S'MUL'
p2632
sg2553
S'NO'
p2633
sg2555
S'varchar(20)'
p2634
sa(dp2635
g2546
S''
sg2548
Nsg2549
S'qa_contact'
p2636
sg2551
S'MUL'
p2637
sg2553
S'YES'
p2638
sg2555
S'mediumint(9)'
p2639
sa(dp2640
g2546
S''
sg2548
S''
sg2549
S'status_whiteboard'
p2641
sg2551
S''
sg2553
S'NO'
p2642
sg2555
S'mediumtext'
p2643
sa(dp2644
g2546
S''
sg2548
S'0'
sg2549
S'votes'
p2645
sg2551
S'MUL'
p2646
sg2553
S'NO'
p2647
sg2555
S'mediumint(9)'
p2648
sa(dp2649
g2546
S''
sg2548
S''
sg2549
S'keywords'
p2650
sg2551
S''
sg2553
S'NO'
p2651
sg2555
S'mediumtext'
p2652
sa(dp2653
g2546
S''
sg2548
Nsg2549
S'lastdiffed'
p2654
sg2551
S''
sg2553
S'YES'
p2655
sg2555
S'datetime'
p2656
sa(dp2657
g2546
S''
sg2548
S''
sg2549
S'everconfirmed'
p2658
sg2551
S''
sg2553
S'NO'
p2659
sg2555
S'tinyint(4)'
p2660
sa(dp2661
g2546
S''
sg2548
S'1'
sg2549
S'reporter_accessible'
p2662
sg2551
S''
sg2553
S'NO'
p2663
sg2555
S'tinyint(4)'
p2664
sa(dp2665
g2546
S''
sg2548
S'1'
sg2549
S'cclist_accessible'
p2666
sg2551
S''
sg2553
S'NO'
p2667
sg2555
S'tinyint(4)'
p2668
sa(dp2669
g2546
S''
sg2548
S'0.00'
p2670
sg2549
S'estimated_time'
p2671
sg2551
S''
sg2553
S'NO'
p2672
sg2555
S'decimal(5,2)'
p2673
sa(dp2674
g2546
S''
sg2548
S'0.00'
p2675
sg2549
S'remaining_time'
p2676
sg2551
S''
sg2553
S'NO'
p2677
sg2555
S'decimal(5,2)'
p2678
sa(dp2679
g2546
S''
sg2548
Nsg2549
S'deadline'
p2680
sg2551
S''
sg2553
S'YES'
p2681
sg2555
S'datetime'
p2682
sa(dp2683
g2546
S''
sg2548
Nsg2549
S'alias'
p2684
sg2551
S'UNI'
p2685
sg2553
S'YES'
p2686
sg2555
S'varchar(20)'
p2687
sa(lp2688
(dp2689
S'Comment'
p2690
S''
sS'Non_unique'
p2691
L0L
sS'Sub_part'
p2692
NsS'Index_type'
p2693
S'BTREE'
p2694
sS'Key_name'
p2695
S'PRIMARY'
p2696
sS'Collation'
p2697
S'A'
sS'Null'
p2698
S''
sS'Seq_in_index'
p2699
L1L
sS'Table'
p2700
S'bugs'
p2701
sS'Cardinality'
p2702
L0L
sS'Packed'
p2703
NsS'Column_name'
p2704
S'bug_id'
p2705
sa(dp2706
g2690
S''
sg2691
L0L
sg2692
Nsg2693
S'BTREE'
p2707
sg2695
S'bugs_alias_idx'
p2708
sg2697
S'A'
sg2698
S'YES'
p2709
sg2699
L1L
sg2700
S'bugs'
p2710
sg2702
L0L
sg2703
Nsg2704
S'alias'
p2711
sa(dp2712
g2690
S''
sg2691
L1L
sg2692
Nsg2693
S'BTREE'
p2713
sg2695
S'bugs_assigned_to_idx'
p2714
sg2697
S'A'
sg2698
S''
sg2699
L1L
sg2700
S'bugs'
p2715
sg2702
L0L
sg2703
Nsg2704
S'assigned_to'
p2716
sa(dp2717
g2690
S''
sg2691
L1L
sg2692
Nsg2693
S'BTREE'
p2718
sg2695
S'bugs_creation_ts_idx'
p2719
sg2697
S'A'
sg2698
S'YES'
p2720
sg2699
L1L
sg2700
S'bugs'
p2721
sg2702
L0L
sg2703
Nsg2704
S'creation_ts'
p2722
sa(dp2723
g2690
S''
sg2691
L1L
sg2692
Nsg2693
S'BTREE'
p2724
sg2695
S'bugs_delta_ts_idx'
p2725
sg2697
S'A'
sg2698
S''
sg2699
L1L
sg2700
S'bugs'
p2726
sg2702
L0L
sg2703
Nsg2704
S'delta_ts'
p2727
sa(dp2728
g2690
S''
sg2691
L1L
sg2692
Nsg2693
S'BTREE'
p2729
sg2695
S'bugs_bug_severity_idx'
p2730
sg2697
S'A'
sg2698
S''
sg2699
L1L
sg2700
S'bugs'
p2731
sg2702
L0L
sg2703
Nsg2704
S'bug_severity'
p2732
sa(dp2733
g2690
S''
sg2691
L1L
sg2692
Nsg2693
S'BTREE'
p2734
sg2695
S'bugs_bug_status_idx'
p2735
sg2697
S'A'
sg2698
S''
sg2699
L1L
sg2700
S'bugs'
p2736
sg2702
L0L
sg2703
Nsg2704
S'bug_status'
p2737
sa(dp2738
g2690
S''
sg2691
L1L
sg2692
Nsg2693
S'BTREE'
p2739
sg2695
S'bugs_op_sys_idx'
p2740
sg2697
S'A'
sg2698
S''
sg2699
L1L
sg2700
S'bugs'
p2741
sg2702
L0L
sg2703
Nsg2704
S'op_sys'
p2742
sa(dp2743
g2690
S''
sg2691
L1L
sg2692
Nsg2693
S'BTREE'
p2744
sg2695
S'bugs_priority_idx'
p2745
sg2697
S'A'
sg2698
S''
sg2699
L1L
sg2700
S'bugs'
p2746
sg2702
L0L
sg2703
Nsg2704
S'priority'
p2747
sa(dp2748
g2690
S''
sg2691
L1L
sg2692
Nsg2693
S'BTREE'
p2749
sg2695
S'bugs_product_id_idx'
p2750
sg2697
S'A'
sg2698
S''
sg2699
L1L
sg2700
S'bugs'
p2751
sg2702
L0L
sg2703
Nsg2704
S'product_id'
p2752
sa(dp2753
g2690
S''
sg2691
L1L
sg2692
Nsg2693
S'BTREE'
p2754
sg2695
S'bugs_reporter_idx'
p2755
sg2697
S'A'
sg2698
S''
sg2699
L1L
sg2700
S'bugs'
p2756
sg2702
L0L
sg2703
Nsg2704
S'reporter'
p2757
sa(dp2758
g2690
S''
sg2691
L1L
sg2692
Nsg2693
S'BTREE'
p2759
sg2695
S'bugs_version_idx'
p2760
sg2697
S'A'
sg2698
S''
sg2699
L1L
sg2700
S'bugs'
p2761
sg2702
L0L
sg2703
Nsg2704
S'version'
p2762
sa(dp2763
g2690
S''
sg2691
L1L
sg2692
Nsg2693
S'BTREE'
p2764
sg2695
S'bugs_component_id_idx'
p2765
sg2697
S'A'
sg2698
S''
sg2699
L1L
sg2700
S'bugs'
p2766
sg2702
L0L
sg2703
Nsg2704
S'component_id'
p2767
sa(dp2768
g2690
S''
sg2691
L1L
sg2692
Nsg2693
S'BTREE'
p2769
sg2695
S'bugs_resolution_idx'
p2770
sg2697
S'A'
sg2698
S''
sg2699
L1L
sg2700
S'bugs'
p2771
sg2702
L0L
sg2703
Nsg2704
S'resolution'
p2772
sa(dp2773
g2690
S''
sg2691
L1L
sg2692
Nsg2693
S'BTREE'
p2774
sg2695
S'bugs_target_milestone_idx'
p2775
sg2697
S'A'
sg2698
S''
sg2699
L1L
sg2700
S'bugs'
p2776
sg2702
L0L
sg2703
Nsg2704
S'target_milestone'
p2777
sa(dp2778
g2690
S''
sg2691
L1L
sg2692
Nsg2693
S'BTREE'
p2779
sg2695
S'bugs_qa_contact_idx'
p2780
sg2697
S'A'
sg2698
S'YES'
p2781
sg2699
L1L
sg2700
S'bugs'
p2782
sg2702
L0L
sg2703
Nsg2704
S'qa_contact'
p2783
sa(dp2784
g2690
S''
sg2691
L1L
sg2692
Nsg2693
S'BTREE'
p2785
sg2695
S'bugs_votes_idx'
p2786
sg2697
S'A'
sg2698
S''
sg2699
L1L
sg2700
S'bugs'
p2787
sg2702
L0L
sg2703
Nsg2704
S'votes'
p2788
satp2789
sS'profiles'
p2790
((lp2791
(dp2792
S'Extra'
p2793
S'auto_increment'
p2794
sS'Default'
p2795
NsS'Field'
p2796
S'userid'
p2797
sS'Key'
p2798
S'PRI'
p2799
sS'Null'
p2800
S'NO'
p2801
sS'Type'
p2802
S'mediumint(9)'
p2803
sa(dp2804
g2793
S''
sg2795
S''
sg2796
S'login_name'
p2805
sg2798
S'UNI'
p2806
sg2800
S'NO'
p2807
sg2802
S'varchar(255)'
p2808
sa(dp2809
g2793
S''
sg2795
Nsg2796
S'cryptpassword'
p2810
sg2798
S''
sg2800
S'YES'
p2811
sg2802
S'varchar(128)'
p2812
sa(dp2813
g2793
S''
sg2795
S''
sg2796
S'realname'
p2814
sg2798
S''
sg2800
S'NO'
p2815
sg2802
S'varchar(255)'
p2816
sa(dp2817
g2793
S''
sg2795
S''
sg2796
S'disabledtext'
p2818
sg2798
S''
sg2800
S'NO'
p2819
sg2802
S'mediumtext'
p2820
sa(dp2821
g2793
S''
sg2795
S'0'
sg2796
S'disable_mail'
p2822
sg2798
S''
sg2800
S'NO'
p2823
sg2802
S'tinyint(4)'
p2824
sa(dp2825
g2793
S''
sg2795
S'1'
sg2796
S'mybugslink'
p2826
sg2798
S''
sg2800
S'NO'
p2827
sg2802
S'tinyint(4)'
p2828
sa(dp2829
g2793
S''
sg2795
Nsg2796
S'extern_id'
p2830
sg2798
S''
sg2800
S'YES'
p2831
sg2802
S'varchar(64)'
p2832
sa(lp2833
(dp2834
S'Comment'
p2835
S''
sS'Non_unique'
p2836
L0L
sS'Sub_part'
p2837
NsS'Index_type'
p2838
S'BTREE'
p2839
sS'Key_name'
p2840
S'PRIMARY'
p2841
sS'Collation'
p2842
S'A'
sS'Null'
p2843
S''
sS'Seq_in_index'
p2844
L1L
sS'Table'
p2845
S'profiles'
p2846
sS'Cardinality'
p2847
L1L
sS'Packed'
p2848
NsS'Column_name'
p2849
S'userid'
p2850
sa(dp2851
g2835
S''
sg2836
L0L
sg2837
Nsg2838
S'BTREE'
p2852
sg2840
S'profiles_login_name_idx'
p2853
sg2842
S'A'
sg2843
S''
sg2844
L1L
sg2845
S'profiles'
p2854
sg2847
L1L
sg2848
Nsg2849
S'login_name'
p2855
satp2856
sS'flags'
p2857
((lp2858
(dp2859
S'Extra'
p2860
S'auto_increment'
p2861
sS'Default'
p2862
NsS'Field'
p2863
S'id'
p2864
sS'Key'
p2865
S'PRI'
p2866
sS'Null'
p2867
S'NO'
p2868
sS'Type'
p2869
S'mediumint(9)'
p2870
sa(dp2871
g2860
S''
sg2862
S''
sg2863
S'type_id'
p2872
sg2865
S'MUL'
p2873
sg2867
S'NO'
p2874
sg2869
S'smallint(6)'
p2875
sa(dp2876
g2860
S''
sg2862
S''
sg2863
S'status'
p2877
sg2865
S''
sg2867
S'NO'
p2878
sg2869
S'char(1)'
p2879
sa(dp2880
g2860
S''
sg2862
S''
sg2863
S'bug_id'
p2881
sg2865
S'MUL'
p2882
sg2867
S'NO'
p2883
sg2869
S'mediumint(9)'
p2884
sa(dp2885
g2860
S''
sg2862
Nsg2863
S'attach_id'
p2886
sg2865
S''
sg2867
S'YES'
p2887
sg2869
S'mediumint(9)'
p2888
sa(dp2889
g2860
S''
sg2862
S''
sg2863
S'creation_date'
p2890
sg2865
S''
sg2867
S'NO'
p2891
sg2869
S'datetime'
p2892
sa(dp2893
g2860
S''
sg2862
Nsg2863
S'modification_date'
p2894
sg2865
S''
sg2867
S'YES'
p2895
sg2869
S'datetime'
p2896
sa(dp2897
g2860
S''
sg2862
Nsg2863
S'setter_id'
p2898
sg2865
S'MUL'
p2899
sg2867
S'YES'
p2900
sg2869
S'mediumint(9)'
p2901
sa(dp2902
g2860
S''
sg2862
Nsg2863
S'requestee_id'
p2903
sg2865
S'MUL'
p2904
sg2867
S'YES'
p2905
sg2869
S'mediumint(9)'
p2906
sa(lp2907
(dp2908
S'Comment'
p2909
S''
sS'Non_unique'
p2910
L0L
sS'Sub_part'
p2911
NsS'Index_type'
p2912
S'BTREE'
p2913
sS'Key_name'
p2914
S'PRIMARY'
p2915
sS'Collation'
p2916
S'A'
sS'Null'
p2917
S''
sS'Seq_in_index'
p2918
L1L
sS'Table'
p2919
S'flags'
p2920
sS'Cardinality'
p2921
L0L
sS'Packed'
p2922
NsS'Column_name'
p2923
S'id'
p2924
sa(dp2925
g2909
S''
sg2910
L1L
sg2911
Nsg2912
S'BTREE'
p2926
sg2914
S'flags_bug_id_idx'
p2927
sg2916
S'A'
sg2917
S''
sg2918
L1L
sg2919
S'flags'
p2928
sg2921
L0L
sg2922
Nsg2923
S'bug_id'
p2929
sa(dp2930
g2909
S''
sg2910
L1L
sg2911
Nsg2912
S'BTREE'
p2931
sg2914
S'flags_bug_id_idx'
p2932
sg2916
S'A'
sg2917
S'YES'
p2933
sg2918
L2L
sg2919
S'flags'
p2934
sg2921
L0L
sg2922
Nsg2923
S'attach_id'
p2935
sa(dp2936
g2909
S''
sg2910
L1L
sg2911
Nsg2912
S'BTREE'
p2937
sg2914
S'flags_setter_id_idx'
p2938
sg2916
S'A'
sg2917
S'YES'
p2939
sg2918
L1L
sg2919
S'flags'
p2940
sg2921
L0L
sg2922
Nsg2923
S'setter_id'
p2941
sa(dp2942
g2909
S''
sg2910
L1L
sg2911
Nsg2912
S'BTREE'
p2943
sg2914
S'flags_requestee_id_idx'
p2944
sg2916
S'A'
sg2917
S'YES'
p2945
sg2918
L1L
sg2919
S'flags'
p2946
sg2921
L0L
sg2922
Nsg2923
S'requestee_id'
p2947
sa(dp2948
g2909
S''
sg2910
L1L
sg2911
Nsg2912
S'BTREE'
p2949
sg2914
S'flags_type_id_idx'
p2950
sg2916
S'A'
sg2917
S''
sg2918
L1L
sg2919
S'flags'
p2951
sg2921
L0L
sg2922
Nsg2923
S'type_id'
p2952
satp2953
sS'components'
p2954
((lp2955
(dp2956
S'Extra'
p2957
S'auto_increment'
p2958
sS'Default'
p2959
NsS'Field'
p2960
S'id'
p2961
sS'Key'
p2962
S'PRI'
p2963
sS'Null'
p2964
S'NO'
p2965
sS'Type'
p2966
S'smallint(6)'
p2967
sa(dp2968
g2957
S''
sg2959
S''
sg2960
S'name'
p2969
sg2962
S'MUL'
p2970
sg2964
S'NO'
p2971
sg2966
S'varchar(64)'
p2972
sa(dp2973
g2957
S''
sg2959
S''
sg2960
S'product_id'
p2974
sg2962
S'MUL'
p2975
sg2964
S'NO'
p2976
sg2966
S'smallint(6)'
p2977
sa(dp2978
g2957
S''
sg2959
S''
sg2960
S'initialowner'
p2979
sg2962
S'MUL'
p2980
sg2964
S'NO'
p2981
sg2966
S'mediumint(9)'
p2982
sa(dp2983
g2957
S''
sg2959
Nsg2960
S'initialqacontact'
p2984
sg2962
S'MUL'
p2985
sg2964
S'YES'
p2986
sg2966
S'mediumint(9)'
p2987
sa(dp2988
g2957
S''
sg2959
S''
sg2960
S'description'
p2989
sg2962
S''
sg2964
S'NO'
p2990
sg2966
S'mediumtext'
p2991
sa(lp2992
(dp2993
S'Comment'
p2994
S''
sS'Non_unique'
p2995
L0L
sS'Sub_part'
p2996
NsS'Index_type'
p2997
S'BTREE'
p2998
sS'Key_name'
p2999
S'PRIMARY'
p3000
sS'Collation'
p3001
S'A'
sS'Null'
p3002
S''
sS'Seq_in_index'
p3003
L1L
sS'Table'
p3004
S'components'
p3005
sS'Cardinality'
p3006
L1L
sS'Packed'
p3007
NsS'Column_name'
p3008
S'id'
p3009
sa(dp3010
g2994
S''
sg2995
L0L
sg2996
Nsg2997
S'BTREE'
p3011
sg2999
S'components_product_id_idx'
p3012
sg3001
S'A'
sg3002
S''
sg3003
L1L
sg3004
S'components'
p3013
sg3006
L1L
sg3007
Nsg3008
S'product_id'
p3014
sa(dp3015
g2994
S''
sg2995
L0L
sg2996
Nsg2997
S'BTREE'
p3016
sg2999
S'components_product_id_idx'
p3017
sg3001
S'A'
sg3002
S''
sg3003
L2L
sg3004
S'components'
p3018
sg3006
L1L
sg3007
Nsg3008
S'name'
p3019
sa(dp3020
g2994
S''
sg2995
L1L
sg2996
Nsg2997
S'BTREE'
p3021
sg2999
S'components_name_idx'
p3022
sg3001
S'A'
sg3002
S''
sg3003
L1L
sg3004
S'components'
p3023
sg3006
L1L
sg3007
Nsg3008
S'name'
p3024
sa(dp3025
g2994
S''
sg2995
L1L
sg2996
Nsg2997
S'BTREE'
p3026
sg2999
S'fk_components_initialowner_profiles_userid'
p3027
sg3001
S'A'
sg3002
S''
sg3003
L1L
sg3004
S'components'
p3028
sg3006
L1L
sg3007
Nsg3008
S'initialowner'
p3029
sa(dp3030
g2994
S''
sg2995
L1L
sg2996
Nsg2997
S'BTREE'
p3031
sg2999
S'fk_components_initialqacontact_profiles_userid'
p3032
sg3001
S'A'
sg3002
S'YES'
p3033
sg3003
L1L
sg3004
S'components'
p3034
sg3006
L1L
sg3007
Nsg3008
S'initialqacontact'
p3035
satp3036
sS'whine_queries'
p3037
((lp3038
(dp3039
S'Extra'
p3040
S'auto_increment'
p3041
sS'Default'
p3042
NsS'Field'
p3043
S'id'
p3044
sS'Key'
p3045
S'PRI'
p3046
sS'Null'
p3047
S'NO'
p3048
sS'Type'
p3049
S'mediumint(9)'
p3050
sa(dp3051
g3040
S''
sg3042
S''
sg3043
S'eventid'
p3052
sg3045
S'MUL'
p3053
sg3047
S'NO'
p3054
sg3049
S'mediumint(9)'
p3055
sa(dp3056
g3040
S''
sg3042
S''
sg3043
S'query_name'
p3057
sg3045
S''
sg3047
S'NO'
p3058
sg3049
S'varchar(64)'
p3059
sa(dp3060
g3040
S''
sg3042
S'0'
sg3043
S'sortkey'
p3061
sg3045
S''
sg3047
S'NO'
p3062
sg3049
S'smallint(6)'
p3063
sa(dp3064
g3040
S''
sg3042
S'0'
sg3043
S'onemailperbug'
p3065
sg3045
S''
sg3047
S'NO'
p3066
sg3049
S'tinyint(4)'
p3067
sa(dp3068
g3040
S''
sg3042
S''
sg3043
S'title'
p3069
sg3045
S''
sg3047
S'NO'
p3070
sg3049
S'varchar(128)'
p3071
sa(lp3072
(dp3073
S'Comment'
p3074
S''
sS'Non_unique'
p3075
L0L
sS'Sub_part'
p3076
NsS'Index_type'
p3077
S'BTREE'
p3078
sS'Key_name'
p3079
S'PRIMARY'
p3080
sS'Collation'
p3081
S'A'
sS'Null'
p3082
S''
sS'Seq_in_index'
p3083
L1L
sS'Table'
p3084
S'whine_queries'
p3085
sS'Cardinality'
p3086
L0L
sS'Packed'
p3087
NsS'Column_name'
p3088
S'id'
p3089
sa(dp3090
g3074
S''
sg3075
L1L
sg3076
Nsg3077
S'BTREE'
p3091
sg3079
S'whine_queries_eventid_idx'
p3092
sg3081
S'A'
sg3082
S''
sg3083
L1L
sg3084
S'whine_queries'
p3093
sg3086
L0L
sg3087
Nsg3088
S'eventid'
p3094
satp3095
sS'profile_setting'
p3096
((lp3097
(dp3098
S'Extra'
p3099
S''
sS'Default'
p3100
S''
sS'Field'
p3101
S'user_id'
p3102
sS'Key'
p3103
S'PRI'
p3104
sS'Null'
p3105
S'NO'
p3106
sS'Type'
p3107
S'mediumint(9)'
p3108
sa(dp3109
g3099
S''
sg3100
S''
sg3101
S'setting_name'
p3110
sg3103
S'PRI'
p3111
sg3105
S'NO'
p3112
sg3107
S'varchar(32)'
p3113
sa(dp3114
g3099
S''
sg3100
S''
sg3101
S'setting_value'
p3115
sg3103
S''
sg3105
S'NO'
p3116
sg3107
S'varchar(32)'
p3117
sa(lp3118
(dp3119
S'Comment'
p3120
S''
sS'Non_unique'
p3121
L0L
sS'Sub_part'
p3122
NsS'Index_type'
p3123
S'BTREE'
p3124
sS'Key_name'
p3125
S'profile_setting_value_unique_idx'
p3126
sS'Collation'
p3127
S'A'
sS'Null'
p3128
S''
sS'Seq_in_index'
p3129
L1L
sS'Table'
p3130
S'profile_setting'
p3131
sS'Cardinality'
p3132
L0L
sS'Packed'
p3133
NsS'Column_name'
p3134
S'user_id'
p3135
sa(dp3136
g3120
S''
sg3121
L0L
sg3122
Nsg3123
S'BTREE'
p3137
sg3125
S'profile_setting_value_unique_idx'
p3138
sg3127
S'A'
sg3128
S''
sg3129
L2L
sg3130
S'profile_setting'
p3139
sg3132
L0L
sg3133
Nsg3134
S'setting_name'
p3140
satp3141
sS'setting_value'
p3142
((lp3143
(dp3144
S'Extra'
p3145
S''
sS'Default'
p3146
S''
sS'Field'
p3147
S'name'
p3148
sS'Key'
p3149
S'PRI'
p3150
sS'Null'
p3151
S'NO'
p3152
sS'Type'
p3153
S'varchar(32)'
p3154
sa(dp3155
g3145
S''
sg3146
S''
sg3147
S'value'
p3156
sg3149
S'PRI'
p3157
sg3151
S'NO'
p3158
sg3153
S'varchar(32)'
p3159
sa(dp3160
g3145
S''
sg3146
S''
sg3147
S'sortindex'
p3161
sg3149
S''
sg3151
S'NO'
p3162
sg3153
S'smallint(6)'
p3163
sa(lp3164
(dp3165
S'Comment'
p3166
S''
sS'Non_unique'
p3167
L0L
sS'Sub_part'
p3168
NsS'Index_type'
p3169
S'BTREE'
p3170
sS'Key_name'
p3171
S'setting_value_nv_unique_idx'
p3172
sS'Collation'
p3173
S'A'
sS'Null'
p3174
S''
sS'Seq_in_index'
p3175
L1L
sS'Table'
p3176
S'setting_value'
p3177
sS'Cardinality'
p3178
L20L
sS'Packed'
p3179
NsS'Column_name'
p3180
S'name'
p3181
sa(dp3182
g3166
S''
sg3167
L0L
sg3168
Nsg3169
S'BTREE'
p3183
sg3171
S'setting_value_nv_unique_idx'
p3184
sg3173
S'A'
sg3174
S''
sg3175
L2L
sg3176
S'setting_value'
p3185
sg3178
L20L
sg3179
Nsg3180
S'value'
p3186
sa(dp3187
g3166
S''
sg3167
L0L
sg3168
Nsg3169
S'BTREE'
p3188
sg3171
S'setting_value_ns_unique_idx'
p3189
sg3173
S'A'
sg3174
S''
sg3175
L1L
sg3176
S'setting_value'
p3190
sg3178
L20L
sg3179
Nsg3180
S'name'
p3191
sa(dp3192
g3166
S''
sg3167
L0L
sg3168
Nsg3169
S'BTREE'
p3193
sg3171
S'setting_value_ns_unique_idx'
p3194
sg3173
S'A'
sg3174
S''
sg3175
L2L
sg3176
S'setting_value'
p3195
sg3178
L20L
sg3179
Nsg3180
S'sortindex'
p3196
satp3197
sS'resolution'
p3198
((lp3199
(dp3200
S'Extra'
p3201
S'auto_increment'
p3202
sS'Default'
p3203
NsS'Field'
p3204
S'id'
p3205
sS'Key'
p3206
S'PRI'
p3207
sS'Null'
p3208
S'NO'
p3209
sS'Type'
p3210
S'smallint(6)'
p3211
sa(dp3212
g3201
S''
sg3203
S''
sg3204
S'value'
p3213
sg3206
S'UNI'
p3214
sg3208
S'NO'
p3215
sg3210
S'varchar(64)'
p3216
sa(dp3217
g3201
S''
sg3203
S'0'
sg3204
S'sortkey'
p3218
sg3206
S'MUL'
p3219
sg3208
S'NO'
p3220
sg3210
S'smallint(6)'
p3221
sa(dp3222
g3201
S''
sg3203
S'1'
sg3204
S'isactive'
p3223
sg3206
S''
sg3208
S'NO'
p3224
sg3210
S'tinyint(4)'
p3225
sa(lp3226
(dp3227
S'Comment'
p3228
S''
sS'Non_unique'
p3229
L0L
sS'Sub_part'
p3230
NsS'Index_type'
p3231
S'BTREE'
p3232
sS'Key_name'
p3233
S'PRIMARY'
p3234
sS'Collation'
p3235
S'A'
sS'Null'
p3236
S''
sS'Seq_in_index'
p3237
L1L
sS'Table'
p3238
S'resolution'
p3239
sS'Cardinality'
p3240
L2L
sS'Packed'
p3241
NsS'Column_name'
p3242
S'id'
p3243
sa(dp3244
g3228
S''
sg3229
L0L
sg3230
Nsg3231
S'BTREE'
p3245
sg3233
S'resolution_value_idx'
p3246
sg3235
S'A'
sg3236
S''
sg3237
L1L
sg3238
S'resolution'
p3247
sg3240
L2L
sg3241
Nsg3242
S'value'
p3248
sa(dp3249
g3228
S''
sg3229
L1L
sg3230
Nsg3231
S'BTREE'
p3250
sg3233
S'resolution_sortkey_idx'
p3251
sg3235
S'A'
sg3236
S''
sg3237
L1L
sg3238
S'resolution'
p3252
sg3240
L2L
sg3241
Nsg3242
S'sortkey'
p3253
sa(dp3254
g3228
S''
sg3229
L1L
sg3230
Nsg3231
S'BTREE'
p3255
sg3233
S'resolution_sortkey_idx'
p3256
sg3235
S'A'
sg3236
S''
sg3237
L2L
sg3238
S'resolution'
p3257
sg3240
L2L
sg3241
Nsg3242
S'value'
p3258
satp3259
sS'op_sys'
p3260
((lp3261
(dp3262
S'Extra'
p3263
S'auto_increment'
p3264
sS'Default'
p3265
NsS'Field'
p3266
S'id'
p3267
sS'Key'
p3268
S'PRI'
p3269
sS'Null'
p3270
S'NO'
p3271
sS'Type'
p3272
S'smallint(6)'
p3273
sa(dp3274
g3263
S''
sg3265
S''
sg3266
S'value'
p3275
sg3268
S'UNI'
p3276
sg3270
S'NO'
p3277
sg3272
S'varchar(64)'
p3278
sa(dp3279
g3263
S''
sg3265
S'0'
sg3266
S'sortkey'
p3280
sg3268
S'MUL'
p3281
sg3270
S'NO'
p3282
sg3272
S'smallint(6)'
p3283
sa(dp3284
g3263
S''
sg3265
S'1'
sg3266
S'isactive'
p3285
sg3268
S''
sg3270
S'NO'
p3286
sg3272
S'tinyint(4)'
p3287
sa(lp3288
(dp3289
S'Comment'
p3290
S''
sS'Non_unique'
p3291
L0L
sS'Sub_part'
p3292
NsS'Index_type'
p3293
S'BTREE'
p3294
sS'Key_name'
p3295
S'PRIMARY'
p3296
sS'Collation'
p3297
S'A'
sS'Null'
p3298
S''
sS'Seq_in_index'
p3299
L1L
sS'Table'
p3300
S'op_sys'
p3301
sS'Cardinality'
p3302
L2L
sS'Packed'
p3303
NsS'Column_name'
p3304
S'id'
p3305
sa(dp3306
g3290
S''
sg3291
L0L
sg3292
Nsg3293
S'BTREE'
p3307
sg3295
S'op_sys_value_idx'
p3308
sg3297
S'A'
sg3298
S''
sg3299
L1L
sg3300
S'op_sys'
p3309
sg3302
L2L
sg3303
Nsg3304
S'value'
p3310
sa(dp3311
g3290
S''
sg3291
L1L
sg3292
Nsg3293
S'BTREE'
p3312
sg3295
S'op_sys_sortkey_idx'
p3313
sg3297
S'A'
sg3298
S''
sg3299
L1L
sg3300
S'op_sys'
p3314
sg3302
L2L
sg3303
Nsg3304
S'sortkey'
p3315
sa(dp3316
g3290
S''
sg3291
L1L
sg3292
Nsg3293
S'BTREE'
p3317
sg3295
S'op_sys_sortkey_idx'
p3318
sg3297
S'A'
sg3298
S''
sg3299
L2L
sg3300
S'op_sys'
p3319
sg3302
L2L
sg3303
Nsg3304
S'value'
p3320
satp3321
sS'group_group_map'
p3322
((lp3323
(dp3324
S'Extra'
p3325
S''
sS'Default'
p3326
S''
sS'Field'
p3327
S'member_id'
p3328
sS'Key'
p3329
S'PRI'
p3330
sS'Null'
p3331
S'NO'
p3332
sS'Type'
p3333
S'mediumint(9)'
p3334
sa(dp3335
g3325
S''
sg3326
S''
sg3327
S'grantor_id'
p3336
sg3329
S'PRI'
p3337
sg3331
S'NO'
p3338
sg3333
S'mediumint(9)'
p3339
sa(dp3340
g3325
S''
sg3326
S'0'
sg3327
S'grant_type'
p3341
sg3329
S'PRI'
p3342
sg3331
S'NO'
p3343
sg3333
S'tinyint(4)'
p3344
sa(lp3345
(dp3346
S'Comment'
p3347
S''
sS'Non_unique'
p3348
L0L
sS'Sub_part'
p3349
NsS'Index_type'
p3350
S'BTREE'
p3351
sS'Key_name'
p3352
S'group_group_map_member_id_idx'
p3353
sS'Collation'
p3354
S'A'
sS'Null'
p3355
S''
sS'Seq_in_index'
p3356
L1L
sS'Table'
p3357
S'group_group_map'
p3358
sS'Cardinality'
p3359
L4L
sS'Packed'
p3360
NsS'Column_name'
p3361
S'member_id'
p3362
sa(dp3363
g3347
S''
sg3348
L0L
sg3349
Nsg3350
S'BTREE'
p3364
sg3352
S'group_group_map_member_id_idx'
p3365
sg3354
S'A'
sg3355
S''
sg3356
L2L
sg3357
S'group_group_map'
p3366
sg3359
L41L
sg3360
Nsg3361
S'grantor_id'
p3367
sa(dp3368
g3347
S''
sg3348
L0L
sg3349
Nsg3350
S'BTREE'
p3369
sg3352
S'group_group_map_member_id_idx'
p3370
sg3354
S'A'
sg3355
S''
sg3356
L3L
sg3357
S'group_group_map'
p3371
sg3359
L41L
sg3360
Nsg3361
S'grant_type'
p3372
satp3373
st.