(S'3.1.4'
p1
(dp2
S'bug_group_map'
p3
((lp4
(dp5
S'Extra'
p6
S''
sS'Default'
p7
S''
sS'Field'
p8
S'bug_id'
p9
sS'Key'
p10
S'PRI'
p11
sS'Null'
p12
S'NO'
p13
sS'Type'
p14
S'mediumint(9)'
p15
sa(dp16
g6
S''
sg7
S''
sg8
S'group_id'
p17
sg10
S'PRI'
p18
sg12
S'NO'
p19
sg14
S'mediumint(9)'
p20
sa(lp21
(dp22
S'Comment'
p23
S''
sS'Non_unique'
p24
L0L
sS'Sub_part'
p25
NsS'Index_type'
p26
S'BTREE'
p27
sS'Key_name'
p28
S'bug_group_map_bug_id_idx'
p29
sS'Collation'
p30
S'A'
sS'Null'
p31
S''
sS'Seq_in_index'
p32
L1L
sS'Table'
p33
S'bug_group_map'
p34
sS'Cardinality'
p35
L0L
sS'Packed'
p36
NsS'Column_name'
p37
S'bug_id'
p38
sa(dp39
g23
S''
sg24
L0L
sg25
Nsg26
S'BTREE'
p40
sg28
S'bug_group_map_bug_id_idx'
p41
sg30
S'A'
sg31
S''
sg32
L2L
sg33
S'bug_group_map'
p42
sg35
L0L
sg36
Nsg37
S'group_id'
p43
sa(dp44
g23
S''
sg24
L1L
sg25
Nsg26
S'BTREE'
p45
sg28
S'bug_group_map_group_id_idx'
p46
sg30
S'A'
sg31
S''
sg32
L1L
sg33
S'bug_group_map'
p47
sg35
L0L
sg36
Nsg37
S'group_id'
p48
satp49
sS'attachments'
p50
((lp51
(dp52
S'Extra'
p53
S'auto_increment'
p54
sS'Default'
p55
NsS'Field'
p56
S'attach_id'
p57
sS'Key'
p58
S'PRI'
p59
sS'Null'
p60
S'NO'
p61
sS'Type'
p62
S'mediumint(9)'
p63
sa(dp64
g53
S''
sg55
S''
sg56
S'bug_id'
p65
sg58
S'MUL'
p66
sg60
S'NO'
p67
sg62
S'mediumint(9)'
p68
sa(dp69
g53
S''
sg55
S''
sg56
S'creation_ts'
p70
sg58
S'MUL'
p71
sg60
S'NO'
p72
sg62
S'datetime'
p73
sa(dp74
g53
S''
sg55
S''
sg56
S'modification_time'
p75
sg58
S'MUL'
p76
sg60
S'NO'
p77
sg62
S'datetime'
p78
sa(dp79
g53
S''
sg55
S''
sg56
S'description'
p80
sg58
S''
sg60
S'NO'
p81
sg62
S'tinytext'
p82
sa(dp83
g53
S''
sg55
S''
sg56
S'mimetype'
p84
sg58
S''
sg60
S'NO'
p85
sg62
S'tinytext'
p86
sa(dp87
g53
S''
sg55
Nsg56
S'ispatch'
p88
sg58
S''
sg60
S'YES'
p89
sg62
S'tinyint(4)'
p90
sa(dp91
g53
S''
sg55
S''
sg56
S'filename'
p92
sg58
S''
sg60
S'NO'
p93
sg62
S'varchar(100)'
p94
sa(dp95
g53
S''
sg55
S''
sg56
S'submitter_id'
p96
sg58
S'MUL'
p97
sg60
S'NO'
p98
sg62
S'mediumint(9)'
p99
sa(dp100
g53
S''
sg55
S'0'
sg56
S'isobsolete'
p101
sg58
S''
sg60
S'NO'
p102
sg62
S'tinyint(4)'
p103
sa(dp104
g53
S''
sg55
S'0'
sg56
S'isprivate'
p105
sg58
S''
sg60
S'NO'
p106
sg62
S'tinyint(4)'
p107
sa(dp108
g53
S''
sg55
S'0'
sg56
S'isurl'
p109
sg58
S''
sg60
S'NO'
p110
sg62
S'tinyint(4)'
p111
sa(lp112
(dp113
S'Comment'
p114
S''
sS'Non_unique'
p115
L0L
sS'Sub_part'
p116
NsS'Index_type'
p117
S'BTREE'
p118
sS'Key_name'
p119
S'PRIMARY'
p120
sS'Collation'
p121
S'A'
sS'Null'
p122
S''
sS'Seq_in_index'
p123
L1L
sS'Table'
p124
S'attachments'
p125
sS'Cardinality'
p126
L0L
sS'Packed'
p127
NsS'Column_name'
p128
S'attach_id'
p129
sa(dp130
g114
S''
sg115
L1L
sg116
Nsg117
S'BTREE'
p131
sg119
S'attachments_bug_id_idx'
p132
sg121
S'A'
sg122
S''
sg123
L1L
sg124
S'attachments'
p133
sg126
L0L
sg127
Nsg128
S'bug_id'
p134
sa(dp135
g114
S''
sg115
L1L
sg116
Nsg117
S'BTREE'
p136
sg119
S'attachments_creation_ts_idx'
p137
sg121
S'A'
sg122
S''
sg123
L1L
sg124
S'attachments'
p138
sg126
L0L
sg127
Nsg128
S'creation_ts'
p139
sa(dp140
g114
S''
sg115
L1L
sg116
Nsg117
S'BTREE'
p141
sg119
S'attachments_modification_time_idx'
p142
sg121
S'A'
sg122
S''
sg123
L1L
sg124
S'attachments'
p143
sg126
L0L
sg127
Nsg128
S'modification_time'
p144
sa(dp145
g114
S''
sg115
L1L
sg116
Nsg117
S'BTREE'
p146
sg119
S'attachments_submitter_id_idx'
p147
sg121
S'A'
sg122
S''
sg123
L1L
sg124
S'attachments'
p148
sg126
L0L
sg127
Nsg128
S'submitter_id'
p149
sa(dp150
g114
S''
sg115
L1L
sg116
Nsg117
S'BTREE'
p151
sg119
S'attachments_submitter_id_idx'
p152
sg121
S'A'
sg122
S''
sg123
L2L
sg124
S'attachments'
p153
sg126
L0L
sg127
Nsg128
S'bug_id'
p154
satp155
sS'namedqueries_link_in_footer'
p156
((lp157
(dp158
S'Extra'
p159
S''
sS'Default'
p160
S''
sS'Field'
p161
S'namedquery_id'
p162
sS'Key'
p163
S'PRI'
p164
sS'Null'
p165
S'NO'
p166
sS'Type'
p167
S'mediumint(9)'
p168
sa(dp169
g159
S''
sg160
S''
sg161
S'user_id'
p170
sg163
S'PRI'
p171
sg165
S'NO'
p172
sg167
S'mediumint(9)'
p173
sa(lp174
(dp175
S'Comment'
p176
S''
sS'Non_unique'
p177
L0L
sS'Sub_part'
p178
NsS'Index_type'
p179
S'BTREE'
p180
sS'Key_name'
p181
S'namedqueries_link_in_footer_id_idx'
p182
sS'Collation'
p183
S'A'
sS'Null'
p184
S''
sS'Seq_in_index'
p185
L1L
sS'Table'
p186
S'namedqueries_link_in_footer'
p187
sS'Cardinality'
p188
L0L
sS'Packed'
p189
NsS'Column_name'
p190
S'namedquery_id'
p191
sa(dp192
g176
S''
sg177
L0L
sg178
Nsg179
S'BTREE'
p193
sg181
S'namedqueries_link_in_footer_id_idx'
p194
sg183
S'A'
sg184
S''
sg185
L2L
sg186
S'namedqueries_link_in_footer'
p195
sg188
L0L
sg189
Nsg190
S'user_id'
p196
sa(dp197
g176
S''
sg177
L1L
sg178
Nsg179
S'BTREE'
p198
sg181
S'namedqueries_link_in_footer_userid_idx'
p199
sg183
S'A'
sg184
S''
sg185
L1L
sg186
S'namedqueries_link_in_footer'
p200
sg188
L0L
sg189
Nsg190
S'user_id'
p201
satp202
sS'duplicates'
p203
((lp204
(dp205
S'Extra'
p206
S''
sS'Default'
p207
S''
sS'Field'
p208
S'dupe_of'
p209
sS'Key'
p210
S''
sS'Null'
p211
S'NO'
p212
sS'Type'
p213
S'mediumint(9)'
p214
sa(dp215
g206
S''
sg207
S''
sg208
S'dupe'
p216
sg210
S'PRI'
p217
sg211
S'NO'
p218
sg213
S'mediumint(9)'
p219
sa(lp220
(dp221
S'Comment'
p222
S''
sS'Non_unique'
p223
L0L
sS'Sub_part'
p224
NsS'Index_type'
p225
S'BTREE'
p226
sS'Key_name'
p227
S'PRIMARY'
p228
sS'Collation'
p229
S'A'
sS'Null'
p230
S''
sS'Seq_in_index'
p231
L1L
sS'Table'
p232
S'duplicates'
p233
sS'Cardinality'
p234
L0L
sS'Packed'
p235
NsS'Column_name'
p236
S'dupe'
p237
satp238
sS'rep_platform'
p239
((lp240
(dp241
S'Extra'
p242
S'auto_increment'
p243
sS'Default'
p244
NsS'Field'
p245
S'id'
p246
sS'Key'
p247
S'PRI'
p248
sS'Null'
p249
S'NO'
p250
sS'Type'
p251
S'smallint(6)'
p252
sa(dp253
g242
S''
sg244
S''
sg245
S'value'
p254
sg247
S'UNI'
p255
sg249
S'NO'
p256
sg251
S'varchar(64)'
p257
sa(dp258
g242
S''
sg244
S'0'
sg245
S'sortkey'
p259
sg247
S'MUL'
p260
sg249
S'NO'
p261
sg251
S'smallint(6)'
p262
sa(dp263
g242
S''
sg244
S'1'
sg245
S'isactive'
p264
sg247
S''
sg249
S'NO'
p265
sg251
S'tinyint(4)'
p266
sa(lp267
(dp268
S'Comment'
p269
S''
sS'Non_unique'
p270
L0L
sS'Sub_part'
p271
NsS'Index_type'
p272
S'BTREE'
p273
sS'Key_name'
p274
S'PRIMARY'
p275
sS'Collation'
p276
S'A'
sS'Null'
p277
S''
sS'Seq_in_index'
p278
L1L
sS'Table'
p279
S'rep_platform'
p280
sS'Cardinality'
p281
L4L
sS'Packed'
p282
NsS'Column_name'
p283
S'id'
p284
sa(dp285
g269
S''
sg270
L0L
sg271
Nsg272
S'BTREE'
p286
sg274
S'rep_platform_value_idx'
p287
sg276
S'A'
sg277
S''
sg278
L1L
sg279
S'rep_platform'
p288
sg281
L4L
sg282
Nsg283
S'value'
p289
sa(dp290
g269
S''
sg270
L1L
sg271
Nsg272
S'BTREE'
p291
sg274
S'rep_platform_sortkey_idx'
p292
sg276
S'A'
sg277
S''
sg278
L1L
sg279
S'rep_platform'
p293
sg281
L4L
sg282
Nsg283
S'sortkey'
p294
sa(dp295
g269
S''
sg270
L1L
sg271
Nsg272
S'BTREE'
p296
sg274
S'rep_platform_sortkey_idx'
p297
sg276
S'A'
sg277
S''
sg278
L2L
sg279
S'rep_platform'
p298
sg281
L4L
sg282
Nsg283
S'value'
p299
satp300
sS'quips'
p301
((lp302
(dp303
S'Extra'
p304
S'auto_increment'
p305
sS'Default'
p306
NsS'Field'
p307
S'quipid'
p308
sS'Key'
p309
S'PRI'
p310
sS'Null'
p311
S'NO'
p312
sS'Type'
p313
S'mediumint(9)'
p314
sa(dp315
g304
S''
sg306
Nsg307
S'userid'
p316
sg309
S''
sg311
S'YES'
p317
sg313
S'mediumint(9)'
p318
sa(dp319
g304
S''
sg306
S''
sg307
S'quip'
p320
sg309
S''
sg311
S'NO'
p321
sg313
S'mediumtext'
p322
sa(dp323
g304
S''
sg306
S'1'
sg307
S'approved'
p324
sg309
S''
sg311
S'NO'
p325
sg313
S'tinyint(4)'
p326
sa(lp327
(dp328
S'Comment'
p329
S''
sS'Non_unique'
p330
L0L
sS'Sub_part'
p331
NsS'Index_type'
p332
S'BTREE'
p333
sS'Key_name'
p334
S'PRIMARY'
p335
sS'Collation'
p336
S'A'
sS'Null'
p337
S''
sS'Seq_in_index'
p338
L1L
sS'Table'
p339
S'quips'
p340
sS'Cardinality'
p341
L0L
sS'Packed'
p342
NsS'Column_name'
p343
S'quipid'
p344
satp345
sS'series_categories'
p346
((lp347
(dp348
S'Extra'
p349
S'auto_increment'
p350
sS'Default'
p351
NsS'Field'
p352
S'id'
p353
sS'Key'
p354
S'PRI'
p355
sS'Null'
p356
S'NO'
p357
sS'Type'
p358
S'smallint(6)'
p359
sa(dp360
g349
S''
sg351
S''
sg352
S'name'
p361
sg354
S'UNI'
p362
sg356
S'NO'
p363
sg358
S'varchar(64)'
p364
sa(lp365
(dp366
S'Comment'
p367
S''
sS'Non_unique'
p368
L0L
sS'Sub_part'
p369
NsS'Index_type'
p370
S'BTREE'
p371
sS'Key_name'
p372
S'PRIMARY'
p373
sS'Collation'
p374
S'A'
sS'Null'
p375
S''
sS'Seq_in_index'
p376
L1L
sS'Table'
p377
S'series_categories'
p378
sS'Cardinality'
p379
L0L
sS'Packed'
p380
NsS'Column_name'
p381
S'id'
p382
sa(dp383
g367
S''
sg368
L0L
sg369
Nsg370
S'BTREE'
p384
sg372
S'series_categories_name_idx'
p385
sg374
S'A'
sg375
S''
sg376
L1L
sg377
S'series_categories'
p386
sg379
L0L
sg380
Nsg381
S'name'
p387
satp388
sS'group_control_map'
p389
((lp390
(dp391
S'Extra'
p392
S''
sS'Default'
p393
S''
sS'Field'
p394
S'group_id'
p395
sS'Key'
p396
S'PRI'
p397
sS'Null'
p398
S'NO'
p399
sS'Type'
p400
S'mediumint(9)'
p401
sa(dp402
g392
S''
sg393
S''
sg394
S'product_id'
p403
sg396
S'PRI'
p404
sg398
S'NO'
p405
sg400
S'mediumint(9)'
p406
sa(dp407
g392
S''
sg393
S''
sg394
S'entry'
p408
sg396
S''
sg398
S'NO'
p409
sg400
S'tinyint(4)'
p410
sa(dp411
g392
S''
sg393
S''
sg394
S'membercontrol'
p412
sg396
S''
sg398
S'NO'
p413
sg400
S'tinyint(4)'
p414
sa(dp415
g392
S''
sg393
S''
sg394
S'othercontrol'
p416
sg396
S''
sg398
S'NO'
p417
sg400
S'tinyint(4)'
p418
sa(dp419
g392
S''
sg393
S''
sg394
S'canedit'
p420
sg396
S''
sg398
S'NO'
p421
sg400
S'tinyint(4)'
p422
sa(dp423
g392
S''
sg393
S'0'
sg394
S'editcomponents'
p424
sg396
S''
sg398
S'NO'
p425
sg400
S'tinyint(4)'
p426
sa(dp427
g392
S''
sg393
S'0'
sg394
S'editbugs'
p428
sg396
S''
sg398
S'NO'
p429
sg400
S'tinyint(4)'
p430
sa(dp431
g392
S''
sg393
S'0'
sg394
S'canconfirm'
p432
sg396
S''
sg398
S'NO'
p433
sg400
S'tinyint(4)'
p434
sa(lp435
(dp436
S'Comment'
p437
S''
sS'Non_unique'
p438
L0L
sS'Sub_part'
p439
NsS'Index_type'
p440
S'BTREE'
p441
sS'Key_name'
p442
S'group_control_map_product_id_idx'
p443
sS'Collation'
p444
S'A'
sS'Null'
p445
S''
sS'Seq_in_index'
p446
L1L
sS'Table'
p447
S'group_control_map'
p448
sS'Cardinality'
p449
L0L
sS'Packed'
p450
NsS'Column_name'
p451
S'product_id'
p452
sa(dp453
g437
S''
sg438
L0L
sg439
Nsg440
S'BTREE'
p454
sg442
S'group_control_map_product_id_idx'
p455
sg444
S'A'
sg445
S''
sg446
L2L
sg447
S'group_control_map'
p456
sg449
L0L
sg450
Nsg451
S'group_id'
p457
sa(dp458
g437
S''
sg438
L1L
sg439
Nsg440
S'BTREE'
p459
sg442
S'group_control_map_group_id_idx'
p460
sg444
S'A'
sg445
S''
sg446
L1L
sg447
S'group_control_map'
p461
sg449
L0L
sg450
Nsg451
S'group_id'
p462
satp463
sS'component_cc'
p464
((lp465
(dp466
S'Extra'
p467
S''
sS'Default'
p468
S''
sS'Field'
p469
S'user_id'
p470
sS'Key'
p471
S'PRI'
p472
sS'Null'
p473
S'NO'
p474
sS'Type'
p475
S'mediumint(9)'
p476
sa(dp477
g467
S''
sg468
S''
sg469
S'component_id'
p478
sg471
S'PRI'
p479
sg473
S'NO'
p480
sg475
S'smallint(6)'
p481
sa(lp482
(dp483
S'Comment'
p484
S''
sS'Non_unique'
p485
L0L
sS'Sub_part'
p486
NsS'Index_type'
p487
S'BTREE'
p488
sS'Key_name'
p489
S'component_cc_user_id_idx'
p490
sS'Collation'
p491
S'A'
sS'Null'
p492
S''
sS'Seq_in_index'
p493
L1L
sS'Table'
p494
S'component_cc'
p495
sS'Cardinality'
p496
L0L
sS'Packed'
p497
NsS'Column_name'
p498
S'component_id'
p499
sa(dp500
g484
S''
sg485
L0L
sg486
Nsg487
S'BTREE'
p501
sg489
S'component_cc_user_id_idx'
p502
sg491
S'A'
sg492
S''
sg493
L2L
sg494
S'component_cc'
p503
sg496
L0L
sg497
Nsg498
S'user_id'
p504
sa(dp505
g484
S''
sg485
L1L
sg486
Nsg487
S'BTREE'
p506
sg489
S'fk_component_cc_user_id_profiles_userid'
p507
sg491
S'A'
sg492
S''
sg493
L1L
sg494
S'component_cc'
p508
sg496
L0L
sg497
Nsg498
S'user_id'
p509
satp510
sS'keywords'
p511
((lp512
(dp513
S'Extra'
p514
S''
sS'Default'
p515
S''
sS'Field'
p516
S'bug_id'
p517
sS'Key'
p518
S'PRI'
p519
sS'Null'
p520
S'NO'
p521
sS'Type'
p522
S'mediumint(9)'
p523
sa(dp524
g514
S''
sg515
S''
sg516
S'keywordid'
p525
sg518
S'PRI'
p526
sg520
S'NO'
p527
sg522
S'smallint(6)'
p528
sa(lp529
(dp530
S'Comment'
p531
S''
sS'Non_unique'
p532
L0L
sS'Sub_part'
p533
NsS'Index_type'
p534
S'BTREE'
p535
sS'Key_name'
p536
S'keywords_bug_id_idx'
p537
sS'Collation'
p538
S'A'
sS'Null'
p539
S''
sS'Seq_in_index'
p540
L1L
sS'Table'
p541
S'keywords'
p542
sS'Cardinality'
p543
L0L
sS'Packed'
p544
NsS'Column_name'
p545
S'bug_id'
p546
sa(dp547
g531
S''
sg532
L0L
sg533
Nsg534
S'BTREE'
p548
sg536
S'keywords_bug_id_idx'
p549
sg538
S'A'
sg539
S''
sg540
L2L
sg541
S'keywords'
p550
sg543
L0L
sg544
Nsg545
S'keywordid'
p551
sa(dp552
g531
S''
sg532
L1L
sg533
Nsg534
S'BTREE'
p553
sg536
S'keywords_keywordid_idx'
p554
sg538
S'A'
sg539
S''
sg540
L1L
sg541
S'keywords'
p555
sg543
L0L
sg544
Nsg545
S'keywordid'
p556
satp557
sS'series_data'
p558
((lp559
(dp560
S'Extra'
p561
S''
sS'Default'
p562
S''
sS'Field'
p563
S'series_id'
p564
sS'Key'
p565
S'PRI'
p566
sS'Null'
p567
S'NO'
p568
sS'Type'
p569
S'mediumint(9)'
p570
sa(dp571
g561
S''
sg562
S''
sg563
S'series_date'
p572
sg565
S'PRI'
p573
sg567
S'NO'
p574
sg569
S'datetime'
p575
sa(dp576
g561
S''
sg562
S''
sg563
S'series_value'
p577
sg565
S''
sg567
S'NO'
p578
sg569
S'mediumint(9)'
p579
sa(lp580
(dp581
S'Comment'
p582
S''
sS'Non_unique'
p583
L0L
sS'Sub_part'
p584
NsS'Index_type'
p585
S'BTREE'
p586
sS'Key_name'
p587
S'series_data_series_id_idx'
p588
sS'Collation'
p589
S'A'
sS'Null'
p590
S''
sS'Seq_in_index'
p591
L1L
sS'Table'
p592
S'series_data'
p593
sS'Cardinality'
p594
L0L
sS'Packed'
p595
NsS'Column_name'
p596
S'series_id'
p597
sa(dp598
g582
S''
sg583
L0L
sg584
Nsg585
S'BTREE'
p599
sg587
S'series_data_series_id_idx'
p600
sg589
S'A'
sg590
S''
sg591
L2L
sg592
S'series_data'
p601
sg594
L0L
sg595
Nsg596
S'series_date'
p602
satp603
sS'keyworddefs'
p604
((lp605
(dp606
S'Extra'
p607
S'auto_increment'
p608
sS'Default'
p609
NsS'Field'
p610
S'id'
p611
sS'Key'
p612
S'PRI'
p613
sS'Null'
p614
S'NO'
p615
sS'Type'
p616
S'smallint(6)'
p617
sa(dp618
g607
S''
sg609
S''
sg610
S'name'
p619
sg612
S'UNI'
p620
sg614
S'NO'
p621
sg616
S'varchar(64)'
p622
sa(dp623
g607
S''
sg609
Nsg610
S'description'
p624
sg612
S''
sg614
S'YES'
p625
sg616
S'mediumtext'
p626
sa(lp627
(dp628
S'Comment'
p629
S''
sS'Non_unique'
p630
L0L
sS'Sub_part'
p631
NsS'Index_type'
p632
S'BTREE'
p633
sS'Key_name'
p634
S'PRIMARY'
p635
sS'Collation'
p636
S'A'
sS'Null'
p637
S''
sS'Seq_in_index'
p638
L1L
sS'Table'
p639
S'keyworddefs'
p640
sS'Cardinality'
p641
L0L
sS'Packed'
p642
NsS'Column_name'
p643
S'id'
p644
sa(dp645
g629
S''
sg630
L0L
sg631
Nsg632
S'BTREE'
p646
sg634
S'keyworddefs_name_idx'
p647
sg636
S'A'
sg637
S''
sg638
L1L
sg639
S'keyworddefs'
p648
sg641
L0L
sg642
Nsg643
S'name'
p649
satp650
sS'namedquery_group_map'
p651
((lp652
(dp653
S'Extra'
p654
S''
sS'Default'
p655
S''
sS'Field'
p656
S'namedquery_id'
p657
sS'Key'
p658
S'PRI'
p659
sS'Null'
p660
S'NO'
p661
sS'Type'
p662
S'mediumint(9)'
p663
sa(dp664
g654
S''
sg655
S''
sg656
S'group_id'
p665
sg658
S'MUL'
p666
sg660
S'NO'
p667
sg662
S'mediumint(9)'
p668
sa(lp669
(dp670
S'Comment'
p671
S''
sS'Non_unique'
p672
L0L
sS'Sub_part'
p673
NsS'Index_type'
p674
S'BTREE'
p675
sS'Key_name'
p676
S'namedquery_group_map_namedquery_id_idx'
p677
sS'Collation'
p678
S'A'
sS'Null'
p679
S''
sS'Seq_in_index'
p680
L1L
sS'Table'
p681
S'namedquery_group_map'
p682
sS'Cardinality'
p683
L0L
sS'Packed'
p684
NsS'Column_name'
p685
S'namedquery_id'
p686
sa(dp687
g671
S''
sg672
L1L
sg673
Nsg674
S'BTREE'
p688
sg676
S'namedquery_group_map_group_id_idx'
p689
sg678
S'A'
sg679
S''
sg680
L1L
sg681
S'namedquery_group_map'
p690
sg683
L0L
sg684
Nsg685
S'group_id'
p691
satp692
sS'flagexclusions'
p693
((lp694
(dp695
S'Extra'
p696
S''
sS'Default'
p697
S''
sS'Field'
p698
S'type_id'
p699
sS'Key'
p700
S'MUL'
p701
sS'Null'
p702
S'NO'
p703
sS'Type'
p704
S'smallint(6)'
p705
sa(dp706
g696
S''
sg697
Nsg698
S'product_id'
p707
sg700
S''
sg702
S'YES'
p708
sg704
S'smallint(6)'
p709
sa(dp710
g696
S''
sg697
Nsg698
S'component_id'
p711
sg700
S''
sg702
S'YES'
p712
sg704
S'smallint(6)'
p713
sa(lp714
(dp715
S'Comment'
p716
S''
sS'Non_unique'
p717
L1L
sS'Sub_part'
p718
NsS'Index_type'
p719
S'BTREE'
p720
sS'Key_name'
p721
S'flagexclusions_type_id_idx'
p722
sS'Collation'
p723
S'A'
sS'Null'
p724
S''
sS'Seq_in_index'
p725
L1L
sS'Table'
p726
S'flagexclusions'
p727
sS'Cardinality'
p728
L0L
sS'Packed'
p729
NsS'Column_name'
p730
S'type_id'
p731
sa(dp732
g716
S''
sg717
L1L
sg718
Nsg719
S'BTREE'
p733
sg721
S'flagexclusions_type_id_idx'
p734
sg723
S'A'
sg724
S'YES'
p735
sg725
L2L
sg726
S'flagexclusions'
p736
sg728
L0L
sg729
Nsg730
S'product_id'
p737
sa(dp738
g716
S''
sg717
L1L
sg718
Nsg719
S'BTREE'
p739
sg721
S'flagexclusions_type_id_idx'
p740
sg723
S'A'
sg724
S'YES'
p741
sg725
L3L
sg726
S'flagexclusions'
p742
sg728
L0L
sg729
Nsg730
S'component_id'
p743
satp744
sS'votes'
p745
((lp746
(dp747
S'Extra'
p748
S''
sS'Default'
p749
S''
sS'Field'
p750
S'who'
p751
sS'Key'
p752
S'MUL'
p753
sS'Null'
p754
S'NO'
p755
sS'Type'
p756
S'mediumint(9)'
p757
sa(dp758
g748
S''
sg749
S''
sg750
S'bug_id'
p759
sg752
S'MUL'
p760
sg754
S'NO'
p761
sg756
S'mediumint(9)'
p762
sa(dp763
g748
S''
sg749
S''
sg750
S'vote_count'
p764
sg752
S''
sg754
S'NO'
p765
sg756
S'smallint(6)'
p766
sa(lp767
(dp768
S'Comment'
p769
S''
sS'Non_unique'
p770
L1L
sS'Sub_part'
p771
NsS'Index_type'
p772
S'BTREE'
p773
sS'Key_name'
p774
S'votes_who_idx'
p775
sS'Collation'
p776
S'A'
sS'Null'
p777
S''
sS'Seq_in_index'
p778
L1L
sS'Table'
p779
S'votes'
p780
sS'Cardinality'
p781
L0L
sS'Packed'
p782
NsS'Column_name'
p783
S'who'
p784
sa(dp785
g769
S''
sg770
L1L
sg771
Nsg772
S'BTREE'
p786
sg774
S'votes_bug_id_idx'
p787
sg776
S'A'
sg777
S''
sg778
L1L
sg779
S'votes'
p788
sg781
L0L
sg782
Nsg783
S'bug_id'
p789
satp790
sS'attach_data'
p791
((lp792
(dp793
S'Extra'
p794
S''
sS'Default'
p795
S''
sS'Field'
p796
S'id'
p797
sS'Key'
p798
S'PRI'
p799
sS'Null'
p800
S'NO'
p801
sS'Type'
p802
S'mediumint(9)'
p803
sa(dp804
g794
S''
sg795
S''
sg796
S'thedata'
p805
sg798
S''
sg800
S'NO'
p806
sg802
S'longblob'
p807
sa(lp808
(dp809
S'Comment'
p810
S''
sS'Non_unique'
p811
L0L
sS'Sub_part'
p812
NsS'Index_type'
p813
S'BTREE'
p814
sS'Key_name'
p815
S'PRIMARY'
p816
sS'Collation'
p817
S'A'
sS'Null'
p818
S''
sS'Seq_in_index'
p819
L1L
sS'Table'
p820
S'attach_data'
p821
sS'Cardinality'
p822
L0L
sS'Packed'
p823
NsS'Column_name'
p824
S'id'
p825
satp826
sS'products'
p827
((lp828
(dp829
S'Extra'
p830
S'auto_increment'
p831
sS'Default'
p832
NsS'Field'
p833
S'id'
p834
sS'Key'
p835
S'PRI'
p836
sS'Null'
p837
S'NO'
p838
sS'Type'
p839
S'smallint(6)'
p840
sa(dp841
g830
S''
sg832
S''
sg833
S'name'
p842
sg835
S'UNI'
p843
sg837
S'NO'
p844
sg839
S'varchar(64)'
p845
sa(dp846
g830
S''
sg832
S'1'
sg833
S'classification_id'
p847
sg835
S''
sg837
S'NO'
p848
sg839
S'smallint(6)'
p849
sa(dp850
g830
S''
sg832
Nsg833
S'description'
p851
sg835
S''
sg837
S'YES'
p852
sg839
S'mediumtext'
p853
sa(dp854
g830
S''
sg832
S''
sg833
S'milestoneurl'
p855
sg835
S''
sg837
S'NO'
p856
sg839
S'tinytext'
p857
sa(dp858
g830
S''
sg832
S'0'
sg833
S'disallownew'
p859
sg835
S''
sg837
S'NO'
p860
sg839
S'tinyint(4)'
p861
sa(dp862
g830
S''
sg832
S'0'
sg833
S'votesperuser'
p863
sg835
S''
sg837
S'NO'
p864
sg839
S'smallint(6)'
p865
sa(dp866
g830
S''
sg832
S'10000'
p867
sg833
S'maxvotesperbug'
p868
sg835
S''
sg837
S'NO'
p869
sg839
S'smallint(6)'
p870
sa(dp871
g830
S''
sg832
S'0'
sg833
S'votestoconfirm'
p872
sg835
S''
sg837
S'NO'
p873
sg839
S'smallint(6)'
p874
sa(dp875
g830
S''
sg832
S'---'
p876
sg833
S'defaultmilestone'
p877
sg835
S''
sg837
S'NO'
p878
sg839
S'varchar(20)'
p879
sa(lp880
(dp881
S'Comment'
p882
S''
sS'Non_unique'
p883
L0L
sS'Sub_part'
p884
NsS'Index_type'
p885
S'BTREE'
p886
sS'Key_name'
p887
S'PRIMARY'
p888
sS'Collation'
p889
S'A'
sS'Null'
p890
S''
sS'Seq_in_index'
p891
L1L
sS'Table'
p892
S'products'
p893
sS'Cardinality'
p894
L1L
sS'Packed'
p895
NsS'Column_name'
p896
S'id'
p897
sa(dp898
g882
S''
sg883
L0L
sg884
Nsg885
S'BTREE'
p899
sg887
S'products_name_idx'
p900
sg889
S'A'
sg890
S''
sg891
L1L
sg892
S'products'
p901
sg894
L1L
sg895
Nsg896
S'name'
p902
satp903
sS'bug_status'
p904
((lp905
(dp906
S'Extra'
p907
S'auto_increment'
p908
sS'Default'
p909
NsS'Field'
p910
S'id'
p911
sS'Key'
p912
S'PRI'
p913
sS'Null'
p914
S'NO'
p915
sS'Type'
p916
S'smallint(6)'
p917
sa(dp918
g907
S''
sg909
S''
sg910
S'value'
p919
sg912
S'UNI'
p920
sg914
S'NO'
p921
sg916
S'varchar(64)'
p922
sa(dp923
g907
S''
sg909
S'0'
sg910
S'sortkey'
p924
sg912
S'MUL'
p925
sg914
S'NO'
p926
sg916
S'smallint(6)'
p927
sa(dp928
g907
S''
sg909
S'1'
sg910
S'isactive'
p929
sg912
S''
sg914
S'NO'
p930
sg916
S'tinyint(4)'
p931
sa(dp932
g907
S''
sg909
S'1'
sg910
S'is_open'
p933
sg912
S''
sg914
S'NO'
p934
sg916
S'tinyint(4)'
p935
sa(lp936
(dp937
S'Comment'
p938
S''
sS'Non_unique'
p939
L0L
sS'Sub_part'
p940
NsS'Index_type'
p941
S'BTREE'
p942
sS'Key_name'
p943
S'PRIMARY'
p944
sS'Collation'
p945
S'A'
sS'Null'
p946
S''
sS'Seq_in_index'
p947
L1L
sS'Table'
p948
S'bug_status'
p949
sS'Cardinality'
p950
L7L
sS'Packed'
p951
NsS'Column_name'
p952
S'id'
p953
sa(dp954
g938
S''
sg939
L0L
sg940
Nsg941
S'BTREE'
p955
sg943
S'bug_status_value_idx'
p956
sg945
S'A'
sg946
S''
sg947
L1L
sg948
S'bug_status'
p957
sg950
L7L
sg951
Nsg952
S'value'
p958
sa(dp959
g938
S''
sg939
L1L
sg940
Nsg941
S'BTREE'
p960
sg943
S'bug_status_sortkey_idx'
p961
sg945
S'A'
sg946
S''
sg947
L1L
sg948
S'bug_status'
p962
sg950
L7L
sg951
Nsg952
S'sortkey'
p963
sa(dp964
g938
S''
sg939
L1L
sg940
Nsg941
S'BTREE'
p965
sg943
S'bug_status_sortkey_idx'
p966
sg945
S'A'
sg946
S''
sg947
L2L
sg948
S'bug_status'
p967
sg950
L7L
sg951
Nsg952
S'value'
p968
satp969
sS'priority'
p970
((lp971
(dp972
S'Extra'
p973
S'auto_increment'
p974
sS'Default'
p975
NsS'Field'
p976
S'id'
p977
sS'Key'
p978
S'PRI'
p979
sS'Null'
p980
S'NO'
p981
sS'Type'
p982
S'smallint(6)'
p983
sa(dp984
g973
S''
sg975
S''
sg976
S'value'
p985
sg978
S'UNI'
p986
sg980
S'NO'
p987
sg982
S'varchar(64)'
p988
sa(dp989
g973
S''
sg975
S'0'
sg976
S'sortkey'
p990
sg978
S'MUL'
p991
sg980
S'NO'
p992
sg982
S'smallint(6)'
p993
sa(dp994
g973
S''
sg975
S'1'
sg976
S'isactive'
p995
sg978
S''
sg980
S'NO'
p996
sg982
S'tinyint(4)'
p997
sa(lp998
(dp999
S'Comment'
p1000
S''
sS'Non_unique'
p1001
L0L
sS'Sub_part'
p1002
NsS'Index_type'
p1003
S'BTREE'
p1004
sS'Key_name'
p1005
S'PRIMARY'
p1006
sS'Collation'
p1007
S'A'
sS'Null'
p1008
S''
sS'Seq_in_index'
p1009
L1L
sS'Table'
p1010
S'priority'
p1011
sS'Cardinality'
p1012
L5L
sS'Packed'
p1013
NsS'Column_name'
p1014
S'id'
p1015
sa(dp1016
g1000
S''
sg1001
L0L
sg1002
Nsg1003
S'BTREE'
p1017
sg1005
S'priority_value_idx'
p1018
sg1007
S'A'
sg1008
S''
sg1009
L1L
sg1010
S'priority'
p1019
sg1012
L5L
sg1013
Nsg1014
S'value'
p1020
sa(dp1021
g1000
S''
sg1001
L1L
sg1002
Nsg1003
S'BTREE'
p1022
sg1005
S'priority_sortkey_idx'
p1023
sg1007
S'A'
sg1008
S''
sg1009
L1L
sg1010
S'priority'
p1024
sg1012
L5L
sg1013
Nsg1014
S'sortkey'
p1025
sa(dp1026
g1000
S''
sg1001
L1L
sg1002
Nsg1003
S'BTREE'
p1027
sg1005
S'priority_sortkey_idx'
p1028
sg1007
S'A'
sg1008
S''
sg1009
L2L
sg1010
S'priority'
p1029
sg1012
L5L
sg1013
Nsg1014
S'value'
p1030
satp1031
sS'cc'
p1032
((lp1033
(dp1034
S'Extra'
p1035
S''
sS'Default'
p1036
S''
sS'Field'
p1037
S'bug_id'
p1038
sS'Key'
p1039
S'PRI'
p1040
sS'Null'
p1041
S'NO'
p1042
sS'Type'
p1043
S'mediumint(9)'
p1044
sa(dp1045
g1035
S''
sg1036
S''
sg1037
S'who'
p1046
sg1039
S'PRI'
p1047
sg1041
S'NO'
p1048
sg1043
S'mediumint(9)'
p1049
sa(lp1050
(dp1051
S'Comment'
p1052
S''
sS'Non_unique'
p1053
L0L
sS'Sub_part'
p1054
NsS'Index_type'
p1055
S'BTREE'
p1056
sS'Key_name'
p1057
S'cc_bug_id_idx'
p1058
sS'Collation'
p1059
S'A'
sS'Null'
p1060
S''
sS'Seq_in_index'
p1061
L1L
sS'Table'
p1062
S'cc'
p1063
sS'Cardinality'
p1064
L0L
sS'Packed'
p1065
NsS'Column_name'
p1066
S'bug_id'
p1067
sa(dp1068
g1052
S''
sg1053
L0L
sg1054
Nsg1055
S'BTREE'
p1069
sg1057
S'cc_bug_id_idx'
p1070
sg1059
S'A'
sg1060
S''
sg1061
L2L
sg1062
S'cc'
p1071
sg1064
L0L
sg1065
Nsg1066
S'who'
p1072
sa(dp1073
g1052
S''
sg1053
L1L
sg1054
Nsg1055
S'BTREE'
p1074
sg1057
S'cc_who_idx'
p1075
sg1059
S'A'
sg1060
S''
sg1061
L1L
sg1062
S'cc'
p1076
sg1064
L0L
sg1065
Nsg1066
S'who'
p1077
satp1078
sS'setting'
p1079
((lp1080
(dp1081
S'Extra'
p1082
S''
sS'Default'
p1083
S''
sS'Field'
p1084
S'name'
p1085
sS'Key'
p1086
S'PRI'
p1087
sS'Null'
p1088
S'NO'
p1089
sS'Type'
p1090
S'varchar(32)'
p1091
sa(dp1092
g1082
S''
sg1083
S''
sg1084
S'default_value'
p1093
sg1086
S''
sg1088
S'NO'
p1094
sg1090
S'varchar(32)'
p1095
sa(dp1096
g1082
S''
sg1083
S'1'
sg1084
S'is_enabled'
p1097
sg1086
S''
sg1088
S'NO'
p1098
sg1090
S'tinyint(4)'
p1099
sa(dp1100
g1082
S''
sg1083
Nsg1084
S'subclass'
p1101
sg1086
S''
sg1088
S'YES'
p1102
sg1090
S'varchar(32)'
p1103
sa(lp1104
(dp1105
S'Comment'
p1106
S''
sS'Non_unique'
p1107
L0L
sS'Sub_part'
p1108
NsS'Index_type'
p1109
S'BTREE'
p1110
sS'Key_name'
p1111
S'PRIMARY'
p1112
sS'Collation'
p1113
S'A'
sS'Null'
p1114
S''
sS'Seq_in_index'
p1115
L1L
sS'Table'
p1116
S'setting'
p1117
sS'Cardinality'
p1118
L10L
sS'Packed'
p1119
NsS'Column_name'
p1120
S'name'
p1121
satp1122
sS'email_setting'
p1123
((lp1124
(dp1125
S'Extra'
p1126
S''
sS'Default'
p1127
S''
sS'Field'
p1128
S'user_id'
p1129
sS'Key'
p1130
S'PRI'
p1131
sS'Null'
p1132
S'NO'
p1133
sS'Type'
p1134
S'mediumint(9)'
p1135
sa(dp1136
g1126
S''
sg1127
S''
sg1128
S'relationship'
p1137
sg1130
S'PRI'
p1138
sg1132
S'NO'
p1139
sg1134
S'tinyint(4)'
p1140
sa(dp1141
g1126
S''
sg1127
S''
sg1128
S'event'
p1142
sg1130
S'PRI'
p1143
sg1132
S'NO'
p1144
sg1134
S'tinyint(4)'
p1145
sa(lp1146
(dp1147
S'Comment'
p1148
S''
sS'Non_unique'
p1149
L0L
sS'Sub_part'
p1150
NsS'Index_type'
p1151
S'BTREE'
p1152
sS'Key_name'
p1153
S'email_setting_user_id_idx'
p1154
sS'Collation'
p1155
S'A'
sS'Null'
p1156
S''
sS'Seq_in_index'
p1157
L1L
sS'Table'
p1158
S'email_setting'
p1159
sS'Cardinality'
p1160
L63L
sS'Packed'
p1161
NsS'Column_name'
p1162
S'user_id'
p1163
sa(dp1164
g1148
S''
sg1149
L0L
sg1150
Nsg1151
S'BTREE'
p1165
sg1153
S'email_setting_user_id_idx'
p1166
sg1155
S'A'
sg1156
S''
sg1157
L2L
sg1158
S'email_setting'
p1167
sg1160
L63L
sg1161
Nsg1162
S'relationship'
p1168
sa(dp1169
g1148
S''
sg1149
L0L
sg1150
Nsg1151
S'BTREE'
p1170
sg1153
S'email_setting_user_id_idx'
p1171
sg1155
S'A'
sg1156
S''
sg1157
L3L
sg1158
S'email_setting'
p1172
sg1160
L63L
sg1161
Nsg1162
S'event'
p1173
satp1174
sS'series'
p1175
((lp1176
(dp1177
S'Extra'
p1178
S'auto_increment'
p1179
sS'Default'
p1180
NsS'Field'
p1181
S'series_id'
p1182
sS'Key'
p1183
S'PRI'
p1184
sS'Null'
p1185
S'NO'
p1186
sS'Type'
p1187
S'mediumint(9)'
p1188
sa(dp1189
g1178
S''
sg1180
Nsg1181
S'creator'
p1190
sg1183
S'MUL'
p1191
sg1185
S'YES'
p1192
sg1187
S'mediumint(9)'
p1193
sa(dp1194
g1178
S''
sg1180
S''
sg1181
S'category'
p1195
sg1183
S''
sg1185
S'NO'
p1196
sg1187
S'smallint(6)'
p1197
sa(dp1198
g1178
S''
sg1180
S''
sg1181
S'subcategory'
p1199
sg1183
S''
sg1185
S'NO'
p1200
sg1187
S'smallint(6)'
p1201
sa(dp1202
g1178
S''
sg1180
S''
sg1181
S'name'
p1203
sg1183
S''
sg1185
S'NO'
p1204
sg1187
S'varchar(64)'
p1205
sa(dp1206
g1178
S''
sg1180
S''
sg1181
S'frequency'
p1207
sg1183
S''
sg1185
S'NO'
p1208
sg1187
S'smallint(6)'
p1209
sa(dp1210
g1178
S''
sg1180
Nsg1181
S'last_viewed'
p1211
sg1183
S''
sg1185
S'YES'
p1212
sg1187
S'datetime'
p1213
sa(dp1214
g1178
S''
sg1180
S''
sg1181
S'query'
p1215
sg1183
S''
sg1185
S'NO'
p1216
sg1187
S'mediumtext'
p1217
sa(dp1218
g1178
S''
sg1180
S'0'
sg1181
S'is_public'
p1219
sg1183
S''
sg1185
S'NO'
p1220
sg1187
S'tinyint(4)'
p1221
sa(lp1222
(dp1223
S'Comment'
p1224
S''
sS'Non_unique'
p1225
L0L
sS'Sub_part'
p1226
NsS'Index_type'
p1227
S'BTREE'
p1228
sS'Key_name'
p1229
S'PRIMARY'
p1230
sS'Collation'
p1231
S'A'
sS'Null'
p1232
S''
sS'Seq_in_index'
p1233
L1L
sS'Table'
p1234
S'series'
p1235
sS'Cardinality'
p1236
L0L
sS'Packed'
p1237
NsS'Column_name'
p1238
S'series_id'
p1239
sa(dp1240
g1224
S''
sg1225
L0L
sg1226
Nsg1227
S'BTREE'
p1241
sg1229
S'series_creator_idx'
p1242
sg1231
S'A'
sg1232
S'YES'
p1243
sg1233
L1L
sg1234
S'series'
p1244
sg1236
L0L
sg1237
Nsg1238
S'creator'
p1245
sa(dp1246
g1224
S''
sg1225
L0L
sg1226
Nsg1227
S'BTREE'
p1247
sg1229
S'series_creator_idx'
p1248
sg1231
S'A'
sg1232
S''
sg1233
L2L
sg1234
S'series'
p1249
sg1236
L0L
sg1237
Nsg1238
S'category'
p1250
sa(dp1251
g1224
S''
sg1225
L0L
sg1226
Nsg1227
S'BTREE'
p1252
sg1229
S'series_creator_idx'
p1253
sg1231
S'A'
sg1232
S''
sg1233
L3L
sg1234
S'series'
p1254
sg1236
L0L
sg1237
Nsg1238
S'subcategory'
p1255
sa(dp1256
g1224
S''
sg1225
L0L
sg1226
Nsg1227
S'BTREE'
p1257
sg1229
S'series_creator_idx'
p1258
sg1231
S'A'
sg1232
S''
sg1233
L4L
sg1234
S'series'
p1259
sg1236
L0L
sg1237
Nsg1238
S'name'
p1260
satp1261
sS'logincookies'
p1262
((lp1263
(dp1264
S'Extra'
p1265
S''
sS'Default'
p1266
S''
sS'Field'
p1267
S'cookie'
p1268
sS'Key'
p1269
S'PRI'
p1270
sS'Null'
p1271
S'NO'
p1272
sS'Type'
p1273
S'varchar(16)'
p1274
sa(dp1275
g1265
S''
sg1266
S''
sg1267
S'userid'
p1276
sg1269
S'MUL'
p1277
sg1271
S'NO'
p1278
sg1273
S'mediumint(9)'
p1279
sa(dp1280
g1265
S''
sg1266
S''
sg1267
S'ipaddr'
p1281
sg1269
S''
sg1271
S'NO'
p1282
sg1273
S'varchar(40)'
p1283
sa(dp1284
g1265
S''
sg1266
S''
sg1267
S'lastused'
p1285
sg1269
S'MUL'
p1286
sg1271
S'NO'
p1287
sg1273
S'datetime'
p1288
sa(lp1289
(dp1290
S'Comment'
p1291
S''
sS'Non_unique'
p1292
L0L
sS'Sub_part'
p1293
NsS'Index_type'
p1294
S'BTREE'
p1295
sS'Key_name'
p1296
S'PRIMARY'
p1297
sS'Collation'
p1298
S'A'
sS'Null'
p1299
S''
sS'Seq_in_index'
p1300
L1L
sS'Table'
p1301
S'logincookies'
p1302
sS'Cardinality'
p1303
L0L
sS'Packed'
p1304
NsS'Column_name'
p1305
S'cookie'
p1306
sa(dp1307
g1291
S''
sg1292
L1L
sg1293
Nsg1294
S'BTREE'
p1308
sg1296
S'logincookies_lastused_idx'
p1309
sg1298
S'A'
sg1299
S''
sg1300
L1L
sg1301
S'logincookies'
p1310
sg1303
L0L
sg1304
Nsg1305
S'lastused'
p1311
sa(dp1312
g1291
S''
sg1292
L1L
sg1293
Nsg1294
S'BTREE'
p1313
sg1296
S'fk_logincookies_userid_profiles_userid'
p1314
sg1298
S'A'
sg1299
S''
sg1300
L1L
sg1301
S'logincookies'
p1315
sg1303
L0L
sg1304
Nsg1305
S'userid'
p1316
satp1317
sS'fielddefs'
p1318
((lp1319
(dp1320
S'Extra'
p1321
S'auto_increment'
p1322
sS'Default'
p1323
NsS'Field'
p1324
S'id'
p1325
sS'Key'
p1326
S'PRI'
p1327
sS'Null'
p1328
S'NO'
p1329
sS'Type'
p1330
S'mediumint(9)'
p1331
sa(dp1332
g1321
S''
sg1323
S''
sg1324
S'name'
p1333
sg1326
S'UNI'
p1334
sg1328
S'NO'
p1335
sg1330
S'varchar(64)'
p1336
sa(dp1337
g1321
S''
sg1323
S'0'
sg1324
S'type'
p1338
sg1326
S''
sg1328
S'NO'
p1339
sg1330
S'smallint(6)'
p1340
sa(dp1341
g1321
S''
sg1323
S'0'
sg1324
S'custom'
p1342
sg1326
S''
sg1328
S'NO'
p1343
sg1330
S'tinyint(4)'
p1344
sa(dp1345
g1321
S''
sg1323
S''
sg1324
S'description'
p1346
sg1326
S''
sg1328
S'NO'
p1347
sg1330
S'tinytext'
p1348
sa(dp1349
g1321
S''
sg1323
S'0'
sg1324
S'mailhead'
p1350
sg1326
S''
sg1328
S'NO'
p1351
sg1330
S'tinyint(4)'
p1352
sa(dp1353
g1321
S''
sg1323
S''
sg1324
S'sortkey'
p1354
sg1326
S'MUL'
p1355
sg1328
S'NO'
p1356
sg1330
S'smallint(6)'
p1357
sa(dp1358
g1321
S''
sg1323
S'0'
sg1324
S'obsolete'
p1359
sg1326
S''
sg1328
S'NO'
p1360
sg1330
S'tinyint(4)'
p1361
sa(dp1362
g1321
S''
sg1323
S'0'
sg1324
S'enter_bug'
p1363
sg1326
S''
sg1328
S'NO'
p1364
sg1330
S'tinyint(4)'
p1365
sa(lp1366
(dp1367
S'Comment'
p1368
S''
sS'Non_unique'
p1369
L0L
sS'Sub_part'
p1370
NsS'Index_type'
p1371
S'BTREE'
p1372
sS'Key_name'
p1373
S'PRIMARY'
p1374
sS'Collation'
p1375
S'A'
sS'Null'
p1376
S''
sS'Seq_in_index'
p1377
L1L
sS'Table'
p1378
S'fielddefs'
p1379
sS'Cardinality'
p1380
L53L
sS'Packed'
p1381
NsS'Column_name'
p1382
S'id'
p1383
sa(dp1384
g1368
S''
sg1369
L0L
sg1370
Nsg1371
S'BTREE'
p1385
sg1373
S'fielddefs_name_idx'
p1386
sg1375
S'A'
sg1376
S''
sg1377
L1L
sg1378
S'fielddefs'
p1387
sg1380
L53L
sg1381
Nsg1382
S'name'
p1388
sa(dp1389
g1368
S''
sg1369
L1L
sg1370
Nsg1371
S'BTREE'
p1390
sg1373
S'fielddefs_sortkey_idx'
p1391
sg1375
S'A'
sg1376
S''
sg1377
L1L
sg1378
S'fielddefs'
p1392
sg1380
L53L
sg1381
Nsg1382
S'sortkey'
p1393
satp1394
sS'bugs_fulltext'
p1395
((lp1396
(dp1397
S'Extra'
p1398
S''
sS'Default'
p1399
S''
sS'Field'
p1400
S'bug_id'
p1401
sS'Key'
p1402
S'PRI'
p1403
sS'Null'
p1404
S'NO'
p1405
sS'Type'
p1406
S'mediumint(9)'
p1407
sa(dp1408
g1398
S''
sg1399
S''
sg1400
S'short_desc'
p1409
sg1402
S'MUL'
p1410
sg1404
S'NO'
p1411
sg1406
S'varchar(255)'
p1412
sa(dp1413
g1398
S''
sg1399
Nsg1400
S'comments'
p1414
sg1402
S'MUL'
p1415
sg1404
S'YES'
p1416
sg1406
S'mediumtext'
p1417
sa(dp1418
g1398
S''
sg1399
Nsg1400
S'comments_noprivate'
p1419
sg1402
S'MUL'
p1420
sg1404
S'YES'
p1421
sg1406
S'mediumtext'
p1422
sa(lp1423
(dp1424
S'Comment'
p1425
S''
sS'Non_unique'
p1426
L0L
sS'Sub_part'
p1427
NsS'Index_type'
p1428
S'BTREE'
p1429
sS'Key_name'
p1430
S'PRIMARY'
p1431
sS'Collation'
p1432
S'A'
sS'Null'
p1433
S''
sS'Seq_in_index'
p1434
L1L
sS'Table'
p1435
S'bugs_fulltext'
p1436
sS'Cardinality'
p1437
L0L
sS'Packed'
p1438
NsS'Column_name'
p1439
S'bug_id'
p1440
sa(dp1441
g1425
S''
sg1426
L1L
sg1427
Nsg1428
S'FULLTEXT'
p1442
sg1430
S'bugs_fulltext_short_desc_idx'
p1443
sg1432
Nsg1433
S''
sg1434
L1L
sg1435
S'bugs_fulltext'
p1444
sg1437
Nsg1438
Nsg1439
S'short_desc'
p1445
sa(dp1446
g1425
S''
sg1426
L1L
sg1427
Nsg1428
S'FULLTEXT'
p1447
sg1430
S'bugs_fulltext_comments_idx'
p1448
sg1432
Nsg1433
S'YES'
p1449
sg1434
L1L
sg1435
S'bugs_fulltext'
p1450
sg1437
Nsg1438
Nsg1439
S'comments'
p1451
sa(dp1452
g1425
S''
sg1426
L1L
sg1427
Nsg1428
S'FULLTEXT'
p1453
sg1430
S'bugs_fulltext_comments_noprivate_idx'
p1454
sg1432
Nsg1433
S'YES'
p1455
sg1434
L1L
sg1435
S'bugs_fulltext'
p1456
sg1437
Nsg1438
Nsg1439
S'comments_noprivate'
p1457
satp1458
sS'flaginclusions'
p1459
((lp1460
(dp1461
S'Extra'
p1462
S''
sS'Default'
p1463
S''
sS'Field'
p1464
S'type_id'
p1465
sS'Key'
p1466
S'MUL'
p1467
sS'Null'
p1468
S'NO'
p1469
sS'Type'
p1470
S'smallint(6)'
p1471
sa(dp1472
g1462
S''
sg1463
Nsg1464
S'product_id'
p1473
sg1466
S''
sg1468
S'YES'
p1474
sg1470
S'smallint(6)'
p1475
sa(dp1476
g1462
S''
sg1463
Nsg1464
S'component_id'
p1477
sg1466
S''
sg1468
S'YES'
p1478
sg1470
S'smallint(6)'
p1479
sa(lp1480
(dp1481
S'Comment'
p1482
S''
sS'Non_unique'
p1483
L1L
sS'Sub_part'
p1484
NsS'Index_type'
p1485
S'BTREE'
p1486
sS'Key_name'
p1487
S'flaginclusions_type_id_idx'
p1488
sS'Collation'
p1489
S'A'
sS'Null'
p1490
S''
sS'Seq_in_index'
p1491
L1L
sS'Table'
p1492
S'flaginclusions'
p1493
sS'Cardinality'
p1494
L0L
sS'Packed'
p1495
NsS'Column_name'
p1496
S'type_id'
p1497
sa(dp1498
g1482
S''
sg1483
L1L
sg1484
Nsg1485
S'BTREE'
p1499
sg1487
S'flaginclusions_type_id_idx'
p1500
sg1489
S'A'
sg1490
S'YES'
p1501
sg1491
L2L
sg1492
S'flaginclusions'
p1502
sg1494
L0L
sg1495
Nsg1496
S'product_id'
p1503
sa(dp1504
g1482
S''
sg1483
L1L
sg1484
Nsg1485
S'BTREE'
p1505
sg1487
S'flaginclusions_type_id_idx'
p1506
sg1489
S'A'
sg1490
S'YES'
p1507
sg1491
L3L
sg1492
S'flaginclusions'
p1508
sg1494
L0L
sg1495
Nsg1496
S'component_id'
p1509
satp1510
sS'profiles_activity'
p1511
((lp1512
(dp1513
S'Extra'
p1514
S''
sS'Default'
p1515
S''
sS'Field'
p1516
S'userid'
p1517
sS'Key'
p1518
S'MUL'
p1519
sS'Null'
p1520
S'NO'
p1521
sS'Type'
p1522
S'mediumint(9)'
p1523
sa(dp1524
g1514
S''
sg1515
S''
sg1516
S'who'
p1525
sg1518
S'MUL'
p1526
sg1520
S'NO'
p1527
sg1522
S'mediumint(9)'
p1528
sa(dp1529
g1514
S''
sg1515
S''
sg1516
S'profiles_when'
p1530
sg1518
S'MUL'
p1531
sg1520
S'NO'
p1532
sg1522
S'datetime'
p1533
sa(dp1534
g1514
S''
sg1515
S''
sg1516
S'fieldid'
p1535
sg1518
S'MUL'
p1536
sg1520
S'NO'
p1537
sg1522
S'mediumint(9)'
p1538
sa(dp1539
g1514
S''
sg1515
Nsg1516
S'oldvalue'
p1540
sg1518
S''
sg1520
S'YES'
p1541
sg1522
S'tinytext'
p1542
sa(dp1543
g1514
S''
sg1515
Nsg1516
S'newvalue'
p1544
sg1518
S''
sg1520
S'YES'
p1545
sg1522
S'tinytext'
p1546
sa(lp1547
(dp1548
S'Comment'
p1549
S''
sS'Non_unique'
p1550
L1L
sS'Sub_part'
p1551
NsS'Index_type'
p1552
S'BTREE'
p1553
sS'Key_name'
p1554
S'profiles_activity_userid_idx'
p1555
sS'Collation'
p1556
S'A'
sS'Null'
p1557
S''
sS'Seq_in_index'
p1558
L1L
sS'Table'
p1559
S'profiles_activity'
p1560
sS'Cardinality'
p1561
L1L
sS'Packed'
p1562
NsS'Column_name'
p1563
S'userid'
p1564
sa(dp1565
g1549
S''
sg1550
L1L
sg1551
Nsg1552
S'BTREE'
p1566
sg1554
S'profiles_activity_profiles_when_idx'
p1567
sg1556
S'A'
sg1557
S''
sg1558
L1L
sg1559
S'profiles_activity'
p1568
sg1561
L1L
sg1562
Nsg1563
S'profiles_when'
p1569
sa(dp1570
g1549
S''
sg1550
L1L
sg1551
Nsg1552
S'BTREE'
p1571
sg1554
S'profiles_activity_fieldid_idx'
p1572
sg1556
S'A'
sg1557
S''
sg1558
L1L
sg1559
S'profiles_activity'
p1573
sg1561
L1L
sg1562
Nsg1563
S'fieldid'
p1574
sa(dp1575
g1549
S''
sg1550
L1L
sg1551
Nsg1552
S'BTREE'
p1576
sg1554
S'fk_profiles_activity_who_profiles_userid'
p1577
sg1556
S'A'
sg1557
S''
sg1558
L1L
sg1559
S'profiles_activity'
p1578
sg1561
L1L
sg1562
Nsg1563
S'who'
p1579
satp1580
sS'bugs_activity'
p1581
((lp1582
(dp1583
S'Extra'
p1584
S''
sS'Default'
p1585
S''
sS'Field'
p1586
S'bug_id'
p1587
sS'Key'
p1588
S'MUL'
p1589
sS'Null'
p1590
S'NO'
p1591
sS'Type'
p1592
S'mediumint(9)'
p1593
sa(dp1594
g1584
S''
sg1585
Nsg1586
S'attach_id'
p1595
sg1588
S''
sg1590
S'YES'
p1596
sg1592
S'mediumint(9)'
p1597
sa(dp1598
g1584
S''
sg1585
S''
sg1586
S'who'
p1599
sg1588
S'MUL'
p1600
sg1590
S'NO'
p1601
sg1592
S'mediumint(9)'
p1602
sa(dp1603
g1584
S''
sg1585
S''
sg1586
S'bug_when'
p1604
sg1588
S'MUL'
p1605
sg1590
S'NO'
p1606
sg1592
S'datetime'
p1607
sa(dp1608
g1584
S''
sg1585
S''
sg1586
S'fieldid'
p1609
sg1588
S'MUL'
p1610
sg1590
S'NO'
p1611
sg1592
S'mediumint(9)'
p1612
sa(dp1613
g1584
S''
sg1585
Nsg1586
S'added'
p1614
sg1588
S''
sg1590
S'YES'
p1615
sg1592
S'tinytext'
p1616
sa(dp1617
g1584
S''
sg1585
Nsg1586
S'removed'
p1618
sg1588
S''
sg1590
S'YES'
p1619
sg1592
S'tinytext'
p1620
sa(lp1621
(dp1622
S'Comment'
p1623
S''
sS'Non_unique'
p1624
L1L
sS'Sub_part'
p1625
NsS'Index_type'
p1626
S'BTREE'
p1627
sS'Key_name'
p1628
S'bugs_activity_bug_id_idx'
p1629
sS'Collation'
p1630
S'A'
sS'Null'
p1631
S''
sS'Seq_in_index'
p1632
L1L
sS'Table'
p1633
S'bugs_activity'
p1634
sS'Cardinality'
p1635
L0L
sS'Packed'
p1636
NsS'Column_name'
p1637
S'bug_id'
p1638
sa(dp1639
g1623
S''
sg1624
L1L
sg1625
Nsg1626
S'BTREE'
p1640
sg1628
S'bugs_activity_who_idx'
p1641
sg1630
S'A'
sg1631
S''
sg1632
L1L
sg1633
S'bugs_activity'
p1642
sg1635
L0L
sg1636
Nsg1637
S'who'
p1643
sa(dp1644
g1623
S''
sg1624
L1L
sg1625
Nsg1626
S'BTREE'
p1645
sg1628
S'bugs_activity_bug_when_idx'
p1646
sg1630
S'A'
sg1631
S''
sg1632
L1L
sg1633
S'bugs_activity'
p1647
sg1635
L0L
sg1636
Nsg1637
S'bug_when'
p1648
sa(dp1649
g1623
S''
sg1624
L1L
sg1625
Nsg1626
S'BTREE'
p1650
sg1628
S'bugs_activity_fieldid_idx'
p1651
sg1630
S'A'
sg1631
S''
sg1632
L1L
sg1633
S'bugs_activity'
p1652
sg1635
L0L
sg1636
Nsg1637
S'fieldid'
p1653
satp1654
sS'watch'
p1655
((lp1656
(dp1657
S'Extra'
p1658
S''
sS'Default'
p1659
S''
sS'Field'
p1660
S'watcher'
p1661
sS'Key'
p1662
S'PRI'
p1663
sS'Null'
p1664
S'NO'
p1665
sS'Type'
p1666
S'mediumint(9)'
p1667
sa(dp1668
g1658
S''
sg1659
S''
sg1660
S'watched'
p1669
sg1662
S'PRI'
p1670
sg1664
S'NO'
p1671
sg1666
S'mediumint(9)'
p1672
sa(lp1673
(dp1674
S'Comment'
p1675
S''
sS'Non_unique'
p1676
L0L
sS'Sub_part'
p1677
NsS'Index_type'
p1678
S'BTREE'
p1679
sS'Key_name'
p1680
S'watch_watcher_idx'
p1681
sS'Collation'
p1682
S'A'
sS'Null'
p1683
S''
sS'Seq_in_index'
p1684
L1L
sS'Table'
p1685
S'watch'
p1686
sS'Cardinality'
p1687
L0L
sS'Packed'
p1688
NsS'Column_name'
p1689
S'watcher'
p1690
sa(dp1691
g1675
S''
sg1676
L0L
sg1677
Nsg1678
S'BTREE'
p1692
sg1680
S'watch_watcher_idx'
p1693
sg1682
S'A'
sg1683
S''
sg1684
L2L
sg1685
S'watch'
p1694
sg1687
L0L
sg1688
Nsg1689
S'watched'
p1695
sa(dp1696
g1675
S''
sg1676
L1L
sg1677
Nsg1678
S'BTREE'
p1697
sg1680
S'watch_watched_idx'
p1698
sg1682
S'A'
sg1683
S''
sg1684
L1L
sg1685
S'watch'
p1699
sg1687
L0L
sg1688
Nsg1689
S'watched'
p1700
satp1701
sS'bug_severity'
p1702
((lp1703
(dp1704
S'Extra'
p1705
S'auto_increment'
p1706
sS'Default'
p1707
NsS'Field'
p1708
S'id'
p1709
sS'Key'
p1710
S'PRI'
p1711
sS'Null'
p1712
S'NO'
p1713
sS'Type'
p1714
S'smallint(6)'
p1715
sa(dp1716
g1705
S''
sg1707
S''
sg1708
S'value'
p1717
sg1710
S'UNI'
p1718
sg1712
S'NO'
p1719
sg1714
S'varchar(64)'
p1720
sa(dp1721
g1705
S''
sg1707
S'0'
sg1708
S'sortkey'
p1722
sg1710
S'MUL'
p1723
sg1712
S'NO'
p1724
sg1714
S'smallint(6)'
p1725
sa(dp1726
g1705
S''
sg1707
S'1'
sg1708
S'isactive'
p1727
sg1710
S''
sg1712
S'NO'
p1728
sg1714
S'tinyint(4)'
p1729
sa(lp1730
(dp1731
S'Comment'
p1732
S''
sS'Non_unique'
p1733
L0L
sS'Sub_part'
p1734
NsS'Index_type'
p1735
S'BTREE'
p1736
sS'Key_name'
p1737
S'PRIMARY'
p1738
sS'Collation'
p1739
S'A'
sS'Null'
p1740
S''
sS'Seq_in_index'
p1741
L1L
sS'Table'
p1742
S'bug_severity'
p1743
sS'Cardinality'
p1744
L7L
sS'Packed'
p1745
NsS'Column_name'
p1746
S'id'
p1747
sa(dp1748
g1732
S''
sg1733
L0L
sg1734
Nsg1735
S'BTREE'
p1749
sg1737
S'bug_severity_value_idx'
p1750
sg1739
S'A'
sg1740
S''
sg1741
L1L
sg1742
S'bug_severity'
p1751
sg1744
L7L
sg1745
Nsg1746
S'value'
p1752
sa(dp1753
g1732
S''
sg1733
L1L
sg1734
Nsg1735
S'BTREE'
p1754
sg1737
S'bug_severity_sortkey_idx'
p1755
sg1739
S'A'
sg1740
S''
sg1741
L1L
sg1742
S'bug_severity'
p1756
sg1744
L7L
sg1745
Nsg1746
S'sortkey'
p1757
sa(dp1758
g1732
S''
sg1733
L1L
sg1734
Nsg1735
S'BTREE'
p1759
sg1737
S'bug_severity_sortkey_idx'
p1760
sg1739
S'A'
sg1740
S''
sg1741
L2L
sg1742
S'bug_severity'
p1761
sg1744
L7L
sg1745
Nsg1746
S'value'
p1762
satp1763
sS'namedqueries'
p1764
((lp1765
(dp1766
S'Extra'
p1767
S'auto_increment'
p1768
sS'Default'
p1769
NsS'Field'
p1770
S'id'
p1771
sS'Key'
p1772
S'PRI'
p1773
sS'Null'
p1774
S'NO'
p1775
sS'Type'
p1776
S'mediumint(9)'
p1777
sa(dp1778
g1767
S''
sg1769
S''
sg1770
S'userid'
p1779
sg1772
S'MUL'
p1780
sg1774
S'NO'
p1781
sg1776
S'mediumint(9)'
p1782
sa(dp1783
g1767
S''
sg1769
S''
sg1770
S'name'
p1784
sg1772
S''
sg1774
S'NO'
p1785
sg1776
S'varchar(64)'
p1786
sa(dp1787
g1767
S''
sg1769
S''
sg1770
S'query'
p1788
sg1772
S''
sg1774
S'NO'
p1789
sg1776
S'mediumtext'
p1790
sa(dp1791
g1767
S''
sg1769
S'0'
sg1770
S'query_type'
p1792
sg1772
S''
sg1774
S'NO'
p1793
sg1776
S'tinyint(4)'
p1794
sa(lp1795
(dp1796
S'Comment'
p1797
S''
sS'Non_unique'
p1798
L0L
sS'Sub_part'
p1799
NsS'Index_type'
p1800
S'BTREE'
p1801
sS'Key_name'
p1802
S'PRIMARY'
p1803
sS'Collation'
p1804
S'A'
sS'Null'
p1805
S''
sS'Seq_in_index'
p1806
L1L
sS'Table'
p1807
S'namedqueries'
p1808
sS'Cardinality'
p1809
L0L
sS'Packed'
p1810
NsS'Column_name'
p1811
S'id'
p1812
sa(dp1813
g1797
S''
sg1798
L0L
sg1799
Nsg1800
S'BTREE'
p1814
sg1802
S'namedqueries_userid_idx'
p1815
sg1804
S'A'
sg1805
S''
sg1806
L1L
sg1807
S'namedqueries'
p1816
sg1809
L0L
sg1810
Nsg1811
S'userid'
p1817
sa(dp1818
g1797
S''
sg1798
L0L
sg1799
Nsg1800
S'BTREE'
p1819
sg1802
S'namedqueries_userid_idx'
p1820
sg1804
S'A'
sg1805
S''
sg1806
L2L
sg1807
S'namedqueries'
p1821
sg1809
L0L
sg1810
Nsg1811
S'name'
p1822
satp1823
sS'bz_schema'
p1824
((lp1825
(dp1826
S'Extra'
p1827
S''
sS'Default'
p1828
S''
sS'Field'
p1829
S'schema_data'
p1830
sS'Key'
p1831
S''
sS'Null'
p1832
S'NO'
p1833
sS'Type'
p1834
S'longblob'
p1835
sa(dp1836
g1827
S''
sg1828
S''
sg1829
S'version'
p1837
sg1831
S''
sg1832
S'NO'
p1838
sg1834
S'decimal(3,2)'
p1839
sa(ltp1840
sS'tokens'
p1841
((lp1842
(dp1843
S'Extra'
p1844
S''
sS'Default'
p1845
NsS'Field'
p1846
S'userid'
p1847
sS'Key'
p1848
S'MUL'
p1849
sS'Null'
p1850
S'YES'
p1851
sS'Type'
p1852
S'mediumint(9)'
p1853
sa(dp1854
g1844
S''
sg1845
S''
sg1846
S'issuedate'
p1855
sg1848
S''
sg1850
S'NO'
p1856
sg1852
S'datetime'
p1857
sa(dp1858
g1844
S''
sg1845
S''
sg1846
S'token'
p1859
sg1848
S'PRI'
p1860
sg1850
S'NO'
p1861
sg1852
S'varchar(16)'
p1862
sa(dp1863
g1844
S''
sg1845
S''
sg1846
S'tokentype'
p1864
sg1848
S''
sg1850
S'NO'
p1865
sg1852
S'varchar(8)'
p1866
sa(dp1867
g1844
S''
sg1845
Nsg1846
S'eventdata'
p1868
sg1848
S''
sg1850
S'YES'
p1869
sg1852
S'tinytext'
p1870
sa(lp1871
(dp1872
S'Comment'
p1873
S''
sS'Non_unique'
p1874
L0L
sS'Sub_part'
p1875
NsS'Index_type'
p1876
S'BTREE'
p1877
sS'Key_name'
p1878
S'PRIMARY'
p1879
sS'Collation'
p1880
S'A'
sS'Null'
p1881
S''
sS'Seq_in_index'
p1882
L1L
sS'Table'
p1883
S'tokens'
p1884
sS'Cardinality'
p1885
L0L
sS'Packed'
p1886
NsS'Column_name'
p1887
S'token'
p1888
sa(dp1889
g1873
S''
sg1874
L1L
sg1875
Nsg1876
S'BTREE'
p1890
sg1878
S'tokens_userid_idx'
p1891
sg1880
S'A'
sg1881
S'YES'
p1892
sg1882
L1L
sg1883
S'tokens'
p1893
sg1885
L0L
sg1886
Nsg1887
S'userid'
p1894
satp1895
sS'whine_schedules'
p1896
((lp1897
(dp1898
S'Extra'
p1899
S'auto_increment'
p1900
sS'Default'
p1901
NsS'Field'
p1902
S'id'
p1903
sS'Key'
p1904
S'PRI'
p1905
sS'Null'
p1906
S'NO'
p1907
sS'Type'
p1908
S'mediumint(9)'
p1909
sa(dp1910
g1899
S''
sg1901
S''
sg1902
S'eventid'
p1911
sg1904
S'MUL'
p1912
sg1906
S'NO'
p1913
sg1908
S'mediumint(9)'
p1914
sa(dp1915
g1899
S''
sg1901
Nsg1902
S'run_day'
p1916
sg1904
S''
sg1906
S'YES'
p1917
sg1908
S'varchar(32)'
p1918
sa(dp1919
g1899
S''
sg1901
Nsg1902
S'run_time'
p1920
sg1904
S''
sg1906
S'YES'
p1921
sg1908
S'varchar(32)'
p1922
sa(dp1923
g1899
S''
sg1901
Nsg1902
S'run_next'
p1924
sg1904
S'MUL'
p1925
sg1906
S'YES'
p1926
sg1908
S'datetime'
p1927
sa(dp1928
g1899
S''
sg1901
S''
sg1902
S'mailto'
p1929
sg1904
S''
sg1906
S'NO'
p1930
sg1908
S'mediumint(9)'
p1931
sa(dp1932
g1899
S''
sg1901
S'0'
sg1902
S'mailto_type'
p1933
sg1904
S''
sg1906
S'NO'
p1934
sg1908
S'smallint(6)'
p1935
sa(lp1936
(dp1937
S'Comment'
p1938
S''
sS'Non_unique'
p1939
L0L
sS'Sub_part'
p1940
NsS'Index_type'
p1941
S'BTREE'
p1942
sS'Key_name'
p1943
S'PRIMARY'
p1944
sS'Collation'
p1945
S'A'
sS'Null'
p1946
S''
sS'Seq_in_index'
p1947
L1L
sS'Table'
p1948
S'whine_schedules'
p1949
sS'Cardinality'
p1950
L0L
sS'Packed'
p1951
NsS'Column_name'
p1952
S'id'
p1953
sa(dp1954
g1938
S''
sg1939
L1L
sg1940
Nsg1941
S'BTREE'
p1955
sg1943
S'whine_schedules_run_next_idx'
p1956
sg1945
S'A'
sg1946
S'YES'
p1957
sg1947
L1L
sg1948
S'whine_schedules'
p1958
sg1950
L0L
sg1951
Nsg1952
S'run_next'
p1959
sa(dp1960
g1938
S''
sg1939
L1L
sg1940
Nsg1941
S'BTREE'
p1961
sg1943
S'whine_schedules_eventid_idx'
p1962
sg1945
S'A'
sg1946
S''
sg1947
L1L
sg1948
S'whine_schedules'
p1963
sg1950
L0L
sg1951
Nsg1952
S'eventid'
p1964
satp1965
sS'dependencies'
p1966
((lp1967
(dp1968
S'Extra'
p1969
S''
sS'Default'
p1970
S''
sS'Field'
p1971
S'blocked'
p1972
sS'Key'
p1973
S'MUL'
p1974
sS'Null'
p1975
S'NO'
p1976
sS'Type'
p1977
S'mediumint(9)'
p1978
sa(dp1979
g1969
S''
sg1970
S''
sg1971
S'dependson'
p1980
sg1973
S'MUL'
p1981
sg1975
S'NO'
p1982
sg1977
S'mediumint(9)'
p1983
sa(lp1984
(dp1985
S'Comment'
p1986
S''
sS'Non_unique'
p1987
L1L
sS'Sub_part'
p1988
NsS'Index_type'
p1989
S'BTREE'
p1990
sS'Key_name'
p1991
S'dependencies_blocked_idx'
p1992
sS'Collation'
p1993
S'A'
sS'Null'
p1994
S''
sS'Seq_in_index'
p1995
L1L
sS'Table'
p1996
S'dependencies'
p1997
sS'Cardinality'
p1998
L0L
sS'Packed'
p1999
NsS'Column_name'
p2000
S'blocked'
p2001
sa(dp2002
g1986
S''
sg1987
L1L
sg1988
Nsg1989
S'BTREE'
p2003
sg1991
S'dependencies_dependson_idx'
p2004
sg1993
S'A'
sg1994
S''
sg1995
L1L
sg1996
S'dependencies'
p2005
sg1998
L0L
sg1999
Nsg2000
S'dependson'
p2006
satp2007
sS'category_group_map'
p2008
((lp2009
(dp2010
S'Extra'
p2011
S''
sS'Default'
p2012
S''
sS'Field'
p2013
S'category_id'
p2014
sS'Key'
p2015
S'PRI'
p2016
sS'Null'
p2017
S'NO'
p2018
sS'Type'
p2019
S'smallint(6)'
p2020
sa(dp2021
g2011
S''
sg2012
S''
sg2013
S'group_id'
p2022
sg2015
S'PRI'
p2023
sg2017
S'NO'
p2024
sg2019
S'mediumint(9)'
p2025
sa(lp2026
(dp2027
S'Comment'
p2028
S''
sS'Non_unique'
p2029
L0L
sS'Sub_part'
p2030
NsS'Index_type'
p2031
S'BTREE'
p2032
sS'Key_name'
p2033
S'category_group_map_category_id_idx'
p2034
sS'Collation'
p2035
S'A'
sS'Null'
p2036
S''
sS'Seq_in_index'
p2037
L1L
sS'Table'
p2038
S'category_group_map'
p2039
sS'Cardinality'
p2040
L0L
sS'Packed'
p2041
NsS'Column_name'
p2042
S'category_id'
p2043
sa(dp2044
g2028
S''
sg2029
L0L
sg2030
Nsg2031
S'BTREE'
p2045
sg2033
S'category_group_map_category_id_idx'
p2046
sg2035
S'A'
sg2036
S''
sg2037
L2L
sg2038
S'category_group_map'
p2047
sg2040
L0L
sg2041
Nsg2042
S'group_id'
p2048
satp2049
sS'groups'
p2050
((lp2051
(dp2052
S'Extra'
p2053
S'auto_increment'
p2054
sS'Default'
p2055
NsS'Field'
p2056
S'id'
p2057
sS'Key'
p2058
S'PRI'
p2059
sS'Null'
p2060
S'NO'
p2061
sS'Type'
p2062
S'mediumint(9)'
p2063
sa(dp2064
g2053
S''
sg2055
S''
sg2056
S'name'
p2065
sg2058
S'UNI'
p2066
sg2060
S'NO'
p2067
sg2062
S'varchar(255)'
p2068
sa(dp2069
g2053
S''
sg2055
S''
sg2056
S'description'
p2070
sg2058
S''
sg2060
S'NO'
p2071
sg2062
S'mediumtext'
p2072
sa(dp2073
g2053
S''
sg2055
S''
sg2056
S'isbuggroup'
p2074
sg2058
S''
sg2060
S'NO'
p2075
sg2062
S'tinyint(4)'
p2076
sa(dp2077
g2053
S''
sg2055
S''
sg2056
S'userregexp'
p2078
sg2058
S''
sg2060
S'NO'
p2079
sg2062
S'tinytext'
p2080
sa(dp2081
g2053
S''
sg2055
S'1'
sg2056
S'isactive'
p2082
sg2058
S''
sg2060
S'NO'
p2083
sg2062
S'tinyint(4)'
p2084
sa(dp2085
g2053
S''
sg2055
Nsg2056
S'icon_url'
p2086
sg2058
S''
sg2060
S'YES'
p2087
sg2062
S'tinytext'
p2088
sa(lp2089
(dp2090
S'Comment'
p2091
S''
sS'Non_unique'
p2092
L0L
sS'Sub_part'
p2093
NsS'Index_type'
p2094
S'BTREE'
p2095
sS'Key_name'
p2096
S'PRIMARY'
p2097
sS'Collation'
p2098
S'A'
sS'Null'
p2099
S''
sS'Seq_in_index'
p2100
L1L
sS'Table'
p2101
S'groups'
p2102
sS'Cardinality'
p2103
L13L
sS'Packed'
p2104
NsS'Column_name'
p2105
S'id'
p2106
sa(dp2107
g2091
S''
sg2092
L0L
sg2093
Nsg2094
S'BTREE'
p2108
sg2096
S'groups_name_idx'
p2109
sg2098
S'A'
sg2099
S''
sg2100
L1L
sg2101
S'groups'
p2110
sg2103
L13L
sg2104
Nsg2105
S'name'
p2111
satp2112
sS'status_workflow'
p2113
((lp2114
(dp2115
S'Extra'
p2116
S''
sS'Default'
p2117
NsS'Field'
p2118
S'old_status'
p2119
sS'Key'
p2120
S'MUL'
p2121
sS'Null'
p2122
S'YES'
p2123
sS'Type'
p2124
S'smallint(6)'
p2125
sa(dp2126
g2116
S''
sg2117
S''
sg2118
S'new_status'
p2127
sg2120
S''
sg2122
S'NO'
p2128
sg2124
S'smallint(6)'
p2129
sa(dp2130
g2116
S''
sg2117
S'0'
sg2118
S'require_comment'
p2131
sg2120
S''
sg2122
S'NO'
p2132
sg2124
S'tinyint(4)'
p2133
sa(lp2134
(dp2135
S'Comment'
p2136
S''
sS'Non_unique'
p2137
L0L
sS'Sub_part'
p2138
NsS'Index_type'
p2139
S'BTREE'
p2140
sS'Key_name'
p2141
S'status_workflow_idx'
p2142
sS'Collation'
p2143
S'A'
sS'Null'
p2144
S'YES'
p2145
sS'Seq_in_index'
p2146
L1L
sS'Table'
p2147
S'status_workflow'
p2148
sS'Cardinality'
p2149
L24L
sS'Packed'
p2150
NsS'Column_name'
p2151
S'old_status'
p2152
sa(dp2153
g2136
S''
sg2137
L0L
sg2138
Nsg2139
S'BTREE'
p2154
sg2141
S'status_workflow_idx'
p2155
sg2143
S'A'
sg2144
S''
sg2146
L2L
sg2147
S'status_workflow'
p2156
sg2149
L24L
sg2150
Nsg2151
S'new_status'
p2157
satp2158
sS'milestones'
p2159
((lp2160
(dp2161
S'Extra'
p2162
S'auto_increment'
p2163
sS'Default'
p2164
NsS'Field'
p2165
S'id'
p2166
sS'Key'
p2167
S'PRI'
p2168
sS'Null'
p2169
S'NO'
p2170
sS'Type'
p2171
S'mediumint(9)'
p2172
sa(dp2173
g2162
S''
sg2164
S''
sg2165
S'product_id'
p2174
sg2167
S'MUL'
p2175
sg2169
S'NO'
p2176
sg2171
S'smallint(6)'
p2177
sa(dp2178
g2162
S''
sg2164
S''
sg2165
S'value'
p2179
sg2167
S''
sg2169
S'NO'
p2180
sg2171
S'varchar(20)'
p2181
sa(dp2182
g2162
S''
sg2164
S'0'
sg2165
S'sortkey'
p2183
sg2167
S''
sg2169
S'NO'
p2184
sg2171
S'smallint(6)'
p2185
sa(lp2186
(dp2187
S'Comment'
p2188
S''
sS'Non_unique'
p2189
L0L
sS'Sub_part'
p2190
NsS'Index_type'
p2191
S'BTREE'
p2192
sS'Key_name'
p2193
S'PRIMARY'
p2194
sS'Collation'
p2195
S'A'
sS'Null'
p2196
S''
sS'Seq_in_index'
p2197
L1L
sS'Table'
p2198
S'milestones'
p2199
sS'Cardinality'
p2200
L1L
sS'Packed'
p2201
NsS'Column_name'
p2202
S'id'
p2203
sa(dp2204
g2188
S''
sg2189
L0L
sg2190
Nsg2191
S'BTREE'
p2205
sg2193
S'milestones_product_id_idx'
p2206
sg2195
S'A'
sg2196
S''
sg2197
L1L
sg2198
S'milestones'
p2207
sg2200
L1L
sg2201
Nsg2202
S'product_id'
p2208
sa(dp2209
g2188
S''
sg2189
L0L
sg2190
Nsg2191
S'BTREE'
p2210
sg2193
S'milestones_product_id_idx'
p2211
sg2195
S'A'
sg2196
S''
sg2197
L2L
sg2198
S'milestones'
p2212
sg2200
L1L
sg2201
Nsg2202
S'value'
p2213
satp2214
sS'classifications'
p2215
((lp2216
(dp2217
S'Extra'
p2218
S'auto_increment'
p2219
sS'Default'
p2220
NsS'Field'
p2221
S'id'
p2222
sS'Key'
p2223
S'PRI'
p2224
sS'Null'
p2225
S'NO'
p2226
sS'Type'
p2227
S'smallint(6)'
p2228
sa(dp2229
g2218
S''
sg2220
S''
sg2221
S'name'
p2230
sg2223
S'UNI'
p2231
sg2225
S'NO'
p2232
sg2227
S'varchar(64)'
p2233
sa(dp2234
g2218
S''
sg2220
Nsg2221
S'description'
p2235
sg2223
S''
sg2225
S'YES'
p2236
sg2227
S'mediumtext'
p2237
sa(dp2238
g2218
S''
sg2220
S'0'
sg2221
S'sortkey'
p2239
sg2223
S''
sg2225
S'NO'
p2240
sg2227
S'smallint(6)'
p2241
sa(lp2242
(dp2243
S'Comment'
p2244
S''
sS'Non_unique'
p2245
L0L
sS'Sub_part'
p2246
NsS'Index_type'
p2247
S'BTREE'
p2248
sS'Key_name'
p2249
S'PRIMARY'
p2250
sS'Collation'
p2251
S'A'
sS'Null'
p2252
S''
sS'Seq_in_index'
p2253
L1L
sS'Table'
p2254
S'classifications'
p2255
sS'Cardinality'
p2256
L1L
sS'Packed'
p2257
NsS'Column_name'
p2258
S'id'
p2259
sa(dp2260
g2244
S''
sg2245
L0L
sg2246
Nsg2247
S'BTREE'
p2261
sg2249
S'classifications_name_idx'
p2262
sg2251
S'A'
sg2252
S''
sg2253
L1L
sg2254
S'classifications'
p2263
sg2256
L1L
sg2257
Nsg2258
S'name'
p2264
satp2265
sS'longdescs'
p2266
((lp2267
(dp2268
S'Extra'
p2269
S'auto_increment'
p2270
sS'Default'
p2271
NsS'Field'
p2272
S'comment_id'
p2273
sS'Key'
p2274
S'PRI'
p2275
sS'Null'
p2276
S'NO'
p2277
sS'Type'
p2278
S'mediumint(9)'
p2279
sa(dp2280
g2269
S''
sg2271
S''
sg2272
S'bug_id'
p2281
sg2274
S'MUL'
p2282
sg2276
S'NO'
p2283
sg2278
S'mediumint(9)'
p2284
sa(dp2285
g2269
S''
sg2271
S''
sg2272
S'who'
p2286
sg2274
S'MUL'
p2287
sg2276
S'NO'
p2288
sg2278
S'mediumint(9)'
p2289
sa(dp2290
g2269
S''
sg2271
S''
sg2272
S'bug_when'
p2291
sg2274
S'MUL'
p2292
sg2276
S'NO'
p2293
sg2278
S'datetime'
p2294
sa(dp2295
g2269
S''
sg2271
S'0.00'
p2296
sg2272
S'work_time'
p2297
sg2274
S''
sg2276
S'NO'
p2298
sg2278
S'decimal(5,2)'
p2299
sa(dp2300
g2269
S''
sg2271
S''
sg2272
S'thetext'
p2301
sg2274
S''
sg2276
S'NO'
p2302
sg2278
S'mediumtext'
p2303
sa(dp2304
g2269
S''
sg2271
S'0'
sg2272
S'isprivate'
p2305
sg2274
S''
sg2276
S'NO'
p2306
sg2278
S'tinyint(4)'
p2307
sa(dp2308
g2269
S''
sg2271
S'0'
sg2272
S'already_wrapped'
p2309
sg2274
S''
sg2276
S'NO'
p2310
sg2278
S'tinyint(4)'
p2311
sa(dp2312
g2269
S''
sg2271
S'0'
sg2272
S'type'
p2313
sg2274
S''
sg2276
S'NO'
p2314
sg2278
S'smallint(6)'
p2315
sa(dp2316
g2269
S''
sg2271
Nsg2272
S'extra_data'
p2317
sg2274
S''
sg2276
S'YES'
p2318
sg2278
S'varchar(255)'
p2319
sa(lp2320
(dp2321
S'Comment'
p2322
S''
sS'Non_unique'
p2323
L0L
sS'Sub_part'
p2324
NsS'Index_type'
p2325
S'BTREE'
p2326
sS'Key_name'
p2327
S'PRIMARY'
p2328
sS'Collation'
p2329
S'A'
sS'Null'
p2330
S''
sS'Seq_in_index'
p2331
L1L
sS'Table'
p2332
S'longdescs'
p2333
sS'Cardinality'
p2334
L0L
sS'Packed'
p2335
NsS'Column_name'
p2336
S'comment_id'
p2337
sa(dp2338
g2322
S''
sg2323
L1L
sg2324
Nsg2325
S'BTREE'
p2339
sg2327
S'longdescs_bug_id_idx'
p2340
sg2329
S'A'
sg2330
S''
sg2331
L1L
sg2332
S'longdescs'
p2341
sg2334
L0L
sg2335
Nsg2336
S'bug_id'
p2342
sa(dp2343
g2322
S''
sg2323
L1L
sg2324
Nsg2325
S'BTREE'
p2344
sg2327
S'longdescs_who_idx'
p2345
sg2329
S'A'
sg2330
S''
sg2331
L1L
sg2332
S'longdescs'
p2346
sg2334
L0L
sg2335
Nsg2336
S'who'
p2347
sa(dp2348
g2322
S''
sg2323
L1L
sg2324
Nsg2325
S'BTREE'
p2349
sg2327
S'longdescs_who_idx'
p2350
sg2329
S'A'
sg2330
S''
sg2331
L2L
sg2332
S'longdescs'
p2351
sg2334
L0L
sg2335
Nsg2336
S'bug_id'
p2352
sa(dp2353
g2322
S''
sg2323
L1L
sg2324
Nsg2325
S'BTREE'
p2354
sg2327
S'longdescs_bug_when_idx'
p2355
sg2329
S'A'
sg2330
S''
sg2331
L1L
sg2332
S'longdescs'
p2356
sg2334
L0L
sg2335
Nsg2336
S'bug_when'
p2357
satp2358
sS'versions'
p2359
((lp2360
(dp2361
S'Extra'
p2362
S'auto_increment'
p2363
sS'Default'
p2364
NsS'Field'
p2365
S'id'
p2366
sS'Key'
p2367
S'PRI'
p2368
sS'Null'
p2369
S'NO'
p2370
sS'Type'
p2371
S'mediumint(9)'
p2372
sa(dp2373
g2362
S''
sg2364
S''
sg2365
S'value'
p2374
sg2367
S''
sg2369
S'NO'
p2375
sg2371
S'varchar(64)'
p2376
sa(dp2377
g2362
S''
sg2364
S''
sg2365
S'product_id'
p2378
sg2367
S'MUL'
p2379
sg2369
S'NO'
p2380
sg2371
S'smallint(6)'
p2381
sa(lp2382
(dp2383
S'Comment'
p2384
S''
sS'Non_unique'
p2385
L0L
sS'Sub_part'
p2386
NsS'Index_type'
p2387
S'BTREE'
p2388
sS'Key_name'
p2389
S'PRIMARY'
p2390
sS'Collation'
p2391
S'A'
sS'Null'
p2392
S''
sS'Seq_in_index'
p2393
L1L
sS'Table'
p2394
S'versions'
p2395
sS'Cardinality'
p2396
L1L
sS'Packed'
p2397
NsS'Column_name'
p2398
S'id'
p2399
sa(dp2400
g2384
S''
sg2385
L0L
sg2386
Nsg2387
S'BTREE'
p2401
sg2389
S'versions_product_id_idx'
p2402
sg2391
S'A'
sg2392
S''
sg2393
L1L
sg2394
S'versions'
p2403
sg2396
L1L
sg2397
Nsg2398
S'product_id'
p2404
sa(dp2405
g2384
S''
sg2385
L0L
sg2386
Nsg2387
S'BTREE'
p2406
sg2389
S'versions_product_id_idx'
p2407
sg2391
S'A'
sg2392
S''
sg2393
L2L
sg2394
S'versions'
p2408
sg2396
L1L
sg2397
Nsg2398
S'value'
p2409
satp2410
sS'flagtypes'
p2411
((lp2412
(dp2413
S'Extra'
p2414
S'auto_increment'
p2415
sS'Default'
p2416
NsS'Field'
p2417
S'id'
p2418
sS'Key'
p2419
S'PRI'
p2420
sS'Null'
p2421
S'NO'
p2422
sS'Type'
p2423
S'smallint(6)'
p2424
sa(dp2425
g2414
S''
sg2416
S''
sg2417
S'name'
p2426
sg2419
S''
sg2421
S'NO'
p2427
sg2423
S'varchar(50)'
p2428
sa(dp2429
g2414
S''
sg2416
S''
sg2417
S'description'
p2430
sg2419
S''
sg2421
S'NO'
p2431
sg2423
S'mediumtext'
p2432
sa(dp2433
g2414
S''
sg2416
Nsg2417
S'cc_list'
p2434
sg2419
S''
sg2421
S'YES'
p2435
sg2423
S'varchar(200)'
p2436
sa(dp2437
g2414
S''
sg2416
S'b'
sg2417
S'target_type'
p2438
sg2419
S''
sg2421
S'NO'
p2439
sg2423
S'char(1)'
p2440
sa(dp2441
g2414
S''
sg2416
S'1'
sg2417
S'is_active'
p2442
sg2419
S''
sg2421
S'NO'
p2443
sg2423
S'tinyint(4)'
p2444
sa(dp2445
g2414
S''
sg2416
S'0'
sg2417
S'is_requestable'
p2446
sg2419
S''
sg2421
S'NO'
p2447
sg2423
S'tinyint(4)'
p2448
sa(dp2449
g2414
S''
sg2416
S'0'
sg2417
S'is_requesteeble'
p2450
sg2419
S''
sg2421
S'NO'
p2451
sg2423
S'tinyint(4)'
p2452
sa(dp2453
g2414
S''
sg2416
S'0'
sg2417
S'is_multiplicable'
p2454
sg2419
S''
sg2421
S'NO'
p2455
sg2423
S'tinyint(4)'
p2456
sa(dp2457
g2414
S''
sg2416
S'0'
sg2417
S'sortkey'
p2458
sg2419
S''
sg2421
S'NO'
p2459
sg2423
S'smallint(6)'
p2460
sa(dp2461
g2414
S''
sg2416
Nsg2417
S'grant_group_id'
p2462
sg2419
S''
sg2421
S'YES'
p2463
sg2423
S'mediumint(9)'
p2464
sa(dp2465
g2414
S''
sg2416
Nsg2417
S'request_group_id'
p2466
sg2419
S''
sg2421
S'YES'
p2467
sg2423
S'mediumint(9)'
p2468
sa(lp2469
(dp2470
S'Comment'
p2471
S''
sS'Non_unique'
p2472
L0L
sS'Sub_part'
p2473
NsS'Index_type'
p2474
S'BTREE'
p2475
sS'Key_name'
p2476
S'PRIMARY'
p2477
sS'Collation'
p2478
S'A'
sS'Null'
p2479
S''
sS'Seq_in_index'
p2480
L1L
sS'Table'
p2481
S'flagtypes'
p2482
sS'Cardinality'
p2483
L0L
sS'Packed'
p2484
NsS'Column_name'
p2485
S'id'
p2486
satp2487
sS'user_group_map'
p2488
((lp2489
(dp2490
S'Extra'
p2491
S''
sS'Default'
p2492
S''
sS'Field'
p2493
S'user_id'
p2494
sS'Key'
p2495
S'PRI'
p2496
sS'Null'
p2497
S'NO'
p2498
sS'Type'
p2499
S'mediumint(9)'
p2500
sa(dp2501
g2491
S''
sg2492
S''
sg2493
S'group_id'
p2502
sg2495
S'PRI'
p2503
sg2497
S'NO'
p2504
sg2499
S'mediumint(9)'
p2505
sa(dp2506
g2491
S''
sg2492
S'0'
sg2493
S'isbless'
p2507
sg2495
S'PRI'
p2508
sg2497
S'NO'
p2509
sg2499
S'tinyint(4)'
p2510
sa(dp2511
g2491
S''
sg2492
S'0'
sg2493
S'grant_type'
p2512
sg2495
S'PRI'
p2513
sg2497
S'NO'
p2514
sg2499
S'tinyint(4)'
p2515
sa(lp2516
(dp2517
S'Comment'
p2518
S''
sS'Non_unique'
p2519
L0L
sS'Sub_part'
p2520
NsS'Index_type'
p2521
S'BTREE'
p2522
sS'Key_name'
p2523
S'user_group_map_user_id_idx'
p2524
sS'Collation'
p2525
S'A'
sS'Null'
p2526
S''
sS'Seq_in_index'
p2527
L1L
sS'Table'
p2528
S'user_group_map'
p2529
sS'Cardinality'
p2530
L4L
sS'Packed'
p2531
NsS'Column_name'
p2532
S'user_id'
p2533
sa(dp2534
g2518
S''
sg2519
L0L
sg2520
Nsg2521
S'BTREE'
p2535
sg2523
S'user_group_map_user_id_idx'
p2536
sg2525
S'A'
sg2526
S''
sg2527
L2L
sg2528
S'user_group_map'
p2537
sg2530
L4L
sg2531
Nsg2532
S'group_id'
p2538
sa(dp2539
g2518
S''
sg2519
L0L
sg2520
Nsg2521
S'BTREE'
p2540
sg2523
S'user_group_map_user_id_idx'
p2541
sg2525
S'A'
sg2526
S''
sg2527
L3L
sg2528
S'user_group_map'
p2542
sg2530
L4L
sg2531
Nsg2532
S'grant_type'
p2543
sa(dp2544
g2518
S''
sg2519
L0L
sg2520
Nsg2521
S'BTREE'
p2545
sg2523
S'user_group_map_user_id_idx'
p2546
sg2525
S'A'
sg2526
S''
sg2527
L4L
sg2528
S'user_group_map'
p2547
sg2530
L4L
sg2531
Nsg2532
S'isbless'
p2548
satp2549
sS'bugs'
p2550
((lp2551
(dp2552
S'Extra'
p2553
S'auto_increment'
p2554
sS'Default'
p2555
NsS'Field'
p2556
S'bug_id'
p2557
sS'Key'
p2558
S'PRI'
p2559
sS'Null'
p2560
S'NO'
p2561
sS'Type'
p2562
S'mediumint(9)'
p2563
sa(dp2564
g2553
S''
sg2555
S''
sg2556
S'assigned_to'
p2565
sg2558
S'MUL'
p2566
sg2560
S'NO'
p2567
sg2562
S'mediumint(9)'
p2568
sa(dp2569
g2553
S''
sg2555
Nsg2556
S'bug_file_loc'
p2570
sg2558
S''
sg2560
S'YES'
p2571
sg2562
S'mediumtext'
p2572
sa(dp2573
g2553
S''
sg2555
S''
sg2556
S'bug_severity'
p2574
sg2558
S'MUL'
p2575
sg2560
S'NO'
p2576
sg2562
S'varchar(64)'
p2577
sa(dp2578
g2553
S''
sg2555
S''
sg2556
S'bug_status'
p2579
sg2558
S'MUL'
p2580
sg2560
S'NO'
p2581
sg2562
S'varchar(64)'
p2582
sa(dp2583
g2553
S''
sg2555
Nsg2556
S'creation_ts'
p2584
sg2558
S'MUL'
p2585
sg2560
S'YES'
p2586
sg2562
S'datetime'
p2587
sa(dp2588
g2553
S''
sg2555
S''
sg2556
S'delta_ts'
p2589
sg2558
S'MUL'
p2590
sg2560
S'NO'
p2591
sg2562
S'datetime'
p2592
sa(dp2593
g2553
S''
sg2555
S''
sg2556
S'short_desc'
p2594
sg2558
S''
sg2560
S'NO'
p2595
sg2562
S'varchar(255)'
p2596
sa(dp2597
g2553
S''
sg2555
S''
sg2556
S'op_sys'
p2598
sg2558
S'MUL'
p2599
sg2560
S'NO'
p2600
sg2562
S'varchar(64)'
p2601
sa(dp2602
g2553
S''
sg2555
S''
sg2556
S'priority'
p2603
sg2558
S'MUL'
p2604
sg2560
S'NO'
p2605
sg2562
S'varchar(64)'
p2606
sa(dp2607
g2553
S''
sg2555
S''
sg2556
S'product_id'
p2608
sg2558
S'MUL'
p2609
sg2560
S'NO'
p2610
sg2562
S'smallint(6)'
p2611
sa(dp2612
g2553
S''
sg2555
S''
sg2556
S'rep_platform'
p2613
sg2558
S''
sg2560
S'NO'
p2614
sg2562
S'varchar(64)'
p2615
sa(dp2616
g2553
S''
sg2555
S''
sg2556
S'reporter'
p2617
sg2558
S'MUL'
p2618
sg2560
S'NO'
p2619
sg2562
S'mediumint(9)'
p2620
sa(dp2621
g2553
S''
sg2555
S''
sg2556
S'version'
p2622
sg2558
S'MUL'
p2623
sg2560
S'NO'
p2624
sg2562
S'varchar(64)'
p2625
sa(dp2626
g2553
S''
sg2555
S''
sg2556
S'component_id'
p2627
sg2558
S'MUL'
p2628
sg2560
S'NO'
p2629
sg2562
S'smallint(6)'
p2630
sa(dp2631
g2553
S''
sg2555
S''
sg2556
S'resolution'
p2632
sg2558
S'MUL'
p2633
sg2560
S'NO'
p2634
sg2562
S'varchar(64)'
p2635
sa(dp2636
g2553
S''
sg2555
S'---'
p2637
sg2556
S'target_milestone'
p2638
sg2558
S'MUL'
p2639
sg2560
S'NO'
p2640
sg2562
S'varchar(20)'
p2641
sa(dp2642
g2553
S''
sg2555
Nsg2556
S'qa_contact'
p2643
sg2558
S'MUL'
p2644
sg2560
S'YES'
p2645
sg2562
S'mediumint(9)'
p2646
sa(dp2647
g2553
S''
sg2555
S''
sg2556
S'status_whiteboard'
p2648
sg2558
S''
sg2560
S'NO'
p2649
sg2562
S'mediumtext'
p2650
sa(dp2651
g2553
S''
sg2555
S'0'
sg2556
S'votes'
p2652
sg2558
S'MUL'
p2653
sg2560
S'NO'
p2654
sg2562
S'mediumint(9)'
p2655
sa(dp2656
g2553
S''
sg2555
S''
sg2556
S'keywords'
p2657
sg2558
S''
sg2560
S'NO'
p2658
sg2562
S'mediumtext'
p2659
sa(dp2660
g2553
S''
sg2555
Nsg2556
S'lastdiffed'
p2661
sg2558
S''
sg2560
S'YES'
p2662
sg2562
S'datetime'
p2663
sa(dp2664
g2553
S''
sg2555
S''
sg2556
S'everconfirmed'
p2665
sg2558
S''
sg2560
S'NO'
p2666
sg2562
S'tinyint(4)'
p2667
sa(dp2668
g2553
S''
sg2555
S'1'
sg2556
S'reporter_accessible'
p2669
sg2558
S''
sg2560
S'NO'
p2670
sg2562
S'tinyint(4)'
p2671
sa(dp2672
g2553
S''
sg2555
S'1'
sg2556
S'cclist_accessible'
p2673
sg2558
S''
sg2560
S'NO'
p2674
sg2562
S'tinyint(4)'
p2675
sa(dp2676
g2553
S''
sg2555
S'0.00'
p2677
sg2556
S'estimated_time'
p2678
sg2558
S''
sg2560
S'NO'
p2679
sg2562
S'decimal(5,2)'
p2680
sa(dp2681
g2553
S''
sg2555
S'0.00'
p2682
sg2556
S'remaining_time'
p2683
sg2558
S''
sg2560
S'NO'
p2684
sg2562
S'decimal(5,2)'
p2685
sa(dp2686
g2553
S''
sg2555
Nsg2556
S'deadline'
p2687
sg2558
S''
sg2560
S'YES'
p2688
sg2562
S'datetime'
p2689
sa(dp2690
g2553
S''
sg2555
Nsg2556
S'alias'
p2691
sg2558
S'UNI'
p2692
sg2560
S'YES'
p2693
sg2562
S'varchar(20)'
p2694
sa(lp2695
(dp2696
S'Comment'
p2697
S''
sS'Non_unique'
p2698
L0L
sS'Sub_part'
p2699
NsS'Index_type'
p2700
S'BTREE'
p2701
sS'Key_name'
p2702
S'PRIMARY'
p2703
sS'Collation'
p2704
S'A'
sS'Null'
p2705
S''
sS'Seq_in_index'
p2706
L1L
sS'Table'
p2707
S'bugs'
p2708
sS'Cardinality'
p2709
L0L
sS'Packed'
p2710
NsS'Column_name'
p2711
S'bug_id'
p2712
sa(dp2713
g2697
S''
sg2698
L0L
sg2699
Nsg2700
S'BTREE'
p2714
sg2702
S'bugs_alias_idx'
p2715
sg2704
S'A'
sg2705
S'YES'
p2716
sg2706
L1L
sg2707
S'bugs'
p2717
sg2709
L0L
sg2710
Nsg2711
S'alias'
p2718
sa(dp2719
g2697
S''
sg2698
L1L
sg2699
Nsg2700
S'BTREE'
p2720
sg2702
S'bugs_assigned_to_idx'
p2721
sg2704
S'A'
sg2705
S''
sg2706
L1L
sg2707
S'bugs'
p2722
sg2709
L0L
sg2710
Nsg2711
S'assigned_to'
p2723
sa(dp2724
g2697
S''
sg2698
L1L
sg2699
Nsg2700
S'BTREE'
p2725
sg2702
S'bugs_creation_ts_idx'
p2726
sg2704
S'A'
sg2705
S'YES'
p2727
sg2706
L1L
sg2707
S'bugs'
p2728
sg2709
L0L
sg2710
Nsg2711
S'creation_ts'
p2729
sa(dp2730
g2697
S''
sg2698
L1L
sg2699
Nsg2700
S'BTREE'
p2731
sg2702
S'bugs_delta_ts_idx'
p2732
sg2704
S'A'
sg2705
S''
sg2706
L1L
sg2707
S'bugs'
p2733
sg2709
L0L
sg2710
Nsg2711
S'delta_ts'
p2734
sa(dp2735
g2697
S''
sg2698
L1L
sg2699
Nsg2700
S'BTREE'
p2736
sg2702
S'bugs_bug_severity_idx'
p2737
sg2704
S'A'
sg2705
S''
sg2706
L1L
sg2707
S'bugs'
p2738
sg2709
L0L
sg2710
Nsg2711
S'bug_severity'
p2739
sa(dp2740
g2697
S''
sg2698
L1L
sg2699
Nsg2700
S'BTREE'
p2741
sg2702
S'bugs_bug_status_idx'
p2742
sg2704
S'A'
sg2705
S''
sg2706
L1L
sg2707
S'bugs'
p2743
sg2709
L0L
sg2710
Nsg2711
S'bug_status'
p2744
sa(dp2745
g2697
S''
sg2698
L1L
sg2699
Nsg2700
S'BTREE'
p2746
sg2702
S'bugs_op_sys_idx'
p2747
sg2704
S'A'
sg2705
S''
sg2706
L1L
sg2707
S'bugs'
p2748
sg2709
L0L
sg2710
Nsg2711
S'op_sys'
p2749
sa(dp2750
g2697
S''
sg2698
L1L
sg2699
Nsg2700
S'BTREE'
p2751
sg2702
S'bugs_priority_idx'
p2752
sg2704
S'A'
sg2705
S''
sg2706
L1L
sg2707
S'bugs'
p2753
sg2709
L0L
sg2710
Nsg2711
S'priority'
p2754
sa(dp2755
g2697
S''
sg2698
L1L
sg2699
Nsg2700
S'BTREE'
p2756
sg2702
S'bugs_product_id_idx'
p2757
sg2704
S'A'
sg2705
S''
sg2706
L1L
sg2707
S'bugs'
p2758
sg2709
L0L
sg2710
Nsg2711
S'product_id'
p2759
sa(dp2760
g2697
S''
sg2698
L1L
sg2699
Nsg2700
S'BTREE'
p2761
sg2702
S'bugs_reporter_idx'
p2762
sg2704
S'A'
sg2705
S''
sg2706
L1L
sg2707
S'bugs'
p2763
sg2709
L0L
sg2710
Nsg2711
S'reporter'
p2764
sa(dp2765
g2697
S''
sg2698
L1L
sg2699
Nsg2700
S'BTREE'
p2766
sg2702
S'bugs_version_idx'
p2767
sg2704
S'A'
sg2705
S''
sg2706
L1L
sg2707
S'bugs'
p2768
sg2709
L0L
sg2710
Nsg2711
S'version'
p2769
sa(dp2770
g2697
S''
sg2698
L1L
sg2699
Nsg2700
S'BTREE'
p2771
sg2702
S'bugs_component_id_idx'
p2772
sg2704
S'A'
sg2705
S''
sg2706
L1L
sg2707
S'bugs'
p2773
sg2709
L0L
sg2710
Nsg2711
S'component_id'
p2774
sa(dp2775
g2697
S''
sg2698
L1L
sg2699
Nsg2700
S'BTREE'
p2776
sg2702
S'bugs_resolution_idx'
p2777
sg2704
S'A'
sg2705
S''
sg2706
L1L
sg2707
S'bugs'
p2778
sg2709
L0L
sg2710
Nsg2711
S'resolution'
p2779
sa(dp2780
g2697
S''
sg2698
L1L
sg2699
Nsg2700
S'BTREE'
p2781
sg2702
S'bugs_target_milestone_idx'
p2782
sg2704
S'A'
sg2705
S''
sg2706
L1L
sg2707
S'bugs'
p2783
sg2709
L0L
sg2710
Nsg2711
S'target_milestone'
p2784
sa(dp2785
g2697
S''
sg2698
L1L
sg2699
Nsg2700
S'BTREE'
p2786
sg2702
S'bugs_qa_contact_idx'
p2787
sg2704
S'A'
sg2705
S'YES'
p2788
sg2706
L1L
sg2707
S'bugs'
p2789
sg2709
L0L
sg2710
Nsg2711
S'qa_contact'
p2790
sa(dp2791
g2697
S''
sg2698
L1L
sg2699
Nsg2700
S'BTREE'
p2792
sg2702
S'bugs_votes_idx'
p2793
sg2704
S'A'
sg2705
S''
sg2706
L1L
sg2707
S'bugs'
p2794
sg2709
L0L
sg2710
Nsg2711
S'votes'
p2795
satp2796
sS'profiles'
p2797
((lp2798
(dp2799
S'Extra'
p2800
S'auto_increment'
p2801
sS'Default'
p2802
NsS'Field'
p2803
S'userid'
p2804
sS'Key'
p2805
S'PRI'
p2806
sS'Null'
p2807
S'NO'
p2808
sS'Type'
p2809
S'mediumint(9)'
p2810
sa(dp2811
g2800
S''
sg2802
S''
sg2803
S'login_name'
p2812
sg2805
S'UNI'
p2813
sg2807
S'NO'
p2814
sg2809
S'varchar(255)'
p2815
sa(dp2816
g2800
S''
sg2802
Nsg2803
S'cryptpassword'
p2817
sg2805
S''
sg2807
S'YES'
p2818
sg2809
S'varchar(128)'
p2819
sa(dp2820
g2800
S''
sg2802
S''
sg2803
S'realname'
p2821
sg2805
S''
sg2807
S'NO'
p2822
sg2809
S'varchar(255)'
p2823
sa(dp2824
g2800
S''
sg2802
S''
sg2803
S'disabledtext'
p2825
sg2805
S''
sg2807
S'NO'
p2826
sg2809
S'mediumtext'
p2827
sa(dp2828
g2800
S''
sg2802
S'0'
sg2803
S'disable_mail'
p2829
sg2805
S''
sg2807
S'NO'
p2830
sg2809
S'tinyint(4)'
p2831
sa(dp2832
g2800
S''
sg2802
S'1'
sg2803
S'mybugslink'
p2833
sg2805
S''
sg2807
S'NO'
p2834
sg2809
S'tinyint(4)'
p2835
sa(dp2836
g2800
S''
sg2802
Nsg2803
S'extern_id'
p2837
sg2805
S''
sg2807
S'YES'
p2838
sg2809
S'varchar(64)'
p2839
sa(lp2840
(dp2841
S'Comment'
p2842
S''
sS'Non_unique'
p2843
L0L
sS'Sub_part'
p2844
NsS'Index_type'
p2845
S'BTREE'
p2846
sS'Key_name'
p2847
S'PRIMARY'
p2848
sS'Collation'
p2849
S'A'
sS'Null'
p2850
S''
sS'Seq_in_index'
p2851
L1L
sS'Table'
p2852
S'profiles'
p2853
sS'Cardinality'
p2854
L1L
sS'Packed'
p2855
NsS'Column_name'
p2856
S'userid'
p2857
sa(dp2858
g2842
S''
sg2843
L0L
sg2844
Nsg2845
S'BTREE'
p2859
sg2847
S'profiles_login_name_idx'
p2860
sg2849
S'A'
sg2850
S''
sg2851
L1L
sg2852
S'profiles'
p2861
sg2854
L1L
sg2855
Nsg2856
S'login_name'
p2862
satp2863
sS'flags'
p2864
((lp2865
(dp2866
S'Extra'
p2867
S'auto_increment'
p2868
sS'Default'
p2869
NsS'Field'
p2870
S'id'
p2871
sS'Key'
p2872
S'PRI'
p2873
sS'Null'
p2874
S'NO'
p2875
sS'Type'
p2876
S'mediumint(9)'
p2877
sa(dp2878
g2867
S''
sg2869
S''
sg2870
S'type_id'
p2879
sg2872
S'MUL'
p2880
sg2874
S'NO'
p2881
sg2876
S'smallint(6)'
p2882
sa(dp2883
g2867
S''
sg2869
S''
sg2870
S'status'
p2884
sg2872
S''
sg2874
S'NO'
p2885
sg2876
S'char(1)'
p2886
sa(dp2887
g2867
S''
sg2869
S''
sg2870
S'bug_id'
p2888
sg2872
S'MUL'
p2889
sg2874
S'NO'
p2890
sg2876
S'mediumint(9)'
p2891
sa(dp2892
g2867
S''
sg2869
Nsg2870
S'attach_id'
p2893
sg2872
S''
sg2874
S'YES'
p2894
sg2876
S'mediumint(9)'
p2895
sa(dp2896
g2867
S''
sg2869
S''
sg2870
S'creation_date'
p2897
sg2872
S''
sg2874
S'NO'
p2898
sg2876
S'datetime'
p2899
sa(dp2900
g2867
S''
sg2869
Nsg2870
S'modification_date'
p2901
sg2872
S''
sg2874
S'YES'
p2902
sg2876
S'datetime'
p2903
sa(dp2904
g2867
S''
sg2869
Nsg2870
S'setter_id'
p2905
sg2872
S'MUL'
p2906
sg2874
S'YES'
p2907
sg2876
S'mediumint(9)'
p2908
sa(dp2909
g2867
S''
sg2869
Nsg2870
S'requestee_id'
p2910
sg2872
S'MUL'
p2911
sg2874
S'YES'
p2912
sg2876
S'mediumint(9)'
p2913
sa(lp2914
(dp2915
S'Comment'
p2916
S''
sS'Non_unique'
p2917
L0L
sS'Sub_part'
p2918
NsS'Index_type'
p2919
S'BTREE'
p2920
sS'Key_name'
p2921
S'PRIMARY'
p2922
sS'Collation'
p2923
S'A'
sS'Null'
p2924
S''
sS'Seq_in_index'
p2925
L1L
sS'Table'
p2926
S'flags'
p2927
sS'Cardinality'
p2928
L0L
sS'Packed'
p2929
NsS'Column_name'
p2930
S'id'
p2931
sa(dp2932
g2916
S''
sg2917
L1L
sg2918
Nsg2919
S'BTREE'
p2933
sg2921
S'flags_bug_id_idx'
p2934
sg2923
S'A'
sg2924
S''
sg2925
L1L
sg2926
S'flags'
p2935
sg2928
L0L
sg2929
Nsg2930
S'bug_id'
p2936
sa(dp2937
g2916
S''
sg2917
L1L
sg2918
Nsg2919
S'BTREE'
p2938
sg2921
S'flags_bug_id_idx'
p2939
sg2923
S'A'
sg2924
S'YES'
p2940
sg2925
L2L
sg2926
S'flags'
p2941
sg2928
L0L
sg2929
Nsg2930
S'attach_id'
p2942
sa(dp2943
g2916
S''
sg2917
L1L
sg2918
Nsg2919
S'BTREE'
p2944
sg2921
S'flags_setter_id_idx'
p2945
sg2923
S'A'
sg2924
S'YES'
p2946
sg2925
L1L
sg2926
S'flags'
p2947
sg2928
L0L
sg2929
Nsg2930
S'setter_id'
p2948
sa(dp2949
g2916
S''
sg2917
L1L
sg2918
Nsg2919
S'BTREE'
p2950
sg2921
S'flags_requestee_id_idx'
p2951
sg2923
S'A'
sg2924
S'YES'
p2952
sg2925
L1L
sg2926
S'flags'
p2953
sg2928
L0L
sg2929
Nsg2930
S'requestee_id'
p2954
sa(dp2955
g2916
S''
sg2917
L1L
sg2918
Nsg2919
S'BTREE'
p2956
sg2921
S'flags_type_id_idx'
p2957
sg2923
S'A'
sg2924
S''
sg2925
L1L
sg2926
S'flags'
p2958
sg2928
L0L
sg2929
Nsg2930
S'type_id'
p2959
satp2960
sS'whine_events'
p2961
((lp2962
(dp2963
S'Extra'
p2964
S'auto_increment'
p2965
sS'Default'
p2966
NsS'Field'
p2967
S'id'
p2968
sS'Key'
p2969
S'PRI'
p2970
sS'Null'
p2971
S'NO'
p2972
sS'Type'
p2973
S'mediumint(9)'
p2974
sa(dp2975
g2964
S''
sg2966
S''
sg2967
S'owner_userid'
p2976
sg2969
S'MUL'
p2977
sg2971
S'NO'
p2978
sg2973
S'mediumint(9)'
p2979
sa(dp2980
g2964
S''
sg2966
Nsg2967
S'subject'
p2981
sg2969
S''
sg2971
S'YES'
p2982
sg2973
S'varchar(128)'
p2983
sa(dp2984
g2964
S''
sg2966
Nsg2967
S'body'
p2985
sg2969
S''
sg2971
S'YES'
p2986
sg2973
S'mediumtext'
p2987
sa(lp2988
(dp2989
S'Comment'
p2990
S''
sS'Non_unique'
p2991
L0L
sS'Sub_part'
p2992
NsS'Index_type'
p2993
S'BTREE'
p2994
sS'Key_name'
p2995
S'PRIMARY'
p2996
sS'Collation'
p2997
S'A'
sS'Null'
p2998
S''
sS'Seq_in_index'
p2999
L1L
sS'Table'
p3000
S'whine_events'
p3001
sS'Cardinality'
p3002
L0L
sS'Packed'
p3003
NsS'Column_name'
p3004
S'id'
p3005
sa(dp3006
g2990
S''
sg2991
L1L
sg2992
Nsg2993
S'BTREE'
p3007
sg2995
S'fk_whine_events_owner_userid_profiles_userid'
p3008
sg2997
S'A'
sg2998
S''
sg2999
L1L
sg3000
S'whine_events'
p3009
sg3002
L0L
sg3003
Nsg3004
S'owner_userid'
p3010
satp3011
sS'components'
p3012
((lp3013
(dp3014
S'Extra'
p3015
S'auto_increment'
p3016
sS'Default'
p3017
NsS'Field'
p3018
S'id'
p3019
sS'Key'
p3020
S'PRI'
p3021
sS'Null'
p3022
S'NO'
p3023
sS'Type'
p3024
S'smallint(6)'
p3025
sa(dp3026
g3015
S''
sg3017
S''
sg3018
S'name'
p3027
sg3020
S'MUL'
p3028
sg3022
S'NO'
p3029
sg3024
S'varchar(64)'
p3030
sa(dp3031
g3015
S''
sg3017
S''
sg3018
S'product_id'
p3032
sg3020
S'MUL'
p3033
sg3022
S'NO'
p3034
sg3024
S'smallint(6)'
p3035
sa(dp3036
g3015
S''
sg3017
S''
sg3018
S'initialowner'
p3037
sg3020
S'MUL'
p3038
sg3022
S'NO'
p3039
sg3024
S'mediumint(9)'
p3040
sa(dp3041
g3015
S''
sg3017
Nsg3018
S'initialqacontact'
p3042
sg3020
S'MUL'
p3043
sg3022
S'YES'
p3044
sg3024
S'mediumint(9)'
p3045
sa(dp3046
g3015
S''
sg3017
S''
sg3018
S'description'
p3047
sg3020
S''
sg3022
S'NO'
p3048
sg3024
S'mediumtext'
p3049
sa(lp3050
(dp3051
S'Comment'
p3052
S''
sS'Non_unique'
p3053
L0L
sS'Sub_part'
p3054
NsS'Index_type'
p3055
S'BTREE'
p3056
sS'Key_name'
p3057
S'PRIMARY'
p3058
sS'Collation'
p3059
S'A'
sS'Null'
p3060
S''
sS'Seq_in_index'
p3061
L1L
sS'Table'
p3062
S'components'
p3063
sS'Cardinality'
p3064
L1L
sS'Packed'
p3065
NsS'Column_name'
p3066
S'id'
p3067
sa(dp3068
g3052
S''
sg3053
L0L
sg3054
Nsg3055
S'BTREE'
p3069
sg3057
S'components_product_id_idx'
p3070
sg3059
S'A'
sg3060
S''
sg3061
L1L
sg3062
S'components'
p3071
sg3064
L1L
sg3065
Nsg3066
S'product_id'
p3072
sa(dp3073
g3052
S''
sg3053
L0L
sg3054
Nsg3055
S'BTREE'
p3074
sg3057
S'components_product_id_idx'
p3075
sg3059
S'A'
sg3060
S''
sg3061
L2L
sg3062
S'components'
p3076
sg3064
L1L
sg3065
Nsg3066
S'name'
p3077
sa(dp3078
g3052
S''
sg3053
L1L
sg3054
Nsg3055
S'BTREE'
p3079
sg3057
S'components_name_idx'
p3080
sg3059
S'A'
sg3060
S''
sg3061
L1L
sg3062
S'components'
p3081
sg3064
L1L
sg3065
Nsg3066
S'name'
p3082
sa(dp3083
g3052
S''
sg3053
L1L
sg3054
Nsg3055
S'BTREE'
p3084
sg3057
S'fk_components_initialowner_profiles_userid'
p3085
sg3059
S'A'
sg3060
S''
sg3061
L1L
sg3062
S'components'
p3086
sg3064
L1L
sg3065
Nsg3066
S'initialowner'
p3087
sa(dp3088
g3052
S''
sg3053
L1L
sg3054
Nsg3055
S'BTREE'
p3089
sg3057
S'fk_components_initialqacontact_profiles_userid'
p3090
sg3059
S'A'
sg3060
S'YES'
p3091
sg3061
L1L
sg3062
S'components'
p3092
sg3064
L1L
sg3065
Nsg3066
S'initialqacontact'
p3093
satp3094
sS'whine_queries'
p3095
((lp3096
(dp3097
S'Extra'
p3098
S'auto_increment'
p3099
sS'Default'
p3100
NsS'Field'
p3101
S'id'
p3102
sS'Key'
p3103
S'PRI'
p3104
sS'Null'
p3105
S'NO'
p3106
sS'Type'
p3107
S'mediumint(9)'
p3108
sa(dp3109
g3098
S''
sg3100
S''
sg3101
S'eventid'
p3110
sg3103
S'MUL'
p3111
sg3105
S'NO'
p3112
sg3107
S'mediumint(9)'
p3113
sa(dp3114
g3098
S''
sg3100
S''
sg3101
S'query_name'
p3115
sg3103
S''
sg3105
S'NO'
p3116
sg3107
S'varchar(64)'
p3117
sa(dp3118
g3098
S''
sg3100
S'0'
sg3101
S'sortkey'
p3119
sg3103
S''
sg3105
S'NO'
p3120
sg3107
S'smallint(6)'
p3121
sa(dp3122
g3098
S''
sg3100
S'0'
sg3101
S'onemailperbug'
p3123
sg3103
S''
sg3105
S'NO'
p3124
sg3107
S'tinyint(4)'
p3125
sa(dp3126
g3098
S''
sg3100
S''
sg3101
S'title'
p3127
sg3103
S''
sg3105
S'NO'
p3128
sg3107
S'varchar(128)'
p3129
sa(lp3130
(dp3131
S'Comment'
p3132
S''
sS'Non_unique'
p3133
L0L
sS'Sub_part'
p3134
NsS'Index_type'
p3135
S'BTREE'
p3136
sS'Key_name'
p3137
S'PRIMARY'
p3138
sS'Collation'
p3139
S'A'
sS'Null'
p3140
S''
sS'Seq_in_index'
p3141
L1L
sS'Table'
p3142
S'whine_queries'
p3143
sS'Cardinality'
p3144
L0L
sS'Packed'
p3145
NsS'Column_name'
p3146
S'id'
p3147
sa(dp3148
g3132
S''
sg3133
L1L
sg3134
Nsg3135
S'BTREE'
p3149
sg3137
S'whine_queries_eventid_idx'
p3150
sg3139
S'A'
sg3140
S''
sg3141
L1L
sg3142
S'whine_queries'
p3151
sg3144
L0L
sg3145
Nsg3146
S'eventid'
p3152
satp3153
sS'profile_setting'
p3154
((lp3155
(dp3156
S'Extra'
p3157
S''
sS'Default'
p3158
S''
sS'Field'
p3159
S'user_id'
p3160
sS'Key'
p3161
S'PRI'
p3162
sS'Null'
p3163
S'NO'
p3164
sS'Type'
p3165
S'mediumint(9)'
p3166
sa(dp3167
g3157
S''
sg3158
S''
sg3159
S'setting_name'
p3168
sg3161
S'PRI'
p3169
sg3163
S'NO'
p3170
sg3165
S'varchar(32)'
p3171
sa(dp3172
g3157
S''
sg3158
S''
sg3159
S'setting_value'
p3173
sg3161
S''
sg3163
S'NO'
p3174
sg3165
S'varchar(32)'
p3175
sa(lp3176
(dp3177
S'Comment'
p3178
S''
sS'Non_unique'
p3179
L0L
sS'Sub_part'
p3180
NsS'Index_type'
p3181
S'BTREE'
p3182
sS'Key_name'
p3183
S'profile_setting_value_unique_idx'
p3184
sS'Collation'
p3185
S'A'
sS'Null'
p3186
S''
sS'Seq_in_index'
p3187
L1L
sS'Table'
p3188
S'profile_setting'
p3189
sS'Cardinality'
p3190
L0L
sS'Packed'
p3191
NsS'Column_name'
p3192
S'user_id'
p3193
sa(dp3194
g3178
S''
sg3179
L0L
sg3180
Nsg3181
S'BTREE'
p3195
sg3183
S'profile_setting_value_unique_idx'
p3196
sg3185
S'A'
sg3186
S''
sg3187
L2L
sg3188
S'profile_setting'
p3197
sg3190
L0L
sg3191
Nsg3192
S'setting_name'
p3198
satp3199
sS'setting_value'
p3200
((lp3201
(dp3202
S'Extra'
p3203
S''
sS'Default'
p3204
S''
sS'Field'
p3205
S'name'
p3206
sS'Key'
p3207
S'PRI'
p3208
sS'Null'
p3209
S'NO'
p3210
sS'Type'
p3211
S'varchar(32)'
p3212
sa(dp3213
g3203
S''
sg3204
S''
sg3205
S'value'
p3214
sg3207
S'PRI'
p3215
sg3209
S'NO'
p3216
sg3211
S'varchar(32)'
p3217
sa(dp3218
g3203
S''
sg3204
S''
sg3205
S'sortindex'
p3219
sg3207
S''
sg3209
S'NO'
p3220
sg3211
S'smallint(6)'
p3221
sa(lp3222
(dp3223
S'Comment'
p3224
S''
sS'Non_unique'
p3225
L0L
sS'Sub_part'
p3226
NsS'Index_type'
p3227
S'BTREE'
p3228
sS'Key_name'
p3229
S'setting_value_nv_unique_idx'
p3230
sS'Collation'
p3231
S'A'
sS'Null'
p3232
S''
sS'Seq_in_index'
p3233
L1L
sS'Table'
p3234
S'setting_value'
p3235
sS'Cardinality'
p3236
L20L
sS'Packed'
p3237
NsS'Column_name'
p3238
S'name'
p3239
sa(dp3240
g3224
S''
sg3225
L0L
sg3226
Nsg3227
S'BTREE'
p3241
sg3229
S'setting_value_nv_unique_idx'
p3242
sg3231
S'A'
sg3232
S''
sg3233
L2L
sg3234
S'setting_value'
p3243
sg3236
L20L
sg3237
Nsg3238
S'value'
p3244
sa(dp3245
g3224
S''
sg3225
L0L
sg3226
Nsg3227
S'BTREE'
p3246
sg3229
S'setting_value_ns_unique_idx'
p3247
sg3231
S'A'
sg3232
S''
sg3233
L1L
sg3234
S'setting_value'
p3248
sg3236
L20L
sg3237
Nsg3238
S'name'
p3249
sa(dp3250
g3224
S''
sg3225
L0L
sg3226
Nsg3227
S'BTREE'
p3251
sg3229
S'setting_value_ns_unique_idx'
p3252
sg3231
S'A'
sg3232
S''
sg3233
L2L
sg3234
S'setting_value'
p3253
sg3236
L20L
sg3237
Nsg3238
S'sortindex'
p3254
satp3255
sS'resolution'
p3256
((lp3257
(dp3258
S'Extra'
p3259
S'auto_increment'
p3260
sS'Default'
p3261
NsS'Field'
p3262
S'id'
p3263
sS'Key'
p3264
S'PRI'
p3265
sS'Null'
p3266
S'NO'
p3267
sS'Type'
p3268
S'smallint(6)'
p3269
sa(dp3270
g3259
S''
sg3261
S''
sg3262
S'value'
p3271
sg3264
S'UNI'
p3272
sg3266
S'NO'
p3273
sg3268
S'varchar(64)'
p3274
sa(dp3275
g3259
S''
sg3261
S'0'
sg3262
S'sortkey'
p3276
sg3264
S'MUL'
p3277
sg3266
S'NO'
p3278
sg3268
S'smallint(6)'
p3279
sa(dp3280
g3259
S''
sg3261
S'1'
sg3262
S'isactive'
p3281
sg3264
S''
sg3266
S'NO'
p3282
sg3268
S'tinyint(4)'
p3283
sa(lp3284
(dp3285
S'Comment'
p3286
S''
sS'Non_unique'
p3287
L0L
sS'Sub_part'
p3288
NsS'Index_type'
p3289
S'BTREE'
p3290
sS'Key_name'
p3291
S'PRIMARY'
p3292
sS'Collation'
p3293
S'A'
sS'Null'
p3294
S''
sS'Seq_in_index'
p3295
L1L
sS'Table'
p3296
S'resolution'
p3297
sS'Cardinality'
p3298
L7L
sS'Packed'
p3299
NsS'Column_name'
p3300
S'id'
p3301
sa(dp3302
g3286
S''
sg3287
L0L
sg3288
Nsg3289
S'BTREE'
p3303
sg3291
S'resolution_value_idx'
p3304
sg3293
S'A'
sg3294
S''
sg3295
L1L
sg3296
S'resolution'
p3305
sg3298
L7L
sg3299
Nsg3300
S'value'
p3306
sa(dp3307
g3286
S''
sg3287
L1L
sg3288
Nsg3289
S'BTREE'
p3308
sg3291
S'resolution_sortkey_idx'
p3309
sg3293
S'A'
sg3294
S''
sg3295
L1L
sg3296
S'resolution'
p3310
sg3298
L7L
sg3299
Nsg3300
S'sortkey'
p3311
sa(dp3312
g3286
S''
sg3287
L1L
sg3288
Nsg3289
S'BTREE'
p3313
sg3291
S'resolution_sortkey_idx'
p3314
sg3293
S'A'
sg3294
S''
sg3295
L2L
sg3296
S'resolution'
p3315
sg3298
L7L
sg3299
Nsg3300
S'value'
p3316
satp3317
sS'op_sys'
p3318
((lp3319
(dp3320
S'Extra'
p3321
S'auto_increment'
p3322
sS'Default'
p3323
NsS'Field'
p3324
S'id'
p3325
sS'Key'
p3326
S'PRI'
p3327
sS'Null'
p3328
S'NO'
p3329
sS'Type'
p3330
S'smallint(6)'
p3331
sa(dp3332
g3321
S''
sg3323
S''
sg3324
S'value'
p3333
sg3326
S'UNI'
p3334
sg3328
S'NO'
p3335
sg3330
S'varchar(64)'
p3336
sa(dp3337
g3321
S''
sg3323
S'0'
sg3324
S'sortkey'
p3338
sg3326
S'MUL'
p3339
sg3328
S'NO'
p3340
sg3330
S'smallint(6)'
p3341
sa(dp3342
g3321
S''
sg3323
S'1'
sg3324
S'isactive'
p3343
sg3326
S''
sg3328
S'NO'
p3344
sg3330
S'tinyint(4)'
p3345
sa(lp3346
(dp3347
S'Comment'
p3348
S''
sS'Non_unique'
p3349
L0L
sS'Sub_part'
p3350
NsS'Index_type'
p3351
S'BTREE'
p3352
sS'Key_name'
p3353
S'PRIMARY'
p3354
sS'Collation'
p3355
S'A'
sS'Null'
p3356
S''
sS'Seq_in_index'
p3357
L1L
sS'Table'
p3358
S'op_sys'
p3359
sS'Cardinality'
p3360
L5L
sS'Packed'
p3361
NsS'Column_name'
p3362
S'id'
p3363
sa(dp3364
g3348
S''
sg3349
L0L
sg3350
Nsg3351
S'BTREE'
p3365
sg3353
S'op_sys_value_idx'
p3366
sg3355
S'A'
sg3356
S''
sg3357
L1L
sg3358
S'op_sys'
p3367
sg3360
L5L
sg3361
Nsg3362
S'value'
p3368
sa(dp3369
g3348
S''
sg3349
L1L
sg3350
Nsg3351
S'BTREE'
p3370
sg3353
S'op_sys_sortkey_idx'
p3371
sg3355
S'A'
sg3356
S''
sg3357
L1L
sg3358
S'op_sys'
p3372
sg3360
L5L
sg3361
Nsg3362
S'sortkey'
p3373
sa(dp3374
g3348
S''
sg3349
L1L
sg3350
Nsg3351
S'BTREE'
p3375
sg3353
S'op_sys_sortkey_idx'
p3376
sg3355
S'A'
sg3356
S''
sg3357
L2L
sg3358
S'op_sys'
p3377
sg3360
L5L
sg3361
Nsg3362
S'value'
p3378
satp3379
sS'group_group_map'
p3380
((lp3381
(dp3382
S'Extra'
p3383
S''
sS'Default'
p3384
S''
sS'Field'
p3385
S'member_id'
p3386
sS'Key'
p3387
S'PRI'
p3388
sS'Null'
p3389
S'NO'
p3390
sS'Type'
p3391
S'mediumint(9)'
p3392
sa(dp3393
g3383
S''
sg3384
S''
sg3385
S'grantor_id'
p3394
sg3387
S'PRI'
p3395
sg3389
S'NO'
p3396
sg3391
S'mediumint(9)'
p3397
sa(dp3398
g3383
S''
sg3384
S'0'
sg3385
S'grant_type'
p3399
sg3387
S'PRI'
p3400
sg3389
S'NO'
p3401
sg3391
S'tinyint(4)'
p3402
sa(lp3403
(dp3404
S'Comment'
p3405
S''
sS'Non_unique'
p3406
L0L
sS'Sub_part'
p3407
NsS'Index_type'
p3408
S'BTREE'
p3409
sS'Key_name'
p3410
S'group_group_map_member_id_idx'
p3411
sS'Collation'
p3412
S'A'
sS'Null'
p3413
S''
sS'Seq_in_index'
p3414
L1L
sS'Table'
p3415
S'group_group_map'
p3416
sS'Cardinality'
p3417
L41L
sS'Packed'
p3418
NsS'Column_name'
p3419
S'member_id'
p3420
sa(dp3421
g3405
S''
sg3406
L0L
sg3407
Nsg3408
S'BTREE'
p3422
sg3410
S'group_group_map_member_id_idx'
p3423
sg3412
S'A'
sg3413
S''
sg3414
L2L
sg3415
S'group_group_map'
p3424
sg3417
L41L
sg3418
Nsg3419
S'grantor_id'
p3425
sa(dp3426
g3405
S''
sg3406
L0L
sg3407
Nsg3408
S'BTREE'
p3427
sg3410
S'group_group_map_member_id_idx'
p3428
sg3412
S'A'
sg3413
S''
sg3414
L3L
sg3415
S'group_group_map'
p3429
sg3417
L41L
sg3418
Nsg3419
S'grant_type'
p3430
satp3431
st.