(S'3.3.2'
p1
(dp2
S'ts_job'
p3
((lp4
(dp5
S'Extra'
p6
S'auto_increment'
p7
sS'Default'
p8
NsS'Field'
p9
S'jobid'
p10
sS'Key'
p11
S'PRI'
p12
sS'Null'
p13
S'NO'
p14
sS'Type'
p15
S'int(11)'
p16
sa(dp17
g6
S''
sg8
S''
sg9
S'funcid'
p18
sg11
S'MUL'
p19
sg13
S'NO'
p20
sg15
S'int(11)'
p21
sa(dp22
g6
S''
sg8
Nsg9
S'arg'
p23
sg11
S''
sg13
S'YES'
p24
sg15
S'longblob'
p25
sa(dp26
g6
S''
sg8
Nsg9
S'uniqkey'
p27
sg11
S''
sg13
S'YES'
p28
sg15
S'varchar(255)'
p29
sa(dp30
g6
S''
sg8
Nsg9
S'insert_time'
p31
sg11
S''
sg13
S'YES'
p32
sg15
S'int(11)'
p33
sa(dp34
g6
S''
sg8
S''
sg9
S'run_after'
p35
sg11
S'MUL'
p36
sg13
S'NO'
p37
sg15
S'int(11)'
p38
sa(dp39
g6
S''
sg8
S''
sg9
S'grabbed_until'
p40
sg11
S''
sg13
S'NO'
p41
sg15
S'int(11)'
p42
sa(dp43
g6
S''
sg8
Nsg9
S'priority'
p44
sg11
S''
sg13
S'YES'
p45
sg15
S'smallint(6)'
p46
sa(dp47
g6
S''
sg8
Nsg9
S'coalesce'
p48
sg11
S'MUL'
p49
sg13
S'YES'
p50
sg15
S'varchar(255)'
p51
sa(lp52
(dp53
S'Comment'
p54
S''
sS'Non_unique'
p55
L0L
sS'Sub_part'
p56
NsS'Index_type'
p57
S'BTREE'
p58
sS'Key_name'
p59
S'PRIMARY'
p60
sS'Collation'
p61
S'A'
sS'Null'
p62
S''
sS'Seq_in_index'
p63
L1L
sS'Table'
p64
S'ts_job'
p65
sS'Cardinality'
p66
L0L
sS'Packed'
p67
NsS'Column_name'
p68
S'jobid'
p69
sa(dp70
g54
S''
sg55
L0L
sg56
Nsg57
S'BTREE'
p71
sg59
S'ts_job_funcid_idx'
p72
sg61
S'A'
sg62
S''
sg63
L1L
sg64
S'ts_job'
p73
sg66
L0L
sg67
Nsg68
S'funcid'
p74
sa(dp75
g54
S''
sg55
L0L
sg56
Nsg57
S'BTREE'
p76
sg59
S'ts_job_funcid_idx'
p77
sg61
S'A'
sg62
S'YES'
p78
sg63
L2L
sg64
S'ts_job'
p79
sg66
L0L
sg67
Nsg68
S'uniqkey'
p80
sa(dp81
g54
S''
sg55
L1L
sg56
Nsg57
S'BTREE'
p82
sg59
S'ts_job_run_after_idx'
p83
sg61
S'A'
sg62
S''
sg63
L1L
sg64
S'ts_job'
p84
sg66
L0L
sg67
Nsg68
S'run_after'
p85
sa(dp86
g54
S''
sg55
L1L
sg56
Nsg57
S'BTREE'
p87
sg59
S'ts_job_run_after_idx'
p88
sg61
S'A'
sg62
S''
sg63
L2L
sg64
S'ts_job'
p89
sg66
L0L
sg67
Nsg68
S'funcid'
p90
sa(dp91
g54
S''
sg55
L1L
sg56
Nsg57
S'BTREE'
p92
sg59
S'ts_job_coalesce_idx'
p93
sg61
S'A'
sg62
S'YES'
p94
sg63
L1L
sg64
S'ts_job'
p95
sg66
L0L
sg67
Nsg68
S'coalesce'
p96
sa(dp97
g54
S''
sg55
L1L
sg56
Nsg57
S'BTREE'
p98
sg59
S'ts_job_coalesce_idx'
p99
sg61
S'A'
sg62
S''
sg63
L2L
sg64
S'ts_job'
p100
sg66
L0L
sg67
Nsg68
S'funcid'
p101
satp102
sS'bug_group_map'
p103
((lp104
(dp105
S'Extra'
p106
S''
sS'Default'
p107
S''
sS'Field'
p108
S'bug_id'
p109
sS'Key'
p110
S'PRI'
p111
sS'Null'
p112
S'NO'
p113
sS'Type'
p114
S'mediumint(9)'
p115
sa(dp116
g106
S''
sg107
S''
sg108
S'group_id'
p117
sg110
S'PRI'
p118
sg112
S'NO'
p119
sg114
S'mediumint(9)'
p120
sa(lp121
(dp122
S'Comment'
p123
S''
sS'Non_unique'
p124
L0L
sS'Sub_part'
p125
NsS'Index_type'
p126
S'BTREE'
p127
sS'Key_name'
p128
S'bug_group_map_bug_id_idx'
p129
sS'Collation'
p130
S'A'
sS'Null'
p131
S''
sS'Seq_in_index'
p132
L1L
sS'Table'
p133
S'bug_group_map'
p134
sS'Cardinality'
p135
L0L
sS'Packed'
p136
NsS'Column_name'
p137
S'bug_id'
p138
sa(dp139
g123
S''
sg124
L0L
sg125
Nsg126
S'BTREE'
p140
sg128
S'bug_group_map_bug_id_idx'
p141
sg130
S'A'
sg131
S''
sg132
L2L
sg133
S'bug_group_map'
p142
sg135
L0L
sg136
Nsg137
S'group_id'
p143
sa(dp144
g123
S''
sg124
L1L
sg125
Nsg126
S'BTREE'
p145
sg128
S'bug_group_map_group_id_idx'
p146
sg130
S'A'
sg131
S''
sg132
L1L
sg133
S'bug_group_map'
p147
sg135
L0L
sg136
Nsg137
S'group_id'
p148
satp149
sS'attachments'
p150
((lp151
(dp152
S'Extra'
p153
S'auto_increment'
p154
sS'Default'
p155
NsS'Field'
p156
S'attach_id'
p157
sS'Key'
p158
S'PRI'
p159
sS'Null'
p160
S'NO'
p161
sS'Type'
p162
S'mediumint(9)'
p163
sa(dp164
g153
S''
sg155
S''
sg156
S'bug_id'
p165
sg158
S'MUL'
p166
sg160
S'NO'
p167
sg162
S'mediumint(9)'
p168
sa(dp169
g153
S''
sg155
S''
sg156
S'creation_ts'
p170
sg158
S'MUL'
p171
sg160
S'NO'
p172
sg162
S'datetime'
p173
sa(dp174
g153
S''
sg155
S''
sg156
S'modification_time'
p175
sg158
S'MUL'
p176
sg160
S'NO'
p177
sg162
S'datetime'
p178
sa(dp179
g153
S''
sg155
S''
sg156
S'description'
p180
sg158
S''
sg160
S'NO'
p181
sg162
S'tinytext'
p182
sa(dp183
g153
S''
sg155
S''
sg156
S'mimetype'
p184
sg158
S''
sg160
S'NO'
p185
sg162
S'tinytext'
p186
sa(dp187
g153
S''
sg155
Nsg156
S'ispatch'
p188
sg158
S''
sg160
S'YES'
p189
sg162
S'tinyint(4)'
p190
sa(dp191
g153
S''
sg155
S''
sg156
S'filename'
p192
sg158
S''
sg160
S'NO'
p193
sg162
S'varchar(100)'
p194
sa(dp195
g153
S''
sg155
S''
sg156
S'submitter_id'
p196
sg158
S'MUL'
p197
sg160
S'NO'
p198
sg162
S'mediumint(9)'
p199
sa(dp200
g153
S''
sg155
S'0'
sg156
S'isobsolete'
p201
sg158
S''
sg160
S'NO'
p202
sg162
S'tinyint(4)'
p203
sa(dp204
g153
S''
sg155
S'0'
sg156
S'isprivate'
p205
sg158
S''
sg160
S'NO'
p206
sg162
S'tinyint(4)'
p207
sa(dp208
g153
S''
sg155
S'0'
sg156
S'isurl'
p209
sg158
S''
sg160
S'NO'
p210
sg162
S'tinyint(4)'
p211
sa(lp212
(dp213
S'Comment'
p214
S''
sS'Non_unique'
p215
L0L
sS'Sub_part'
p216
NsS'Index_type'
p217
S'BTREE'
p218
sS'Key_name'
p219
S'PRIMARY'
p220
sS'Collation'
p221
S'A'
sS'Null'
p222
S''
sS'Seq_in_index'
p223
L1L
sS'Table'
p224
S'attachments'
p225
sS'Cardinality'
p226
L0L
sS'Packed'
p227
NsS'Column_name'
p228
S'attach_id'
p229
sa(dp230
g214
S''
sg215
L1L
sg216
Nsg217
S'BTREE'
p231
sg219
S'attachments_bug_id_idx'
p232
sg221
S'A'
sg222
S''
sg223
L1L
sg224
S'attachments'
p233
sg226
L0L
sg227
Nsg228
S'bug_id'
p234
sa(dp235
g214
S''
sg215
L1L
sg216
Nsg217
S'BTREE'
p236
sg219
S'attachments_creation_ts_idx'
p237
sg221
S'A'
sg222
S''
sg223
L1L
sg224
S'attachments'
p238
sg226
L0L
sg227
Nsg228
S'creation_ts'
p239
sa(dp240
g214
S''
sg215
L1L
sg216
Nsg217
S'BTREE'
p241
sg219
S'attachments_modification_time_idx'
p242
sg221
S'A'
sg222
S''
sg223
L1L
sg224
S'attachments'
p243
sg226
L0L
sg227
Nsg228
S'modification_time'
p244
sa(dp245
g214
S''
sg215
L1L
sg216
Nsg217
S'BTREE'
p246
sg219
S'attachments_submitter_id_idx'
p247
sg221
S'A'
sg222
S''
sg223
L1L
sg224
S'attachments'
p248
sg226
L0L
sg227
Nsg228
S'submitter_id'
p249
sa(dp250
g214
S''
sg215
L1L
sg216
Nsg217
S'BTREE'
p251
sg219
S'attachments_submitter_id_idx'
p252
sg221
S'A'
sg222
S''
sg223
L2L
sg224
S'attachments'
p253
sg226
L0L
sg227
Nsg228
S'bug_id'
p254
satp255
sS'namedqueries_link_in_footer'
p256
((lp257
(dp258
S'Extra'
p259
S''
sS'Default'
p260
S''
sS'Field'
p261
S'namedquery_id'
p262
sS'Key'
p263
S'PRI'
p264
sS'Null'
p265
S'NO'
p266
sS'Type'
p267
S'mediumint(9)'
p268
sa(dp269
g259
S''
sg260
S''
sg261
S'user_id'
p270
sg263
S'PRI'
p271
sg265
S'NO'
p272
sg267
S'mediumint(9)'
p273
sa(lp274
(dp275
S'Comment'
p276
S''
sS'Non_unique'
p277
L0L
sS'Sub_part'
p278
NsS'Index_type'
p279
S'BTREE'
p280
sS'Key_name'
p281
S'namedqueries_link_in_footer_id_idx'
p282
sS'Collation'
p283
S'A'
sS'Null'
p284
S''
sS'Seq_in_index'
p285
L1L
sS'Table'
p286
S'namedqueries_link_in_footer'
p287
sS'Cardinality'
p288
L0L
sS'Packed'
p289
NsS'Column_name'
p290
S'namedquery_id'
p291
sa(dp292
g276
S''
sg277
L0L
sg278
Nsg279
S'BTREE'
p293
sg281
S'namedqueries_link_in_footer_id_idx'
p294
sg283
S'A'
sg284
S''
sg285
L2L
sg286
S'namedqueries_link_in_footer'
p295
sg288
L0L
sg289
Nsg290
S'user_id'
p296
sa(dp297
g276
S''
sg277
L1L
sg278
Nsg279
S'BTREE'
p298
sg281
S'namedqueries_link_in_footer_userid_idx'
p299
sg283
S'A'
sg284
S''
sg285
L1L
sg286
S'namedqueries_link_in_footer'
p300
sg288
L0L
sg289
Nsg290
S'user_id'
p301
satp302
sS'duplicates'
p303
((lp304
(dp305
S'Extra'
p306
S''
sS'Default'
p307
S''
sS'Field'
p308
S'dupe_of'
p309
sS'Key'
p310
S'MUL'
p311
sS'Null'
p312
S'NO'
p313
sS'Type'
p314
S'mediumint(9)'
p315
sa(dp316
g306
S''
sg307
S''
sg308
S'dupe'
p317
sg310
S'PRI'
p318
sg312
S'NO'
p319
sg314
S'mediumint(9)'
p320
sa(lp321
(dp322
S'Comment'
p323
S''
sS'Non_unique'
p324
L0L
sS'Sub_part'
p325
NsS'Index_type'
p326
S'BTREE'
p327
sS'Key_name'
p328
S'PRIMARY'
p329
sS'Collation'
p330
S'A'
sS'Null'
p331
S''
sS'Seq_in_index'
p332
L1L
sS'Table'
p333
S'duplicates'
p334
sS'Cardinality'
p335
L0L
sS'Packed'
p336
NsS'Column_name'
p337
S'dupe'
p338
sa(dp339
g323
S''
sg324
L1L
sg325
Nsg326
S'BTREE'
p340
sg328
S'fk_duplicates_dupe_of_bugs_bug_id'
p341
sg330
S'A'
sg331
S''
sg332
L1L
sg333
S'duplicates'
p342
sg335
L0L
sg336
Nsg337
S'dupe_of'
p343
satp344
sS'rep_platform'
p345
((lp346
(dp347
S'Extra'
p348
S'auto_increment'
p349
sS'Default'
p350
NsS'Field'
p351
S'id'
p352
sS'Key'
p353
S'PRI'
p354
sS'Null'
p355
S'NO'
p356
sS'Type'
p357
S'smallint(6)'
p358
sa(dp359
g348
S''
sg350
S''
sg351
S'value'
p360
sg353
S'UNI'
p361
sg355
S'NO'
p362
sg357
S'varchar(64)'
p363
sa(dp364
g348
S''
sg350
S'0'
sg351
S'sortkey'
p365
sg353
S'MUL'
p366
sg355
S'NO'
p367
sg357
S'smallint(6)'
p368
sa(dp369
g348
S''
sg350
S'1'
sg351
S'isactive'
p370
sg353
S''
sg355
S'NO'
p371
sg357
S'tinyint(4)'
p372
sa(dp373
g348
S''
sg350
Nsg351
S'visibility_value_id'
p374
sg353
S'MUL'
p375
sg355
S'YES'
p376
sg357
S'smallint(6)'
p377
sa(lp378
(dp379
S'Comment'
p380
S''
sS'Non_unique'
p381
L0L
sS'Sub_part'
p382
NsS'Index_type'
p383
S'BTREE'
p384
sS'Key_name'
p385
S'PRIMARY'
p386
sS'Collation'
p387
S'A'
sS'Null'
p388
S''
sS'Seq_in_index'
p389
L1L
sS'Table'
p390
S'rep_platform'
p391
sS'Cardinality'
p392
L4L
sS'Packed'
p393
NsS'Column_name'
p394
S'id'
p395
sa(dp396
g380
S''
sg381
L0L
sg382
Nsg383
S'BTREE'
p397
sg385
S'rep_platform_value_idx'
p398
sg387
S'A'
sg388
S''
sg389
L1L
sg390
S'rep_platform'
p399
sg392
L4L
sg393
Nsg394
S'value'
p400
sa(dp401
g380
S''
sg381
L1L
sg382
Nsg383
S'BTREE'
p402
sg385
S'rep_platform_sortkey_idx'
p403
sg387
S'A'
sg388
S''
sg389
L1L
sg390
S'rep_platform'
p404
sg392
L4L
sg393
Nsg394
S'sortkey'
p405
sa(dp406
g380
S''
sg381
L1L
sg382
Nsg383
S'BTREE'
p407
sg385
S'rep_platform_sortkey_idx'
p408
sg387
S'A'
sg388
S''
sg389
L2L
sg390
S'rep_platform'
p409
sg392
L4L
sg393
Nsg394
S'value'
p410
sa(dp411
g380
S''
sg381
L1L
sg382
Nsg383
S'BTREE'
p412
sg385
S'rep_platform_visibility_value_id_idx'
p413
sg387
S'A'
sg388
S'YES'
p414
sg389
L1L
sg390
S'rep_platform'
p415
sg392
L4L
sg393
Nsg394
S'visibility_value_id'
p416
satp417
sS'quips'
p418
((lp419
(dp420
S'Extra'
p421
S'auto_increment'
p422
sS'Default'
p423
NsS'Field'
p424
S'quipid'
p425
sS'Key'
p426
S'PRI'
p427
sS'Null'
p428
S'NO'
p429
sS'Type'
p430
S'mediumint(9)'
p431
sa(dp432
g421
S''
sg423
Nsg424
S'userid'
p433
sg426
S'MUL'
p434
sg428
S'YES'
p435
sg430
S'mediumint(9)'
p436
sa(dp437
g421
S''
sg423
S''
sg424
S'quip'
p438
sg426
S''
sg428
S'NO'
p439
sg430
S'mediumtext'
p440
sa(dp441
g421
S''
sg423
S'1'
sg424
S'approved'
p442
sg426
S''
sg428
S'NO'
p443
sg430
S'tinyint(4)'
p444
sa(lp445
(dp446
S'Comment'
p447
S''
sS'Non_unique'
p448
L0L
sS'Sub_part'
p449
NsS'Index_type'
p450
S'BTREE'
p451
sS'Key_name'
p452
S'PRIMARY'
p453
sS'Collation'
p454
S'A'
sS'Null'
p455
S''
sS'Seq_in_index'
p456
L1L
sS'Table'
p457
S'quips'
p458
sS'Cardinality'
p459
L0L
sS'Packed'
p460
NsS'Column_name'
p461
S'quipid'
p462
sa(dp463
g447
S''
sg448
L1L
sg449
Nsg450
S'BTREE'
p464
sg452
S'fk_quips_userid_profiles_userid'
p465
sg454
S'A'
sg455
S'YES'
p466
sg456
L1L
sg457
S'quips'
p467
sg459
L0L
sg460
Nsg461
S'userid'
p468
satp469
sS'series_categories'
p470
((lp471
(dp472
S'Extra'
p473
S'auto_increment'
p474
sS'Default'
p475
NsS'Field'
p476
S'id'
p477
sS'Key'
p478
S'PRI'
p479
sS'Null'
p480
S'NO'
p481
sS'Type'
p482
S'smallint(6)'
p483
sa(dp484
g473
S''
sg475
S''
sg476
S'name'
p485
sg478
S'UNI'
p486
sg480
S'NO'
p487
sg482
S'varchar(64)'
p488
sa(lp489
(dp490
S'Comment'
p491
S''
sS'Non_unique'
p492
L0L
sS'Sub_part'
p493
NsS'Index_type'
p494
S'BTREE'
p495
sS'Key_name'
p496
S'PRIMARY'
p497
sS'Collation'
p498
S'A'
sS'Null'
p499
S''
sS'Seq_in_index'
p500
L1L
sS'Table'
p501
S'series_categories'
p502
sS'Cardinality'
p503
L0L
sS'Packed'
p504
NsS'Column_name'
p505
S'id'
p506
sa(dp507
g491
S''
sg492
L0L
sg493
Nsg494
S'BTREE'
p508
sg496
S'series_categories_name_idx'
p509
sg498
S'A'
sg499
S''
sg500
L1L
sg501
S'series_categories'
p510
sg503
L0L
sg504
Nsg505
S'name'
p511
satp512
sS'group_control_map'
p513
((lp514
(dp515
S'Extra'
p516
S''
sS'Default'
p517
S''
sS'Field'
p518
S'group_id'
p519
sS'Key'
p520
S'PRI'
p521
sS'Null'
p522
S'NO'
p523
sS'Type'
p524
S'mediumint(9)'
p525
sa(dp526
g516
S''
sg517
S''
sg518
S'product_id'
p527
sg520
S'PRI'
p528
sg522
S'NO'
p529
sg524
S'smallint(6)'
p530
sa(dp531
g516
S''
sg517
S''
sg518
S'entry'
p532
sg520
S''
sg522
S'NO'
p533
sg524
S'tinyint(4)'
p534
sa(dp535
g516
S''
sg517
S''
sg518
S'membercontrol'
p536
sg520
S''
sg522
S'NO'
p537
sg524
S'tinyint(4)'
p538
sa(dp539
g516
S''
sg517
S''
sg518
S'othercontrol'
p540
sg520
S''
sg522
S'NO'
p541
sg524
S'tinyint(4)'
p542
sa(dp543
g516
S''
sg517
S''
sg518
S'canedit'
p544
sg520
S''
sg522
S'NO'
p545
sg524
S'tinyint(4)'
p546
sa(dp547
g516
S''
sg517
S'0'
sg518
S'editcomponents'
p548
sg520
S''
sg522
S'NO'
p549
sg524
S'tinyint(4)'
p550
sa(dp551
g516
S''
sg517
S'0'
sg518
S'editbugs'
p552
sg520
S''
sg522
S'NO'
p553
sg524
S'tinyint(4)'
p554
sa(dp555
g516
S''
sg517
S'0'
sg518
S'canconfirm'
p556
sg520
S''
sg522
S'NO'
p557
sg524
S'tinyint(4)'
p558
sa(lp559
(dp560
S'Comment'
p561
S''
sS'Non_unique'
p562
L0L
sS'Sub_part'
p563
NsS'Index_type'
p564
S'BTREE'
p565
sS'Key_name'
p566
S'group_control_map_product_id_idx'
p567
sS'Collation'
p568
S'A'
sS'Null'
p569
S''
sS'Seq_in_index'
p570
L1L
sS'Table'
p571
S'group_control_map'
p572
sS'Cardinality'
p573
L0L
sS'Packed'
p574
NsS'Column_name'
p575
S'product_id'
p576
sa(dp577
g561
S''
sg562
L0L
sg563
Nsg564
S'BTREE'
p578
sg566
S'group_control_map_product_id_idx'
p579
sg568
S'A'
sg569
S''
sg570
L2L
sg571
S'group_control_map'
p580
sg573
L0L
sg574
Nsg575
S'group_id'
p581
sa(dp582
g561
S''
sg562
L1L
sg563
Nsg564
S'BTREE'
p583
sg566
S'group_control_map_group_id_idx'
p584
sg568
S'A'
sg569
S''
sg570
L1L
sg571
S'group_control_map'
p585
sg573
L0L
sg574
Nsg575
S'group_id'
p586
satp587
sS'component_cc'
p588
((lp589
(dp590
S'Extra'
p591
S''
sS'Default'
p592
S''
sS'Field'
p593
S'user_id'
p594
sS'Key'
p595
S'PRI'
p596
sS'Null'
p597
S'NO'
p598
sS'Type'
p599
S'mediumint(9)'
p600
sa(dp601
g591
S''
sg592
S''
sg593
S'component_id'
p602
sg595
S'PRI'
p603
sg597
S'NO'
p604
sg599
S'smallint(6)'
p605
sa(lp606
(dp607
S'Comment'
p608
S''
sS'Non_unique'
p609
L0L
sS'Sub_part'
p610
NsS'Index_type'
p611
S'BTREE'
p612
sS'Key_name'
p613
S'component_cc_user_id_idx'
p614
sS'Collation'
p615
S'A'
sS'Null'
p616
S''
sS'Seq_in_index'
p617
L1L
sS'Table'
p618
S'component_cc'
p619
sS'Cardinality'
p620
L0L
sS'Packed'
p621
NsS'Column_name'
p622
S'component_id'
p623
sa(dp624
g608
S''
sg609
L0L
sg610
Nsg611
S'BTREE'
p625
sg613
S'component_cc_user_id_idx'
p626
sg615
S'A'
sg616
S''
sg617
L2L
sg618
S'component_cc'
p627
sg620
L0L
sg621
Nsg622
S'user_id'
p628
sa(dp629
g608
S''
sg609
L1L
sg610
Nsg611
S'BTREE'
p630
sg613
S'fk_component_cc_user_id_profiles_userid'
p631
sg615
S'A'
sg616
S''
sg617
L1L
sg618
S'component_cc'
p632
sg620
L0L
sg621
Nsg622
S'user_id'
p633
satp634
sS'keywords'
p635
((lp636
(dp637
S'Extra'
p638
S''
sS'Default'
p639
S''
sS'Field'
p640
S'bug_id'
p641
sS'Key'
p642
S'PRI'
p643
sS'Null'
p644
S'NO'
p645
sS'Type'
p646
S'mediumint(9)'
p647
sa(dp648
g638
S''
sg639
S''
sg640
S'keywordid'
p649
sg642
S'PRI'
p650
sg644
S'NO'
p651
sg646
S'smallint(6)'
p652
sa(lp653
(dp654
S'Comment'
p655
S''
sS'Non_unique'
p656
L0L
sS'Sub_part'
p657
NsS'Index_type'
p658
S'BTREE'
p659
sS'Key_name'
p660
S'keywords_bug_id_idx'
p661
sS'Collation'
p662
S'A'
sS'Null'
p663
S''
sS'Seq_in_index'
p664
L1L
sS'Table'
p665
S'keywords'
p666
sS'Cardinality'
p667
L0L
sS'Packed'
p668
NsS'Column_name'
p669
S'bug_id'
p670
sa(dp671
g655
S''
sg656
L0L
sg657
Nsg658
S'BTREE'
p672
sg660
S'keywords_bug_id_idx'
p673
sg662
S'A'
sg663
S''
sg664
L2L
sg665
S'keywords'
p674
sg667
L0L
sg668
Nsg669
S'keywordid'
p675
sa(dp676
g655
S''
sg656
L1L
sg657
Nsg658
S'BTREE'
p677
sg660
S'keywords_keywordid_idx'
p678
sg662
S'A'
sg663
S''
sg664
L1L
sg665
S'keywords'
p679
sg667
L0L
sg668
Nsg669
S'keywordid'
p680
satp681
sS'series_data'
p682
((lp683
(dp684
S'Extra'
p685
S''
sS'Default'
p686
S''
sS'Field'
p687
S'series_id'
p688
sS'Key'
p689
S'PRI'
p690
sS'Null'
p691
S'NO'
p692
sS'Type'
p693
S'mediumint(9)'
p694
sa(dp695
g685
S''
sg686
S''
sg687
S'series_date'
p696
sg689
S'PRI'
p697
sg691
S'NO'
p698
sg693
S'datetime'
p699
sa(dp700
g685
S''
sg686
S''
sg687
S'series_value'
p701
sg689
S''
sg691
S'NO'
p702
sg693
S'mediumint(9)'
p703
sa(lp704
(dp705
S'Comment'
p706
S''
sS'Non_unique'
p707
L0L
sS'Sub_part'
p708
NsS'Index_type'
p709
S'BTREE'
p710
sS'Key_name'
p711
S'series_data_series_id_idx'
p712
sS'Collation'
p713
S'A'
sS'Null'
p714
S''
sS'Seq_in_index'
p715
L1L
sS'Table'
p716
S'series_data'
p717
sS'Cardinality'
p718
L0L
sS'Packed'
p719
NsS'Column_name'
p720
S'series_id'
p721
sa(dp722
g706
S''
sg707
L0L
sg708
Nsg709
S'BTREE'
p723
sg711
S'series_data_series_id_idx'
p724
sg713
S'A'
sg714
S''
sg715
L2L
sg716
S'series_data'
p725
sg718
L0L
sg719
Nsg720
S'series_date'
p726
satp727
sS'keyworddefs'
p728
((lp729
(dp730
S'Extra'
p731
S'auto_increment'
p732
sS'Default'
p733
NsS'Field'
p734
S'id'
p735
sS'Key'
p736
S'PRI'
p737
sS'Null'
p738
S'NO'
p739
sS'Type'
p740
S'smallint(6)'
p741
sa(dp742
g731
S''
sg733
S''
sg734
S'name'
p743
sg736
S'UNI'
p744
sg738
S'NO'
p745
sg740
S'varchar(64)'
p746
sa(dp747
g731
S''
sg733
Nsg734
S'description'
p748
sg736
S''
sg738
S'YES'
p749
sg740
S'mediumtext'
p750
sa(lp751
(dp752
S'Comment'
p753
S''
sS'Non_unique'
p754
L0L
sS'Sub_part'
p755
NsS'Index_type'
p756
S'BTREE'
p757
sS'Key_name'
p758
S'PRIMARY'
p759
sS'Collation'
p760
S'A'
sS'Null'
p761
S''
sS'Seq_in_index'
p762
L1L
sS'Table'
p763
S'keyworddefs'
p764
sS'Cardinality'
p765
L0L
sS'Packed'
p766
NsS'Column_name'
p767
S'id'
p768
sa(dp769
g753
S''
sg754
L0L
sg755
Nsg756
S'BTREE'
p770
sg758
S'keyworddefs_name_idx'
p771
sg760
S'A'
sg761
S''
sg762
L1L
sg763
S'keyworddefs'
p772
sg765
L0L
sg766
Nsg767
S'name'
p773
satp774
sS'ts_exitstatus'
p775
((lp776
(dp777
S'Extra'
p778
S'auto_increment'
p779
sS'Default'
p780
NsS'Field'
p781
S'jobid'
p782
sS'Key'
p783
S'PRI'
p784
sS'Null'
p785
S'NO'
p786
sS'Type'
p787
S'int(11)'
p788
sa(dp789
g778
S''
sg780
S'0'
sg781
S'funcid'
p790
sg783
S'MUL'
p791
sg785
S'NO'
p792
sg787
S'int(11)'
p793
sa(dp794
g778
S''
sg780
Nsg781
S'status'
p795
sg783
S''
sg785
S'YES'
p796
sg787
S'smallint(6)'
p797
sa(dp798
g778
S''
sg780
Nsg781
S'completion_time'
p799
sg783
S''
sg785
S'YES'
p800
sg787
S'int(11)'
p801
sa(dp802
g778
S''
sg780
Nsg781
S'delete_after'
p803
sg783
S'MUL'
p804
sg785
S'YES'
p805
sg787
S'int(11)'
p806
sa(lp807
(dp808
S'Comment'
p809
S''
sS'Non_unique'
p810
L0L
sS'Sub_part'
p811
NsS'Index_type'
p812
S'BTREE'
p813
sS'Key_name'
p814
S'PRIMARY'
p815
sS'Collation'
p816
S'A'
sS'Null'
p817
S''
sS'Seq_in_index'
p818
L1L
sS'Table'
p819
S'ts_exitstatus'
p820
sS'Cardinality'
p821
L0L
sS'Packed'
p822
NsS'Column_name'
p823
S'jobid'
p824
sa(dp825
g809
S''
sg810
L1L
sg811
Nsg812
S'BTREE'
p826
sg814
S'ts_exitstatus_funcid_idx'
p827
sg816
S'A'
sg817
S''
sg818
L1L
sg819
S'ts_exitstatus'
p828
sg821
L0L
sg822
Nsg823
S'funcid'
p829
sa(dp830
g809
S''
sg810
L1L
sg811
Nsg812
S'BTREE'
p831
sg814
S'ts_exitstatus_delete_after_idx'
p832
sg816
S'A'
sg817
S'YES'
p833
sg818
L1L
sg819
S'ts_exitstatus'
p834
sg821
L0L
sg822
Nsg823
S'delete_after'
p835
satp836
sS'namedquery_group_map'
p837
((lp838
(dp839
S'Extra'
p840
S''
sS'Default'
p841
S''
sS'Field'
p842
S'namedquery_id'
p843
sS'Key'
p844
S'PRI'
p845
sS'Null'
p846
S'NO'
p847
sS'Type'
p848
S'mediumint(9)'
p849
sa(dp850
g840
S''
sg841
S''
sg842
S'group_id'
p851
sg844
S'MUL'
p852
sg846
S'NO'
p853
sg848
S'mediumint(9)'
p854
sa(lp855
(dp856
S'Comment'
p857
S''
sS'Non_unique'
p858
L0L
sS'Sub_part'
p859
NsS'Index_type'
p860
S'BTREE'
p861
sS'Key_name'
p862
S'namedquery_group_map_namedquery_id_idx'
p863
sS'Collation'
p864
S'A'
sS'Null'
p865
S''
sS'Seq_in_index'
p866
L1L
sS'Table'
p867
S'namedquery_group_map'
p868
sS'Cardinality'
p869
L0L
sS'Packed'
p870
NsS'Column_name'
p871
S'namedquery_id'
p872
sa(dp873
g857
S''
sg858
L1L
sg859
Nsg860
S'BTREE'
p874
sg862
S'namedquery_group_map_group_id_idx'
p875
sg864
S'A'
sg865
S''
sg866
L1L
sg867
S'namedquery_group_map'
p876
sg869
L0L
sg870
Nsg871
S'group_id'
p877
satp878
sS'flagexclusions'
p879
((lp880
(dp881
S'Extra'
p882
S''
sS'Default'
p883
S''
sS'Field'
p884
S'type_id'
p885
sS'Key'
p886
S'MUL'
p887
sS'Null'
p888
S'NO'
p889
sS'Type'
p890
S'smallint(6)'
p891
sa(dp892
g882
S''
sg883
Nsg884
S'product_id'
p893
sg886
S'MUL'
p894
sg888
S'YES'
p895
sg890
S'smallint(6)'
p896
sa(dp897
g882
S''
sg883
Nsg884
S'component_id'
p898
sg886
S'MUL'
p899
sg888
S'YES'
p900
sg890
S'smallint(6)'
p901
sa(lp902
(dp903
S'Comment'
p904
S''
sS'Non_unique'
p905
L1L
sS'Sub_part'
p906
NsS'Index_type'
p907
S'BTREE'
p908
sS'Key_name'
p909
S'flagexclusions_type_id_idx'
p910
sS'Collation'
p911
S'A'
sS'Null'
p912
S''
sS'Seq_in_index'
p913
L1L
sS'Table'
p914
S'flagexclusions'
p915
sS'Cardinality'
p916
L0L
sS'Packed'
p917
NsS'Column_name'
p918
S'type_id'
p919
sa(dp920
g904
S''
sg905
L1L
sg906
Nsg907
S'BTREE'
p921
sg909
S'flagexclusions_type_id_idx'
p922
sg911
S'A'
sg912
S'YES'
p923
sg913
L2L
sg914
S'flagexclusions'
p924
sg916
L0L
sg917
Nsg918
S'product_id'
p925
sa(dp926
g904
S''
sg905
L1L
sg906
Nsg907
S'BTREE'
p927
sg909
S'flagexclusions_type_id_idx'
p928
sg911
S'A'
sg912
S'YES'
p929
sg913
L3L
sg914
S'flagexclusions'
p930
sg916
L0L
sg917
Nsg918
S'component_id'
p931
sa(dp932
g904
S''
sg905
L1L
sg906
Nsg907
S'BTREE'
p933
sg909
S'fk_flagexclusions_product_id_products_id'
p934
sg911
S'A'
sg912
S'YES'
p935
sg913
L1L
sg914
S'flagexclusions'
p936
sg916
L0L
sg917
Nsg918
S'product_id'
p937
sa(dp938
g904
S''
sg905
L1L
sg906
Nsg907
S'BTREE'
p939
sg909
S'fk_flagexclusions_component_id_components_id'
p940
sg911
S'A'
sg912
S'YES'
p941
sg913
L1L
sg914
S'flagexclusions'
p942
sg916
L0L
sg917
Nsg918
S'component_id'
p943
satp944
sS'ts_note'
p945
((lp946
(dp947
S'Extra'
p948
S''
sS'Default'
p949
S''
sS'Field'
p950
S'jobid'
p951
sS'Key'
p952
S'MUL'
p953
sS'Null'
p954
S'NO'
p955
sS'Type'
p956
S'int(11)'
p957
sa(dp958
g948
S''
sg949
Nsg950
S'notekey'
p959
sg952
S''
sg954
S'YES'
p960
sg956
S'varchar(255)'
p961
sa(dp962
g948
S''
sg949
Nsg950
S'value'
p963
sg952
S''
sg954
S'YES'
p964
sg956
S'longblob'
p965
sa(lp966
(dp967
S'Comment'
p968
S''
sS'Non_unique'
p969
L0L
sS'Sub_part'
p970
NsS'Index_type'
p971
S'BTREE'
p972
sS'Key_name'
p973
S'ts_note_jobid_idx'
p974
sS'Collation'
p975
S'A'
sS'Null'
p976
S''
sS'Seq_in_index'
p977
L1L
sS'Table'
p978
S'ts_note'
p979
sS'Cardinality'
p980
L0L
sS'Packed'
p981
NsS'Column_name'
p982
S'jobid'
p983
sa(dp984
g968
S''
sg969
L0L
sg970
Nsg971
S'BTREE'
p985
sg973
S'ts_note_jobid_idx'
p986
sg975
S'A'
sg976
S'YES'
p987
sg977
L2L
sg978
S'ts_note'
p988
sg980
L0L
sg981
Nsg982
S'notekey'
p989
satp990
sS'votes'
p991
((lp992
(dp993
S'Extra'
p994
S''
sS'Default'
p995
S''
sS'Field'
p996
S'who'
p997
sS'Key'
p998
S'MUL'
p999
sS'Null'
p1000
S'NO'
p1001
sS'Type'
p1002
S'mediumint(9)'
p1003
sa(dp1004
g994
S''
sg995
S''
sg996
S'bug_id'
p1005
sg998
S'MUL'
p1006
sg1000
S'NO'
p1007
sg1002
S'mediumint(9)'
p1008
sa(dp1009
g994
S''
sg995
S''
sg996
S'vote_count'
p1010
sg998
S''
sg1000
S'NO'
p1011
sg1002
S'smallint(6)'
p1012
sa(lp1013
(dp1014
S'Comment'
p1015
S''
sS'Non_unique'
p1016
L1L
sS'Sub_part'
p1017
NsS'Index_type'
p1018
S'BTREE'
p1019
sS'Key_name'
p1020
S'votes_who_idx'
p1021
sS'Collation'
p1022
S'A'
sS'Null'
p1023
S''
sS'Seq_in_index'
p1024
L1L
sS'Table'
p1025
S'votes'
p1026
sS'Cardinality'
p1027
L0L
sS'Packed'
p1028
NsS'Column_name'
p1029
S'who'
p1030
sa(dp1031
g1015
S''
sg1016
L1L
sg1017
Nsg1018
S'BTREE'
p1032
sg1020
S'votes_bug_id_idx'
p1033
sg1022
S'A'
sg1023
S''
sg1024
L1L
sg1025
S'votes'
p1034
sg1027
L0L
sg1028
Nsg1029
S'bug_id'
p1035
satp1036
sS'bug_see_also'
p1037
((lp1038
(dp1039
S'Extra'
p1040
S''
sS'Default'
p1041
S''
sS'Field'
p1042
S'bug_id'
p1043
sS'Key'
p1044
S'PRI'
p1045
sS'Null'
p1046
S'NO'
p1047
sS'Type'
p1048
S'mediumint(9)'
p1049
sa(dp1050
g1040
S''
sg1041
S''
sg1042
S'value'
p1051
sg1044
S'PRI'
p1052
sg1046
S'NO'
p1053
sg1048
S'varchar(255)'
p1054
sa(lp1055
(dp1056
S'Comment'
p1057
S''
sS'Non_unique'
p1058
L0L
sS'Sub_part'
p1059
NsS'Index_type'
p1060
S'BTREE'
p1061
sS'Key_name'
p1062
S'bug_see_also_bug_id_idx'
p1063
sS'Collation'
p1064
S'A'
sS'Null'
p1065
S''
sS'Seq_in_index'
p1066
L1L
sS'Table'
p1067
S'bug_see_also'
p1068
sS'Cardinality'
p1069
L0L
sS'Packed'
p1070
NsS'Column_name'
p1071
S'bug_id'
p1072
sa(dp1073
g1057
S''
sg1058
L0L
sg1059
Nsg1060
S'BTREE'
p1074
sg1062
S'bug_see_also_bug_id_idx'
p1075
sg1064
S'A'
sg1065
S''
sg1066
L2L
sg1067
S'bug_see_also'
p1076
sg1069
L0L
sg1070
Nsg1071
S'value'
p1077
satp1078
sS'bug_status'
p1079
((lp1080
(dp1081
S'Extra'
p1082
S'auto_increment'
p1083
sS'Default'
p1084
NsS'Field'
p1085
S'id'
p1086
sS'Key'
p1087
S'PRI'
p1088
sS'Null'
p1089
S'NO'
p1090
sS'Type'
p1091
S'smallint(6)'
p1092
sa(dp1093
g1082
S''
sg1084
S''
sg1085
S'value'
p1094
sg1087
S'UNI'
p1095
sg1089
S'NO'
p1096
sg1091
S'varchar(64)'
p1097
sa(dp1098
g1082
S''
sg1084
S'0'
sg1085
S'sortkey'
p1099
sg1087
S'MUL'
p1100
sg1089
S'NO'
p1101
sg1091
S'smallint(6)'
p1102
sa(dp1103
g1082
S''
sg1084
S'1'
sg1085
S'isactive'
p1104
sg1087
S''
sg1089
S'NO'
p1105
sg1091
S'tinyint(4)'
p1106
sa(dp1107
g1082
S''
sg1084
Nsg1085
S'visibility_value_id'
p1108
sg1087
S'MUL'
p1109
sg1089
S'YES'
p1110
sg1091
S'smallint(6)'
p1111
sa(dp1112
g1082
S''
sg1084
S'1'
sg1085
S'is_open'
p1113
sg1087
S''
sg1089
S'NO'
p1114
sg1091
S'tinyint(4)'
p1115
sa(lp1116
(dp1117
S'Comment'
p1118
S''
sS'Non_unique'
p1119
L0L
sS'Sub_part'
p1120
NsS'Index_type'
p1121
S'BTREE'
p1122
sS'Key_name'
p1123
S'PRIMARY'
p1124
sS'Collation'
p1125
S'A'
sS'Null'
p1126
S''
sS'Seq_in_index'
p1127
L1L
sS'Table'
p1128
S'bug_status'
p1129
sS'Cardinality'
p1130
L7L
sS'Packed'
p1131
NsS'Column_name'
p1132
S'id'
p1133
sa(dp1134
g1118
S''
sg1119
L0L
sg1120
Nsg1121
S'BTREE'
p1135
sg1123
S'bug_status_value_idx'
p1136
sg1125
S'A'
sg1126
S''
sg1127
L1L
sg1128
S'bug_status'
p1137
sg1130
L7L
sg1131
Nsg1132
S'value'
p1138
sa(dp1139
g1118
S''
sg1119
L1L
sg1120
Nsg1121
S'BTREE'
p1140
sg1123
S'bug_status_sortkey_idx'
p1141
sg1125
S'A'
sg1126
S''
sg1127
L1L
sg1128
S'bug_status'
p1142
sg1130
L7L
sg1131
Nsg1132
S'sortkey'
p1143
sa(dp1144
g1118
S''
sg1119
L1L
sg1120
Nsg1121
S'BTREE'
p1145
sg1123
S'bug_status_sortkey_idx'
p1146
sg1125
S'A'
sg1126
S''
sg1127
L2L
sg1128
S'bug_status'
p1147
sg1130
L7L
sg1131
Nsg1132
S'value'
p1148
sa(dp1149
g1118
S''
sg1119
L1L
sg1120
Nsg1121
S'BTREE'
p1150
sg1123
S'bug_status_visibility_value_id_idx'
p1151
sg1125
S'A'
sg1126
S'YES'
p1152
sg1127
L1L
sg1128
S'bug_status'
p1153
sg1130
L7L
sg1131
Nsg1132
S'visibility_value_id'
p1154
satp1155
sS'priority'
p1156
((lp1157
(dp1158
S'Extra'
p1159
S'auto_increment'
p1160
sS'Default'
p1161
NsS'Field'
p1162
S'id'
p1163
sS'Key'
p1164
S'PRI'
p1165
sS'Null'
p1166
S'NO'
p1167
sS'Type'
p1168
S'smallint(6)'
p1169
sa(dp1170
g1159
S''
sg1161
S''
sg1162
S'value'
p1171
sg1164
S'UNI'
p1172
sg1166
S'NO'
p1173
sg1168
S'varchar(64)'
p1174
sa(dp1175
g1159
S''
sg1161
S'0'
sg1162
S'sortkey'
p1176
sg1164
S'MUL'
p1177
sg1166
S'NO'
p1178
sg1168
S'smallint(6)'
p1179
sa(dp1180
g1159
S''
sg1161
S'1'
sg1162
S'isactive'
p1181
sg1164
S''
sg1166
S'NO'
p1182
sg1168
S'tinyint(4)'
p1183
sa(dp1184
g1159
S''
sg1161
Nsg1162
S'visibility_value_id'
p1185
sg1164
S'MUL'
p1186
sg1166
S'YES'
p1187
sg1168
S'smallint(6)'
p1188
sa(lp1189
(dp1190
S'Comment'
p1191
S''
sS'Non_unique'
p1192
L0L
sS'Sub_part'
p1193
NsS'Index_type'
p1194
S'BTREE'
p1195
sS'Key_name'
p1196
S'PRIMARY'
p1197
sS'Collation'
p1198
S'A'
sS'Null'
p1199
S''
sS'Seq_in_index'
p1200
L1L
sS'Table'
p1201
S'priority'
p1202
sS'Cardinality'
p1203
L5L
sS'Packed'
p1204
NsS'Column_name'
p1205
S'id'
p1206
sa(dp1207
g1191
S''
sg1192
L0L
sg1193
Nsg1194
S'BTREE'
p1208
sg1196
S'priority_value_idx'
p1209
sg1198
S'A'
sg1199
S''
sg1200
L1L
sg1201
S'priority'
p1210
sg1203
L5L
sg1204
Nsg1205
S'value'
p1211
sa(dp1212
g1191
S''
sg1192
L1L
sg1193
Nsg1194
S'BTREE'
p1213
sg1196
S'priority_sortkey_idx'
p1214
sg1198
S'A'
sg1199
S''
sg1200
L1L
sg1201
S'priority'
p1215
sg1203
L5L
sg1204
Nsg1205
S'sortkey'
p1216
sa(dp1217
g1191
S''
sg1192
L1L
sg1193
Nsg1194
S'BTREE'
p1218
sg1196
S'priority_sortkey_idx'
p1219
sg1198
S'A'
sg1199
S''
sg1200
L2L
sg1201
S'priority'
p1220
sg1203
L5L
sg1204
Nsg1205
S'value'
p1221
sa(dp1222
g1191
S''
sg1192
L1L
sg1193
Nsg1194
S'BTREE'
p1223
sg1196
S'priority_visibility_value_id_idx'
p1224
sg1198
S'A'
sg1199
S'YES'
p1225
sg1200
L1L
sg1201
S'priority'
p1226
sg1203
L5L
sg1204
Nsg1205
S'visibility_value_id'
p1227
satp1228
sS'attach_data'
p1229
((lp1230
(dp1231
S'Extra'
p1232
S''
sS'Default'
p1233
S''
sS'Field'
p1234
S'id'
p1235
sS'Key'
p1236
S'PRI'
p1237
sS'Null'
p1238
S'NO'
p1239
sS'Type'
p1240
S'mediumint(9)'
p1241
sa(dp1242
g1232
S''
sg1233
S''
sg1234
S'thedata'
p1243
sg1236
S''
sg1238
S'NO'
p1244
sg1240
S'longblob'
p1245
sa(lp1246
(dp1247
S'Comment'
p1248
S''
sS'Non_unique'
p1249
L0L
sS'Sub_part'
p1250
NsS'Index_type'
p1251
S'BTREE'
p1252
sS'Key_name'
p1253
S'PRIMARY'
p1254
sS'Collation'
p1255
S'A'
sS'Null'
p1256
S''
sS'Seq_in_index'
p1257
L1L
sS'Table'
p1258
S'attach_data'
p1259
sS'Cardinality'
p1260
L0L
sS'Packed'
p1261
NsS'Column_name'
p1262
S'id'
p1263
satp1264
sS'setting'
p1265
((lp1266
(dp1267
S'Extra'
p1268
S''
sS'Default'
p1269
S''
sS'Field'
p1270
S'name'
p1271
sS'Key'
p1272
S'PRI'
p1273
sS'Null'
p1274
S'NO'
p1275
sS'Type'
p1276
S'varchar(32)'
p1277
sa(dp1278
g1268
S''
sg1269
S''
sg1270
S'default_value'
p1279
sg1272
S''
sg1274
S'NO'
p1280
sg1276
S'varchar(32)'
p1281
sa(dp1282
g1268
S''
sg1269
S'1'
sg1270
S'is_enabled'
p1283
sg1272
S''
sg1274
S'NO'
p1284
sg1276
S'tinyint(4)'
p1285
sa(dp1286
g1268
S''
sg1269
Nsg1270
S'subclass'
p1287
sg1272
S''
sg1274
S'YES'
p1288
sg1276
S'varchar(32)'
p1289
sa(lp1290
(dp1291
S'Comment'
p1292
S''
sS'Non_unique'
p1293
L0L
sS'Sub_part'
p1294
NsS'Index_type'
p1295
S'BTREE'
p1296
sS'Key_name'
p1297
S'PRIMARY'
p1298
sS'Collation'
p1299
S'A'
sS'Null'
p1300
S''
sS'Seq_in_index'
p1301
L1L
sS'Table'
p1302
S'setting'
p1303
sS'Cardinality'
p1304
L11L
sS'Packed'
p1305
NsS'Column_name'
p1306
S'name'
p1307
satp1308
sS'email_setting'
p1309
((lp1310
(dp1311
S'Extra'
p1312
S''
sS'Default'
p1313
S''
sS'Field'
p1314
S'user_id'
p1315
sS'Key'
p1316
S'PRI'
p1317
sS'Null'
p1318
S'NO'
p1319
sS'Type'
p1320
S'mediumint(9)'
p1321
sa(dp1322
g1312
S''
sg1313
S''
sg1314
S'relationship'
p1323
sg1316
S'PRI'
p1324
sg1318
S'NO'
p1325
sg1320
S'tinyint(4)'
p1326
sa(dp1327
g1312
S''
sg1313
S''
sg1314
S'event'
p1328
sg1316
S'PRI'
p1329
sg1318
S'NO'
p1330
sg1320
S'tinyint(4)'
p1331
sa(lp1332
(dp1333
S'Comment'
p1334
S''
sS'Non_unique'
p1335
L0L
sS'Sub_part'
p1336
NsS'Index_type'
p1337
S'BTREE'
p1338
sS'Key_name'
p1339
S'email_setting_user_id_idx'
p1340
sS'Collation'
p1341
S'A'
sS'Null'
p1342
S''
sS'Seq_in_index'
p1343
L1L
sS'Table'
p1344
S'email_setting'
p1345
sS'Cardinality'
p1346
L69L
sS'Packed'
p1347
NsS'Column_name'
p1348
S'user_id'
p1349
sa(dp1350
g1334
S''
sg1335
L0L
sg1336
Nsg1337
S'BTREE'
p1351
sg1339
S'email_setting_user_id_idx'
p1352
sg1341
S'A'
sg1342
S''
sg1343
L2L
sg1344
S'email_setting'
p1353
sg1346
L69L
sg1347
Nsg1348
S'relationship'
p1354
sa(dp1355
g1334
S''
sg1335
L0L
sg1336
Nsg1337
S'BTREE'
p1356
sg1339
S'email_setting_user_id_idx'
p1357
sg1341
S'A'
sg1342
S''
sg1343
L3L
sg1344
S'email_setting'
p1358
sg1346
L69L
sg1347
Nsg1348
S'event'
p1359
satp1360
sS'series'
p1361
((lp1362
(dp1363
S'Extra'
p1364
S'auto_increment'
p1365
sS'Default'
p1366
NsS'Field'
p1367
S'series_id'
p1368
sS'Key'
p1369
S'PRI'
p1370
sS'Null'
p1371
S'NO'
p1372
sS'Type'
p1373
S'mediumint(9)'
p1374
sa(dp1375
g1364
S''
sg1366
Nsg1367
S'creator'
p1376
sg1369
S'MUL'
p1377
sg1371
S'YES'
p1378
sg1373
S'mediumint(9)'
p1379
sa(dp1380
g1364
S''
sg1366
S''
sg1367
S'category'
p1381
sg1369
S'MUL'
p1382
sg1371
S'NO'
p1383
sg1373
S'smallint(6)'
p1384
sa(dp1385
g1364
S''
sg1366
S''
sg1367
S'subcategory'
p1386
sg1369
S'MUL'
p1387
sg1371
S'NO'
p1388
sg1373
S'smallint(6)'
p1389
sa(dp1390
g1364
S''
sg1366
S''
sg1367
S'name'
p1391
sg1369
S''
sg1371
S'NO'
p1392
sg1373
S'varchar(64)'
p1393
sa(dp1394
g1364
S''
sg1366
S''
sg1367
S'frequency'
p1395
sg1369
S''
sg1371
S'NO'
p1396
sg1373
S'smallint(6)'
p1397
sa(dp1398
g1364
S''
sg1366
Nsg1367
S'last_viewed'
p1399
sg1369
S''
sg1371
S'YES'
p1400
sg1373
S'datetime'
p1401
sa(dp1402
g1364
S''
sg1366
S''
sg1367
S'query'
p1403
sg1369
S''
sg1371
S'NO'
p1404
sg1373
S'mediumtext'
p1405
sa(dp1406
g1364
S''
sg1366
S'0'
sg1367
S'is_public'
p1407
sg1369
S''
sg1371
S'NO'
p1408
sg1373
S'tinyint(4)'
p1409
sa(lp1410
(dp1411
S'Comment'
p1412
S''
sS'Non_unique'
p1413
L0L
sS'Sub_part'
p1414
NsS'Index_type'
p1415
S'BTREE'
p1416
sS'Key_name'
p1417
S'PRIMARY'
p1418
sS'Collation'
p1419
S'A'
sS'Null'
p1420
S''
sS'Seq_in_index'
p1421
L1L
sS'Table'
p1422
S'series'
p1423
sS'Cardinality'
p1424
L0L
sS'Packed'
p1425
NsS'Column_name'
p1426
S'series_id'
p1427
sa(dp1428
g1412
S''
sg1413
L0L
sg1414
Nsg1415
S'BTREE'
p1429
sg1417
S'series_creator_idx'
p1430
sg1419
S'A'
sg1420
S'YES'
p1431
sg1421
L1L
sg1422
S'series'
p1432
sg1424
L0L
sg1425
Nsg1426
S'creator'
p1433
sa(dp1434
g1412
S''
sg1413
L0L
sg1414
Nsg1415
S'BTREE'
p1435
sg1417
S'series_creator_idx'
p1436
sg1419
S'A'
sg1420
S''
sg1421
L2L
sg1422
S'series'
p1437
sg1424
L0L
sg1425
Nsg1426
S'category'
p1438
sa(dp1439
g1412
S''
sg1413
L0L
sg1414
Nsg1415
S'BTREE'
p1440
sg1417
S'series_creator_idx'
p1441
sg1419
S'A'
sg1420
S''
sg1421
L3L
sg1422
S'series'
p1442
sg1424
L0L
sg1425
Nsg1426
S'subcategory'
p1443
sa(dp1444
g1412
S''
sg1413
L0L
sg1414
Nsg1415
S'BTREE'
p1445
sg1417
S'series_creator_idx'
p1446
sg1419
S'A'
sg1420
S''
sg1421
L4L
sg1422
S'series'
p1447
sg1424
L0L
sg1425
Nsg1426
S'name'
p1448
sa(dp1449
g1412
S''
sg1413
L1L
sg1414
Nsg1415
S'BTREE'
p1450
sg1417
S'fk_series_category_series_categories_id'
p1451
sg1419
S'A'
sg1420
S''
sg1421
L1L
sg1422
S'series'
p1452
sg1424
L0L
sg1425
Nsg1426
S'category'
p1453
sa(dp1454
g1412
S''
sg1413
L1L
sg1414
Nsg1415
S'BTREE'
p1455
sg1417
S'fk_series_subcategory_series_categories_id'
p1456
sg1419
S'A'
sg1420
S''
sg1421
L1L
sg1422
S'series'
p1457
sg1424
L0L
sg1425
Nsg1426
S'subcategory'
p1458
satp1459
sS'logincookies'
p1460
((lp1461
(dp1462
S'Extra'
p1463
S''
sS'Default'
p1464
S''
sS'Field'
p1465
S'cookie'
p1466
sS'Key'
p1467
S'PRI'
p1468
sS'Null'
p1469
S'NO'
p1470
sS'Type'
p1471
S'varchar(16)'
p1472
sa(dp1473
g1463
S''
sg1464
S''
sg1465
S'userid'
p1474
sg1467
S'MUL'
p1475
sg1469
S'NO'
p1476
sg1471
S'mediumint(9)'
p1477
sa(dp1478
g1463
S''
sg1464
S''
sg1465
S'ipaddr'
p1479
sg1467
S''
sg1469
S'NO'
p1480
sg1471
S'varchar(40)'
p1481
sa(dp1482
g1463
S''
sg1464
S''
sg1465
S'lastused'
p1483
sg1467
S'MUL'
p1484
sg1469
S'NO'
p1485
sg1471
S'datetime'
p1486
sa(lp1487
(dp1488
S'Comment'
p1489
S''
sS'Non_unique'
p1490
L0L
sS'Sub_part'
p1491
NsS'Index_type'
p1492
S'BTREE'
p1493
sS'Key_name'
p1494
S'PRIMARY'
p1495
sS'Collation'
p1496
S'A'
sS'Null'
p1497
S''
sS'Seq_in_index'
p1498
L1L
sS'Table'
p1499
S'logincookies'
p1500
sS'Cardinality'
p1501
L0L
sS'Packed'
p1502
NsS'Column_name'
p1503
S'cookie'
p1504
sa(dp1505
g1489
S''
sg1490
L1L
sg1491
Nsg1492
S'BTREE'
p1506
sg1494
S'logincookies_lastused_idx'
p1507
sg1496
S'A'
sg1497
S''
sg1498
L1L
sg1499
S'logincookies'
p1508
sg1501
L0L
sg1502
Nsg1503
S'lastused'
p1509
sa(dp1510
g1489
S''
sg1490
L1L
sg1491
Nsg1492
S'BTREE'
p1511
sg1494
S'fk_logincookies_userid_profiles_userid'
p1512
sg1496
S'A'
sg1497
S''
sg1498
L1L
sg1499
S'logincookies'
p1513
sg1501
L0L
sg1502
Nsg1503
S'userid'
p1514
satp1515
sS'fielddefs'
p1516
((lp1517
(dp1518
S'Extra'
p1519
S'auto_increment'
p1520
sS'Default'
p1521
NsS'Field'
p1522
S'id'
p1523
sS'Key'
p1524
S'PRI'
p1525
sS'Null'
p1526
S'NO'
p1527
sS'Type'
p1528
S'mediumint(9)'
p1529
sa(dp1530
g1519
S''
sg1521
S''
sg1522
S'name'
p1531
sg1524
S'UNI'
p1532
sg1526
S'NO'
p1533
sg1528
S'varchar(64)'
p1534
sa(dp1535
g1519
S''
sg1521
S'0'
sg1522
S'type'
p1536
sg1524
S''
sg1526
S'NO'
p1537
sg1528
S'smallint(6)'
p1538
sa(dp1539
g1519
S''
sg1521
S'0'
sg1522
S'custom'
p1540
sg1524
S''
sg1526
S'NO'
p1541
sg1528
S'tinyint(4)'
p1542
sa(dp1543
g1519
S''
sg1521
S''
sg1522
S'description'
p1544
sg1524
S''
sg1526
S'NO'
p1545
sg1528
S'tinytext'
p1546
sa(dp1547
g1519
S''
sg1521
S'0'
sg1522
S'mailhead'
p1548
sg1524
S''
sg1526
S'NO'
p1549
sg1528
S'tinyint(4)'
p1550
sa(dp1551
g1519
S''
sg1521
S''
sg1522
S'sortkey'
p1552
sg1524
S'MUL'
p1553
sg1526
S'NO'
p1554
sg1528
S'smallint(6)'
p1555
sa(dp1556
g1519
S''
sg1521
S'0'
sg1522
S'obsolete'
p1557
sg1524
S''
sg1526
S'NO'
p1558
sg1528
S'tinyint(4)'
p1559
sa(dp1560
g1519
S''
sg1521
S'0'
sg1522
S'enter_bug'
p1561
sg1524
S''
sg1526
S'NO'
p1562
sg1528
S'tinyint(4)'
p1563
sa(dp1564
g1519
S''
sg1521
S'0'
sg1522
S'buglist'
p1565
sg1524
S''
sg1526
S'NO'
p1566
sg1528
S'tinyint(4)'
p1567
sa(dp1568
g1519
S''
sg1521
Nsg1522
S'visibility_field_id'
p1569
sg1524
S'MUL'
p1570
sg1526
S'YES'
p1571
sg1528
S'mediumint(9)'
p1572
sa(dp1573
g1519
S''
sg1521
Nsg1522
S'visibility_value_id'
p1574
sg1524
S''
sg1526
S'YES'
p1575
sg1528
S'smallint(6)'
p1576
sa(dp1577
g1519
S''
sg1521
Nsg1522
S'value_field_id'
p1578
sg1524
S'MUL'
p1579
sg1526
S'YES'
p1580
sg1528
S'mediumint(9)'
p1581
sa(lp1582
(dp1583
S'Comment'
p1584
S''
sS'Non_unique'
p1585
L0L
sS'Sub_part'
p1586
NsS'Index_type'
p1587
S'BTREE'
p1588
sS'Key_name'
p1589
S'PRIMARY'
p1590
sS'Collation'
p1591
S'A'
sS'Null'
p1592
S''
sS'Seq_in_index'
p1593
L1L
sS'Table'
p1594
S'fielddefs'
p1595
sS'Cardinality'
p1596
L54L
sS'Packed'
p1597
NsS'Column_name'
p1598
S'id'
p1599
sa(dp1600
g1584
S''
sg1585
L0L
sg1586
Nsg1587
S'BTREE'
p1601
sg1589
S'fielddefs_name_idx'
p1602
sg1591
S'A'
sg1592
S''
sg1593
L1L
sg1594
S'fielddefs'
p1603
sg1596
L54L
sg1597
Nsg1598
S'name'
p1604
sa(dp1605
g1584
S''
sg1585
L1L
sg1586
Nsg1587
S'BTREE'
p1606
sg1589
S'fielddefs_sortkey_idx'
p1607
sg1591
S'A'
sg1592
S''
sg1593
L1L
sg1594
S'fielddefs'
p1608
sg1596
L54L
sg1597
Nsg1598
S'sortkey'
p1609
sa(dp1610
g1584
S''
sg1585
L1L
sg1586
Nsg1587
S'BTREE'
p1611
sg1589
S'fielddefs_value_field_id_idx'
p1612
sg1591
S'A'
sg1592
S'YES'
p1613
sg1593
L1L
sg1594
S'fielddefs'
p1614
sg1596
L2L
sg1597
Nsg1598
S'value_field_id'
p1615
sa(dp1616
g1584
S''
sg1585
L1L
sg1586
Nsg1587
S'BTREE'
p1617
sg1589
S'fk_fielddefs_visibility_field_id_fielddefs_id'
p1618
sg1591
S'A'
sg1592
S'YES'
p1619
sg1593
L1L
sg1594
S'fielddefs'
p1620
sg1596
L2L
sg1597
Nsg1598
S'visibility_field_id'
p1621
satp1622
sS'bugs_fulltext'
p1623
((lp1624
(dp1625
S'Extra'
p1626
S''
sS'Default'
p1627
S''
sS'Field'
p1628
S'bug_id'
p1629
sS'Key'
p1630
S'PRI'
p1631
sS'Null'
p1632
S'NO'
p1633
sS'Type'
p1634
S'mediumint(9)'
p1635
sa(dp1636
g1626
S''
sg1627
S''
sg1628
S'short_desc'
p1637
sg1630
S'MUL'
p1638
sg1632
S'NO'
p1639
sg1634
S'varchar(255)'
p1640
sa(dp1641
g1626
S''
sg1627
Nsg1628
S'comments'
p1642
sg1630
S'MUL'
p1643
sg1632
S'YES'
p1644
sg1634
S'mediumtext'
p1645
sa(dp1646
g1626
S''
sg1627
Nsg1628
S'comments_noprivate'
p1647
sg1630
S'MUL'
p1648
sg1632
S'YES'
p1649
sg1634
S'mediumtext'
p1650
sa(lp1651
(dp1652
S'Comment'
p1653
S''
sS'Non_unique'
p1654
L0L
sS'Sub_part'
p1655
NsS'Index_type'
p1656
S'BTREE'
p1657
sS'Key_name'
p1658
S'PRIMARY'
p1659
sS'Collation'
p1660
S'A'
sS'Null'
p1661
S''
sS'Seq_in_index'
p1662
L1L
sS'Table'
p1663
S'bugs_fulltext'
p1664
sS'Cardinality'
p1665
L0L
sS'Packed'
p1666
NsS'Column_name'
p1667
S'bug_id'
p1668
sa(dp1669
g1653
S''
sg1654
L1L
sg1655
Nsg1656
S'FULLTEXT'
p1670
sg1658
S'bugs_fulltext_short_desc_idx'
p1671
sg1660
Nsg1661
S''
sg1662
L1L
sg1663
S'bugs_fulltext'
p1672
sg1665
Nsg1666
Nsg1667
S'short_desc'
p1673
sa(dp1674
g1653
S''
sg1654
L1L
sg1655
Nsg1656
S'FULLTEXT'
p1675
sg1658
S'bugs_fulltext_comments_idx'
p1676
sg1660
Nsg1661
S'YES'
p1677
sg1662
L1L
sg1663
S'bugs_fulltext'
p1678
sg1665
Nsg1666
Nsg1667
S'comments'
p1679
sa(dp1680
g1653
S''
sg1654
L1L
sg1655
Nsg1656
S'FULLTEXT'
p1681
sg1658
S'bugs_fulltext_comments_noprivate_idx'
p1682
sg1660
Nsg1661
S'YES'
p1683
sg1662
L1L
sg1663
S'bugs_fulltext'
p1684
sg1665
Nsg1666
Nsg1667
S'comments_noprivate'
p1685
satp1686
sS'ts_funcmap'
p1687
((lp1688
(dp1689
S'Extra'
p1690
S'auto_increment'
p1691
sS'Default'
p1692
NsS'Field'
p1693
S'funcid'
p1694
sS'Key'
p1695
S'PRI'
p1696
sS'Null'
p1697
S'NO'
p1698
sS'Type'
p1699
S'int(11)'
p1700
sa(dp1701
g1690
S''
sg1692
S''
sg1693
S'funcname'
p1702
sg1695
S'UNI'
p1703
sg1697
S'NO'
p1704
sg1699
S'varchar(255)'
p1705
sa(lp1706
(dp1707
S'Comment'
p1708
S''
sS'Non_unique'
p1709
L0L
sS'Sub_part'
p1710
NsS'Index_type'
p1711
S'BTREE'
p1712
sS'Key_name'
p1713
S'PRIMARY'
p1714
sS'Collation'
p1715
S'A'
sS'Null'
p1716
S''
sS'Seq_in_index'
p1717
L1L
sS'Table'
p1718
S'ts_funcmap'
p1719
sS'Cardinality'
p1720
L0L
sS'Packed'
p1721
NsS'Column_name'
p1722
S'funcid'
p1723
sa(dp1724
g1708
S''
sg1709
L0L
sg1710
Nsg1711
S'BTREE'
p1725
sg1713
S'ts_funcmap_funcname_idx'
p1726
sg1715
S'A'
sg1716
S''
sg1717
L1L
sg1718
S'ts_funcmap'
p1727
sg1720
L0L
sg1721
Nsg1722
S'funcname'
p1728
satp1729
sS'flaginclusions'
p1730
((lp1731
(dp1732
S'Extra'
p1733
S''
sS'Default'
p1734
S''
sS'Field'
p1735
S'type_id'
p1736
sS'Key'
p1737
S'MUL'
p1738
sS'Null'
p1739
S'NO'
p1740
sS'Type'
p1741
S'smallint(6)'
p1742
sa(dp1743
g1733
S''
sg1734
Nsg1735
S'product_id'
p1744
sg1737
S'MUL'
p1745
sg1739
S'YES'
p1746
sg1741
S'smallint(6)'
p1747
sa(dp1748
g1733
S''
sg1734
Nsg1735
S'component_id'
p1749
sg1737
S'MUL'
p1750
sg1739
S'YES'
p1751
sg1741
S'smallint(6)'
p1752
sa(lp1753
(dp1754
S'Comment'
p1755
S''
sS'Non_unique'
p1756
L1L
sS'Sub_part'
p1757
NsS'Index_type'
p1758
S'BTREE'
p1759
sS'Key_name'
p1760
S'flaginclusions_type_id_idx'
p1761
sS'Collation'
p1762
S'A'
sS'Null'
p1763
S''
sS'Seq_in_index'
p1764
L1L
sS'Table'
p1765
S'flaginclusions'
p1766
sS'Cardinality'
p1767
L0L
sS'Packed'
p1768
NsS'Column_name'
p1769
S'type_id'
p1770
sa(dp1771
g1755
S''
sg1756
L1L
sg1757
Nsg1758
S'BTREE'
p1772
sg1760
S'flaginclusions_type_id_idx'
p1773
sg1762
S'A'
sg1763
S'YES'
p1774
sg1764
L2L
sg1765
S'flaginclusions'
p1775
sg1767
L0L
sg1768
Nsg1769
S'product_id'
p1776
sa(dp1777
g1755
S''
sg1756
L1L
sg1757
Nsg1758
S'BTREE'
p1778
sg1760
S'flaginclusions_type_id_idx'
p1779
sg1762
S'A'
sg1763
S'YES'
p1780
sg1764
L3L
sg1765
S'flaginclusions'
p1781
sg1767
L0L
sg1768
Nsg1769
S'component_id'
p1782
sa(dp1783
g1755
S''
sg1756
L1L
sg1757
Nsg1758
S'BTREE'
p1784
sg1760
S'fk_flaginclusions_product_id_products_id'
p1785
sg1762
S'A'
sg1763
S'YES'
p1786
sg1764
L1L
sg1765
S'flaginclusions'
p1787
sg1767
L0L
sg1768
Nsg1769
S'product_id'
p1788
sa(dp1789
g1755
S''
sg1756
L1L
sg1757
Nsg1758
S'BTREE'
p1790
sg1760
S'fk_flaginclusions_component_id_components_id'
p1791
sg1762
S'A'
sg1763
S'YES'
p1792
sg1764
L1L
sg1765
S'flaginclusions'
p1793
sg1767
L0L
sg1768
Nsg1769
S'component_id'
p1794
satp1795
sS'profiles_activity'
p1796
((lp1797
(dp1798
S'Extra'
p1799
S''
sS'Default'
p1800
S''
sS'Field'
p1801
S'userid'
p1802
sS'Key'
p1803
S'MUL'
p1804
sS'Null'
p1805
S'NO'
p1806
sS'Type'
p1807
S'mediumint(9)'
p1808
sa(dp1809
g1799
S''
sg1800
S''
sg1801
S'who'
p1810
sg1803
S'MUL'
p1811
sg1805
S'NO'
p1812
sg1807
S'mediumint(9)'
p1813
sa(dp1814
g1799
S''
sg1800
S''
sg1801
S'profiles_when'
p1815
sg1803
S'MUL'
p1816
sg1805
S'NO'
p1817
sg1807
S'datetime'
p1818
sa(dp1819
g1799
S''
sg1800
S''
sg1801
S'fieldid'
p1820
sg1803
S'MUL'
p1821
sg1805
S'NO'
p1822
sg1807
S'mediumint(9)'
p1823
sa(dp1824
g1799
S''
sg1800
Nsg1801
S'oldvalue'
p1825
sg1803
S''
sg1805
S'YES'
p1826
sg1807
S'tinytext'
p1827
sa(dp1828
g1799
S''
sg1800
Nsg1801
S'newvalue'
p1829
sg1803
S''
sg1805
S'YES'
p1830
sg1807
S'tinytext'
p1831
sa(lp1832
(dp1833
S'Comment'
p1834
S''
sS'Non_unique'
p1835
L1L
sS'Sub_part'
p1836
NsS'Index_type'
p1837
S'BTREE'
p1838
sS'Key_name'
p1839
S'profiles_activity_userid_idx'
p1840
sS'Collation'
p1841
S'A'
sS'Null'
p1842
S''
sS'Seq_in_index'
p1843
L1L
sS'Table'
p1844
S'profiles_activity'
p1845
sS'Cardinality'
p1846
L1L
sS'Packed'
p1847
NsS'Column_name'
p1848
S'userid'
p1849
sa(dp1850
g1834
S''
sg1835
L1L
sg1836
Nsg1837
S'BTREE'
p1851
sg1839
S'profiles_activity_profiles_when_idx'
p1852
sg1841
S'A'
sg1842
S''
sg1843
L1L
sg1844
S'profiles_activity'
p1853
sg1846
L1L
sg1847
Nsg1848
S'profiles_when'
p1854
sa(dp1855
g1834
S''
sg1835
L1L
sg1836
Nsg1837
S'BTREE'
p1856
sg1839
S'profiles_activity_fieldid_idx'
p1857
sg1841
S'A'
sg1842
S''
sg1843
L1L
sg1844
S'profiles_activity'
p1858
sg1846
L1L
sg1847
Nsg1848
S'fieldid'
p1859
sa(dp1860
g1834
S''
sg1835
L1L
sg1836
Nsg1837
S'BTREE'
p1861
sg1839
S'fk_profiles_activity_who_profiles_userid'
p1862
sg1841
S'A'
sg1842
S''
sg1843
L1L
sg1844
S'profiles_activity'
p1863
sg1846
L1L
sg1847
Nsg1848
S'who'
p1864
satp1865
sS'bugs_activity'
p1866
((lp1867
(dp1868
S'Extra'
p1869
S''
sS'Default'
p1870
S''
sS'Field'
p1871
S'bug_id'
p1872
sS'Key'
p1873
S'MUL'
p1874
sS'Null'
p1875
S'NO'
p1876
sS'Type'
p1877
S'mediumint(9)'
p1878
sa(dp1879
g1869
S''
sg1870
Nsg1871
S'attach_id'
p1880
sg1873
S'MUL'
p1881
sg1875
S'YES'
p1882
sg1877
S'mediumint(9)'
p1883
sa(dp1884
g1869
S''
sg1870
S''
sg1871
S'who'
p1885
sg1873
S'MUL'
p1886
sg1875
S'NO'
p1887
sg1877
S'mediumint(9)'
p1888
sa(dp1889
g1869
S''
sg1870
S''
sg1871
S'bug_when'
p1890
sg1873
S'MUL'
p1891
sg1875
S'NO'
p1892
sg1877
S'datetime'
p1893
sa(dp1894
g1869
S''
sg1870
S''
sg1871
S'fieldid'
p1895
sg1873
S'MUL'
p1896
sg1875
S'NO'
p1897
sg1877
S'mediumint(9)'
p1898
sa(dp1899
g1869
S''
sg1870
Nsg1871
S'added'
p1900
sg1873
S''
sg1875
S'YES'
p1901
sg1877
S'tinytext'
p1902
sa(dp1903
g1869
S''
sg1870
Nsg1871
S'removed'
p1904
sg1873
S''
sg1875
S'YES'
p1905
sg1877
S'tinytext'
p1906
sa(lp1907
(dp1908
S'Comment'
p1909
S''
sS'Non_unique'
p1910
L1L
sS'Sub_part'
p1911
NsS'Index_type'
p1912
S'BTREE'
p1913
sS'Key_name'
p1914
S'bugs_activity_bug_id_idx'
p1915
sS'Collation'
p1916
S'A'
sS'Null'
p1917
S''
sS'Seq_in_index'
p1918
L1L
sS'Table'
p1919
S'bugs_activity'
p1920
sS'Cardinality'
p1921
L0L
sS'Packed'
p1922
NsS'Column_name'
p1923
S'bug_id'
p1924
sa(dp1925
g1909
S''
sg1910
L1L
sg1911
Nsg1912
S'BTREE'
p1926
sg1914
S'bugs_activity_who_idx'
p1927
sg1916
S'A'
sg1917
S''
sg1918
L1L
sg1919
S'bugs_activity'
p1928
sg1921
L0L
sg1922
Nsg1923
S'who'
p1929
sa(dp1930
g1909
S''
sg1910
L1L
sg1911
Nsg1912
S'BTREE'
p1931
sg1914
S'bugs_activity_bug_when_idx'
p1932
sg1916
S'A'
sg1917
S''
sg1918
L1L
sg1919
S'bugs_activity'
p1933
sg1921
L0L
sg1922
Nsg1923
S'bug_when'
p1934
sa(dp1935
g1909
S''
sg1910
L1L
sg1911
Nsg1912
S'BTREE'
p1936
sg1914
S'bugs_activity_fieldid_idx'
p1937
sg1916
S'A'
sg1917
S''
sg1918
L1L
sg1919
S'bugs_activity'
p1938
sg1921
L0L
sg1922
Nsg1923
S'fieldid'
p1939
sa(dp1940
g1909
S''
sg1910
L1L
sg1911
Nsg1912
S'BTREE'
p1941
sg1914
S'fk_bugs_activity_attach_id_attachments_attach_id'
p1942
sg1916
S'A'
sg1917
S'YES'
p1943
sg1918
L1L
sg1919
S'bugs_activity'
p1944
sg1921
L0L
sg1922
Nsg1923
S'attach_id'
p1945
satp1946
sS'watch'
p1947
((lp1948
(dp1949
S'Extra'
p1950
S''
sS'Default'
p1951
S''
sS'Field'
p1952
S'watcher'
p1953
sS'Key'
p1954
S'PRI'
p1955
sS'Null'
p1956
S'NO'
p1957
sS'Type'
p1958
S'mediumint(9)'
p1959
sa(dp1960
g1950
S''
sg1951
S''
sg1952
S'watched'
p1961
sg1954
S'PRI'
p1962
sg1956
S'NO'
p1963
sg1958
S'mediumint(9)'
p1964
sa(lp1965
(dp1966
S'Comment'
p1967
S''
sS'Non_unique'
p1968
L0L
sS'Sub_part'
p1969
NsS'Index_type'
p1970
S'BTREE'
p1971
sS'Key_name'
p1972
S'watch_watcher_idx'
p1973
sS'Collation'
p1974
S'A'
sS'Null'
p1975
S''
sS'Seq_in_index'
p1976
L1L
sS'Table'
p1977
S'watch'
p1978
sS'Cardinality'
p1979
L0L
sS'Packed'
p1980
NsS'Column_name'
p1981
S'watcher'
p1982
sa(dp1983
g1967
S''
sg1968
L0L
sg1969
Nsg1970
S'BTREE'
p1984
sg1972
S'watch_watcher_idx'
p1985
sg1974
S'A'
sg1975
S''
sg1976
L2L
sg1977
S'watch'
p1986
sg1979
L0L
sg1980
Nsg1981
S'watched'
p1987
sa(dp1988
g1967
S''
sg1968
L1L
sg1969
Nsg1970
S'BTREE'
p1989
sg1972
S'watch_watched_idx'
p1990
sg1974
S'A'
sg1975
S''
sg1976
L1L
sg1977
S'watch'
p1991
sg1979
L0L
sg1980
Nsg1981
S'watched'
p1992
satp1993
sS'bug_severity'
p1994
((lp1995
(dp1996
S'Extra'
p1997
S'auto_increment'
p1998
sS'Default'
p1999
NsS'Field'
p2000
S'id'
p2001
sS'Key'
p2002
S'PRI'
p2003
sS'Null'
p2004
S'NO'
p2005
sS'Type'
p2006
S'smallint(6)'
p2007
sa(dp2008
g1997
S''
sg1999
S''
sg2000
S'value'
p2009
sg2002
S'UNI'
p2010
sg2004
S'NO'
p2011
sg2006
S'varchar(64)'
p2012
sa(dp2013
g1997
S''
sg1999
S'0'
sg2000
S'sortkey'
p2014
sg2002
S'MUL'
p2015
sg2004
S'NO'
p2016
sg2006
S'smallint(6)'
p2017
sa(dp2018
g1997
S''
sg1999
S'1'
sg2000
S'isactive'
p2019
sg2002
S''
sg2004
S'NO'
p2020
sg2006
S'tinyint(4)'
p2021
sa(dp2022
g1997
S''
sg1999
Nsg2000
S'visibility_value_id'
p2023
sg2002
S'MUL'
p2024
sg2004
S'YES'
p2025
sg2006
S'smallint(6)'
p2026
sa(lp2027
(dp2028
S'Comment'
p2029
S''
sS'Non_unique'
p2030
L0L
sS'Sub_part'
p2031
NsS'Index_type'
p2032
S'BTREE'
p2033
sS'Key_name'
p2034
S'PRIMARY'
p2035
sS'Collation'
p2036
S'A'
sS'Null'
p2037
S''
sS'Seq_in_index'
p2038
L1L
sS'Table'
p2039
S'bug_severity'
p2040
sS'Cardinality'
p2041
L7L
sS'Packed'
p2042
NsS'Column_name'
p2043
S'id'
p2044
sa(dp2045
g2029
S''
sg2030
L0L
sg2031
Nsg2032
S'BTREE'
p2046
sg2034
S'bug_severity_value_idx'
p2047
sg2036
S'A'
sg2037
S''
sg2038
L1L
sg2039
S'bug_severity'
p2048
sg2041
L7L
sg2042
Nsg2043
S'value'
p2049
sa(dp2050
g2029
S''
sg2030
L1L
sg2031
Nsg2032
S'BTREE'
p2051
sg2034
S'bug_severity_sortkey_idx'
p2052
sg2036
S'A'
sg2037
S''
sg2038
L1L
sg2039
S'bug_severity'
p2053
sg2041
L7L
sg2042
Nsg2043
S'sortkey'
p2054
sa(dp2055
g2029
S''
sg2030
L1L
sg2031
Nsg2032
S'BTREE'
p2056
sg2034
S'bug_severity_sortkey_idx'
p2057
sg2036
S'A'
sg2037
S''
sg2038
L2L
sg2039
S'bug_severity'
p2058
sg2041
L7L
sg2042
Nsg2043
S'value'
p2059
sa(dp2060
g2029
S''
sg2030
L1L
sg2031
Nsg2032
S'BTREE'
p2061
sg2034
S'bug_severity_visibility_value_id_idx'
p2062
sg2036
S'A'
sg2037
S'YES'
p2063
sg2038
L1L
sg2039
S'bug_severity'
p2064
sg2041
L7L
sg2042
Nsg2043
S'visibility_value_id'
p2065
satp2066
sS'namedqueries'
p2067
((lp2068
(dp2069
S'Extra'
p2070
S'auto_increment'
p2071
sS'Default'
p2072
NsS'Field'
p2073
S'id'
p2074
sS'Key'
p2075
S'PRI'
p2076
sS'Null'
p2077
S'NO'
p2078
sS'Type'
p2079
S'mediumint(9)'
p2080
sa(dp2081
g2070
S''
sg2072
S''
sg2073
S'userid'
p2082
sg2075
S'MUL'
p2083
sg2077
S'NO'
p2084
sg2079
S'mediumint(9)'
p2085
sa(dp2086
g2070
S''
sg2072
S''
sg2073
S'name'
p2087
sg2075
S''
sg2077
S'NO'
p2088
sg2079
S'varchar(64)'
p2089
sa(dp2090
g2070
S''
sg2072
S''
sg2073
S'query'
p2091
sg2075
S''
sg2077
S'NO'
p2092
sg2079
S'mediumtext'
p2093
sa(dp2094
g2070
S''
sg2072
S'0'
sg2073
S'query_type'
p2095
sg2075
S''
sg2077
S'NO'
p2096
sg2079
S'tinyint(4)'
p2097
sa(lp2098
(dp2099
S'Comment'
p2100
S''
sS'Non_unique'
p2101
L0L
sS'Sub_part'
p2102
NsS'Index_type'
p2103
S'BTREE'
p2104
sS'Key_name'
p2105
S'PRIMARY'
p2106
sS'Collation'
p2107
S'A'
sS'Null'
p2108
S''
sS'Seq_in_index'
p2109
L1L
sS'Table'
p2110
S'namedqueries'
p2111
sS'Cardinality'
p2112
L0L
sS'Packed'
p2113
NsS'Column_name'
p2114
S'id'
p2115
sa(dp2116
g2100
S''
sg2101
L0L
sg2102
Nsg2103
S'BTREE'
p2117
sg2105
S'namedqueries_userid_idx'
p2118
sg2107
S'A'
sg2108
S''
sg2109
L1L
sg2110
S'namedqueries'
p2119
sg2112
L0L
sg2113
Nsg2114
S'userid'
p2120
sa(dp2121
g2100
S''
sg2101
L0L
sg2102
Nsg2103
S'BTREE'
p2122
sg2105
S'namedqueries_userid_idx'
p2123
sg2107
S'A'
sg2108
S''
sg2109
L2L
sg2110
S'namedqueries'
p2124
sg2112
L0L
sg2113
Nsg2114
S'name'
p2125
satp2126
sS'bz_schema'
p2127
((lp2128
(dp2129
S'Extra'
p2130
S''
sS'Default'
p2131
S''
sS'Field'
p2132
S'schema_data'
p2133
sS'Key'
p2134
S''
sS'Null'
p2135
S'NO'
p2136
sS'Type'
p2137
S'longblob'
p2138
sa(dp2139
g2130
S''
sg2131
S''
sg2132
S'version'
p2140
sg2134
S''
sg2135
S'NO'
p2141
sg2137
S'decimal(3,2)'
p2142
sa(ltp2143
sS'tokens'
p2144
((lp2145
(dp2146
S'Extra'
p2147
S''
sS'Default'
p2148
NsS'Field'
p2149
S'userid'
p2150
sS'Key'
p2151
S'MUL'
p2152
sS'Null'
p2153
S'YES'
p2154
sS'Type'
p2155
S'mediumint(9)'
p2156
sa(dp2157
g2147
S''
sg2148
S''
sg2149
S'issuedate'
p2158
sg2151
S''
sg2153
S'NO'
p2159
sg2155
S'datetime'
p2160
sa(dp2161
g2147
S''
sg2148
S''
sg2149
S'token'
p2162
sg2151
S'PRI'
p2163
sg2153
S'NO'
p2164
sg2155
S'varchar(16)'
p2165
sa(dp2166
g2147
S''
sg2148
S''
sg2149
S'tokentype'
p2167
sg2151
S''
sg2153
S'NO'
p2168
sg2155
S'varchar(8)'
p2169
sa(dp2170
g2147
S''
sg2148
Nsg2149
S'eventdata'
p2171
sg2151
S''
sg2153
S'YES'
p2172
sg2155
S'tinytext'
p2173
sa(lp2174
(dp2175
S'Comment'
p2176
S''
sS'Non_unique'
p2177
L0L
sS'Sub_part'
p2178
NsS'Index_type'
p2179
S'BTREE'
p2180
sS'Key_name'
p2181
S'PRIMARY'
p2182
sS'Collation'
p2183
S'A'
sS'Null'
p2184
S''
sS'Seq_in_index'
p2185
L1L
sS'Table'
p2186
S'tokens'
p2187
sS'Cardinality'
p2188
L0L
sS'Packed'
p2189
NsS'Column_name'
p2190
S'token'
p2191
sa(dp2192
g2176
S''
sg2177
L1L
sg2178
Nsg2179
S'BTREE'
p2193
sg2181
S'tokens_userid_idx'
p2194
sg2183
S'A'
sg2184
S'YES'
p2195
sg2185
L1L
sg2186
S'tokens'
p2196
sg2188
L0L
sg2189
Nsg2190
S'userid'
p2197
satp2198
sS'whine_schedules'
p2199
((lp2200
(dp2201
S'Extra'
p2202
S'auto_increment'
p2203
sS'Default'
p2204
NsS'Field'
p2205
S'id'
p2206
sS'Key'
p2207
S'PRI'
p2208
sS'Null'
p2209
S'NO'
p2210
sS'Type'
p2211
S'mediumint(9)'
p2212
sa(dp2213
g2202
S''
sg2204
S''
sg2205
S'eventid'
p2214
sg2207
S'MUL'
p2215
sg2209
S'NO'
p2216
sg2211
S'mediumint(9)'
p2217
sa(dp2218
g2202
S''
sg2204
Nsg2205
S'run_day'
p2219
sg2207
S''
sg2209
S'YES'
p2220
sg2211
S'varchar(32)'
p2221
sa(dp2222
g2202
S''
sg2204
Nsg2205
S'run_time'
p2223
sg2207
S''
sg2209
S'YES'
p2224
sg2211
S'varchar(32)'
p2225
sa(dp2226
g2202
S''
sg2204
Nsg2205
S'run_next'
p2227
sg2207
S'MUL'
p2228
sg2209
S'YES'
p2229
sg2211
S'datetime'
p2230
sa(dp2231
g2202
S''
sg2204
S''
sg2205
S'mailto'
p2232
sg2207
S''
sg2209
S'NO'
p2233
sg2211
S'mediumint(9)'
p2234
sa(dp2235
g2202
S''
sg2204
S'0'
sg2205
S'mailto_type'
p2236
sg2207
S''
sg2209
S'NO'
p2237
sg2211
S'smallint(6)'
p2238
sa(lp2239
(dp2240
S'Comment'
p2241
S''
sS'Non_unique'
p2242
L0L
sS'Sub_part'
p2243
NsS'Index_type'
p2244
S'BTREE'
p2245
sS'Key_name'
p2246
S'PRIMARY'
p2247
sS'Collation'
p2248
S'A'
sS'Null'
p2249
S''
sS'Seq_in_index'
p2250
L1L
sS'Table'
p2251
S'whine_schedules'
p2252
sS'Cardinality'
p2253
L0L
sS'Packed'
p2254
NsS'Column_name'
p2255
S'id'
p2256
sa(dp2257
g2241
S''
sg2242
L1L
sg2243
Nsg2244
S'BTREE'
p2258
sg2246
S'whine_schedules_run_next_idx'
p2259
sg2248
S'A'
sg2249
S'YES'
p2260
sg2250
L1L
sg2251
S'whine_schedules'
p2261
sg2253
L0L
sg2254
Nsg2255
S'run_next'
p2262
sa(dp2263
g2241
S''
sg2242
L1L
sg2243
Nsg2244
S'BTREE'
p2264
sg2246
S'whine_schedules_eventid_idx'
p2265
sg2248
S'A'
sg2249
S''
sg2250
L1L
sg2251
S'whine_schedules'
p2266
sg2253
L0L
sg2254
Nsg2255
S'eventid'
p2267
satp2268
sS'dependencies'
p2269
((lp2270
(dp2271
S'Extra'
p2272
S''
sS'Default'
p2273
S''
sS'Field'
p2274
S'blocked'
p2275
sS'Key'
p2276
S'MUL'
p2277
sS'Null'
p2278
S'NO'
p2279
sS'Type'
p2280
S'mediumint(9)'
p2281
sa(dp2282
g2272
S''
sg2273
S''
sg2274
S'dependson'
p2283
sg2276
S'MUL'
p2284
sg2278
S'NO'
p2285
sg2280
S'mediumint(9)'
p2286
sa(lp2287
(dp2288
S'Comment'
p2289
S''
sS'Non_unique'
p2290
L1L
sS'Sub_part'
p2291
NsS'Index_type'
p2292
S'BTREE'
p2293
sS'Key_name'
p2294
S'dependencies_blocked_idx'
p2295
sS'Collation'
p2296
S'A'
sS'Null'
p2297
S''
sS'Seq_in_index'
p2298
L1L
sS'Table'
p2299
S'dependencies'
p2300
sS'Cardinality'
p2301
L0L
sS'Packed'
p2302
NsS'Column_name'
p2303
S'blocked'
p2304
sa(dp2305
g2289
S''
sg2290
L1L
sg2291
Nsg2292
S'BTREE'
p2306
sg2294
S'dependencies_dependson_idx'
p2307
sg2296
S'A'
sg2297
S''
sg2298
L1L
sg2299
S'dependencies'
p2308
sg2301
L0L
sg2302
Nsg2303
S'dependson'
p2309
satp2310
sS'category_group_map'
p2311
((lp2312
(dp2313
S'Extra'
p2314
S''
sS'Default'
p2315
S''
sS'Field'
p2316
S'category_id'
p2317
sS'Key'
p2318
S'PRI'
p2319
sS'Null'
p2320
S'NO'
p2321
sS'Type'
p2322
S'smallint(6)'
p2323
sa(dp2324
g2314
S''
sg2315
S''
sg2316
S'group_id'
p2325
sg2318
S'PRI'
p2326
sg2320
S'NO'
p2327
sg2322
S'mediumint(9)'
p2328
sa(lp2329
(dp2330
S'Comment'
p2331
S''
sS'Non_unique'
p2332
L0L
sS'Sub_part'
p2333
NsS'Index_type'
p2334
S'BTREE'
p2335
sS'Key_name'
p2336
S'category_group_map_category_id_idx'
p2337
sS'Collation'
p2338
S'A'
sS'Null'
p2339
S''
sS'Seq_in_index'
p2340
L1L
sS'Table'
p2341
S'category_group_map'
p2342
sS'Cardinality'
p2343
L0L
sS'Packed'
p2344
NsS'Column_name'
p2345
S'category_id'
p2346
sa(dp2347
g2331
S''
sg2332
L0L
sg2333
Nsg2334
S'BTREE'
p2348
sg2336
S'category_group_map_category_id_idx'
p2349
sg2338
S'A'
sg2339
S''
sg2340
L2L
sg2341
S'category_group_map'
p2350
sg2343
L0L
sg2344
Nsg2345
S'group_id'
p2351
sa(dp2352
g2331
S''
sg2332
L1L
sg2333
Nsg2334
S'BTREE'
p2353
sg2336
S'fk_category_group_map_group_id_groups_id'
p2354
sg2338
S'A'
sg2339
S''
sg2340
L1L
sg2341
S'category_group_map'
p2355
sg2343
L0L
sg2344
Nsg2345
S'group_id'
p2356
satp2357
sS'groups'
p2358
((lp2359
(dp2360
S'Extra'
p2361
S'auto_increment'
p2362
sS'Default'
p2363
NsS'Field'
p2364
S'id'
p2365
sS'Key'
p2366
S'PRI'
p2367
sS'Null'
p2368
S'NO'
p2369
sS'Type'
p2370
S'mediumint(9)'
p2371
sa(dp2372
g2361
S''
sg2363
S''
sg2364
S'name'
p2373
sg2366
S'UNI'
p2374
sg2368
S'NO'
p2375
sg2370
S'varchar(255)'
p2376
sa(dp2377
g2361
S''
sg2363
S''
sg2364
S'description'
p2378
sg2366
S''
sg2368
S'NO'
p2379
sg2370
S'mediumtext'
p2380
sa(dp2381
g2361
S''
sg2363
S''
sg2364
S'isbuggroup'
p2382
sg2366
S''
sg2368
S'NO'
p2383
sg2370
S'tinyint(4)'
p2384
sa(dp2385
g2361
S''
sg2363
S''
sg2364
S'userregexp'
p2386
sg2366
S''
sg2368
S'NO'
p2387
sg2370
S'tinytext'
p2388
sa(dp2389
g2361
S''
sg2363
S'1'
sg2364
S'isactive'
p2390
sg2366
S''
sg2368
S'NO'
p2391
sg2370
S'tinyint(4)'
p2392
sa(dp2393
g2361
S''
sg2363
Nsg2364
S'icon_url'
p2394
sg2366
S''
sg2368
S'YES'
p2395
sg2370
S'tinytext'
p2396
sa(lp2397
(dp2398
S'Comment'
p2399
S''
sS'Non_unique'
p2400
L0L
sS'Sub_part'
p2401
NsS'Index_type'
p2402
S'BTREE'
p2403
sS'Key_name'
p2404
S'PRIMARY'
p2405
sS'Collation'
p2406
S'A'
sS'Null'
p2407
S''
sS'Seq_in_index'
p2408
L1L
sS'Table'
p2409
S'groups'
p2410
sS'Cardinality'
p2411
L13L
sS'Packed'
p2412
NsS'Column_name'
p2413
S'id'
p2414
sa(dp2415
g2399
S''
sg2400
L0L
sg2401
Nsg2402
S'BTREE'
p2416
sg2404
S'groups_name_idx'
p2417
sg2406
S'A'
sg2407
S''
sg2408
L1L
sg2409
S'groups'
p2418
sg2411
L13L
sg2412
Nsg2413
S'name'
p2419
satp2420
sS'products'
p2421
((lp2422
(dp2423
S'Extra'
p2424
S'auto_increment'
p2425
sS'Default'
p2426
NsS'Field'
p2427
S'id'
p2428
sS'Key'
p2429
S'PRI'
p2430
sS'Null'
p2431
S'NO'
p2432
sS'Type'
p2433
S'smallint(6)'
p2434
sa(dp2435
g2424
S''
sg2426
S''
sg2427
S'name'
p2436
sg2429
S'UNI'
p2437
sg2431
S'NO'
p2438
sg2433
S'varchar(64)'
p2439
sa(dp2440
g2424
S''
sg2426
S'1'
sg2427
S'classification_id'
p2441
sg2429
S''
sg2431
S'NO'
p2442
sg2433
S'smallint(6)'
p2443
sa(dp2444
g2424
S''
sg2426
Nsg2427
S'description'
p2445
sg2429
S''
sg2431
S'YES'
p2446
sg2433
S'mediumtext'
p2447
sa(dp2448
g2424
S''
sg2426
S''
sg2427
S'milestoneurl'
p2449
sg2429
S''
sg2431
S'NO'
p2450
sg2433
S'tinytext'
p2451
sa(dp2452
g2424
S''
sg2426
S'0'
sg2427
S'disallownew'
p2453
sg2429
S''
sg2431
S'NO'
p2454
sg2433
S'tinyint(4)'
p2455
sa(dp2456
g2424
S''
sg2426
S'0'
sg2427
S'votesperuser'
p2457
sg2429
S''
sg2431
S'NO'
p2458
sg2433
S'smallint(6)'
p2459
sa(dp2460
g2424
S''
sg2426
S'10000'
p2461
sg2427
S'maxvotesperbug'
p2462
sg2429
S''
sg2431
S'NO'
p2463
sg2433
S'smallint(6)'
p2464
sa(dp2465
g2424
S''
sg2426
S'0'
sg2427
S'votestoconfirm'
p2466
sg2429
S''
sg2431
S'NO'
p2467
sg2433
S'smallint(6)'
p2468
sa(dp2469
g2424
S''
sg2426
S'---'
p2470
sg2427
S'defaultmilestone'
p2471
sg2429
S''
sg2431
S'NO'
p2472
sg2433
S'varchar(20)'
p2473
sa(lp2474
(dp2475
S'Comment'
p2476
S''
sS'Non_unique'
p2477
L0L
sS'Sub_part'
p2478
NsS'Index_type'
p2479
S'BTREE'
p2480
sS'Key_name'
p2481
S'PRIMARY'
p2482
sS'Collation'
p2483
S'A'
sS'Null'
p2484
S''
sS'Seq_in_index'
p2485
L1L
sS'Table'
p2486
S'products'
p2487
sS'Cardinality'
p2488
L1L
sS'Packed'
p2489
NsS'Column_name'
p2490
S'id'
p2491
sa(dp2492
g2476
S''
sg2477
L0L
sg2478
Nsg2479
S'BTREE'
p2493
sg2481
S'products_name_idx'
p2494
sg2483
S'A'
sg2484
S''
sg2485
L1L
sg2486
S'products'
p2495
sg2488
L1L
sg2489
Nsg2490
S'name'
p2496
satp2497
sS'cc'
p2498
((lp2499
(dp2500
S'Extra'
p2501
S''
sS'Default'
p2502
S''
sS'Field'
p2503
S'bug_id'
p2504
sS'Key'
p2505
S'PRI'
p2506
sS'Null'
p2507
S'NO'
p2508
sS'Type'
p2509
S'mediumint(9)'
p2510
sa(dp2511
g2501
S''
sg2502
S''
sg2503
S'who'
p2512
sg2505
S'PRI'
p2513
sg2507
S'NO'
p2514
sg2509
S'mediumint(9)'
p2515
sa(lp2516
(dp2517
S'Comment'
p2518
S''
sS'Non_unique'
p2519
L0L
sS'Sub_part'
p2520
NsS'Index_type'
p2521
S'BTREE'
p2522
sS'Key_name'
p2523
S'cc_bug_id_idx'
p2524
sS'Collation'
p2525
S'A'
sS'Null'
p2526
S''
sS'Seq_in_index'
p2527
L1L
sS'Table'
p2528
S'cc'
p2529
sS'Cardinality'
p2530
L0L
sS'Packed'
p2531
NsS'Column_name'
p2532
S'bug_id'
p2533
sa(dp2534
g2518
S''
sg2519
L0L
sg2520
Nsg2521
S'BTREE'
p2535
sg2523
S'cc_bug_id_idx'
p2536
sg2525
S'A'
sg2526
S''
sg2527
L2L
sg2528
S'cc'
p2537
sg2530
L0L
sg2531
Nsg2532
S'who'
p2538
sa(dp2539
g2518
S''
sg2519
L1L
sg2520
Nsg2521
S'BTREE'
p2540
sg2523
S'cc_who_idx'
p2541
sg2525
S'A'
sg2526
S''
sg2527
L1L
sg2528
S'cc'
p2542
sg2530
L0L
sg2531
Nsg2532
S'who'
p2543
satp2544
sS'status_workflow'
p2545
((lp2546
(dp2547
S'Extra'
p2548
S''
sS'Default'
p2549
NsS'Field'
p2550
S'old_status'
p2551
sS'Key'
p2552
S'MUL'
p2553
sS'Null'
p2554
S'YES'
p2555
sS'Type'
p2556
S'smallint(6)'
p2557
sa(dp2558
g2548
S''
sg2549
S''
sg2550
S'new_status'
p2559
sg2552
S''
sg2554
S'NO'
p2560
sg2556
S'smallint(6)'
p2561
sa(dp2562
g2548
S''
sg2549
S'0'
sg2550
S'require_comment'
p2563
sg2552
S''
sg2554
S'NO'
p2564
sg2556
S'tinyint(4)'
p2565
sa(lp2566
(dp2567
S'Comment'
p2568
S''
sS'Non_unique'
p2569
L0L
sS'Sub_part'
p2570
NsS'Index_type'
p2571
S'BTREE'
p2572
sS'Key_name'
p2573
S'status_workflow_idx'
p2574
sS'Collation'
p2575
S'A'
sS'Null'
p2576
S'YES'
p2577
sS'Seq_in_index'
p2578
L1L
sS'Table'
p2579
S'status_workflow'
p2580
sS'Cardinality'
p2581
L24L
sS'Packed'
p2582
NsS'Column_name'
p2583
S'old_status'
p2584
sa(dp2585
g2568
S''
sg2569
L0L
sg2570
Nsg2571
S'BTREE'
p2586
sg2573
S'status_workflow_idx'
p2587
sg2575
S'A'
sg2576
S''
sg2578
L2L
sg2579
S'status_workflow'
p2588
sg2581
L24L
sg2582
Nsg2583
S'new_status'
p2589
satp2590
sS'milestones'
p2591
((lp2592
(dp2593
S'Extra'
p2594
S'auto_increment'
p2595
sS'Default'
p2596
NsS'Field'
p2597
S'id'
p2598
sS'Key'
p2599
S'PRI'
p2600
sS'Null'
p2601
S'NO'
p2602
sS'Type'
p2603
S'mediumint(9)'
p2604
sa(dp2605
g2594
S''
sg2596
S''
sg2597
S'product_id'
p2606
sg2599
S'MUL'
p2607
sg2601
S'NO'
p2608
sg2603
S'smallint(6)'
p2609
sa(dp2610
g2594
S''
sg2596
S''
sg2597
S'value'
p2611
sg2599
S''
sg2601
S'NO'
p2612
sg2603
S'varchar(20)'
p2613
sa(dp2614
g2594
S''
sg2596
S'0'
sg2597
S'sortkey'
p2615
sg2599
S''
sg2601
S'NO'
p2616
sg2603
S'smallint(6)'
p2617
sa(lp2618
(dp2619
S'Comment'
p2620
S''
sS'Non_unique'
p2621
L0L
sS'Sub_part'
p2622
NsS'Index_type'
p2623
S'BTREE'
p2624
sS'Key_name'
p2625
S'PRIMARY'
p2626
sS'Collation'
p2627
S'A'
sS'Null'
p2628
S''
sS'Seq_in_index'
p2629
L1L
sS'Table'
p2630
S'milestones'
p2631
sS'Cardinality'
p2632
L1L
sS'Packed'
p2633
NsS'Column_name'
p2634
S'id'
p2635
sa(dp2636
g2620
S''
sg2621
L0L
sg2622
Nsg2623
S'BTREE'
p2637
sg2625
S'milestones_product_id_idx'
p2638
sg2627
S'A'
sg2628
S''
sg2629
L1L
sg2630
S'milestones'
p2639
sg2632
L1L
sg2633
Nsg2634
S'product_id'
p2640
sa(dp2641
g2620
S''
sg2621
L0L
sg2622
Nsg2623
S'BTREE'
p2642
sg2625
S'milestones_product_id_idx'
p2643
sg2627
S'A'
sg2628
S''
sg2629
L2L
sg2630
S'milestones'
p2644
sg2632
L1L
sg2633
Nsg2634
S'value'
p2645
satp2646
sS'classifications'
p2647
((lp2648
(dp2649
S'Extra'
p2650
S'auto_increment'
p2651
sS'Default'
p2652
NsS'Field'
p2653
S'id'
p2654
sS'Key'
p2655
S'PRI'
p2656
sS'Null'
p2657
S'NO'
p2658
sS'Type'
p2659
S'smallint(6)'
p2660
sa(dp2661
g2650
S''
sg2652
S''
sg2653
S'name'
p2662
sg2655
S'UNI'
p2663
sg2657
S'NO'
p2664
sg2659
S'varchar(64)'
p2665
sa(dp2666
g2650
S''
sg2652
Nsg2653
S'description'
p2667
sg2655
S''
sg2657
S'YES'
p2668
sg2659
S'mediumtext'
p2669
sa(dp2670
g2650
S''
sg2652
S'0'
sg2653
S'sortkey'
p2671
sg2655
S''
sg2657
S'NO'
p2672
sg2659
S'smallint(6)'
p2673
sa(lp2674
(dp2675
S'Comment'
p2676
S''
sS'Non_unique'
p2677
L0L
sS'Sub_part'
p2678
NsS'Index_type'
p2679
S'BTREE'
p2680
sS'Key_name'
p2681
S'PRIMARY'
p2682
sS'Collation'
p2683
S'A'
sS'Null'
p2684
S''
sS'Seq_in_index'
p2685
L1L
sS'Table'
p2686
S'classifications'
p2687
sS'Cardinality'
p2688
L1L
sS'Packed'
p2689
NsS'Column_name'
p2690
S'id'
p2691
sa(dp2692
g2676
S''
sg2677
L0L
sg2678
Nsg2679
S'BTREE'
p2693
sg2681
S'classifications_name_idx'
p2694
sg2683
S'A'
sg2684
S''
sg2685
L1L
sg2686
S'classifications'
p2695
sg2688
L1L
sg2689
Nsg2690
S'name'
p2696
satp2697
sS'longdescs'
p2698
((lp2699
(dp2700
S'Extra'
p2701
S'auto_increment'
p2702
sS'Default'
p2703
NsS'Field'
p2704
S'comment_id'
p2705
sS'Key'
p2706
S'PRI'
p2707
sS'Null'
p2708
S'NO'
p2709
sS'Type'
p2710
S'mediumint(9)'
p2711
sa(dp2712
g2701
S''
sg2703
S''
sg2704
S'bug_id'
p2713
sg2706
S'MUL'
p2714
sg2708
S'NO'
p2715
sg2710
S'mediumint(9)'
p2716
sa(dp2717
g2701
S''
sg2703
S''
sg2704
S'who'
p2718
sg2706
S'MUL'
p2719
sg2708
S'NO'
p2720
sg2710
S'mediumint(9)'
p2721
sa(dp2722
g2701
S''
sg2703
S''
sg2704
S'bug_when'
p2723
sg2706
S'MUL'
p2724
sg2708
S'NO'
p2725
sg2710
S'datetime'
p2726
sa(dp2727
g2701
S''
sg2703
S'0.00'
p2728
sg2704
S'work_time'
p2729
sg2706
S''
sg2708
S'NO'
p2730
sg2710
S'decimal(5,2)'
p2731
sa(dp2732
g2701
S''
sg2703
S''
sg2704
S'thetext'
p2733
sg2706
S''
sg2708
S'NO'
p2734
sg2710
S'mediumtext'
p2735
sa(dp2736
g2701
S''
sg2703
S'0'
sg2704
S'isprivate'
p2737
sg2706
S''
sg2708
S'NO'
p2738
sg2710
S'tinyint(4)'
p2739
sa(dp2740
g2701
S''
sg2703
S'0'
sg2704
S'already_wrapped'
p2741
sg2706
S''
sg2708
S'NO'
p2742
sg2710
S'tinyint(4)'
p2743
sa(dp2744
g2701
S''
sg2703
S'0'
sg2704
S'type'
p2745
sg2706
S''
sg2708
S'NO'
p2746
sg2710
S'smallint(6)'
p2747
sa(dp2748
g2701
S''
sg2703
Nsg2704
S'extra_data'
p2749
sg2706
S''
sg2708
S'YES'
p2750
sg2710
S'varchar(255)'
p2751
sa(lp2752
(dp2753
S'Comment'
p2754
S''
sS'Non_unique'
p2755
L0L
sS'Sub_part'
p2756
NsS'Index_type'
p2757
S'BTREE'
p2758
sS'Key_name'
p2759
S'PRIMARY'
p2760
sS'Collation'
p2761
S'A'
sS'Null'
p2762
S''
sS'Seq_in_index'
p2763
L1L
sS'Table'
p2764
S'longdescs'
p2765
sS'Cardinality'
p2766
L0L
sS'Packed'
p2767
NsS'Column_name'
p2768
S'comment_id'
p2769
sa(dp2770
g2754
S''
sg2755
L1L
sg2756
Nsg2757
S'BTREE'
p2771
sg2759
S'longdescs_bug_id_idx'
p2772
sg2761
S'A'
sg2762
S''
sg2763
L1L
sg2764
S'longdescs'
p2773
sg2766
L0L
sg2767
Nsg2768
S'bug_id'
p2774
sa(dp2775
g2754
S''
sg2755
L1L
sg2756
Nsg2757
S'BTREE'
p2776
sg2759
S'longdescs_who_idx'
p2777
sg2761
S'A'
sg2762
S''
sg2763
L1L
sg2764
S'longdescs'
p2778
sg2766
L0L
sg2767
Nsg2768
S'who'
p2779
sa(dp2780
g2754
S''
sg2755
L1L
sg2756
Nsg2757
S'BTREE'
p2781
sg2759
S'longdescs_who_idx'
p2782
sg2761
S'A'
sg2762
S''
sg2763
L2L
sg2764
S'longdescs'
p2783
sg2766
L0L
sg2767
Nsg2768
S'bug_id'
p2784
sa(dp2785
g2754
S''
sg2755
L1L
sg2756
Nsg2757
S'BTREE'
p2786
sg2759
S'longdescs_bug_when_idx'
p2787
sg2761
S'A'
sg2762
S''
sg2763
L1L
sg2764
S'longdescs'
p2788
sg2766
L0L
sg2767
Nsg2768
S'bug_when'
p2789
satp2790
sS'versions'
p2791
((lp2792
(dp2793
S'Extra'
p2794
S'auto_increment'
p2795
sS'Default'
p2796
NsS'Field'
p2797
S'id'
p2798
sS'Key'
p2799
S'PRI'
p2800
sS'Null'
p2801
S'NO'
p2802
sS'Type'
p2803
S'mediumint(9)'
p2804
sa(dp2805
g2794
S''
sg2796
S''
sg2797
S'value'
p2806
sg2799
S''
sg2801
S'NO'
p2807
sg2803
S'varchar(64)'
p2808
sa(dp2809
g2794
S''
sg2796
S''
sg2797
S'product_id'
p2810
sg2799
S'MUL'
p2811
sg2801
S'NO'
p2812
sg2803
S'smallint(6)'
p2813
sa(lp2814
(dp2815
S'Comment'
p2816
S''
sS'Non_unique'
p2817
L0L
sS'Sub_part'
p2818
NsS'Index_type'
p2819
S'BTREE'
p2820
sS'Key_name'
p2821
S'PRIMARY'
p2822
sS'Collation'
p2823
S'A'
sS'Null'
p2824
S''
sS'Seq_in_index'
p2825
L1L
sS'Table'
p2826
S'versions'
p2827
sS'Cardinality'
p2828
L1L
sS'Packed'
p2829
NsS'Column_name'
p2830
S'id'
p2831
sa(dp2832
g2816
S''
sg2817
L0L
sg2818
Nsg2819
S'BTREE'
p2833
sg2821
S'versions_product_id_idx'
p2834
sg2823
S'A'
sg2824
S''
sg2825
L1L
sg2826
S'versions'
p2835
sg2828
L1L
sg2829
Nsg2830
S'product_id'
p2836
sa(dp2837
g2816
S''
sg2817
L0L
sg2818
Nsg2819
S'BTREE'
p2838
sg2821
S'versions_product_id_idx'
p2839
sg2823
S'A'
sg2824
S''
sg2825
L2L
sg2826
S'versions'
p2840
sg2828
L1L
sg2829
Nsg2830
S'value'
p2841
satp2842
sS'flagtypes'
p2843
((lp2844
(dp2845
S'Extra'
p2846
S'auto_increment'
p2847
sS'Default'
p2848
NsS'Field'
p2849
S'id'
p2850
sS'Key'
p2851
S'PRI'
p2852
sS'Null'
p2853
S'NO'
p2854
sS'Type'
p2855
S'smallint(6)'
p2856
sa(dp2857
g2846
S''
sg2848
S''
sg2849
S'name'
p2858
sg2851
S''
sg2853
S'NO'
p2859
sg2855
S'varchar(50)'
p2860
sa(dp2861
g2846
S''
sg2848
S''
sg2849
S'description'
p2862
sg2851
S''
sg2853
S'NO'
p2863
sg2855
S'mediumtext'
p2864
sa(dp2865
g2846
S''
sg2848
Nsg2849
S'cc_list'
p2866
sg2851
S''
sg2853
S'YES'
p2867
sg2855
S'varchar(200)'
p2868
sa(dp2869
g2846
S''
sg2848
S'b'
sg2849
S'target_type'
p2870
sg2851
S''
sg2853
S'NO'
p2871
sg2855
S'char(1)'
p2872
sa(dp2873
g2846
S''
sg2848
S'1'
sg2849
S'is_active'
p2874
sg2851
S''
sg2853
S'NO'
p2875
sg2855
S'tinyint(4)'
p2876
sa(dp2877
g2846
S''
sg2848
S'0'
sg2849
S'is_requestable'
p2878
sg2851
S''
sg2853
S'NO'
p2879
sg2855
S'tinyint(4)'
p2880
sa(dp2881
g2846
S''
sg2848
S'0'
sg2849
S'is_requesteeble'
p2882
sg2851
S''
sg2853
S'NO'
p2883
sg2855
S'tinyint(4)'
p2884
sa(dp2885
g2846
S''
sg2848
S'0'
sg2849
S'is_multiplicable'
p2886
sg2851
S''
sg2853
S'NO'
p2887
sg2855
S'tinyint(4)'
p2888
sa(dp2889
g2846
S''
sg2848
S'0'
sg2849
S'sortkey'
p2890
sg2851
S''
sg2853
S'NO'
p2891
sg2855
S'smallint(6)'
p2892
sa(dp2893
g2846
S''
sg2848
Nsg2849
S'grant_group_id'
p2894
sg2851
S'MUL'
p2895
sg2853
S'YES'
p2896
sg2855
S'mediumint(9)'
p2897
sa(dp2898
g2846
S''
sg2848
Nsg2849
S'request_group_id'
p2899
sg2851
S'MUL'
p2900
sg2853
S'YES'
p2901
sg2855
S'mediumint(9)'
p2902
sa(lp2903
(dp2904
S'Comment'
p2905
S''
sS'Non_unique'
p2906
L0L
sS'Sub_part'
p2907
NsS'Index_type'
p2908
S'BTREE'
p2909
sS'Key_name'
p2910
S'PRIMARY'
p2911
sS'Collation'
p2912
S'A'
sS'Null'
p2913
S''
sS'Seq_in_index'
p2914
L1L
sS'Table'
p2915
S'flagtypes'
p2916
sS'Cardinality'
p2917
L0L
sS'Packed'
p2918
NsS'Column_name'
p2919
S'id'
p2920
sa(dp2921
g2905
S''
sg2906
L1L
sg2907
Nsg2908
S'BTREE'
p2922
sg2910
S'fk_flagtypes_grant_group_id_groups_id'
p2923
sg2912
S'A'
sg2913
S'YES'
p2924
sg2914
L1L
sg2915
S'flagtypes'
p2925
sg2917
L0L
sg2918
Nsg2919
S'grant_group_id'
p2926
sa(dp2927
g2905
S''
sg2906
L1L
sg2907
Nsg2908
S'BTREE'
p2928
sg2910
S'fk_flagtypes_request_group_id_groups_id'
p2929
sg2912
S'A'
sg2913
S'YES'
p2930
sg2914
L1L
sg2915
S'flagtypes'
p2931
sg2917
L0L
sg2918
Nsg2919
S'request_group_id'
p2932
satp2933
sS'user_group_map'
p2934
((lp2935
(dp2936
S'Extra'
p2937
S''
sS'Default'
p2938
S''
sS'Field'
p2939
S'user_id'
p2940
sS'Key'
p2941
S'PRI'
p2942
sS'Null'
p2943
S'NO'
p2944
sS'Type'
p2945
S'mediumint(9)'
p2946
sa(dp2947
g2937
S''
sg2938
S''
sg2939
S'group_id'
p2948
sg2941
S'PRI'
p2949
sg2943
S'NO'
p2950
sg2945
S'mediumint(9)'
p2951
sa(dp2952
g2937
S''
sg2938
S'0'
sg2939
S'isbless'
p2953
sg2941
S'PRI'
p2954
sg2943
S'NO'
p2955
sg2945
S'tinyint(4)'
p2956
sa(dp2957
g2937
S''
sg2938
S'0'
sg2939
S'grant_type'
p2958
sg2941
S'PRI'
p2959
sg2943
S'NO'
p2960
sg2945
S'tinyint(4)'
p2961
sa(lp2962
(dp2963
S'Comment'
p2964
S''
sS'Non_unique'
p2965
L0L
sS'Sub_part'
p2966
NsS'Index_type'
p2967
S'BTREE'
p2968
sS'Key_name'
p2969
S'user_group_map_user_id_idx'
p2970
sS'Collation'
p2971
S'A'
sS'Null'
p2972
S''
sS'Seq_in_index'
p2973
L1L
sS'Table'
p2974
S'user_group_map'
p2975
sS'Cardinality'
p2976
L4L
sS'Packed'
p2977
NsS'Column_name'
p2978
S'user_id'
p2979
sa(dp2980
g2964
S''
sg2965
L0L
sg2966
Nsg2967
S'BTREE'
p2981
sg2969
S'user_group_map_user_id_idx'
p2982
sg2971
S'A'
sg2972
S''
sg2973
L2L
sg2974
S'user_group_map'
p2983
sg2976
L4L
sg2977
Nsg2978
S'group_id'
p2984
sa(dp2985
g2964
S''
sg2965
L0L
sg2966
Nsg2967
S'BTREE'
p2986
sg2969
S'user_group_map_user_id_idx'
p2987
sg2971
S'A'
sg2972
S''
sg2973
L3L
sg2974
S'user_group_map'
p2988
sg2976
L4L
sg2977
Nsg2978
S'grant_type'
p2989
sa(dp2990
g2964
S''
sg2965
L0L
sg2966
Nsg2967
S'BTREE'
p2991
sg2969
S'user_group_map_user_id_idx'
p2992
sg2971
S'A'
sg2972
S''
sg2973
L4L
sg2974
S'user_group_map'
p2993
sg2976
L4L
sg2977
Nsg2978
S'isbless'
p2994
sa(dp2995
g2964
S''
sg2965
L1L
sg2966
Nsg2967
S'BTREE'
p2996
sg2969
S'fk_user_group_map_group_id_groups_id'
p2997
sg2971
S'A'
sg2972
S''
sg2973
L1L
sg2974
S'user_group_map'
p2998
sg2976
L4L
sg2977
Nsg2978
S'group_id'
p2999
satp3000
sS'bugs'
p3001
((lp3002
(dp3003
S'Extra'
p3004
S'auto_increment'
p3005
sS'Default'
p3006
NsS'Field'
p3007
S'bug_id'
p3008
sS'Key'
p3009
S'PRI'
p3010
sS'Null'
p3011
S'NO'
p3012
sS'Type'
p3013
S'mediumint(9)'
p3014
sa(dp3015
g3004
S''
sg3006
S''
sg3007
S'assigned_to'
p3016
sg3009
S'MUL'
p3017
sg3011
S'NO'
p3018
sg3013
S'mediumint(9)'
p3019
sa(dp3020
g3004
S''
sg3006
Nsg3007
S'bug_file_loc'
p3021
sg3009
S''
sg3011
S'YES'
p3022
sg3013
S'mediumtext'
p3023
sa(dp3024
g3004
S''
sg3006
S''
sg3007
S'bug_severity'
p3025
sg3009
S'MUL'
p3026
sg3011
S'NO'
p3027
sg3013
S'varchar(64)'
p3028
sa(dp3029
g3004
S''
sg3006
S''
sg3007
S'bug_status'
p3030
sg3009
S'MUL'
p3031
sg3011
S'NO'
p3032
sg3013
S'varchar(64)'
p3033
sa(dp3034
g3004
S''
sg3006
Nsg3007
S'creation_ts'
p3035
sg3009
S'MUL'
p3036
sg3011
S'YES'
p3037
sg3013
S'datetime'
p3038
sa(dp3039
g3004
S''
sg3006
S''
sg3007
S'delta_ts'
p3040
sg3009
S'MUL'
p3041
sg3011
S'NO'
p3042
sg3013
S'datetime'
p3043
sa(dp3044
g3004
S''
sg3006
S''
sg3007
S'short_desc'
p3045
sg3009
S''
sg3011
S'NO'
p3046
sg3013
S'varchar(255)'
p3047
sa(dp3048
g3004
S''
sg3006
S''
sg3007
S'op_sys'
p3049
sg3009
S'MUL'
p3050
sg3011
S'NO'
p3051
sg3013
S'varchar(64)'
p3052
sa(dp3053
g3004
S''
sg3006
S''
sg3007
S'priority'
p3054
sg3009
S'MUL'
p3055
sg3011
S'NO'
p3056
sg3013
S'varchar(64)'
p3057
sa(dp3058
g3004
S''
sg3006
S''
sg3007
S'product_id'
p3059
sg3009
S'MUL'
p3060
sg3011
S'NO'
p3061
sg3013
S'smallint(6)'
p3062
sa(dp3063
g3004
S''
sg3006
S''
sg3007
S'rep_platform'
p3064
sg3009
S''
sg3011
S'NO'
p3065
sg3013
S'varchar(64)'
p3066
sa(dp3067
g3004
S''
sg3006
S''
sg3007
S'reporter'
p3068
sg3009
S'MUL'
p3069
sg3011
S'NO'
p3070
sg3013
S'mediumint(9)'
p3071
sa(dp3072
g3004
S''
sg3006
S''
sg3007
S'version'
p3073
sg3009
S'MUL'
p3074
sg3011
S'NO'
p3075
sg3013
S'varchar(64)'
p3076
sa(dp3077
g3004
S''
sg3006
S''
sg3007
S'component_id'
p3078
sg3009
S'MUL'
p3079
sg3011
S'NO'
p3080
sg3013
S'smallint(6)'
p3081
sa(dp3082
g3004
S''
sg3006
S''
sg3007
S'resolution'
p3083
sg3009
S'MUL'
p3084
sg3011
S'NO'
p3085
sg3013
S'varchar(64)'
p3086
sa(dp3087
g3004
S''
sg3006
S'---'
p3088
sg3007
S'target_milestone'
p3089
sg3009
S'MUL'
p3090
sg3011
S'NO'
p3091
sg3013
S'varchar(20)'
p3092
sa(dp3093
g3004
S''
sg3006
Nsg3007
S'qa_contact'
p3094
sg3009
S'MUL'
p3095
sg3011
S'YES'
p3096
sg3013
S'mediumint(9)'
p3097
sa(dp3098
g3004
S''
sg3006
S''
sg3007
S'status_whiteboard'
p3099
sg3009
S''
sg3011
S'NO'
p3100
sg3013
S'mediumtext'
p3101
sa(dp3102
g3004
S''
sg3006
S'0'
sg3007
S'votes'
p3103
sg3009
S'MUL'
p3104
sg3011
S'NO'
p3105
sg3013
S'mediumint(9)'
p3106
sa(dp3107
g3004
S''
sg3006
S''
sg3007
S'keywords'
p3108
sg3009
S''
sg3011
S'NO'
p3109
sg3013
S'mediumtext'
p3110
sa(dp3111
g3004
S''
sg3006
Nsg3007
S'lastdiffed'
p3112
sg3009
S''
sg3011
S'YES'
p3113
sg3013
S'datetime'
p3114
sa(dp3115
g3004
S''
sg3006
S''
sg3007
S'everconfirmed'
p3116
sg3009
S''
sg3011
S'NO'
p3117
sg3013
S'tinyint(4)'
p3118
sa(dp3119
g3004
S''
sg3006
S'1'
sg3007
S'reporter_accessible'
p3120
sg3009
S''
sg3011
S'NO'
p3121
sg3013
S'tinyint(4)'
p3122
sa(dp3123
g3004
S''
sg3006
S'1'
sg3007
S'cclist_accessible'
p3124
sg3009
S''
sg3011
S'NO'
p3125
sg3013
S'tinyint(4)'
p3126
sa(dp3127
g3004
S''
sg3006
S'0.00'
p3128
sg3007
S'estimated_time'
p3129
sg3009
S''
sg3011
S'NO'
p3130
sg3013
S'decimal(5,2)'
p3131
sa(dp3132
g3004
S''
sg3006
S'0.00'
p3133
sg3007
S'remaining_time'
p3134
sg3009
S''
sg3011
S'NO'
p3135
sg3013
S'decimal(5,2)'
p3136
sa(dp3137
g3004
S''
sg3006
Nsg3007
S'deadline'
p3138
sg3009
S''
sg3011
S'YES'
p3139
sg3013
S'datetime'
p3140
sa(dp3141
g3004
S''
sg3006
Nsg3007
S'alias'
p3142
sg3009
S'UNI'
p3143
sg3011
S'YES'
p3144
sg3013
S'varchar(20)'
p3145
sa(lp3146
(dp3147
S'Comment'
p3148
S''
sS'Non_unique'
p3149
L0L
sS'Sub_part'
p3150
NsS'Index_type'
p3151
S'BTREE'
p3152
sS'Key_name'
p3153
S'PRIMARY'
p3154
sS'Collation'
p3155
S'A'
sS'Null'
p3156
S''
sS'Seq_in_index'
p3157
L1L
sS'Table'
p3158
S'bugs'
p3159
sS'Cardinality'
p3160
L0L
sS'Packed'
p3161
NsS'Column_name'
p3162
S'bug_id'
p3163
sa(dp3164
g3148
S''
sg3149
L0L
sg3150
Nsg3151
S'BTREE'
p3165
sg3153
S'bugs_alias_idx'
p3166
sg3155
S'A'
sg3156
S'YES'
p3167
sg3157
L1L
sg3158
S'bugs'
p3168
sg3160
L0L
sg3161
Nsg3162
S'alias'
p3169
sa(dp3170
g3148
S''
sg3149
L1L
sg3150
Nsg3151
S'BTREE'
p3171
sg3153
S'bugs_assigned_to_idx'
p3172
sg3155
S'A'
sg3156
S''
sg3157
L1L
sg3158
S'bugs'
p3173
sg3160
L0L
sg3161
Nsg3162
S'assigned_to'
p3174
sa(dp3175
g3148
S''
sg3149
L1L
sg3150
Nsg3151
S'BTREE'
p3176
sg3153
S'bugs_creation_ts_idx'
p3177
sg3155
S'A'
sg3156
S'YES'
p3178
sg3157
L1L
sg3158
S'bugs'
p3179
sg3160
L0L
sg3161
Nsg3162
S'creation_ts'
p3180
sa(dp3181
g3148
S''
sg3149
L1L
sg3150
Nsg3151
S'BTREE'
p3182
sg3153
S'bugs_delta_ts_idx'
p3183
sg3155
S'A'
sg3156
S''
sg3157
L1L
sg3158
S'bugs'
p3184
sg3160
L0L
sg3161
Nsg3162
S'delta_ts'
p3185
sa(dp3186
g3148
S''
sg3149
L1L
sg3150
Nsg3151
S'BTREE'
p3187
sg3153
S'bugs_bug_severity_idx'
p3188
sg3155
S'A'
sg3156
S''
sg3157
L1L
sg3158
S'bugs'
p3189
sg3160
L0L
sg3161
Nsg3162
S'bug_severity'
p3190
sa(dp3191
g3148
S''
sg3149
L1L
sg3150
Nsg3151
S'BTREE'
p3192
sg3153
S'bugs_bug_status_idx'
p3193
sg3155
S'A'
sg3156
S''
sg3157
L1L
sg3158
S'bugs'
p3194
sg3160
L0L
sg3161
Nsg3162
S'bug_status'
p3195
sa(dp3196
g3148
S''
sg3149
L1L
sg3150
Nsg3151
S'BTREE'
p3197
sg3153
S'bugs_op_sys_idx'
p3198
sg3155
S'A'
sg3156
S''
sg3157
L1L
sg3158
S'bugs'
p3199
sg3160
L0L
sg3161
Nsg3162
S'op_sys'
p3200
sa(dp3201
g3148
S''
sg3149
L1L
sg3150
Nsg3151
S'BTREE'
p3202
sg3153
S'bugs_priority_idx'
p3203
sg3155
S'A'
sg3156
S''
sg3157
L1L
sg3158
S'bugs'
p3204
sg3160
L0L
sg3161
Nsg3162
S'priority'
p3205
sa(dp3206
g3148
S''
sg3149
L1L
sg3150
Nsg3151
S'BTREE'
p3207
sg3153
S'bugs_product_id_idx'
p3208
sg3155
S'A'
sg3156
S''
sg3157
L1L
sg3158
S'bugs'
p3209
sg3160
L0L
sg3161
Nsg3162
S'product_id'
p3210
sa(dp3211
g3148
S''
sg3149
L1L
sg3150
Nsg3151
S'BTREE'
p3212
sg3153
S'bugs_reporter_idx'
p3213
sg3155
S'A'
sg3156
S''
sg3157
L1L
sg3158
S'bugs'
p3214
sg3160
L0L
sg3161
Nsg3162
S'reporter'
p3215
sa(dp3216
g3148
S''
sg3149
L1L
sg3150
Nsg3151
S'BTREE'
p3217
sg3153
S'bugs_version_idx'
p3218
sg3155
S'A'
sg3156
S''
sg3157
L1L
sg3158
S'bugs'
p3219
sg3160
L0L
sg3161
Nsg3162
S'version'
p3220
sa(dp3221
g3148
S''
sg3149
L1L
sg3150
Nsg3151
S'BTREE'
p3222
sg3153
S'bugs_component_id_idx'
p3223
sg3155
S'A'
sg3156
S''
sg3157
L1L
sg3158
S'bugs'
p3224
sg3160
L0L
sg3161
Nsg3162
S'component_id'
p3225
sa(dp3226
g3148
S''
sg3149
L1L
sg3150
Nsg3151
S'BTREE'
p3227
sg3153
S'bugs_resolution_idx'
p3228
sg3155
S'A'
sg3156
S''
sg3157
L1L
sg3158
S'bugs'
p3229
sg3160
L0L
sg3161
Nsg3162
S'resolution'
p3230
sa(dp3231
g3148
S''
sg3149
L1L
sg3150
Nsg3151
S'BTREE'
p3232
sg3153
S'bugs_target_milestone_idx'
p3233
sg3155
S'A'
sg3156
S''
sg3157
L1L
sg3158
S'bugs'
p3234
sg3160
L0L
sg3161
Nsg3162
S'target_milestone'
p3235
sa(dp3236
g3148
S''
sg3149
L1L
sg3150
Nsg3151
S'BTREE'
p3237
sg3153
S'bugs_qa_contact_idx'
p3238
sg3155
S'A'
sg3156
S'YES'
p3239
sg3157
L1L
sg3158
S'bugs'
p3240
sg3160
L0L
sg3161
Nsg3162
S'qa_contact'
p3241
sa(dp3242
g3148
S''
sg3149
L1L
sg3150
Nsg3151
S'BTREE'
p3243
sg3153
S'bugs_votes_idx'
p3244
sg3155
S'A'
sg3156
S''
sg3157
L1L
sg3158
S'bugs'
p3245
sg3160
L0L
sg3161
Nsg3162
S'votes'
p3246
satp3247
sS'profiles'
p3248
((lp3249
(dp3250
S'Extra'
p3251
S'auto_increment'
p3252
sS'Default'
p3253
NsS'Field'
p3254
S'userid'
p3255
sS'Key'
p3256
S'PRI'
p3257
sS'Null'
p3258
S'NO'
p3259
sS'Type'
p3260
S'mediumint(9)'
p3261
sa(dp3262
g3251
S''
sg3253
S''
sg3254
S'login_name'
p3263
sg3256
S'UNI'
p3264
sg3258
S'NO'
p3265
sg3260
S'varchar(255)'
p3266
sa(dp3267
g3251
S''
sg3253
Nsg3254
S'cryptpassword'
p3268
sg3256
S''
sg3258
S'YES'
p3269
sg3260
S'varchar(128)'
p3270
sa(dp3271
g3251
S''
sg3253
S''
sg3254
S'realname'
p3272
sg3256
S''
sg3258
S'NO'
p3273
sg3260
S'varchar(255)'
p3274
sa(dp3275
g3251
S''
sg3253
S''
sg3254
S'disabledtext'
p3276
sg3256
S''
sg3258
S'NO'
p3277
sg3260
S'mediumtext'
p3278
sa(dp3279
g3251
S''
sg3253
S'0'
sg3254
S'disable_mail'
p3280
sg3256
S''
sg3258
S'NO'
p3281
sg3260
S'tinyint(4)'
p3282
sa(dp3283
g3251
S''
sg3253
S'1'
sg3254
S'mybugslink'
p3284
sg3256
S''
sg3258
S'NO'
p3285
sg3260
S'tinyint(4)'
p3286
sa(dp3287
g3251
S''
sg3253
Nsg3254
S'extern_id'
p3288
sg3256
S''
sg3258
S'YES'
p3289
sg3260
S'varchar(64)'
p3290
sa(lp3291
(dp3292
S'Comment'
p3293
S''
sS'Non_unique'
p3294
L0L
sS'Sub_part'
p3295
NsS'Index_type'
p3296
S'BTREE'
p3297
sS'Key_name'
p3298
S'PRIMARY'
p3299
sS'Collation'
p3300
S'A'
sS'Null'
p3301
S''
sS'Seq_in_index'
p3302
L1L
sS'Table'
p3303
S'profiles'
p3304
sS'Cardinality'
p3305
L1L
sS'Packed'
p3306
NsS'Column_name'
p3307
S'userid'
p3308
sa(dp3309
g3293
S''
sg3294
L0L
sg3295
Nsg3296
S'BTREE'
p3310
sg3298
S'profiles_login_name_idx'
p3311
sg3300
S'A'
sg3301
S''
sg3302
L1L
sg3303
S'profiles'
p3312
sg3305
L1L
sg3306
Nsg3307
S'login_name'
p3313
satp3314
sS'flags'
p3315
((lp3316
(dp3317
S'Extra'
p3318
S'auto_increment'
p3319
sS'Default'
p3320
NsS'Field'
p3321
S'id'
p3322
sS'Key'
p3323
S'PRI'
p3324
sS'Null'
p3325
S'NO'
p3326
sS'Type'
p3327
S'mediumint(9)'
p3328
sa(dp3329
g3318
S''
sg3320
S''
sg3321
S'type_id'
p3330
sg3323
S'MUL'
p3331
sg3325
S'NO'
p3332
sg3327
S'smallint(6)'
p3333
sa(dp3334
g3318
S''
sg3320
S''
sg3321
S'status'
p3335
sg3323
S''
sg3325
S'NO'
p3336
sg3327
S'char(1)'
p3337
sa(dp3338
g3318
S''
sg3320
S''
sg3321
S'bug_id'
p3339
sg3323
S'MUL'
p3340
sg3325
S'NO'
p3341
sg3327
S'mediumint(9)'
p3342
sa(dp3343
g3318
S''
sg3320
Nsg3321
S'attach_id'
p3344
sg3323
S'MUL'
p3345
sg3325
S'YES'
p3346
sg3327
S'mediumint(9)'
p3347
sa(dp3348
g3318
S''
sg3320
S''
sg3321
S'creation_date'
p3349
sg3323
S''
sg3325
S'NO'
p3350
sg3327
S'datetime'
p3351
sa(dp3352
g3318
S''
sg3320
Nsg3321
S'modification_date'
p3353
sg3323
S''
sg3325
S'YES'
p3354
sg3327
S'datetime'
p3355
sa(dp3356
g3318
S''
sg3320
Nsg3321
S'setter_id'
p3357
sg3323
S'MUL'
p3358
sg3325
S'YES'
p3359
sg3327
S'mediumint(9)'
p3360
sa(dp3361
g3318
S''
sg3320
Nsg3321
S'requestee_id'
p3362
sg3323
S'MUL'
p3363
sg3325
S'YES'
p3364
sg3327
S'mediumint(9)'
p3365
sa(lp3366
(dp3367
S'Comment'
p3368
S''
sS'Non_unique'
p3369
L0L
sS'Sub_part'
p3370
NsS'Index_type'
p3371
S'BTREE'
p3372
sS'Key_name'
p3373
S'PRIMARY'
p3374
sS'Collation'
p3375
S'A'
sS'Null'
p3376
S''
sS'Seq_in_index'
p3377
L1L
sS'Table'
p3378
S'flags'
p3379
sS'Cardinality'
p3380
L0L
sS'Packed'
p3381
NsS'Column_name'
p3382
S'id'
p3383
sa(dp3384
g3368
S''
sg3369
L1L
sg3370
Nsg3371
S'BTREE'
p3385
sg3373
S'flags_bug_id_idx'
p3386
sg3375
S'A'
sg3376
S''
sg3377
L1L
sg3378
S'flags'
p3387
sg3380
L0L
sg3381
Nsg3382
S'bug_id'
p3388
sa(dp3389
g3368
S''
sg3369
L1L
sg3370
Nsg3371
S'BTREE'
p3390
sg3373
S'flags_bug_id_idx'
p3391
sg3375
S'A'
sg3376
S'YES'
p3392
sg3377
L2L
sg3378
S'flags'
p3393
sg3380
L0L
sg3381
Nsg3382
S'attach_id'
p3394
sa(dp3395
g3368
S''
sg3369
L1L
sg3370
Nsg3371
S'BTREE'
p3396
sg3373
S'flags_setter_id_idx'
p3397
sg3375
S'A'
sg3376
S'YES'
p3398
sg3377
L1L
sg3378
S'flags'
p3399
sg3380
L0L
sg3381
Nsg3382
S'setter_id'
p3400
sa(dp3401
g3368
S''
sg3369
L1L
sg3370
Nsg3371
S'BTREE'
p3402
sg3373
S'flags_requestee_id_idx'
p3403
sg3375
S'A'
sg3376
S'YES'
p3404
sg3377
L1L
sg3378
S'flags'
p3405
sg3380
L0L
sg3381
Nsg3382
S'requestee_id'
p3406
sa(dp3407
g3368
S''
sg3369
L1L
sg3370
Nsg3371
S'BTREE'
p3408
sg3373
S'flags_type_id_idx'
p3409
sg3375
S'A'
sg3376
S''
sg3377
L1L
sg3378
S'flags'
p3410
sg3380
L0L
sg3381
Nsg3382
S'type_id'
p3411
sa(dp3412
g3368
S''
sg3369
L1L
sg3370
Nsg3371
S'BTREE'
p3413
sg3373
S'fk_flags_attach_id_attachments_attach_id'
p3414
sg3375
S'A'
sg3376
S'YES'
p3415
sg3377
L1L
sg3378
S'flags'
p3416
sg3380
L0L
sg3381
Nsg3382
S'attach_id'
p3417
satp3418
sS'whine_events'
p3419
((lp3420
(dp3421
S'Extra'
p3422
S'auto_increment'
p3423
sS'Default'
p3424
NsS'Field'
p3425
S'id'
p3426
sS'Key'
p3427
S'PRI'
p3428
sS'Null'
p3429
S'NO'
p3430
sS'Type'
p3431
S'mediumint(9)'
p3432
sa(dp3433
g3422
S''
sg3424
S''
sg3425
S'owner_userid'
p3434
sg3427
S'MUL'
p3435
sg3429
S'NO'
p3436
sg3431
S'mediumint(9)'
p3437
sa(dp3438
g3422
S''
sg3424
Nsg3425
S'subject'
p3439
sg3427
S''
sg3429
S'YES'
p3440
sg3431
S'varchar(128)'
p3441
sa(dp3442
g3422
S''
sg3424
Nsg3425
S'body'
p3443
sg3427
S''
sg3429
S'YES'
p3444
sg3431
S'mediumtext'
p3445
sa(lp3446
(dp3447
S'Comment'
p3448
S''
sS'Non_unique'
p3449
L0L
sS'Sub_part'
p3450
NsS'Index_type'
p3451
S'BTREE'
p3452
sS'Key_name'
p3453
S'PRIMARY'
p3454
sS'Collation'
p3455
S'A'
sS'Null'
p3456
S''
sS'Seq_in_index'
p3457
L1L
sS'Table'
p3458
S'whine_events'
p3459
sS'Cardinality'
p3460
L0L
sS'Packed'
p3461
NsS'Column_name'
p3462
S'id'
p3463
sa(dp3464
g3448
S''
sg3449
L1L
sg3450
Nsg3451
S'BTREE'
p3465
sg3453
S'fk_whine_events_owner_userid_profiles_userid'
p3466
sg3455
S'A'
sg3456
S''
sg3457
L1L
sg3458
S'whine_events'
p3467
sg3460
L0L
sg3461
Nsg3462
S'owner_userid'
p3468
satp3469
sS'components'
p3470
((lp3471
(dp3472
S'Extra'
p3473
S'auto_increment'
p3474
sS'Default'
p3475
NsS'Field'
p3476
S'id'
p3477
sS'Key'
p3478
S'PRI'
p3479
sS'Null'
p3480
S'NO'
p3481
sS'Type'
p3482
S'smallint(6)'
p3483
sa(dp3484
g3473
S''
sg3475
S''
sg3476
S'name'
p3485
sg3478
S'MUL'
p3486
sg3480
S'NO'
p3487
sg3482
S'varchar(64)'
p3488
sa(dp3489
g3473
S''
sg3475
S''
sg3476
S'product_id'
p3490
sg3478
S'MUL'
p3491
sg3480
S'NO'
p3492
sg3482
S'smallint(6)'
p3493
sa(dp3494
g3473
S''
sg3475
S''
sg3476
S'initialowner'
p3495
sg3478
S'MUL'
p3496
sg3480
S'NO'
p3497
sg3482
S'mediumint(9)'
p3498
sa(dp3499
g3473
S''
sg3475
Nsg3476
S'initialqacontact'
p3500
sg3478
S'MUL'
p3501
sg3480
S'YES'
p3502
sg3482
S'mediumint(9)'
p3503
sa(dp3504
g3473
S''
sg3475
S''
sg3476
S'description'
p3505
sg3478
S''
sg3480
S'NO'
p3506
sg3482
S'mediumtext'
p3507
sa(lp3508
(dp3509
S'Comment'
p3510
S''
sS'Non_unique'
p3511
L0L
sS'Sub_part'
p3512
NsS'Index_type'
p3513
S'BTREE'
p3514
sS'Key_name'
p3515
S'PRIMARY'
p3516
sS'Collation'
p3517
S'A'
sS'Null'
p3518
S''
sS'Seq_in_index'
p3519
L1L
sS'Table'
p3520
S'components'
p3521
sS'Cardinality'
p3522
L1L
sS'Packed'
p3523
NsS'Column_name'
p3524
S'id'
p3525
sa(dp3526
g3510
S''
sg3511
L0L
sg3512
Nsg3513
S'BTREE'
p3527
sg3515
S'components_product_id_idx'
p3528
sg3517
S'A'
sg3518
S''
sg3519
L1L
sg3520
S'components'
p3529
sg3522
L1L
sg3523
Nsg3524
S'product_id'
p3530
sa(dp3531
g3510
S''
sg3511
L0L
sg3512
Nsg3513
S'BTREE'
p3532
sg3515
S'components_product_id_idx'
p3533
sg3517
S'A'
sg3518
S''
sg3519
L2L
sg3520
S'components'
p3534
sg3522
L1L
sg3523
Nsg3524
S'name'
p3535
sa(dp3536
g3510
S''
sg3511
L1L
sg3512
Nsg3513
S'BTREE'
p3537
sg3515
S'components_name_idx'
p3538
sg3517
S'A'
sg3518
S''
sg3519
L1L
sg3520
S'components'
p3539
sg3522
L1L
sg3523
Nsg3524
S'name'
p3540
sa(dp3541
g3510
S''
sg3511
L1L
sg3512
Nsg3513
S'BTREE'
p3542
sg3515
S'fk_components_initialowner_profiles_userid'
p3543
sg3517
S'A'
sg3518
S''
sg3519
L1L
sg3520
S'components'
p3544
sg3522
L1L
sg3523
Nsg3524
S'initialowner'
p3545
sa(dp3546
g3510
S''
sg3511
L1L
sg3512
Nsg3513
S'BTREE'
p3547
sg3515
S'fk_components_initialqacontact_profiles_userid'
p3548
sg3517
S'A'
sg3518
S'YES'
p3549
sg3519
L1L
sg3520
S'components'
p3550
sg3522
L1L
sg3523
Nsg3524
S'initialqacontact'
p3551
satp3552
sS'ts_error'
p3553
((lp3554
(dp3555
S'Extra'
p3556
S''
sS'Default'
p3557
S''
sS'Field'
p3558
S'error_time'
p3559
sS'Key'
p3560
S'MUL'
p3561
sS'Null'
p3562
S'NO'
p3563
sS'Type'
p3564
S'int(11)'
p3565
sa(dp3566
g3556
S''
sg3557
S''
sg3558
S'jobid'
p3567
sg3560
S'MUL'
p3568
sg3562
S'NO'
p3569
sg3564
S'int(11)'
p3570
sa(dp3571
g3556
S''
sg3557
S''
sg3558
S'message'
p3572
sg3560
S''
sg3562
S'NO'
p3573
sg3564
S'varchar(255)'
p3574
sa(dp3575
g3556
S''
sg3557
S'0'
sg3558
S'funcid'
p3576
sg3560
S'MUL'
p3577
sg3562
S'NO'
p3578
sg3564
S'int(11)'
p3579
sa(lp3580
(dp3581
S'Comment'
p3582
S''
sS'Non_unique'
p3583
L1L
sS'Sub_part'
p3584
NsS'Index_type'
p3585
S'BTREE'
p3586
sS'Key_name'
p3587
S'ts_error_funcid_idx'
p3588
sS'Collation'
p3589
S'A'
sS'Null'
p3590
S''
sS'Seq_in_index'
p3591
L1L
sS'Table'
p3592
S'ts_error'
p3593
sS'Cardinality'
p3594
L0L
sS'Packed'
p3595
NsS'Column_name'
p3596
S'funcid'
p3597
sa(dp3598
g3582
S''
sg3583
L1L
sg3584
Nsg3585
S'BTREE'
p3599
sg3587
S'ts_error_funcid_idx'
p3600
sg3589
S'A'
sg3590
S''
sg3591
L2L
sg3592
S'ts_error'
p3601
sg3594
L0L
sg3595
Nsg3596
S'error_time'
p3602
sa(dp3603
g3582
S''
sg3583
L1L
sg3584
Nsg3585
S'BTREE'
p3604
sg3587
S'ts_error_error_time_idx'
p3605
sg3589
S'A'
sg3590
S''
sg3591
L1L
sg3592
S'ts_error'
p3606
sg3594
L0L
sg3595
Nsg3596
S'error_time'
p3607
sa(dp3608
g3582
S''
sg3583
L1L
sg3584
Nsg3585
S'BTREE'
p3609
sg3587
S'ts_error_jobid_idx'
p3610
sg3589
S'A'
sg3590
S''
sg3591
L1L
sg3592
S'ts_error'
p3611
sg3594
L0L
sg3595
Nsg3596
S'jobid'
p3612
satp3613
sS'whine_queries'
p3614
((lp3615
(dp3616
S'Extra'
p3617
S'auto_increment'
p3618
sS'Default'
p3619
NsS'Field'
p3620
S'id'
p3621
sS'Key'
p3622
S'PRI'
p3623
sS'Null'
p3624
S'NO'
p3625
sS'Type'
p3626
S'mediumint(9)'
p3627
sa(dp3628
g3617
S''
sg3619
S''
sg3620
S'eventid'
p3629
sg3622
S'MUL'
p3630
sg3624
S'NO'
p3631
sg3626
S'mediumint(9)'
p3632
sa(dp3633
g3617
S''
sg3619
S''
sg3620
S'query_name'
p3634
sg3622
S''
sg3624
S'NO'
p3635
sg3626
S'varchar(64)'
p3636
sa(dp3637
g3617
S''
sg3619
S'0'
sg3620
S'sortkey'
p3638
sg3622
S''
sg3624
S'NO'
p3639
sg3626
S'smallint(6)'
p3640
sa(dp3641
g3617
S''
sg3619
S'0'
sg3620
S'onemailperbug'
p3642
sg3622
S''
sg3624
S'NO'
p3643
sg3626
S'tinyint(4)'
p3644
sa(dp3645
g3617
S''
sg3619
S''
sg3620
S'title'
p3646
sg3622
S''
sg3624
S'NO'
p3647
sg3626
S'varchar(128)'
p3648
sa(lp3649
(dp3650
S'Comment'
p3651
S''
sS'Non_unique'
p3652
L0L
sS'Sub_part'
p3653
NsS'Index_type'
p3654
S'BTREE'
p3655
sS'Key_name'
p3656
S'PRIMARY'
p3657
sS'Collation'
p3658
S'A'
sS'Null'
p3659
S''
sS'Seq_in_index'
p3660
L1L
sS'Table'
p3661
S'whine_queries'
p3662
sS'Cardinality'
p3663
L0L
sS'Packed'
p3664
NsS'Column_name'
p3665
S'id'
p3666
sa(dp3667
g3651
S''
sg3652
L1L
sg3653
Nsg3654
S'BTREE'
p3668
sg3656
S'whine_queries_eventid_idx'
p3669
sg3658
S'A'
sg3659
S''
sg3660
L1L
sg3661
S'whine_queries'
p3670
sg3663
L0L
sg3664
Nsg3665
S'eventid'
p3671
satp3672
sS'profile_setting'
p3673
((lp3674
(dp3675
S'Extra'
p3676
S''
sS'Default'
p3677
S''
sS'Field'
p3678
S'user_id'
p3679
sS'Key'
p3680
S'PRI'
p3681
sS'Null'
p3682
S'NO'
p3683
sS'Type'
p3684
S'mediumint(9)'
p3685
sa(dp3686
g3676
S''
sg3677
S''
sg3678
S'setting_name'
p3687
sg3680
S'PRI'
p3688
sg3682
S'NO'
p3689
sg3684
S'varchar(32)'
p3690
sa(dp3691
g3676
S''
sg3677
S''
sg3678
S'setting_value'
p3692
sg3680
S''
sg3682
S'NO'
p3693
sg3684
S'varchar(32)'
p3694
sa(lp3695
(dp3696
S'Comment'
p3697
S''
sS'Non_unique'
p3698
L0L
sS'Sub_part'
p3699
NsS'Index_type'
p3700
S'BTREE'
p3701
sS'Key_name'
p3702
S'profile_setting_value_unique_idx'
p3703
sS'Collation'
p3704
S'A'
sS'Null'
p3705
S''
sS'Seq_in_index'
p3706
L1L
sS'Table'
p3707
S'profile_setting'
p3708
sS'Cardinality'
p3709
L0L
sS'Packed'
p3710
NsS'Column_name'
p3711
S'user_id'
p3712
sa(dp3713
g3697
S''
sg3698
L0L
sg3699
Nsg3700
S'BTREE'
p3714
sg3702
S'profile_setting_value_unique_idx'
p3715
sg3704
S'A'
sg3705
S''
sg3706
L2L
sg3707
S'profile_setting'
p3716
sg3709
L0L
sg3710
Nsg3711
S'setting_name'
p3717
satp3718
sS'setting_value'
p3719
((lp3720
(dp3721
S'Extra'
p3722
S''
sS'Default'
p3723
S''
sS'Field'
p3724
S'name'
p3725
sS'Key'
p3726
S'PRI'
p3727
sS'Null'
p3728
S'NO'
p3729
sS'Type'
p3730
S'varchar(32)'
p3731
sa(dp3732
g3722
S''
sg3723
S''
sg3724
S'value'
p3733
sg3726
S'PRI'
p3734
sg3728
S'NO'
p3735
sg3730
S'varchar(32)'
p3736
sa(dp3737
g3722
S''
sg3723
S''
sg3724
S'sortindex'
p3738
sg3726
S''
sg3728
S'NO'
p3739
sg3730
S'smallint(6)'
p3740
sa(lp3741
(dp3742
S'Comment'
p3743
S''
sS'Non_unique'
p3744
L0L
sS'Sub_part'
p3745
NsS'Index_type'
p3746
S'BTREE'
p3747
sS'Key_name'
p3748
S'setting_value_nv_unique_idx'
p3749
sS'Collation'
p3750
S'A'
sS'Null'
p3751
S''
sS'Seq_in_index'
p3752
L1L
sS'Table'
p3753
S'setting_value'
p3754
sS'Cardinality'
p3755
L20L
sS'Packed'
p3756
NsS'Column_name'
p3757
S'name'
p3758
sa(dp3759
g3743
S''
sg3744
L0L
sg3745
Nsg3746
S'BTREE'
p3760
sg3748
S'setting_value_nv_unique_idx'
p3761
sg3750
S'A'
sg3751
S''
sg3752
L2L
sg3753
S'setting_value'
p3762
sg3755
L20L
sg3756
Nsg3757
S'value'
p3763
sa(dp3764
g3743
S''
sg3744
L0L
sg3745
Nsg3746
S'BTREE'
p3765
sg3748
S'setting_value_ns_unique_idx'
p3766
sg3750
S'A'
sg3751
S''
sg3752
L1L
sg3753
S'setting_value'
p3767
sg3755
L20L
sg3756
Nsg3757
S'name'
p3768
sa(dp3769
g3743
S''
sg3744
L0L
sg3745
Nsg3746
S'BTREE'
p3770
sg3748
S'setting_value_ns_unique_idx'
p3771
sg3750
S'A'
sg3751
S''
sg3752
L2L
sg3753
S'setting_value'
p3772
sg3755
L20L
sg3756
Nsg3757
S'sortindex'
p3773
satp3774
sS'resolution'
p3775
((lp3776
(dp3777
S'Extra'
p3778
S'auto_increment'
p3779
sS'Default'
p3780
NsS'Field'
p3781
S'id'
p3782
sS'Key'
p3783
S'PRI'
p3784
sS'Null'
p3785
S'NO'
p3786
sS'Type'
p3787
S'smallint(6)'
p3788
sa(dp3789
g3778
S''
sg3780
S''
sg3781
S'value'
p3790
sg3783
S'UNI'
p3791
sg3785
S'NO'
p3792
sg3787
S'varchar(64)'
p3793
sa(dp3794
g3778
S''
sg3780
S'0'
sg3781
S'sortkey'
p3795
sg3783
S'MUL'
p3796
sg3785
S'NO'
p3797
sg3787
S'smallint(6)'
p3798
sa(dp3799
g3778
S''
sg3780
S'1'
sg3781
S'isactive'
p3800
sg3783
S''
sg3785
S'NO'
p3801
sg3787
S'tinyint(4)'
p3802
sa(dp3803
g3778
S''
sg3780
Nsg3781
S'visibility_value_id'
p3804
sg3783
S'MUL'
p3805
sg3785
S'YES'
p3806
sg3787
S'smallint(6)'
p3807
sa(lp3808
(dp3809
S'Comment'
p3810
S''
sS'Non_unique'
p3811
L0L
sS'Sub_part'
p3812
NsS'Index_type'
p3813
S'BTREE'
p3814
sS'Key_name'
p3815
S'PRIMARY'
p3816
sS'Collation'
p3817
S'A'
sS'Null'
p3818
S''
sS'Seq_in_index'
p3819
L1L
sS'Table'
p3820
S'resolution'
p3821
sS'Cardinality'
p3822
L7L
sS'Packed'
p3823
NsS'Column_name'
p3824
S'id'
p3825
sa(dp3826
g3810
S''
sg3811
L0L
sg3812
Nsg3813
S'BTREE'
p3827
sg3815
S'resolution_value_idx'
p3828
sg3817
S'A'
sg3818
S''
sg3819
L1L
sg3820
S'resolution'
p3829
sg3822
L7L
sg3823
Nsg3824
S'value'
p3830
sa(dp3831
g3810
S''
sg3811
L1L
sg3812
Nsg3813
S'BTREE'
p3832
sg3815
S'resolution_sortkey_idx'
p3833
sg3817
S'A'
sg3818
S''
sg3819
L1L
sg3820
S'resolution'
p3834
sg3822
L7L
sg3823
Nsg3824
S'sortkey'
p3835
sa(dp3836
g3810
S''
sg3811
L1L
sg3812
Nsg3813
S'BTREE'
p3837
sg3815
S'resolution_sortkey_idx'
p3838
sg3817
S'A'
sg3818
S''
sg3819
L2L
sg3820
S'resolution'
p3839
sg3822
L7L
sg3823
Nsg3824
S'value'
p3840
sa(dp3841
g3810
S''
sg3811
L1L
sg3812
Nsg3813
S'BTREE'
p3842
sg3815
S'resolution_visibility_value_id_idx'
p3843
sg3817
S'A'
sg3818
S'YES'
p3844
sg3819
L1L
sg3820
S'resolution'
p3845
sg3822
L7L
sg3823
Nsg3824
S'visibility_value_id'
p3846
satp3847
sS'op_sys'
p3848
((lp3849
(dp3850
S'Extra'
p3851
S'auto_increment'
p3852
sS'Default'
p3853
NsS'Field'
p3854
S'id'
p3855
sS'Key'
p3856
S'PRI'
p3857
sS'Null'
p3858
S'NO'
p3859
sS'Type'
p3860
S'smallint(6)'
p3861
sa(dp3862
g3851
S''
sg3853
S''
sg3854
S'value'
p3863
sg3856
S'UNI'
p3864
sg3858
S'NO'
p3865
sg3860
S'varchar(64)'
p3866
sa(dp3867
g3851
S''
sg3853
S'0'
sg3854
S'sortkey'
p3868
sg3856
S'MUL'
p3869
sg3858
S'NO'
p3870
sg3860
S'smallint(6)'
p3871
sa(dp3872
g3851
S''
sg3853
S'1'
sg3854
S'isactive'
p3873
sg3856
S''
sg3858
S'NO'
p3874
sg3860
S'tinyint(4)'
p3875
sa(dp3876
g3851
S''
sg3853
Nsg3854
S'visibility_value_id'
p3877
sg3856
S'MUL'
p3878
sg3858
S'YES'
p3879
sg3860
S'smallint(6)'
p3880
sa(lp3881
(dp3882
S'Comment'
p3883
S''
sS'Non_unique'
p3884
L0L
sS'Sub_part'
p3885
NsS'Index_type'
p3886
S'BTREE'
p3887
sS'Key_name'
p3888
S'PRIMARY'
p3889
sS'Collation'
p3890
S'A'
sS'Null'
p3891
S''
sS'Seq_in_index'
p3892
L1L
sS'Table'
p3893
S'op_sys'
p3894
sS'Cardinality'
p3895
L5L
sS'Packed'
p3896
NsS'Column_name'
p3897
S'id'
p3898
sa(dp3899
g3883
S''
sg3884
L0L
sg3885
Nsg3886
S'BTREE'
p3900
sg3888
S'op_sys_value_idx'
p3901
sg3890
S'A'
sg3891
S''
sg3892
L1L
sg3893
S'op_sys'
p3902
sg3895
L5L
sg3896
Nsg3897
S'value'
p3903
sa(dp3904
g3883
S''
sg3884
L1L
sg3885
Nsg3886
S'BTREE'
p3905
sg3888
S'op_sys_sortkey_idx'
p3906
sg3890
S'A'
sg3891
S''
sg3892
L1L
sg3893
S'op_sys'
p3907
sg3895
L5L
sg3896
Nsg3897
S'sortkey'
p3908
sa(dp3909
g3883
S''
sg3884
L1L
sg3885
Nsg3886
S'BTREE'
p3910
sg3888
S'op_sys_sortkey_idx'
p3911
sg3890
S'A'
sg3891
S''
sg3892
L2L
sg3893
S'op_sys'
p3912
sg3895
L5L
sg3896
Nsg3897
S'value'
p3913
sa(dp3914
g3883
S''
sg3884
L1L
sg3885
Nsg3886
S'BTREE'
p3915
sg3888
S'op_sys_visibility_value_id_idx'
p3916
sg3890
S'A'
sg3891
S'YES'
p3917
sg3892
L1L
sg3893
S'op_sys'
p3918
sg3895
L5L
sg3896
Nsg3897
S'visibility_value_id'
p3919
satp3920
sS'group_group_map'
p3921
((lp3922
(dp3923
S'Extra'
p3924
S''
sS'Default'
p3925
S''
sS'Field'
p3926
S'member_id'
p3927
sS'Key'
p3928
S'PRI'
p3929
sS'Null'
p3930
S'NO'
p3931
sS'Type'
p3932
S'mediumint(9)'
p3933
sa(dp3934
g3924
S''
sg3925
S''
sg3926
S'grantor_id'
p3935
sg3928
S'PRI'
p3936
sg3930
S'NO'
p3937
sg3932
S'mediumint(9)'
p3938
sa(dp3939
g3924
S''
sg3925
S'0'
sg3926
S'grant_type'
p3940
sg3928
S'PRI'
p3941
sg3930
S'NO'
p3942
sg3932
S'tinyint(4)'
p3943
sa(lp3944
(dp3945
S'Comment'
p3946
S''
sS'Non_unique'
p3947
L0L
sS'Sub_part'
p3948
NsS'Index_type'
p3949
S'BTREE'
p3950
sS'Key_name'
p3951
S'group_group_map_member_id_idx'
p3952
sS'Collation'
p3953
S'A'
sS'Null'
p3954
S''
sS'Seq_in_index'
p3955
L1L
sS'Table'
p3956
S'group_group_map'
p3957
sS'Cardinality'
p3958
L41L
sS'Packed'
p3959
NsS'Column_name'
p3960
S'member_id'
p3961
sa(dp3962
g3946
S''
sg3947
L0L
sg3948
Nsg3949
S'BTREE'
p3963
sg3951
S'group_group_map_member_id_idx'
p3964
sg3953
S'A'
sg3954
S''
sg3955
L2L
sg3956
S'group_group_map'
p3965
sg3958
L41L
sg3959
Nsg3960
S'grantor_id'
p3966
sa(dp3967
g3946
S''
sg3947
L0L
sg3948
Nsg3949
S'BTREE'
p3968
sg3951
S'group_group_map_member_id_idx'
p3969
sg3953
S'A'
sg3954
S''
sg3955
L3L
sg3956
S'group_group_map'
p3970
sg3958
L41L
sg3959
Nsg3960
S'grant_type'
p3971
sa(dp3972
g3946
S''
sg3947
L1L
sg3948
Nsg3949
S'BTREE'
p3973
sg3951
S'fk_group_group_map_grantor_id_groups_id'
p3974
sg3953
S'A'
sg3954
S''
sg3955
L1L
sg3956
S'group_group_map'
p3975
sg3958
L41L
sg3959
Nsg3960
S'grantor_id'
p3976
satp3977
st.