(S'3.3.1'
p1
(dp2
S'ts_job'
p3
((lp4
(dp5
S'Extra'
p6
S'auto_increment'
p7
sS'Default'
p8
NsS'Field'
p9
S'jobid'
p10
sS'Key'
p11
S'PRI'
p12
sS'Null'
p13
S'NO'
p14
sS'Type'
p15
S'int(11)'
p16
sa(dp17
g6
S''
sg8
S''
sg9
S'funcid'
p18
sg11
S'MUL'
p19
sg13
S'NO'
p20
sg15
S'int(11)'
p21
sa(dp22
g6
S''
sg8
Nsg9
S'arg'
p23
sg11
S''
sg13
S'YES'
p24
sg15
S'longblob'
p25
sa(dp26
g6
S''
sg8
Nsg9
S'uniqkey'
p27
sg11
S''
sg13
S'YES'
p28
sg15
S'varchar(255)'
p29
sa(dp30
g6
S''
sg8
Nsg9
S'insert_time'
p31
sg11
S''
sg13
S'YES'
p32
sg15
S'int(11)'
p33
sa(dp34
g6
S''
sg8
S''
sg9
S'run_after'
p35
sg11
S'MUL'
p36
sg13
S'NO'
p37
sg15
S'int(11)'
p38
sa(dp39
g6
S''
sg8
S''
sg9
S'grabbed_until'
p40
sg11
S''
sg13
S'NO'
p41
sg15
S'int(11)'
p42
sa(dp43
g6
S''
sg8
Nsg9
S'priority'
p44
sg11
S''
sg13
S'YES'
p45
sg15
S'smallint(6)'
p46
sa(dp47
g6
S''
sg8
Nsg9
S'coalesce'
p48
sg11
S'MUL'
p49
sg13
S'YES'
p50
sg15
S'varchar(255)'
p51
sa(lp52
(dp53
S'Comment'
p54
S''
sS'Non_unique'
p55
L0L
sS'Sub_part'
p56
NsS'Index_type'
p57
S'BTREE'
p58
sS'Key_name'
p59
S'PRIMARY'
p60
sS'Collation'
p61
S'A'
sS'Null'
p62
S''
sS'Seq_in_index'
p63
L1L
sS'Table'
p64
S'ts_job'
p65
sS'Cardinality'
p66
L0L
sS'Packed'
p67
NsS'Column_name'
p68
S'jobid'
p69
sa(dp70
g54
S''
sg55
L0L
sg56
Nsg57
S'BTREE'
p71
sg59
S'ts_job_funcid_idx'
p72
sg61
S'A'
sg62
S''
sg63
L1L
sg64
S'ts_job'
p73
sg66
L0L
sg67
Nsg68
S'funcid'
p74
sa(dp75
g54
S''
sg55
L0L
sg56
Nsg57
S'BTREE'
p76
sg59
S'ts_job_funcid_idx'
p77
sg61
S'A'
sg62
S'YES'
p78
sg63
L2L
sg64
S'ts_job'
p79
sg66
L0L
sg67
Nsg68
S'uniqkey'
p80
sa(dp81
g54
S''
sg55
L1L
sg56
Nsg57
S'BTREE'
p82
sg59
S'ts_job_run_after_idx'
p83
sg61
S'A'
sg62
S''
sg63
L1L
sg64
S'ts_job'
p84
sg66
L0L
sg67
Nsg68
S'run_after'
p85
sa(dp86
g54
S''
sg55
L1L
sg56
Nsg57
S'BTREE'
p87
sg59
S'ts_job_run_after_idx'
p88
sg61
S'A'
sg62
S''
sg63
L2L
sg64
S'ts_job'
p89
sg66
L0L
sg67
Nsg68
S'funcid'
p90
sa(dp91
g54
S''
sg55
L1L
sg56
Nsg57
S'BTREE'
p92
sg59
S'ts_job_coalesce_idx'
p93
sg61
S'A'
sg62
S'YES'
p94
sg63
L1L
sg64
S'ts_job'
p95
sg66
L0L
sg67
Nsg68
S'coalesce'
p96
sa(dp97
g54
S''
sg55
L1L
sg56
Nsg57
S'BTREE'
p98
sg59
S'ts_job_coalesce_idx'
p99
sg61
S'A'
sg62
S''
sg63
L2L
sg64
S'ts_job'
p100
sg66
L0L
sg67
Nsg68
S'funcid'
p101
satp102
sS'bug_group_map'
p103
((lp104
(dp105
S'Extra'
p106
S''
sS'Default'
p107
S''
sS'Field'
p108
S'bug_id'
p109
sS'Key'
p110
S'PRI'
p111
sS'Null'
p112
S'NO'
p113
sS'Type'
p114
S'mediumint(9)'
p115
sa(dp116
g106
S''
sg107
S''
sg108
S'group_id'
p117
sg110
S'PRI'
p118
sg112
S'NO'
p119
sg114
S'mediumint(9)'
p120
sa(lp121
(dp122
S'Comment'
p123
S''
sS'Non_unique'
p124
L0L
sS'Sub_part'
p125
NsS'Index_type'
p126
S'BTREE'
p127
sS'Key_name'
p128
S'bug_group_map_bug_id_idx'
p129
sS'Collation'
p130
S'A'
sS'Null'
p131
S''
sS'Seq_in_index'
p132
L1L
sS'Table'
p133
S'bug_group_map'
p134
sS'Cardinality'
p135
L0L
sS'Packed'
p136
NsS'Column_name'
p137
S'bug_id'
p138
sa(dp139
g123
S''
sg124
L0L
sg125
Nsg126
S'BTREE'
p140
sg128
S'bug_group_map_bug_id_idx'
p141
sg130
S'A'
sg131
S''
sg132
L2L
sg133
S'bug_group_map'
p142
sg135
L0L
sg136
Nsg137
S'group_id'
p143
sa(dp144
g123
S''
sg124
L1L
sg125
Nsg126
S'BTREE'
p145
sg128
S'bug_group_map_group_id_idx'
p146
sg130
S'A'
sg131
S''
sg132
L1L
sg133
S'bug_group_map'
p147
sg135
L0L
sg136
Nsg137
S'group_id'
p148
satp149
sS'attachments'
p150
((lp151
(dp152
S'Extra'
p153
S'auto_increment'
p154
sS'Default'
p155
NsS'Field'
p156
S'attach_id'
p157
sS'Key'
p158
S'PRI'
p159
sS'Null'
p160
S'NO'
p161
sS'Type'
p162
S'mediumint(9)'
p163
sa(dp164
g153
S''
sg155
S''
sg156
S'bug_id'
p165
sg158
S'MUL'
p166
sg160
S'NO'
p167
sg162
S'mediumint(9)'
p168
sa(dp169
g153
S''
sg155
S''
sg156
S'creation_ts'
p170
sg158
S'MUL'
p171
sg160
S'NO'
p172
sg162
S'datetime'
p173
sa(dp174
g153
S''
sg155
S''
sg156
S'modification_time'
p175
sg158
S'MUL'
p176
sg160
S'NO'
p177
sg162
S'datetime'
p178
sa(dp179
g153
S''
sg155
S''
sg156
S'description'
p180
sg158
S''
sg160
S'NO'
p181
sg162
S'tinytext'
p182
sa(dp183
g153
S''
sg155
S''
sg156
S'mimetype'
p184
sg158
S''
sg160
S'NO'
p185
sg162
S'tinytext'
p186
sa(dp187
g153
S''
sg155
Nsg156
S'ispatch'
p188
sg158
S''
sg160
S'YES'
p189
sg162
S'tinyint(4)'
p190
sa(dp191
g153
S''
sg155
S''
sg156
S'filename'
p192
sg158
S''
sg160
S'NO'
p193
sg162
S'varchar(100)'
p194
sa(dp195
g153
S''
sg155
S''
sg156
S'submitter_id'
p196
sg158
S'MUL'
p197
sg160
S'NO'
p198
sg162
S'mediumint(9)'
p199
sa(dp200
g153
S''
sg155
S'0'
sg156
S'isobsolete'
p201
sg158
S''
sg160
S'NO'
p202
sg162
S'tinyint(4)'
p203
sa(dp204
g153
S''
sg155
S'0'
sg156
S'isprivate'
p205
sg158
S''
sg160
S'NO'
p206
sg162
S'tinyint(4)'
p207
sa(dp208
g153
S''
sg155
S'0'
sg156
S'isurl'
p209
sg158
S''
sg160
S'NO'
p210
sg162
S'tinyint(4)'
p211
sa(lp212
(dp213
S'Comment'
p214
S''
sS'Non_unique'
p215
L0L
sS'Sub_part'
p216
NsS'Index_type'
p217
S'BTREE'
p218
sS'Key_name'
p219
S'PRIMARY'
p220
sS'Collation'
p221
S'A'
sS'Null'
p222
S''
sS'Seq_in_index'
p223
L1L
sS'Table'
p224
S'attachments'
p225
sS'Cardinality'
p226
L0L
sS'Packed'
p227
NsS'Column_name'
p228
S'attach_id'
p229
sa(dp230
g214
S''
sg215
L1L
sg216
Nsg217
S'BTREE'
p231
sg219
S'attachments_bug_id_idx'
p232
sg221
S'A'
sg222
S''
sg223
L1L
sg224
S'attachments'
p233
sg226
L0L
sg227
Nsg228
S'bug_id'
p234
sa(dp235
g214
S''
sg215
L1L
sg216
Nsg217
S'BTREE'
p236
sg219
S'attachments_creation_ts_idx'
p237
sg221
S'A'
sg222
S''
sg223
L1L
sg224
S'attachments'
p238
sg226
L0L
sg227
Nsg228
S'creation_ts'
p239
sa(dp240
g214
S''
sg215
L1L
sg216
Nsg217
S'BTREE'
p241
sg219
S'attachments_modification_time_idx'
p242
sg221
S'A'
sg222
S''
sg223
L1L
sg224
S'attachments'
p243
sg226
L0L
sg227
Nsg228
S'modification_time'
p244
sa(dp245
g214
S''
sg215
L1L
sg216
Nsg217
S'BTREE'
p246
sg219
S'attachments_submitter_id_idx'
p247
sg221
S'A'
sg222
S''
sg223
L1L
sg224
S'attachments'
p248
sg226
L0L
sg227
Nsg228
S'submitter_id'
p249
sa(dp250
g214
S''
sg215
L1L
sg216
Nsg217
S'BTREE'
p251
sg219
S'attachments_submitter_id_idx'
p252
sg221
S'A'
sg222
S''
sg223
L2L
sg224
S'attachments'
p253
sg226
L0L
sg227
Nsg228
S'bug_id'
p254
satp255
sS'namedqueries_link_in_footer'
p256
((lp257
(dp258
S'Extra'
p259
S''
sS'Default'
p260
S''
sS'Field'
p261
S'namedquery_id'
p262
sS'Key'
p263
S'PRI'
p264
sS'Null'
p265
S'NO'
p266
sS'Type'
p267
S'mediumint(9)'
p268
sa(dp269
g259
S''
sg260
S''
sg261
S'user_id'
p270
sg263
S'PRI'
p271
sg265
S'NO'
p272
sg267
S'mediumint(9)'
p273
sa(lp274
(dp275
S'Comment'
p276
S''
sS'Non_unique'
p277
L0L
sS'Sub_part'
p278
NsS'Index_type'
p279
S'BTREE'
p280
sS'Key_name'
p281
S'namedqueries_link_in_footer_id_idx'
p282
sS'Collation'
p283
S'A'
sS'Null'
p284
S''
sS'Seq_in_index'
p285
L1L
sS'Table'
p286
S'namedqueries_link_in_footer'
p287
sS'Cardinality'
p288
L0L
sS'Packed'
p289
NsS'Column_name'
p290
S'namedquery_id'
p291
sa(dp292
g276
S''
sg277
L0L
sg278
Nsg279
S'BTREE'
p293
sg281
S'namedqueries_link_in_footer_id_idx'
p294
sg283
S'A'
sg284
S''
sg285
L2L
sg286
S'namedqueries_link_in_footer'
p295
sg288
L0L
sg289
Nsg290
S'user_id'
p296
sa(dp297
g276
S''
sg277
L1L
sg278
Nsg279
S'BTREE'
p298
sg281
S'namedqueries_link_in_footer_userid_idx'
p299
sg283
S'A'
sg284
S''
sg285
L1L
sg286
S'namedqueries_link_in_footer'
p300
sg288
L0L
sg289
Nsg290
S'user_id'
p301
satp302
sS'duplicates'
p303
((lp304
(dp305
S'Extra'
p306
S''
sS'Default'
p307
S''
sS'Field'
p308
S'dupe_of'
p309
sS'Key'
p310
S'MUL'
p311
sS'Null'
p312
S'NO'
p313
sS'Type'
p314
S'mediumint(9)'
p315
sa(dp316
g306
S''
sg307
S''
sg308
S'dupe'
p317
sg310
S'PRI'
p318
sg312
S'NO'
p319
sg314
S'mediumint(9)'
p320
sa(lp321
(dp322
S'Comment'
p323
S''
sS'Non_unique'
p324
L0L
sS'Sub_part'
p325
NsS'Index_type'
p326
S'BTREE'
p327
sS'Key_name'
p328
S'PRIMARY'
p329
sS'Collation'
p330
S'A'
sS'Null'
p331
S''
sS'Seq_in_index'
p332
L1L
sS'Table'
p333
S'duplicates'
p334
sS'Cardinality'
p335
L0L
sS'Packed'
p336
NsS'Column_name'
p337
S'dupe'
p338
sa(dp339
g323
S''
sg324
L1L
sg325
Nsg326
S'BTREE'
p340
sg328
S'fk_duplicates_dupe_of_bugs_bug_id'
p341
sg330
S'A'
sg331
S''
sg332
L1L
sg333
S'duplicates'
p342
sg335
L0L
sg336
Nsg337
S'dupe_of'
p343
satp344
sS'rep_platform'
p345
((lp346
(dp347
S'Extra'
p348
S'auto_increment'
p349
sS'Default'
p350
NsS'Field'
p351
S'id'
p352
sS'Key'
p353
S'PRI'
p354
sS'Null'
p355
S'NO'
p356
sS'Type'
p357
S'smallint(6)'
p358
sa(dp359
g348
S''
sg350
S''
sg351
S'value'
p360
sg353
S'UNI'
p361
sg355
S'NO'
p362
sg357
S'varchar(64)'
p363
sa(dp364
g348
S''
sg350
S'0'
sg351
S'sortkey'
p365
sg353
S'MUL'
p366
sg355
S'NO'
p367
sg357
S'smallint(6)'
p368
sa(dp369
g348
S''
sg350
S'1'
sg351
S'isactive'
p370
sg353
S''
sg355
S'NO'
p371
sg357
S'tinyint(4)'
p372
sa(dp373
g348
S''
sg350
Nsg351
S'visibility_value_id'
p374
sg353
S'MUL'
p375
sg355
S'YES'
p376
sg357
S'smallint(6)'
p377
sa(lp378
(dp379
S'Comment'
p380
S''
sS'Non_unique'
p381
L0L
sS'Sub_part'
p382
NsS'Index_type'
p383
S'BTREE'
p384
sS'Key_name'
p385
S'PRIMARY'
p386
sS'Collation'
p387
S'A'
sS'Null'
p388
S''
sS'Seq_in_index'
p389
L1L
sS'Table'
p390
S'rep_platform'
p391
sS'Cardinality'
p392
L4L
sS'Packed'
p393
NsS'Column_name'
p394
S'id'
p395
sa(dp396
g380
S''
sg381
L0L
sg382
Nsg383
S'BTREE'
p397
sg385
S'rep_platform_value_idx'
p398
sg387
S'A'
sg388
S''
sg389
L1L
sg390
S'rep_platform'
p399
sg392
L4L
sg393
Nsg394
S'value'
p400
sa(dp401
g380
S''
sg381
L1L
sg382
Nsg383
S'BTREE'
p402
sg385
S'rep_platform_sortkey_idx'
p403
sg387
S'A'
sg388
S''
sg389
L1L
sg390
S'rep_platform'
p404
sg392
L4L
sg393
Nsg394
S'sortkey'
p405
sa(dp406
g380
S''
sg381
L1L
sg382
Nsg383
S'BTREE'
p407
sg385
S'rep_platform_sortkey_idx'
p408
sg387
S'A'
sg388
S''
sg389
L2L
sg390
S'rep_platform'
p409
sg392
L4L
sg393
Nsg394
S'value'
p410
sa(dp411
g380
S''
sg381
L1L
sg382
Nsg383
S'BTREE'
p412
sg385
S'rep_platform_visibility_value_id_idx'
p413
sg387
S'A'
sg388
S'YES'
p414
sg389
L1L
sg390
S'rep_platform'
p415
sg392
L4L
sg393
Nsg394
S'visibility_value_id'
p416
satp417
sS'quips'
p418
((lp419
(dp420
S'Extra'
p421
S'auto_increment'
p422
sS'Default'
p423
NsS'Field'
p424
S'quipid'
p425
sS'Key'
p426
S'PRI'
p427
sS'Null'
p428
S'NO'
p429
sS'Type'
p430
S'mediumint(9)'
p431
sa(dp432
g421
S''
sg423
Nsg424
S'userid'
p433
sg426
S'MUL'
p434
sg428
S'YES'
p435
sg430
S'mediumint(9)'
p436
sa(dp437
g421
S''
sg423
S''
sg424
S'quip'
p438
sg426
S''
sg428
S'NO'
p439
sg430
S'mediumtext'
p440
sa(dp441
g421
S''
sg423
S'1'
sg424
S'approved'
p442
sg426
S''
sg428
S'NO'
p443
sg430
S'tinyint(4)'
p444
sa(lp445
(dp446
S'Comment'
p447
S''
sS'Non_unique'
p448
L0L
sS'Sub_part'
p449
NsS'Index_type'
p450
S'BTREE'
p451
sS'Key_name'
p452
S'PRIMARY'
p453
sS'Collation'
p454
S'A'
sS'Null'
p455
S''
sS'Seq_in_index'
p456
L1L
sS'Table'
p457
S'quips'
p458
sS'Cardinality'
p459
L0L
sS'Packed'
p460
NsS'Column_name'
p461
S'quipid'
p462
sa(dp463
g447
S''
sg448
L1L
sg449
Nsg450
S'BTREE'
p464
sg452
S'fk_quips_userid_profiles_userid'
p465
sg454
S'A'
sg455
S'YES'
p466
sg456
L1L
sg457
S'quips'
p467
sg459
L0L
sg460
Nsg461
S'userid'
p468
satp469
sS'series_categories'
p470
((lp471
(dp472
S'Extra'
p473
S'auto_increment'
p474
sS'Default'
p475
NsS'Field'
p476
S'id'
p477
sS'Key'
p478
S'PRI'
p479
sS'Null'
p480
S'NO'
p481
sS'Type'
p482
S'smallint(6)'
p483
sa(dp484
g473
S''
sg475
S''
sg476
S'name'
p485
sg478
S'UNI'
p486
sg480
S'NO'
p487
sg482
S'varchar(64)'
p488
sa(lp489
(dp490
S'Comment'
p491
S''
sS'Non_unique'
p492
L0L
sS'Sub_part'
p493
NsS'Index_type'
p494
S'BTREE'
p495
sS'Key_name'
p496
S'PRIMARY'
p497
sS'Collation'
p498
S'A'
sS'Null'
p499
S''
sS'Seq_in_index'
p500
L1L
sS'Table'
p501
S'series_categories'
p502
sS'Cardinality'
p503
L0L
sS'Packed'
p504
NsS'Column_name'
p505
S'id'
p506
sa(dp507
g491
S''
sg492
L0L
sg493
Nsg494
S'BTREE'
p508
sg496
S'series_categories_name_idx'
p509
sg498
S'A'
sg499
S''
sg500
L1L
sg501
S'series_categories'
p510
sg503
L0L
sg504
Nsg505
S'name'
p511
satp512
sS'group_control_map'
p513
((lp514
(dp515
S'Extra'
p516
S''
sS'Default'
p517
S''
sS'Field'
p518
S'group_id'
p519
sS'Key'
p520
S'PRI'
p521
sS'Null'
p522
S'NO'
p523
sS'Type'
p524
S'mediumint(9)'
p525
sa(dp526
g516
S''
sg517
S''
sg518
S'product_id'
p527
sg520
S'PRI'
p528
sg522
S'NO'
p529
sg524
S'smallint(6)'
p530
sa(dp531
g516
S''
sg517
S''
sg518
S'entry'
p532
sg520
S''
sg522
S'NO'
p533
sg524
S'tinyint(4)'
p534
sa(dp535
g516
S''
sg517
S''
sg518
S'membercontrol'
p536
sg520
S''
sg522
S'NO'
p537
sg524
S'tinyint(4)'
p538
sa(dp539
g516
S''
sg517
S''
sg518
S'othercontrol'
p540
sg520
S''
sg522
S'NO'
p541
sg524
S'tinyint(4)'
p542
sa(dp543
g516
S''
sg517
S''
sg518
S'canedit'
p544
sg520
S''
sg522
S'NO'
p545
sg524
S'tinyint(4)'
p546
sa(dp547
g516
S''
sg517
S'0'
sg518
S'editcomponents'
p548
sg520
S''
sg522
S'NO'
p549
sg524
S'tinyint(4)'
p550
sa(dp551
g516
S''
sg517
S'0'
sg518
S'editbugs'
p552
sg520
S''
sg522
S'NO'
p553
sg524
S'tinyint(4)'
p554
sa(dp555
g516
S''
sg517
S'0'
sg518
S'canconfirm'
p556
sg520
S''
sg522
S'NO'
p557
sg524
S'tinyint(4)'
p558
sa(lp559
(dp560
S'Comment'
p561
S''
sS'Non_unique'
p562
L0L
sS'Sub_part'
p563
NsS'Index_type'
p564
S'BTREE'
p565
sS'Key_name'
p566
S'group_control_map_product_id_idx'
p567
sS'Collation'
p568
S'A'
sS'Null'
p569
S''
sS'Seq_in_index'
p570
L1L
sS'Table'
p571
S'group_control_map'
p572
sS'Cardinality'
p573
L0L
sS'Packed'
p574
NsS'Column_name'
p575
S'product_id'
p576
sa(dp577
g561
S''
sg562
L0L
sg563
Nsg564
S'BTREE'
p578
sg566
S'group_control_map_product_id_idx'
p579
sg568
S'A'
sg569
S''
sg570
L2L
sg571
S'group_control_map'
p580
sg573
L0L
sg574
Nsg575
S'group_id'
p581
sa(dp582
g561
S''
sg562
L1L
sg563
Nsg564
S'BTREE'
p583
sg566
S'group_control_map_group_id_idx'
p584
sg568
S'A'
sg569
S''
sg570
L1L
sg571
S'group_control_map'
p585
sg573
L0L
sg574
Nsg575
S'group_id'
p586
satp587
sS'component_cc'
p588
((lp589
(dp590
S'Extra'
p591
S''
sS'Default'
p592
S''
sS'Field'
p593
S'user_id'
p594
sS'Key'
p595
S'PRI'
p596
sS'Null'
p597
S'NO'
p598
sS'Type'
p599
S'mediumint(9)'
p600
sa(dp601
g591
S''
sg592
S''
sg593
S'component_id'
p602
sg595
S'PRI'
p603
sg597
S'NO'
p604
sg599
S'smallint(6)'
p605
sa(lp606
(dp607
S'Comment'
p608
S''
sS'Non_unique'
p609
L0L
sS'Sub_part'
p610
NsS'Index_type'
p611
S'BTREE'
p612
sS'Key_name'
p613
S'component_cc_user_id_idx'
p614
sS'Collation'
p615
S'A'
sS'Null'
p616
S''
sS'Seq_in_index'
p617
L1L
sS'Table'
p618
S'component_cc'
p619
sS'Cardinality'
p620
L0L
sS'Packed'
p621
NsS'Column_name'
p622
S'component_id'
p623
sa(dp624
g608
S''
sg609
L0L
sg610
Nsg611
S'BTREE'
p625
sg613
S'component_cc_user_id_idx'
p626
sg615
S'A'
sg616
S''
sg617
L2L
sg618
S'component_cc'
p627
sg620
L0L
sg621
Nsg622
S'user_id'
p628
sa(dp629
g608
S''
sg609
L1L
sg610
Nsg611
S'BTREE'
p630
sg613
S'fk_component_cc_user_id_profiles_userid'
p631
sg615
S'A'
sg616
S''
sg617
L1L
sg618
S'component_cc'
p632
sg620
L0L
sg621
Nsg622
S'user_id'
p633
satp634
sS'keywords'
p635
((lp636
(dp637
S'Extra'
p638
S''
sS'Default'
p639
S''
sS'Field'
p640
S'bug_id'
p641
sS'Key'
p642
S'PRI'
p643
sS'Null'
p644
S'NO'
p645
sS'Type'
p646
S'mediumint(9)'
p647
sa(dp648
g638
S''
sg639
S''
sg640
S'keywordid'
p649
sg642
S'PRI'
p650
sg644
S'NO'
p651
sg646
S'smallint(6)'
p652
sa(lp653
(dp654
S'Comment'
p655
S''
sS'Non_unique'
p656
L0L
sS'Sub_part'
p657
NsS'Index_type'
p658
S'BTREE'
p659
sS'Key_name'
p660
S'keywords_bug_id_idx'
p661
sS'Collation'
p662
S'A'
sS'Null'
p663
S''
sS'Seq_in_index'
p664
L1L
sS'Table'
p665
S'keywords'
p666
sS'Cardinality'
p667
L0L
sS'Packed'
p668
NsS'Column_name'
p669
S'bug_id'
p670
sa(dp671
g655
S''
sg656
L0L
sg657
Nsg658
S'BTREE'
p672
sg660
S'keywords_bug_id_idx'
p673
sg662
S'A'
sg663
S''
sg664
L2L
sg665
S'keywords'
p674
sg667
L0L
sg668
Nsg669
S'keywordid'
p675
sa(dp676
g655
S''
sg656
L1L
sg657
Nsg658
S'BTREE'
p677
sg660
S'keywords_keywordid_idx'
p678
sg662
S'A'
sg663
S''
sg664
L1L
sg665
S'keywords'
p679
sg667
L0L
sg668
Nsg669
S'keywordid'
p680
satp681
sS'series_data'
p682
((lp683
(dp684
S'Extra'
p685
S''
sS'Default'
p686
S''
sS'Field'
p687
S'series_id'
p688
sS'Key'
p689
S'PRI'
p690
sS'Null'
p691
S'NO'
p692
sS'Type'
p693
S'mediumint(9)'
p694
sa(dp695
g685
S''
sg686
S''
sg687
S'series_date'
p696
sg689
S'PRI'
p697
sg691
S'NO'
p698
sg693
S'datetime'
p699
sa(dp700
g685
S''
sg686
S''
sg687
S'series_value'
p701
sg689
S''
sg691
S'NO'
p702
sg693
S'mediumint(9)'
p703
sa(lp704
(dp705
S'Comment'
p706
S''
sS'Non_unique'
p707
L0L
sS'Sub_part'
p708
NsS'Index_type'
p709
S'BTREE'
p710
sS'Key_name'
p711
S'series_data_series_id_idx'
p712
sS'Collation'
p713
S'A'
sS'Null'
p714
S''
sS'Seq_in_index'
p715
L1L
sS'Table'
p716
S'series_data'
p717
sS'Cardinality'
p718
L0L
sS'Packed'
p719
NsS'Column_name'
p720
S'series_id'
p721
sa(dp722
g706
S''
sg707
L0L
sg708
Nsg709
S'BTREE'
p723
sg711
S'series_data_series_id_idx'
p724
sg713
S'A'
sg714
S''
sg715
L2L
sg716
S'series_data'
p725
sg718
L0L
sg719
Nsg720
S'series_date'
p726
satp727
sS'keyworddefs'
p728
((lp729
(dp730
S'Extra'
p731
S'auto_increment'
p732
sS'Default'
p733
NsS'Field'
p734
S'id'
p735
sS'Key'
p736
S'PRI'
p737
sS'Null'
p738
S'NO'
p739
sS'Type'
p740
S'smallint(6)'
p741
sa(dp742
g731
S''
sg733
S''
sg734
S'name'
p743
sg736
S'UNI'
p744
sg738
S'NO'
p745
sg740
S'varchar(64)'
p746
sa(dp747
g731
S''
sg733
Nsg734
S'description'
p748
sg736
S''
sg738
S'YES'
p749
sg740
S'mediumtext'
p750
sa(lp751
(dp752
S'Comment'
p753
S''
sS'Non_unique'
p754
L0L
sS'Sub_part'
p755
NsS'Index_type'
p756
S'BTREE'
p757
sS'Key_name'
p758
S'PRIMARY'
p759
sS'Collation'
p760
S'A'
sS'Null'
p761
S''
sS'Seq_in_index'
p762
L1L
sS'Table'
p763
S'keyworddefs'
p764
sS'Cardinality'
p765
L0L
sS'Packed'
p766
NsS'Column_name'
p767
S'id'
p768
sa(dp769
g753
S''
sg754
L0L
sg755
Nsg756
S'BTREE'
p770
sg758
S'keyworddefs_name_idx'
p771
sg760
S'A'
sg761
S''
sg762
L1L
sg763
S'keyworddefs'
p772
sg765
L0L
sg766
Nsg767
S'name'
p773
satp774
sS'ts_exitstatus'
p775
((lp776
(dp777
S'Extra'
p778
S'auto_increment'
p779
sS'Default'
p780
NsS'Field'
p781
S'jobid'
p782
sS'Key'
p783
S'PRI'
p784
sS'Null'
p785
S'NO'
p786
sS'Type'
p787
S'int(11)'
p788
sa(dp789
g778
S''
sg780
S'0'
sg781
S'funcid'
p790
sg783
S'MUL'
p791
sg785
S'NO'
p792
sg787
S'int(11)'
p793
sa(dp794
g778
S''
sg780
Nsg781
S'status'
p795
sg783
S''
sg785
S'YES'
p796
sg787
S'smallint(6)'
p797
sa(dp798
g778
S''
sg780
Nsg781
S'completion_time'
p799
sg783
S''
sg785
S'YES'
p800
sg787
S'int(11)'
p801
sa(dp802
g778
S''
sg780
Nsg781
S'delete_after'
p803
sg783
S'MUL'
p804
sg785
S'YES'
p805
sg787
S'int(11)'
p806
sa(lp807
(dp808
S'Comment'
p809
S''
sS'Non_unique'
p810
L0L
sS'Sub_part'
p811
NsS'Index_type'
p812
S'BTREE'
p813
sS'Key_name'
p814
S'PRIMARY'
p815
sS'Collation'
p816
S'A'
sS'Null'
p817
S''
sS'Seq_in_index'
p818
L1L
sS'Table'
p819
S'ts_exitstatus'
p820
sS'Cardinality'
p821
L0L
sS'Packed'
p822
NsS'Column_name'
p823
S'jobid'
p824
sa(dp825
g809
S''
sg810
L1L
sg811
Nsg812
S'BTREE'
p826
sg814
S'ts_exitstatus_funcid_idx'
p827
sg816
S'A'
sg817
S''
sg818
L1L
sg819
S'ts_exitstatus'
p828
sg821
L0L
sg822
Nsg823
S'funcid'
p829
sa(dp830
g809
S''
sg810
L1L
sg811
Nsg812
S'BTREE'
p831
sg814
S'ts_exitstatus_delete_after_idx'
p832
sg816
S'A'
sg817
S'YES'
p833
sg818
L1L
sg819
S'ts_exitstatus'
p834
sg821
L0L
sg822
Nsg823
S'delete_after'
p835
satp836
sS'namedquery_group_map'
p837
((lp838
(dp839
S'Extra'
p840
S''
sS'Default'
p841
S''
sS'Field'
p842
S'namedquery_id'
p843
sS'Key'
p844
S'PRI'
p845
sS'Null'
p846
S'NO'
p847
sS'Type'
p848
S'mediumint(9)'
p849
sa(dp850
g840
S''
sg841
S''
sg842
S'group_id'
p851
sg844
S'MUL'
p852
sg846
S'NO'
p853
sg848
S'mediumint(9)'
p854
sa(lp855
(dp856
S'Comment'
p857
S''
sS'Non_unique'
p858
L0L
sS'Sub_part'
p859
NsS'Index_type'
p860
S'BTREE'
p861
sS'Key_name'
p862
S'namedquery_group_map_namedquery_id_idx'
p863
sS'Collation'
p864
S'A'
sS'Null'
p865
S''
sS'Seq_in_index'
p866
L1L
sS'Table'
p867
S'namedquery_group_map'
p868
sS'Cardinality'
p869
L0L
sS'Packed'
p870
NsS'Column_name'
p871
S'namedquery_id'
p872
sa(dp873
g857
S''
sg858
L1L
sg859
Nsg860
S'BTREE'
p874
sg862
S'namedquery_group_map_group_id_idx'
p875
sg864
S'A'
sg865
S''
sg866
L1L
sg867
S'namedquery_group_map'
p876
sg869
L0L
sg870
Nsg871
S'group_id'
p877
satp878
sS'flagexclusions'
p879
((lp880
(dp881
S'Extra'
p882
S''
sS'Default'
p883
S''
sS'Field'
p884
S'type_id'
p885
sS'Key'
p886
S'MUL'
p887
sS'Null'
p888
S'NO'
p889
sS'Type'
p890
S'smallint(6)'
p891
sa(dp892
g882
S''
sg883
Nsg884
S'product_id'
p893
sg886
S'MUL'
p894
sg888
S'YES'
p895
sg890
S'smallint(6)'
p896
sa(dp897
g882
S''
sg883
Nsg884
S'component_id'
p898
sg886
S'MUL'
p899
sg888
S'YES'
p900
sg890
S'smallint(6)'
p901
sa(lp902
(dp903
S'Comment'
p904
S''
sS'Non_unique'
p905
L1L
sS'Sub_part'
p906
NsS'Index_type'
p907
S'BTREE'
p908
sS'Key_name'
p909
S'flagexclusions_type_id_idx'
p910
sS'Collation'
p911
S'A'
sS'Null'
p912
S''
sS'Seq_in_index'
p913
L1L
sS'Table'
p914
S'flagexclusions'
p915
sS'Cardinality'
p916
L0L
sS'Packed'
p917
NsS'Column_name'
p918
S'type_id'
p919
sa(dp920
g904
S''
sg905
L1L
sg906
Nsg907
S'BTREE'
p921
sg909
S'flagexclusions_type_id_idx'
p922
sg911
S'A'
sg912
S'YES'
p923
sg913
L2L
sg914
S'flagexclusions'
p924
sg916
L0L
sg917
Nsg918
S'product_id'
p925
sa(dp926
g904
S''
sg905
L1L
sg906
Nsg907
S'BTREE'
p927
sg909
S'flagexclusions_type_id_idx'
p928
sg911
S'A'
sg912
S'YES'
p929
sg913
L3L
sg914
S'flagexclusions'
p930
sg916
L0L
sg917
Nsg918
S'component_id'
p931
sa(dp932
g904
S''
sg905
L1L
sg906
Nsg907
S'BTREE'
p933
sg909
S'fk_flagexclusions_product_id_products_id'
p934
sg911
S'A'
sg912
S'YES'
p935
sg913
L1L
sg914
S'flagexclusions'
p936
sg916
L0L
sg917
Nsg918
S'product_id'
p937
sa(dp938
g904
S''
sg905
L1L
sg906
Nsg907
S'BTREE'
p939
sg909
S'fk_flagexclusions_component_id_components_id'
p940
sg911
S'A'
sg912
S'YES'
p941
sg913
L1L
sg914
S'flagexclusions'
p942
sg916
L0L
sg917
Nsg918
S'component_id'
p943
satp944
sS'ts_note'
p945
((lp946
(dp947
S'Extra'
p948
S''
sS'Default'
p949
S''
sS'Field'
p950
S'jobid'
p951
sS'Key'
p952
S'MUL'
p953
sS'Null'
p954
S'NO'
p955
sS'Type'
p956
S'int(11)'
p957
sa(dp958
g948
S''
sg949
Nsg950
S'notekey'
p959
sg952
S''
sg954
S'YES'
p960
sg956
S'varchar(255)'
p961
sa(dp962
g948
S''
sg949
Nsg950
S'value'
p963
sg952
S''
sg954
S'YES'
p964
sg956
S'longblob'
p965
sa(lp966
(dp967
S'Comment'
p968
S''
sS'Non_unique'
p969
L0L
sS'Sub_part'
p970
NsS'Index_type'
p971
S'BTREE'
p972
sS'Key_name'
p973
S'ts_note_jobid_idx'
p974
sS'Collation'
p975
S'A'
sS'Null'
p976
S''
sS'Seq_in_index'
p977
L1L
sS'Table'
p978
S'ts_note'
p979
sS'Cardinality'
p980
L0L
sS'Packed'
p981
NsS'Column_name'
p982
S'jobid'
p983
sa(dp984
g968
S''
sg969
L0L
sg970
Nsg971
S'BTREE'
p985
sg973
S'ts_note_jobid_idx'
p986
sg975
S'A'
sg976
S'YES'
p987
sg977
L2L
sg978
S'ts_note'
p988
sg980
L0L
sg981
Nsg982
S'notekey'
p989
satp990
sS'votes'
p991
((lp992
(dp993
S'Extra'
p994
S''
sS'Default'
p995
S''
sS'Field'
p996
S'who'
p997
sS'Key'
p998
S'MUL'
p999
sS'Null'
p1000
S'NO'
p1001
sS'Type'
p1002
S'mediumint(9)'
p1003
sa(dp1004
g994
S''
sg995
S''
sg996
S'bug_id'
p1005
sg998
S'MUL'
p1006
sg1000
S'NO'
p1007
sg1002
S'mediumint(9)'
p1008
sa(dp1009
g994
S''
sg995
S''
sg996
S'vote_count'
p1010
sg998
S''
sg1000
S'NO'
p1011
sg1002
S'smallint(6)'
p1012
sa(lp1013
(dp1014
S'Comment'
p1015
S''
sS'Non_unique'
p1016
L1L
sS'Sub_part'
p1017
NsS'Index_type'
p1018
S'BTREE'
p1019
sS'Key_name'
p1020
S'votes_who_idx'
p1021
sS'Collation'
p1022
S'A'
sS'Null'
p1023
S''
sS'Seq_in_index'
p1024
L1L
sS'Table'
p1025
S'votes'
p1026
sS'Cardinality'
p1027
L0L
sS'Packed'
p1028
NsS'Column_name'
p1029
S'who'
p1030
sa(dp1031
g1015
S''
sg1016
L1L
sg1017
Nsg1018
S'BTREE'
p1032
sg1020
S'votes_bug_id_idx'
p1033
sg1022
S'A'
sg1023
S''
sg1024
L1L
sg1025
S'votes'
p1034
sg1027
L0L
sg1028
Nsg1029
S'bug_id'
p1035
satp1036
sS'attach_data'
p1037
((lp1038
(dp1039
S'Extra'
p1040
S''
sS'Default'
p1041
S''
sS'Field'
p1042
S'id'
p1043
sS'Key'
p1044
S'PRI'
p1045
sS'Null'
p1046
S'NO'
p1047
sS'Type'
p1048
S'mediumint(9)'
p1049
sa(dp1050
g1040
S''
sg1041
S''
sg1042
S'thedata'
p1051
sg1044
S''
sg1046
S'NO'
p1052
sg1048
S'longblob'
p1053
sa(lp1054
(dp1055
S'Comment'
p1056
S''
sS'Non_unique'
p1057
L0L
sS'Sub_part'
p1058
NsS'Index_type'
p1059
S'BTREE'
p1060
sS'Key_name'
p1061
S'PRIMARY'
p1062
sS'Collation'
p1063
S'A'
sS'Null'
p1064
S''
sS'Seq_in_index'
p1065
L1L
sS'Table'
p1066
S'attach_data'
p1067
sS'Cardinality'
p1068
L0L
sS'Packed'
p1069
NsS'Column_name'
p1070
S'id'
p1071
satp1072
sS'products'
p1073
((lp1074
(dp1075
S'Extra'
p1076
S'auto_increment'
p1077
sS'Default'
p1078
NsS'Field'
p1079
S'id'
p1080
sS'Key'
p1081
S'PRI'
p1082
sS'Null'
p1083
S'NO'
p1084
sS'Type'
p1085
S'smallint(6)'
p1086
sa(dp1087
g1076
S''
sg1078
S''
sg1079
S'name'
p1088
sg1081
S'UNI'
p1089
sg1083
S'NO'
p1090
sg1085
S'varchar(64)'
p1091
sa(dp1092
g1076
S''
sg1078
S'1'
sg1079
S'classification_id'
p1093
sg1081
S''
sg1083
S'NO'
p1094
sg1085
S'smallint(6)'
p1095
sa(dp1096
g1076
S''
sg1078
Nsg1079
S'description'
p1097
sg1081
S''
sg1083
S'YES'
p1098
sg1085
S'mediumtext'
p1099
sa(dp1100
g1076
S''
sg1078
S''
sg1079
S'milestoneurl'
p1101
sg1081
S''
sg1083
S'NO'
p1102
sg1085
S'tinytext'
p1103
sa(dp1104
g1076
S''
sg1078
S'0'
sg1079
S'disallownew'
p1105
sg1081
S''
sg1083
S'NO'
p1106
sg1085
S'tinyint(4)'
p1107
sa(dp1108
g1076
S''
sg1078
S'0'
sg1079
S'votesperuser'
p1109
sg1081
S''
sg1083
S'NO'
p1110
sg1085
S'smallint(6)'
p1111
sa(dp1112
g1076
S''
sg1078
S'10000'
p1113
sg1079
S'maxvotesperbug'
p1114
sg1081
S''
sg1083
S'NO'
p1115
sg1085
S'smallint(6)'
p1116
sa(dp1117
g1076
S''
sg1078
S'0'
sg1079
S'votestoconfirm'
p1118
sg1081
S''
sg1083
S'NO'
p1119
sg1085
S'smallint(6)'
p1120
sa(dp1121
g1076
S''
sg1078
S'---'
p1122
sg1079
S'defaultmilestone'
p1123
sg1081
S''
sg1083
S'NO'
p1124
sg1085
S'varchar(20)'
p1125
sa(lp1126
(dp1127
S'Comment'
p1128
S''
sS'Non_unique'
p1129
L0L
sS'Sub_part'
p1130
NsS'Index_type'
p1131
S'BTREE'
p1132
sS'Key_name'
p1133
S'PRIMARY'
p1134
sS'Collation'
p1135
S'A'
sS'Null'
p1136
S''
sS'Seq_in_index'
p1137
L1L
sS'Table'
p1138
S'products'
p1139
sS'Cardinality'
p1140
L1L
sS'Packed'
p1141
NsS'Column_name'
p1142
S'id'
p1143
sa(dp1144
g1128
S''
sg1129
L0L
sg1130
Nsg1131
S'BTREE'
p1145
sg1133
S'products_name_idx'
p1146
sg1135
S'A'
sg1136
S''
sg1137
L1L
sg1138
S'products'
p1147
sg1140
L1L
sg1141
Nsg1142
S'name'
p1148
satp1149
sS'bug_status'
p1150
((lp1151
(dp1152
S'Extra'
p1153
S'auto_increment'
p1154
sS'Default'
p1155
NsS'Field'
p1156
S'id'
p1157
sS'Key'
p1158
S'PRI'
p1159
sS'Null'
p1160
S'NO'
p1161
sS'Type'
p1162
S'smallint(6)'
p1163
sa(dp1164
g1153
S''
sg1155
S''
sg1156
S'value'
p1165
sg1158
S'UNI'
p1166
sg1160
S'NO'
p1167
sg1162
S'varchar(64)'
p1168
sa(dp1169
g1153
S''
sg1155
S'0'
sg1156
S'sortkey'
p1170
sg1158
S'MUL'
p1171
sg1160
S'NO'
p1172
sg1162
S'smallint(6)'
p1173
sa(dp1174
g1153
S''
sg1155
S'1'
sg1156
S'isactive'
p1175
sg1158
S''
sg1160
S'NO'
p1176
sg1162
S'tinyint(4)'
p1177
sa(dp1178
g1153
S''
sg1155
Nsg1156
S'visibility_value_id'
p1179
sg1158
S'MUL'
p1180
sg1160
S'YES'
p1181
sg1162
S'smallint(6)'
p1182
sa(dp1183
g1153
S''
sg1155
S'1'
sg1156
S'is_open'
p1184
sg1158
S''
sg1160
S'NO'
p1185
sg1162
S'tinyint(4)'
p1186
sa(lp1187
(dp1188
S'Comment'
p1189
S''
sS'Non_unique'
p1190
L0L
sS'Sub_part'
p1191
NsS'Index_type'
p1192
S'BTREE'
p1193
sS'Key_name'
p1194
S'PRIMARY'
p1195
sS'Collation'
p1196
S'A'
sS'Null'
p1197
S''
sS'Seq_in_index'
p1198
L1L
sS'Table'
p1199
S'bug_status'
p1200
sS'Cardinality'
p1201
L7L
sS'Packed'
p1202
NsS'Column_name'
p1203
S'id'
p1204
sa(dp1205
g1189
S''
sg1190
L0L
sg1191
Nsg1192
S'BTREE'
p1206
sg1194
S'bug_status_value_idx'
p1207
sg1196
S'A'
sg1197
S''
sg1198
L1L
sg1199
S'bug_status'
p1208
sg1201
L7L
sg1202
Nsg1203
S'value'
p1209
sa(dp1210
g1189
S''
sg1190
L1L
sg1191
Nsg1192
S'BTREE'
p1211
sg1194
S'bug_status_sortkey_idx'
p1212
sg1196
S'A'
sg1197
S''
sg1198
L1L
sg1199
S'bug_status'
p1213
sg1201
L7L
sg1202
Nsg1203
S'sortkey'
p1214
sa(dp1215
g1189
S''
sg1190
L1L
sg1191
Nsg1192
S'BTREE'
p1216
sg1194
S'bug_status_sortkey_idx'
p1217
sg1196
S'A'
sg1197
S''
sg1198
L2L
sg1199
S'bug_status'
p1218
sg1201
L7L
sg1202
Nsg1203
S'value'
p1219
sa(dp1220
g1189
S''
sg1190
L1L
sg1191
Nsg1192
S'BTREE'
p1221
sg1194
S'bug_status_visibility_value_id_idx'
p1222
sg1196
S'A'
sg1197
S'YES'
p1223
sg1198
L1L
sg1199
S'bug_status'
p1224
sg1201
L7L
sg1202
Nsg1203
S'visibility_value_id'
p1225
satp1226
sS'priority'
p1227
((lp1228
(dp1229
S'Extra'
p1230
S'auto_increment'
p1231
sS'Default'
p1232
NsS'Field'
p1233
S'id'
p1234
sS'Key'
p1235
S'PRI'
p1236
sS'Null'
p1237
S'NO'
p1238
sS'Type'
p1239
S'smallint(6)'
p1240
sa(dp1241
g1230
S''
sg1232
S''
sg1233
S'value'
p1242
sg1235
S'UNI'
p1243
sg1237
S'NO'
p1244
sg1239
S'varchar(64)'
p1245
sa(dp1246
g1230
S''
sg1232
S'0'
sg1233
S'sortkey'
p1247
sg1235
S'MUL'
p1248
sg1237
S'NO'
p1249
sg1239
S'smallint(6)'
p1250
sa(dp1251
g1230
S''
sg1232
S'1'
sg1233
S'isactive'
p1252
sg1235
S''
sg1237
S'NO'
p1253
sg1239
S'tinyint(4)'
p1254
sa(dp1255
g1230
S''
sg1232
Nsg1233
S'visibility_value_id'
p1256
sg1235
S'MUL'
p1257
sg1237
S'YES'
p1258
sg1239
S'smallint(6)'
p1259
sa(lp1260
(dp1261
S'Comment'
p1262
S''
sS'Non_unique'
p1263
L0L
sS'Sub_part'
p1264
NsS'Index_type'
p1265
S'BTREE'
p1266
sS'Key_name'
p1267
S'PRIMARY'
p1268
sS'Collation'
p1269
S'A'
sS'Null'
p1270
S''
sS'Seq_in_index'
p1271
L1L
sS'Table'
p1272
S'priority'
p1273
sS'Cardinality'
p1274
L5L
sS'Packed'
p1275
NsS'Column_name'
p1276
S'id'
p1277
sa(dp1278
g1262
S''
sg1263
L0L
sg1264
Nsg1265
S'BTREE'
p1279
sg1267
S'priority_value_idx'
p1280
sg1269
S'A'
sg1270
S''
sg1271
L1L
sg1272
S'priority'
p1281
sg1274
L5L
sg1275
Nsg1276
S'value'
p1282
sa(dp1283
g1262
S''
sg1263
L1L
sg1264
Nsg1265
S'BTREE'
p1284
sg1267
S'priority_sortkey_idx'
p1285
sg1269
S'A'
sg1270
S''
sg1271
L1L
sg1272
S'priority'
p1286
sg1274
L5L
sg1275
Nsg1276
S'sortkey'
p1287
sa(dp1288
g1262
S''
sg1263
L1L
sg1264
Nsg1265
S'BTREE'
p1289
sg1267
S'priority_sortkey_idx'
p1290
sg1269
S'A'
sg1270
S''
sg1271
L2L
sg1272
S'priority'
p1291
sg1274
L5L
sg1275
Nsg1276
S'value'
p1292
sa(dp1293
g1262
S''
sg1263
L1L
sg1264
Nsg1265
S'BTREE'
p1294
sg1267
S'priority_visibility_value_id_idx'
p1295
sg1269
S'A'
sg1270
S'YES'
p1296
sg1271
L1L
sg1272
S'priority'
p1297
sg1274
L5L
sg1275
Nsg1276
S'visibility_value_id'
p1298
satp1299
sS'cc'
p1300
((lp1301
(dp1302
S'Extra'
p1303
S''
sS'Default'
p1304
S''
sS'Field'
p1305
S'bug_id'
p1306
sS'Key'
p1307
S'PRI'
p1308
sS'Null'
p1309
S'NO'
p1310
sS'Type'
p1311
S'mediumint(9)'
p1312
sa(dp1313
g1303
S''
sg1304
S''
sg1305
S'who'
p1314
sg1307
S'PRI'
p1315
sg1309
S'NO'
p1316
sg1311
S'mediumint(9)'
p1317
sa(lp1318
(dp1319
S'Comment'
p1320
S''
sS'Non_unique'
p1321
L0L
sS'Sub_part'
p1322
NsS'Index_type'
p1323
S'BTREE'
p1324
sS'Key_name'
p1325
S'cc_bug_id_idx'
p1326
sS'Collation'
p1327
S'A'
sS'Null'
p1328
S''
sS'Seq_in_index'
p1329
L1L
sS'Table'
p1330
S'cc'
p1331
sS'Cardinality'
p1332
L0L
sS'Packed'
p1333
NsS'Column_name'
p1334
S'bug_id'
p1335
sa(dp1336
g1320
S''
sg1321
L0L
sg1322
Nsg1323
S'BTREE'
p1337
sg1325
S'cc_bug_id_idx'
p1338
sg1327
S'A'
sg1328
S''
sg1329
L2L
sg1330
S'cc'
p1339
sg1332
L0L
sg1333
Nsg1334
S'who'
p1340
sa(dp1341
g1320
S''
sg1321
L1L
sg1322
Nsg1323
S'BTREE'
p1342
sg1325
S'cc_who_idx'
p1343
sg1327
S'A'
sg1328
S''
sg1329
L1L
sg1330
S'cc'
p1344
sg1332
L0L
sg1333
Nsg1334
S'who'
p1345
satp1346
sS'setting'
p1347
((lp1348
(dp1349
S'Extra'
p1350
S''
sS'Default'
p1351
S''
sS'Field'
p1352
S'name'
p1353
sS'Key'
p1354
S'PRI'
p1355
sS'Null'
p1356
S'NO'
p1357
sS'Type'
p1358
S'varchar(32)'
p1359
sa(dp1360
g1350
S''
sg1351
S''
sg1352
S'default_value'
p1361
sg1354
S''
sg1356
S'NO'
p1362
sg1358
S'varchar(32)'
p1363
sa(dp1364
g1350
S''
sg1351
S'1'
sg1352
S'is_enabled'
p1365
sg1354
S''
sg1356
S'NO'
p1366
sg1358
S'tinyint(4)'
p1367
sa(dp1368
g1350
S''
sg1351
Nsg1352
S'subclass'
p1369
sg1354
S''
sg1356
S'YES'
p1370
sg1358
S'varchar(32)'
p1371
sa(lp1372
(dp1373
S'Comment'
p1374
S''
sS'Non_unique'
p1375
L0L
sS'Sub_part'
p1376
NsS'Index_type'
p1377
S'BTREE'
p1378
sS'Key_name'
p1379
S'PRIMARY'
p1380
sS'Collation'
p1381
S'A'
sS'Null'
p1382
S''
sS'Seq_in_index'
p1383
L1L
sS'Table'
p1384
S'setting'
p1385
sS'Cardinality'
p1386
L11L
sS'Packed'
p1387
NsS'Column_name'
p1388
S'name'
p1389
satp1390
sS'email_setting'
p1391
((lp1392
(dp1393
S'Extra'
p1394
S''
sS'Default'
p1395
S''
sS'Field'
p1396
S'user_id'
p1397
sS'Key'
p1398
S'PRI'
p1399
sS'Null'
p1400
S'NO'
p1401
sS'Type'
p1402
S'mediumint(9)'
p1403
sa(dp1404
g1394
S''
sg1395
S''
sg1396
S'relationship'
p1405
sg1398
S'PRI'
p1406
sg1400
S'NO'
p1407
sg1402
S'tinyint(4)'
p1408
sa(dp1409
g1394
S''
sg1395
S''
sg1396
S'event'
p1410
sg1398
S'PRI'
p1411
sg1400
S'NO'
p1412
sg1402
S'tinyint(4)'
p1413
sa(lp1414
(dp1415
S'Comment'
p1416
S''
sS'Non_unique'
p1417
L0L
sS'Sub_part'
p1418
NsS'Index_type'
p1419
S'BTREE'
p1420
sS'Key_name'
p1421
S'email_setting_user_id_idx'
p1422
sS'Collation'
p1423
S'A'
sS'Null'
p1424
S''
sS'Seq_in_index'
p1425
L1L
sS'Table'
p1426
S'email_setting'
p1427
sS'Cardinality'
p1428
L69L
sS'Packed'
p1429
NsS'Column_name'
p1430
S'user_id'
p1431
sa(dp1432
g1416
S''
sg1417
L0L
sg1418
Nsg1419
S'BTREE'
p1433
sg1421
S'email_setting_user_id_idx'
p1434
sg1423
S'A'
sg1424
S''
sg1425
L2L
sg1426
S'email_setting'
p1435
sg1428
L69L
sg1429
Nsg1430
S'relationship'
p1436
sa(dp1437
g1416
S''
sg1417
L0L
sg1418
Nsg1419
S'BTREE'
p1438
sg1421
S'email_setting_user_id_idx'
p1439
sg1423
S'A'
sg1424
S''
sg1425
L3L
sg1426
S'email_setting'
p1440
sg1428
L69L
sg1429
Nsg1430
S'event'
p1441
satp1442
sS'series'
p1443
((lp1444
(dp1445
S'Extra'
p1446
S'auto_increment'
p1447
sS'Default'
p1448
NsS'Field'
p1449
S'series_id'
p1450
sS'Key'
p1451
S'PRI'
p1452
sS'Null'
p1453
S'NO'
p1454
sS'Type'
p1455
S'mediumint(9)'
p1456
sa(dp1457
g1446
S''
sg1448
Nsg1449
S'creator'
p1458
sg1451
S'MUL'
p1459
sg1453
S'YES'
p1460
sg1455
S'mediumint(9)'
p1461
sa(dp1462
g1446
S''
sg1448
S''
sg1449
S'category'
p1463
sg1451
S'MUL'
p1464
sg1453
S'NO'
p1465
sg1455
S'smallint(6)'
p1466
sa(dp1467
g1446
S''
sg1448
S''
sg1449
S'subcategory'
p1468
sg1451
S'MUL'
p1469
sg1453
S'NO'
p1470
sg1455
S'smallint(6)'
p1471
sa(dp1472
g1446
S''
sg1448
S''
sg1449
S'name'
p1473
sg1451
S''
sg1453
S'NO'
p1474
sg1455
S'varchar(64)'
p1475
sa(dp1476
g1446
S''
sg1448
S''
sg1449
S'frequency'
p1477
sg1451
S''
sg1453
S'NO'
p1478
sg1455
S'smallint(6)'
p1479
sa(dp1480
g1446
S''
sg1448
Nsg1449
S'last_viewed'
p1481
sg1451
S''
sg1453
S'YES'
p1482
sg1455
S'datetime'
p1483
sa(dp1484
g1446
S''
sg1448
S''
sg1449
S'query'
p1485
sg1451
S''
sg1453
S'NO'
p1486
sg1455
S'mediumtext'
p1487
sa(dp1488
g1446
S''
sg1448
S'0'
sg1449
S'is_public'
p1489
sg1451
S''
sg1453
S'NO'
p1490
sg1455
S'tinyint(4)'
p1491
sa(lp1492
(dp1493
S'Comment'
p1494
S''
sS'Non_unique'
p1495
L0L
sS'Sub_part'
p1496
NsS'Index_type'
p1497
S'BTREE'
p1498
sS'Key_name'
p1499
S'PRIMARY'
p1500
sS'Collation'
p1501
S'A'
sS'Null'
p1502
S''
sS'Seq_in_index'
p1503
L1L
sS'Table'
p1504
S'series'
p1505
sS'Cardinality'
p1506
L0L
sS'Packed'
p1507
NsS'Column_name'
p1508
S'series_id'
p1509
sa(dp1510
g1494
S''
sg1495
L0L
sg1496
Nsg1497
S'BTREE'
p1511
sg1499
S'series_creator_idx'
p1512
sg1501
S'A'
sg1502
S'YES'
p1513
sg1503
L1L
sg1504
S'series'
p1514
sg1506
L0L
sg1507
Nsg1508
S'creator'
p1515
sa(dp1516
g1494
S''
sg1495
L0L
sg1496
Nsg1497
S'BTREE'
p1517
sg1499
S'series_creator_idx'
p1518
sg1501
S'A'
sg1502
S''
sg1503
L2L
sg1504
S'series'
p1519
sg1506
L0L
sg1507
Nsg1508
S'category'
p1520
sa(dp1521
g1494
S''
sg1495
L0L
sg1496
Nsg1497
S'BTREE'
p1522
sg1499
S'series_creator_idx'
p1523
sg1501
S'A'
sg1502
S''
sg1503
L3L
sg1504
S'series'
p1524
sg1506
L0L
sg1507
Nsg1508
S'subcategory'
p1525
sa(dp1526
g1494
S''
sg1495
L0L
sg1496
Nsg1497
S'BTREE'
p1527
sg1499
S'series_creator_idx'
p1528
sg1501
S'A'
sg1502
S''
sg1503
L4L
sg1504
S'series'
p1529
sg1506
L0L
sg1507
Nsg1508
S'name'
p1530
sa(dp1531
g1494
S''
sg1495
L1L
sg1496
Nsg1497
S'BTREE'
p1532
sg1499
S'fk_series_category_series_categories_id'
p1533
sg1501
S'A'
sg1502
S''
sg1503
L1L
sg1504
S'series'
p1534
sg1506
L0L
sg1507
Nsg1508
S'category'
p1535
sa(dp1536
g1494
S''
sg1495
L1L
sg1496
Nsg1497
S'BTREE'
p1537
sg1499
S'fk_series_subcategory_series_categories_id'
p1538
sg1501
S'A'
sg1502
S''
sg1503
L1L
sg1504
S'series'
p1539
sg1506
L0L
sg1507
Nsg1508
S'subcategory'
p1540
satp1541
sS'logincookies'
p1542
((lp1543
(dp1544
S'Extra'
p1545
S''
sS'Default'
p1546
S''
sS'Field'
p1547
S'cookie'
p1548
sS'Key'
p1549
S'PRI'
p1550
sS'Null'
p1551
S'NO'
p1552
sS'Type'
p1553
S'varchar(16)'
p1554
sa(dp1555
g1545
S''
sg1546
S''
sg1547
S'userid'
p1556
sg1549
S'MUL'
p1557
sg1551
S'NO'
p1558
sg1553
S'mediumint(9)'
p1559
sa(dp1560
g1545
S''
sg1546
S''
sg1547
S'ipaddr'
p1561
sg1549
S''
sg1551
S'NO'
p1562
sg1553
S'varchar(40)'
p1563
sa(dp1564
g1545
S''
sg1546
S''
sg1547
S'lastused'
p1565
sg1549
S'MUL'
p1566
sg1551
S'NO'
p1567
sg1553
S'datetime'
p1568
sa(lp1569
(dp1570
S'Comment'
p1571
S''
sS'Non_unique'
p1572
L0L
sS'Sub_part'
p1573
NsS'Index_type'
p1574
S'BTREE'
p1575
sS'Key_name'
p1576
S'PRIMARY'
p1577
sS'Collation'
p1578
S'A'
sS'Null'
p1579
S''
sS'Seq_in_index'
p1580
L1L
sS'Table'
p1581
S'logincookies'
p1582
sS'Cardinality'
p1583
L0L
sS'Packed'
p1584
NsS'Column_name'
p1585
S'cookie'
p1586
sa(dp1587
g1571
S''
sg1572
L1L
sg1573
Nsg1574
S'BTREE'
p1588
sg1576
S'logincookies_lastused_idx'
p1589
sg1578
S'A'
sg1579
S''
sg1580
L1L
sg1581
S'logincookies'
p1590
sg1583
L0L
sg1584
Nsg1585
S'lastused'
p1591
sa(dp1592
g1571
S''
sg1572
L1L
sg1573
Nsg1574
S'BTREE'
p1593
sg1576
S'fk_logincookies_userid_profiles_userid'
p1594
sg1578
S'A'
sg1579
S''
sg1580
L1L
sg1581
S'logincookies'
p1595
sg1583
L0L
sg1584
Nsg1585
S'userid'
p1596
satp1597
sS'fielddefs'
p1598
((lp1599
(dp1600
S'Extra'
p1601
S'auto_increment'
p1602
sS'Default'
p1603
NsS'Field'
p1604
S'id'
p1605
sS'Key'
p1606
S'PRI'
p1607
sS'Null'
p1608
S'NO'
p1609
sS'Type'
p1610
S'mediumint(9)'
p1611
sa(dp1612
g1601
S''
sg1603
S''
sg1604
S'name'
p1613
sg1606
S'UNI'
p1614
sg1608
S'NO'
p1615
sg1610
S'varchar(64)'
p1616
sa(dp1617
g1601
S''
sg1603
S'0'
sg1604
S'type'
p1618
sg1606
S''
sg1608
S'NO'
p1619
sg1610
S'smallint(6)'
p1620
sa(dp1621
g1601
S''
sg1603
S'0'
sg1604
S'custom'
p1622
sg1606
S''
sg1608
S'NO'
p1623
sg1610
S'tinyint(4)'
p1624
sa(dp1625
g1601
S''
sg1603
S''
sg1604
S'description'
p1626
sg1606
S''
sg1608
S'NO'
p1627
sg1610
S'tinytext'
p1628
sa(dp1629
g1601
S''
sg1603
S'0'
sg1604
S'mailhead'
p1630
sg1606
S''
sg1608
S'NO'
p1631
sg1610
S'tinyint(4)'
p1632
sa(dp1633
g1601
S''
sg1603
S''
sg1604
S'sortkey'
p1634
sg1606
S'MUL'
p1635
sg1608
S'NO'
p1636
sg1610
S'smallint(6)'
p1637
sa(dp1638
g1601
S''
sg1603
S'0'
sg1604
S'obsolete'
p1639
sg1606
S''
sg1608
S'NO'
p1640
sg1610
S'tinyint(4)'
p1641
sa(dp1642
g1601
S''
sg1603
S'0'
sg1604
S'enter_bug'
p1643
sg1606
S''
sg1608
S'NO'
p1644
sg1610
S'tinyint(4)'
p1645
sa(dp1646
g1601
S''
sg1603
Nsg1604
S'visibility_field_id'
p1647
sg1606
S'MUL'
p1648
sg1608
S'YES'
p1649
sg1610
S'mediumint(9)'
p1650
sa(dp1651
g1601
S''
sg1603
Nsg1604
S'visibility_value_id'
p1652
sg1606
S''
sg1608
S'YES'
p1653
sg1610
S'smallint(6)'
p1654
sa(dp1655
g1601
S''
sg1603
Nsg1604
S'value_field_id'
p1656
sg1606
S'MUL'
p1657
sg1608
S'YES'
p1658
sg1610
S'mediumint(9)'
p1659
sa(lp1660
(dp1661
S'Comment'
p1662
S''
sS'Non_unique'
p1663
L0L
sS'Sub_part'
p1664
NsS'Index_type'
p1665
S'BTREE'
p1666
sS'Key_name'
p1667
S'PRIMARY'
p1668
sS'Collation'
p1669
S'A'
sS'Null'
p1670
S''
sS'Seq_in_index'
p1671
L1L
sS'Table'
p1672
S'fielddefs'
p1673
sS'Cardinality'
p1674
L53L
sS'Packed'
p1675
NsS'Column_name'
p1676
S'id'
p1677
sa(dp1678
g1662
S''
sg1663
L0L
sg1664
Nsg1665
S'BTREE'
p1679
sg1667
S'fielddefs_name_idx'
p1680
sg1669
S'A'
sg1670
S''
sg1671
L1L
sg1672
S'fielddefs'
p1681
sg1674
L53L
sg1675
Nsg1676
S'name'
p1682
sa(dp1683
g1662
S''
sg1663
L1L
sg1664
Nsg1665
S'BTREE'
p1684
sg1667
S'fielddefs_sortkey_idx'
p1685
sg1669
S'A'
sg1670
S''
sg1671
L1L
sg1672
S'fielddefs'
p1686
sg1674
L53L
sg1675
Nsg1676
S'sortkey'
p1687
sa(dp1688
g1662
S''
sg1663
L1L
sg1664
Nsg1665
S'BTREE'
p1689
sg1667
S'fielddefs_value_field_id_idx'
p1690
sg1669
S'A'
sg1670
S'YES'
p1691
sg1671
L1L
sg1672
S'fielddefs'
p1692
sg1674
L2L
sg1675
Nsg1676
S'value_field_id'
p1693
sa(dp1694
g1662
S''
sg1663
L1L
sg1664
Nsg1665
S'BTREE'
p1695
sg1667
S'fk_fielddefs_visibility_field_id_fielddefs_id'
p1696
sg1669
S'A'
sg1670
S'YES'
p1697
sg1671
L1L
sg1672
S'fielddefs'
p1698
sg1674
L2L
sg1675
Nsg1676
S'visibility_field_id'
p1699
satp1700
sS'bugs_fulltext'
p1701
((lp1702
(dp1703
S'Extra'
p1704
S''
sS'Default'
p1705
S''
sS'Field'
p1706
S'bug_id'
p1707
sS'Key'
p1708
S'PRI'
p1709
sS'Null'
p1710
S'NO'
p1711
sS'Type'
p1712
S'mediumint(9)'
p1713
sa(dp1714
g1704
S''
sg1705
S''
sg1706
S'short_desc'
p1715
sg1708
S'MUL'
p1716
sg1710
S'NO'
p1717
sg1712
S'varchar(255)'
p1718
sa(dp1719
g1704
S''
sg1705
Nsg1706
S'comments'
p1720
sg1708
S'MUL'
p1721
sg1710
S'YES'
p1722
sg1712
S'mediumtext'
p1723
sa(dp1724
g1704
S''
sg1705
Nsg1706
S'comments_noprivate'
p1725
sg1708
S'MUL'
p1726
sg1710
S'YES'
p1727
sg1712
S'mediumtext'
p1728
sa(lp1729
(dp1730
S'Comment'
p1731
S''
sS'Non_unique'
p1732
L0L
sS'Sub_part'
p1733
NsS'Index_type'
p1734
S'BTREE'
p1735
sS'Key_name'
p1736
S'PRIMARY'
p1737
sS'Collation'
p1738
S'A'
sS'Null'
p1739
S''
sS'Seq_in_index'
p1740
L1L
sS'Table'
p1741
S'bugs_fulltext'
p1742
sS'Cardinality'
p1743
L0L
sS'Packed'
p1744
NsS'Column_name'
p1745
S'bug_id'
p1746
sa(dp1747
g1731
S''
sg1732
L1L
sg1733
Nsg1734
S'FULLTEXT'
p1748
sg1736
S'bugs_fulltext_short_desc_idx'
p1749
sg1738
Nsg1739
S''
sg1740
L1L
sg1741
S'bugs_fulltext'
p1750
sg1743
Nsg1744
Nsg1745
S'short_desc'
p1751
sa(dp1752
g1731
S''
sg1732
L1L
sg1733
Nsg1734
S'FULLTEXT'
p1753
sg1736
S'bugs_fulltext_comments_idx'
p1754
sg1738
Nsg1739
S'YES'
p1755
sg1740
L1L
sg1741
S'bugs_fulltext'
p1756
sg1743
Nsg1744
Nsg1745
S'comments'
p1757
sa(dp1758
g1731
S''
sg1732
L1L
sg1733
Nsg1734
S'FULLTEXT'
p1759
sg1736
S'bugs_fulltext_comments_noprivate_idx'
p1760
sg1738
Nsg1739
S'YES'
p1761
sg1740
L1L
sg1741
S'bugs_fulltext'
p1762
sg1743
Nsg1744
Nsg1745
S'comments_noprivate'
p1763
satp1764
sS'ts_funcmap'
p1765
((lp1766
(dp1767
S'Extra'
p1768
S'auto_increment'
p1769
sS'Default'
p1770
NsS'Field'
p1771
S'funcid'
p1772
sS'Key'
p1773
S'PRI'
p1774
sS'Null'
p1775
S'NO'
p1776
sS'Type'
p1777
S'int(11)'
p1778
sa(dp1779
g1768
S''
sg1770
S''
sg1771
S'funcname'
p1780
sg1773
S'UNI'
p1781
sg1775
S'NO'
p1782
sg1777
S'varchar(255)'
p1783
sa(lp1784
(dp1785
S'Comment'
p1786
S''
sS'Non_unique'
p1787
L0L
sS'Sub_part'
p1788
NsS'Index_type'
p1789
S'BTREE'
p1790
sS'Key_name'
p1791
S'PRIMARY'
p1792
sS'Collation'
p1793
S'A'
sS'Null'
p1794
S''
sS'Seq_in_index'
p1795
L1L
sS'Table'
p1796
S'ts_funcmap'
p1797
sS'Cardinality'
p1798
L0L
sS'Packed'
p1799
NsS'Column_name'
p1800
S'funcid'
p1801
sa(dp1802
g1786
S''
sg1787
L0L
sg1788
Nsg1789
S'BTREE'
p1803
sg1791
S'ts_funcmap_funcname_idx'
p1804
sg1793
S'A'
sg1794
S''
sg1795
L1L
sg1796
S'ts_funcmap'
p1805
sg1798
L0L
sg1799
Nsg1800
S'funcname'
p1806
satp1807
sS'flaginclusions'
p1808
((lp1809
(dp1810
S'Extra'
p1811
S''
sS'Default'
p1812
S''
sS'Field'
p1813
S'type_id'
p1814
sS'Key'
p1815
S'MUL'
p1816
sS'Null'
p1817
S'NO'
p1818
sS'Type'
p1819
S'smallint(6)'
p1820
sa(dp1821
g1811
S''
sg1812
Nsg1813
S'product_id'
p1822
sg1815
S'MUL'
p1823
sg1817
S'YES'
p1824
sg1819
S'smallint(6)'
p1825
sa(dp1826
g1811
S''
sg1812
Nsg1813
S'component_id'
p1827
sg1815
S'MUL'
p1828
sg1817
S'YES'
p1829
sg1819
S'smallint(6)'
p1830
sa(lp1831
(dp1832
S'Comment'
p1833
S''
sS'Non_unique'
p1834
L1L
sS'Sub_part'
p1835
NsS'Index_type'
p1836
S'BTREE'
p1837
sS'Key_name'
p1838
S'flaginclusions_type_id_idx'
p1839
sS'Collation'
p1840
S'A'
sS'Null'
p1841
S''
sS'Seq_in_index'
p1842
L1L
sS'Table'
p1843
S'flaginclusions'
p1844
sS'Cardinality'
p1845
L0L
sS'Packed'
p1846
NsS'Column_name'
p1847
S'type_id'
p1848
sa(dp1849
g1833
S''
sg1834
L1L
sg1835
Nsg1836
S'BTREE'
p1850
sg1838
S'flaginclusions_type_id_idx'
p1851
sg1840
S'A'
sg1841
S'YES'
p1852
sg1842
L2L
sg1843
S'flaginclusions'
p1853
sg1845
L0L
sg1846
Nsg1847
S'product_id'
p1854
sa(dp1855
g1833
S''
sg1834
L1L
sg1835
Nsg1836
S'BTREE'
p1856
sg1838
S'flaginclusions_type_id_idx'
p1857
sg1840
S'A'
sg1841
S'YES'
p1858
sg1842
L3L
sg1843
S'flaginclusions'
p1859
sg1845
L0L
sg1846
Nsg1847
S'component_id'
p1860
sa(dp1861
g1833
S''
sg1834
L1L
sg1835
Nsg1836
S'BTREE'
p1862
sg1838
S'fk_flaginclusions_product_id_products_id'
p1863
sg1840
S'A'
sg1841
S'YES'
p1864
sg1842
L1L
sg1843
S'flaginclusions'
p1865
sg1845
L0L
sg1846
Nsg1847
S'product_id'
p1866
sa(dp1867
g1833
S''
sg1834
L1L
sg1835
Nsg1836
S'BTREE'
p1868
sg1838
S'fk_flaginclusions_component_id_components_id'
p1869
sg1840
S'A'
sg1841
S'YES'
p1870
sg1842
L1L
sg1843
S'flaginclusions'
p1871
sg1845
L0L
sg1846
Nsg1847
S'component_id'
p1872
satp1873
sS'profiles_activity'
p1874
((lp1875
(dp1876
S'Extra'
p1877
S''
sS'Default'
p1878
S''
sS'Field'
p1879
S'userid'
p1880
sS'Key'
p1881
S'MUL'
p1882
sS'Null'
p1883
S'NO'
p1884
sS'Type'
p1885
S'mediumint(9)'
p1886
sa(dp1887
g1877
S''
sg1878
S''
sg1879
S'who'
p1888
sg1881
S'MUL'
p1889
sg1883
S'NO'
p1890
sg1885
S'mediumint(9)'
p1891
sa(dp1892
g1877
S''
sg1878
S''
sg1879
S'profiles_when'
p1893
sg1881
S'MUL'
p1894
sg1883
S'NO'
p1895
sg1885
S'datetime'
p1896
sa(dp1897
g1877
S''
sg1878
S''
sg1879
S'fieldid'
p1898
sg1881
S'MUL'
p1899
sg1883
S'NO'
p1900
sg1885
S'mediumint(9)'
p1901
sa(dp1902
g1877
S''
sg1878
Nsg1879
S'oldvalue'
p1903
sg1881
S''
sg1883
S'YES'
p1904
sg1885
S'tinytext'
p1905
sa(dp1906
g1877
S''
sg1878
Nsg1879
S'newvalue'
p1907
sg1881
S''
sg1883
S'YES'
p1908
sg1885
S'tinytext'
p1909
sa(lp1910
(dp1911
S'Comment'
p1912
S''
sS'Non_unique'
p1913
L1L
sS'Sub_part'
p1914
NsS'Index_type'
p1915
S'BTREE'
p1916
sS'Key_name'
p1917
S'profiles_activity_userid_idx'
p1918
sS'Collation'
p1919
S'A'
sS'Null'
p1920
S''
sS'Seq_in_index'
p1921
L1L
sS'Table'
p1922
S'profiles_activity'
p1923
sS'Cardinality'
p1924
L1L
sS'Packed'
p1925
NsS'Column_name'
p1926
S'userid'
p1927
sa(dp1928
g1912
S''
sg1913
L1L
sg1914
Nsg1915
S'BTREE'
p1929
sg1917
S'profiles_activity_profiles_when_idx'
p1930
sg1919
S'A'
sg1920
S''
sg1921
L1L
sg1922
S'profiles_activity'
p1931
sg1924
L1L
sg1925
Nsg1926
S'profiles_when'
p1932
sa(dp1933
g1912
S''
sg1913
L1L
sg1914
Nsg1915
S'BTREE'
p1934
sg1917
S'profiles_activity_fieldid_idx'
p1935
sg1919
S'A'
sg1920
S''
sg1921
L1L
sg1922
S'profiles_activity'
p1936
sg1924
L1L
sg1925
Nsg1926
S'fieldid'
p1937
sa(dp1938
g1912
S''
sg1913
L1L
sg1914
Nsg1915
S'BTREE'
p1939
sg1917
S'fk_profiles_activity_who_profiles_userid'
p1940
sg1919
S'A'
sg1920
S''
sg1921
L1L
sg1922
S'profiles_activity'
p1941
sg1924
L1L
sg1925
Nsg1926
S'who'
p1942
satp1943
sS'bugs_activity'
p1944
((lp1945
(dp1946
S'Extra'
p1947
S''
sS'Default'
p1948
S''
sS'Field'
p1949
S'bug_id'
p1950
sS'Key'
p1951
S'MUL'
p1952
sS'Null'
p1953
S'NO'
p1954
sS'Type'
p1955
S'mediumint(9)'
p1956
sa(dp1957
g1947
S''
sg1948
Nsg1949
S'attach_id'
p1958
sg1951
S'MUL'
p1959
sg1953
S'YES'
p1960
sg1955
S'mediumint(9)'
p1961
sa(dp1962
g1947
S''
sg1948
S''
sg1949
S'who'
p1963
sg1951
S'MUL'
p1964
sg1953
S'NO'
p1965
sg1955
S'mediumint(9)'
p1966
sa(dp1967
g1947
S''
sg1948
S''
sg1949
S'bug_when'
p1968
sg1951
S'MUL'
p1969
sg1953
S'NO'
p1970
sg1955
S'datetime'
p1971
sa(dp1972
g1947
S''
sg1948
S''
sg1949
S'fieldid'
p1973
sg1951
S'MUL'
p1974
sg1953
S'NO'
p1975
sg1955
S'mediumint(9)'
p1976
sa(dp1977
g1947
S''
sg1948
Nsg1949
S'added'
p1978
sg1951
S''
sg1953
S'YES'
p1979
sg1955
S'tinytext'
p1980
sa(dp1981
g1947
S''
sg1948
Nsg1949
S'removed'
p1982
sg1951
S''
sg1953
S'YES'
p1983
sg1955
S'tinytext'
p1984
sa(lp1985
(dp1986
S'Comment'
p1987
S''
sS'Non_unique'
p1988
L1L
sS'Sub_part'
p1989
NsS'Index_type'
p1990
S'BTREE'
p1991
sS'Key_name'
p1992
S'bugs_activity_bug_id_idx'
p1993
sS'Collation'
p1994
S'A'
sS'Null'
p1995
S''
sS'Seq_in_index'
p1996
L1L
sS'Table'
p1997
S'bugs_activity'
p1998
sS'Cardinality'
p1999
L0L
sS'Packed'
p2000
NsS'Column_name'
p2001
S'bug_id'
p2002
sa(dp2003
g1987
S''
sg1988
L1L
sg1989
Nsg1990
S'BTREE'
p2004
sg1992
S'bugs_activity_who_idx'
p2005
sg1994
S'A'
sg1995
S''
sg1996
L1L
sg1997
S'bugs_activity'
p2006
sg1999
L0L
sg2000
Nsg2001
S'who'
p2007
sa(dp2008
g1987
S''
sg1988
L1L
sg1989
Nsg1990
S'BTREE'
p2009
sg1992
S'bugs_activity_bug_when_idx'
p2010
sg1994
S'A'
sg1995
S''
sg1996
L1L
sg1997
S'bugs_activity'
p2011
sg1999
L0L
sg2000
Nsg2001
S'bug_when'
p2012
sa(dp2013
g1987
S''
sg1988
L1L
sg1989
Nsg1990
S'BTREE'
p2014
sg1992
S'bugs_activity_fieldid_idx'
p2015
sg1994
S'A'
sg1995
S''
sg1996
L1L
sg1997
S'bugs_activity'
p2016
sg1999
L0L
sg2000
Nsg2001
S'fieldid'
p2017
sa(dp2018
g1987
S''
sg1988
L1L
sg1989
Nsg1990
S'BTREE'
p2019
sg1992
S'fk_bugs_activity_attach_id_attachments_attach_id'
p2020
sg1994
S'A'
sg1995
S'YES'
p2021
sg1996
L1L
sg1997
S'bugs_activity'
p2022
sg1999
L0L
sg2000
Nsg2001
S'attach_id'
p2023
satp2024
sS'watch'
p2025
((lp2026
(dp2027
S'Extra'
p2028
S''
sS'Default'
p2029
S''
sS'Field'
p2030
S'watcher'
p2031
sS'Key'
p2032
S'PRI'
p2033
sS'Null'
p2034
S'NO'
p2035
sS'Type'
p2036
S'mediumint(9)'
p2037
sa(dp2038
g2028
S''
sg2029
S''
sg2030
S'watched'
p2039
sg2032
S'PRI'
p2040
sg2034
S'NO'
p2041
sg2036
S'mediumint(9)'
p2042
sa(lp2043
(dp2044
S'Comment'
p2045
S''
sS'Non_unique'
p2046
L0L
sS'Sub_part'
p2047
NsS'Index_type'
p2048
S'BTREE'
p2049
sS'Key_name'
p2050
S'watch_watcher_idx'
p2051
sS'Collation'
p2052
S'A'
sS'Null'
p2053
S''
sS'Seq_in_index'
p2054
L1L
sS'Table'
p2055
S'watch'
p2056
sS'Cardinality'
p2057
L0L
sS'Packed'
p2058
NsS'Column_name'
p2059
S'watcher'
p2060
sa(dp2061
g2045
S''
sg2046
L0L
sg2047
Nsg2048
S'BTREE'
p2062
sg2050
S'watch_watcher_idx'
p2063
sg2052
S'A'
sg2053
S''
sg2054
L2L
sg2055
S'watch'
p2064
sg2057
L0L
sg2058
Nsg2059
S'watched'
p2065
sa(dp2066
g2045
S''
sg2046
L1L
sg2047
Nsg2048
S'BTREE'
p2067
sg2050
S'watch_watched_idx'
p2068
sg2052
S'A'
sg2053
S''
sg2054
L1L
sg2055
S'watch'
p2069
sg2057
L0L
sg2058
Nsg2059
S'watched'
p2070
satp2071
sS'bug_severity'
p2072
((lp2073
(dp2074
S'Extra'
p2075
S'auto_increment'
p2076
sS'Default'
p2077
NsS'Field'
p2078
S'id'
p2079
sS'Key'
p2080
S'PRI'
p2081
sS'Null'
p2082
S'NO'
p2083
sS'Type'
p2084
S'smallint(6)'
p2085
sa(dp2086
g2075
S''
sg2077
S''
sg2078
S'value'
p2087
sg2080
S'UNI'
p2088
sg2082
S'NO'
p2089
sg2084
S'varchar(64)'
p2090
sa(dp2091
g2075
S''
sg2077
S'0'
sg2078
S'sortkey'
p2092
sg2080
S'MUL'
p2093
sg2082
S'NO'
p2094
sg2084
S'smallint(6)'
p2095
sa(dp2096
g2075
S''
sg2077
S'1'
sg2078
S'isactive'
p2097
sg2080
S''
sg2082
S'NO'
p2098
sg2084
S'tinyint(4)'
p2099
sa(dp2100
g2075
S''
sg2077
Nsg2078
S'visibility_value_id'
p2101
sg2080
S'MUL'
p2102
sg2082
S'YES'
p2103
sg2084
S'smallint(6)'
p2104
sa(lp2105
(dp2106
S'Comment'
p2107
S''
sS'Non_unique'
p2108
L0L
sS'Sub_part'
p2109
NsS'Index_type'
p2110
S'BTREE'
p2111
sS'Key_name'
p2112
S'PRIMARY'
p2113
sS'Collation'
p2114
S'A'
sS'Null'
p2115
S''
sS'Seq_in_index'
p2116
L1L
sS'Table'
p2117
S'bug_severity'
p2118
sS'Cardinality'
p2119
L7L
sS'Packed'
p2120
NsS'Column_name'
p2121
S'id'
p2122
sa(dp2123
g2107
S''
sg2108
L0L
sg2109
Nsg2110
S'BTREE'
p2124
sg2112
S'bug_severity_value_idx'
p2125
sg2114
S'A'
sg2115
S''
sg2116
L1L
sg2117
S'bug_severity'
p2126
sg2119
L7L
sg2120
Nsg2121
S'value'
p2127
sa(dp2128
g2107
S''
sg2108
L1L
sg2109
Nsg2110
S'BTREE'
p2129
sg2112
S'bug_severity_sortkey_idx'
p2130
sg2114
S'A'
sg2115
S''
sg2116
L1L
sg2117
S'bug_severity'
p2131
sg2119
L7L
sg2120
Nsg2121
S'sortkey'
p2132
sa(dp2133
g2107
S''
sg2108
L1L
sg2109
Nsg2110
S'BTREE'
p2134
sg2112
S'bug_severity_sortkey_idx'
p2135
sg2114
S'A'
sg2115
S''
sg2116
L2L
sg2117
S'bug_severity'
p2136
sg2119
L7L
sg2120
Nsg2121
S'value'
p2137
sa(dp2138
g2107
S''
sg2108
L1L
sg2109
Nsg2110
S'BTREE'
p2139
sg2112
S'bug_severity_visibility_value_id_idx'
p2140
sg2114
S'A'
sg2115
S'YES'
p2141
sg2116
L1L
sg2117
S'bug_severity'
p2142
sg2119
L7L
sg2120
Nsg2121
S'visibility_value_id'
p2143
satp2144
sS'namedqueries'
p2145
((lp2146
(dp2147
S'Extra'
p2148
S'auto_increment'
p2149
sS'Default'
p2150
NsS'Field'
p2151
S'id'
p2152
sS'Key'
p2153
S'PRI'
p2154
sS'Null'
p2155
S'NO'
p2156
sS'Type'
p2157
S'mediumint(9)'
p2158
sa(dp2159
g2148
S''
sg2150
S''
sg2151
S'userid'
p2160
sg2153
S'MUL'
p2161
sg2155
S'NO'
p2162
sg2157
S'mediumint(9)'
p2163
sa(dp2164
g2148
S''
sg2150
S''
sg2151
S'name'
p2165
sg2153
S''
sg2155
S'NO'
p2166
sg2157
S'varchar(64)'
p2167
sa(dp2168
g2148
S''
sg2150
S''
sg2151
S'query'
p2169
sg2153
S''
sg2155
S'NO'
p2170
sg2157
S'mediumtext'
p2171
sa(dp2172
g2148
S''
sg2150
S'0'
sg2151
S'query_type'
p2173
sg2153
S''
sg2155
S'NO'
p2174
sg2157
S'tinyint(4)'
p2175
sa(lp2176
(dp2177
S'Comment'
p2178
S''
sS'Non_unique'
p2179
L0L
sS'Sub_part'
p2180
NsS'Index_type'
p2181
S'BTREE'
p2182
sS'Key_name'
p2183
S'PRIMARY'
p2184
sS'Collation'
p2185
S'A'
sS'Null'
p2186
S''
sS'Seq_in_index'
p2187
L1L
sS'Table'
p2188
S'namedqueries'
p2189
sS'Cardinality'
p2190
L0L
sS'Packed'
p2191
NsS'Column_name'
p2192
S'id'
p2193
sa(dp2194
g2178
S''
sg2179
L0L
sg2180
Nsg2181
S'BTREE'
p2195
sg2183
S'namedqueries_userid_idx'
p2196
sg2185
S'A'
sg2186
S''
sg2187
L1L
sg2188
S'namedqueries'
p2197
sg2190
L0L
sg2191
Nsg2192
S'userid'
p2198
sa(dp2199
g2178
S''
sg2179
L0L
sg2180
Nsg2181
S'BTREE'
p2200
sg2183
S'namedqueries_userid_idx'
p2201
sg2185
S'A'
sg2186
S''
sg2187
L2L
sg2188
S'namedqueries'
p2202
sg2190
L0L
sg2191
Nsg2192
S'name'
p2203
satp2204
sS'bz_schema'
p2205
((lp2206
(dp2207
S'Extra'
p2208
S''
sS'Default'
p2209
S''
sS'Field'
p2210
S'schema_data'
p2211
sS'Key'
p2212
S''
sS'Null'
p2213
S'NO'
p2214
sS'Type'
p2215
S'longblob'
p2216
sa(dp2217
g2208
S''
sg2209
S''
sg2210
S'version'
p2218
sg2212
S''
sg2213
S'NO'
p2219
sg2215
S'decimal(3,2)'
p2220
sa(ltp2221
sS'tokens'
p2222
((lp2223
(dp2224
S'Extra'
p2225
S''
sS'Default'
p2226
NsS'Field'
p2227
S'userid'
p2228
sS'Key'
p2229
S'MUL'
p2230
sS'Null'
p2231
S'YES'
p2232
sS'Type'
p2233
S'mediumint(9)'
p2234
sa(dp2235
g2225
S''
sg2226
S''
sg2227
S'issuedate'
p2236
sg2229
S''
sg2231
S'NO'
p2237
sg2233
S'datetime'
p2238
sa(dp2239
g2225
S''
sg2226
S''
sg2227
S'token'
p2240
sg2229
S'PRI'
p2241
sg2231
S'NO'
p2242
sg2233
S'varchar(16)'
p2243
sa(dp2244
g2225
S''
sg2226
S''
sg2227
S'tokentype'
p2245
sg2229
S''
sg2231
S'NO'
p2246
sg2233
S'varchar(8)'
p2247
sa(dp2248
g2225
S''
sg2226
Nsg2227
S'eventdata'
p2249
sg2229
S''
sg2231
S'YES'
p2250
sg2233
S'tinytext'
p2251
sa(lp2252
(dp2253
S'Comment'
p2254
S''
sS'Non_unique'
p2255
L0L
sS'Sub_part'
p2256
NsS'Index_type'
p2257
S'BTREE'
p2258
sS'Key_name'
p2259
S'PRIMARY'
p2260
sS'Collation'
p2261
S'A'
sS'Null'
p2262
S''
sS'Seq_in_index'
p2263
L1L
sS'Table'
p2264
S'tokens'
p2265
sS'Cardinality'
p2266
L0L
sS'Packed'
p2267
NsS'Column_name'
p2268
S'token'
p2269
sa(dp2270
g2254
S''
sg2255
L1L
sg2256
Nsg2257
S'BTREE'
p2271
sg2259
S'tokens_userid_idx'
p2272
sg2261
S'A'
sg2262
S'YES'
p2273
sg2263
L1L
sg2264
S'tokens'
p2274
sg2266
L0L
sg2267
Nsg2268
S'userid'
p2275
satp2276
sS'whine_schedules'
p2277
((lp2278
(dp2279
S'Extra'
p2280
S'auto_increment'
p2281
sS'Default'
p2282
NsS'Field'
p2283
S'id'
p2284
sS'Key'
p2285
S'PRI'
p2286
sS'Null'
p2287
S'NO'
p2288
sS'Type'
p2289
S'mediumint(9)'
p2290
sa(dp2291
g2280
S''
sg2282
S''
sg2283
S'eventid'
p2292
sg2285
S'MUL'
p2293
sg2287
S'NO'
p2294
sg2289
S'mediumint(9)'
p2295
sa(dp2296
g2280
S''
sg2282
Nsg2283
S'run_day'
p2297
sg2285
S''
sg2287
S'YES'
p2298
sg2289
S'varchar(32)'
p2299
sa(dp2300
g2280
S''
sg2282
Nsg2283
S'run_time'
p2301
sg2285
S''
sg2287
S'YES'
p2302
sg2289
S'varchar(32)'
p2303
sa(dp2304
g2280
S''
sg2282
Nsg2283
S'run_next'
p2305
sg2285
S'MUL'
p2306
sg2287
S'YES'
p2307
sg2289
S'datetime'
p2308
sa(dp2309
g2280
S''
sg2282
S''
sg2283
S'mailto'
p2310
sg2285
S''
sg2287
S'NO'
p2311
sg2289
S'mediumint(9)'
p2312
sa(dp2313
g2280
S''
sg2282
S'0'
sg2283
S'mailto_type'
p2314
sg2285
S''
sg2287
S'NO'
p2315
sg2289
S'smallint(6)'
p2316
sa(lp2317
(dp2318
S'Comment'
p2319
S''
sS'Non_unique'
p2320
L0L
sS'Sub_part'
p2321
NsS'Index_type'
p2322
S'BTREE'
p2323
sS'Key_name'
p2324
S'PRIMARY'
p2325
sS'Collation'
p2326
S'A'
sS'Null'
p2327
S''
sS'Seq_in_index'
p2328
L1L
sS'Table'
p2329
S'whine_schedules'
p2330
sS'Cardinality'
p2331
L0L
sS'Packed'
p2332
NsS'Column_name'
p2333
S'id'
p2334
sa(dp2335
g2319
S''
sg2320
L1L
sg2321
Nsg2322
S'BTREE'
p2336
sg2324
S'whine_schedules_run_next_idx'
p2337
sg2326
S'A'
sg2327
S'YES'
p2338
sg2328
L1L
sg2329
S'whine_schedules'
p2339
sg2331
L0L
sg2332
Nsg2333
S'run_next'
p2340
sa(dp2341
g2319
S''
sg2320
L1L
sg2321
Nsg2322
S'BTREE'
p2342
sg2324
S'whine_schedules_eventid_idx'
p2343
sg2326
S'A'
sg2327
S''
sg2328
L1L
sg2329
S'whine_schedules'
p2344
sg2331
L0L
sg2332
Nsg2333
S'eventid'
p2345
satp2346
sS'dependencies'
p2347
((lp2348
(dp2349
S'Extra'
p2350
S''
sS'Default'
p2351
S''
sS'Field'
p2352
S'blocked'
p2353
sS'Key'
p2354
S'MUL'
p2355
sS'Null'
p2356
S'NO'
p2357
sS'Type'
p2358
S'mediumint(9)'
p2359
sa(dp2360
g2350
S''
sg2351
S''
sg2352
S'dependson'
p2361
sg2354
S'MUL'
p2362
sg2356
S'NO'
p2363
sg2358
S'mediumint(9)'
p2364
sa(lp2365
(dp2366
S'Comment'
p2367
S''
sS'Non_unique'
p2368
L1L
sS'Sub_part'
p2369
NsS'Index_type'
p2370
S'BTREE'
p2371
sS'Key_name'
p2372
S'dependencies_blocked_idx'
p2373
sS'Collation'
p2374
S'A'
sS'Null'
p2375
S''
sS'Seq_in_index'
p2376
L1L
sS'Table'
p2377
S'dependencies'
p2378
sS'Cardinality'
p2379
L0L
sS'Packed'
p2380
NsS'Column_name'
p2381
S'blocked'
p2382
sa(dp2383
g2367
S''
sg2368
L1L
sg2369
Nsg2370
S'BTREE'
p2384
sg2372
S'dependencies_dependson_idx'
p2385
sg2374
S'A'
sg2375
S''
sg2376
L1L
sg2377
S'dependencies'
p2386
sg2379
L0L
sg2380
Nsg2381
S'dependson'
p2387
satp2388
sS'category_group_map'
p2389
((lp2390
(dp2391
S'Extra'
p2392
S''
sS'Default'
p2393
S''
sS'Field'
p2394
S'category_id'
p2395
sS'Key'
p2396
S'PRI'
p2397
sS'Null'
p2398
S'NO'
p2399
sS'Type'
p2400
S'smallint(6)'
p2401
sa(dp2402
g2392
S''
sg2393
S''
sg2394
S'group_id'
p2403
sg2396
S'PRI'
p2404
sg2398
S'NO'
p2405
sg2400
S'mediumint(9)'
p2406
sa(lp2407
(dp2408
S'Comment'
p2409
S''
sS'Non_unique'
p2410
L0L
sS'Sub_part'
p2411
NsS'Index_type'
p2412
S'BTREE'
p2413
sS'Key_name'
p2414
S'category_group_map_category_id_idx'
p2415
sS'Collation'
p2416
S'A'
sS'Null'
p2417
S''
sS'Seq_in_index'
p2418
L1L
sS'Table'
p2419
S'category_group_map'
p2420
sS'Cardinality'
p2421
L0L
sS'Packed'
p2422
NsS'Column_name'
p2423
S'category_id'
p2424
sa(dp2425
g2409
S''
sg2410
L0L
sg2411
Nsg2412
S'BTREE'
p2426
sg2414
S'category_group_map_category_id_idx'
p2427
sg2416
S'A'
sg2417
S''
sg2418
L2L
sg2419
S'category_group_map'
p2428
sg2421
L0L
sg2422
Nsg2423
S'group_id'
p2429
sa(dp2430
g2409
S''
sg2410
L1L
sg2411
Nsg2412
S'BTREE'
p2431
sg2414
S'fk_category_group_map_group_id_groups_id'
p2432
sg2416
S'A'
sg2417
S''
sg2418
L1L
sg2419
S'category_group_map'
p2433
sg2421
L0L
sg2422
Nsg2423
S'group_id'
p2434
satp2435
sS'groups'
p2436
((lp2437
(dp2438
S'Extra'
p2439
S'auto_increment'
p2440
sS'Default'
p2441
NsS'Field'
p2442
S'id'
p2443
sS'Key'
p2444
S'PRI'
p2445
sS'Null'
p2446
S'NO'
p2447
sS'Type'
p2448
S'mediumint(9)'
p2449
sa(dp2450
g2439
S''
sg2441
S''
sg2442
S'name'
p2451
sg2444
S'UNI'
p2452
sg2446
S'NO'
p2453
sg2448
S'varchar(255)'
p2454
sa(dp2455
g2439
S''
sg2441
S''
sg2442
S'description'
p2456
sg2444
S''
sg2446
S'NO'
p2457
sg2448
S'mediumtext'
p2458
sa(dp2459
g2439
S''
sg2441
S''
sg2442
S'isbuggroup'
p2460
sg2444
S''
sg2446
S'NO'
p2461
sg2448
S'tinyint(4)'
p2462
sa(dp2463
g2439
S''
sg2441
S''
sg2442
S'userregexp'
p2464
sg2444
S''
sg2446
S'NO'
p2465
sg2448
S'tinytext'
p2466
sa(dp2467
g2439
S''
sg2441
S'1'
sg2442
S'isactive'
p2468
sg2444
S''
sg2446
S'NO'
p2469
sg2448
S'tinyint(4)'
p2470
sa(dp2471
g2439
S''
sg2441
Nsg2442
S'icon_url'
p2472
sg2444
S''
sg2446
S'YES'
p2473
sg2448
S'tinytext'
p2474
sa(lp2475
(dp2476
S'Comment'
p2477
S''
sS'Non_unique'
p2478
L0L
sS'Sub_part'
p2479
NsS'Index_type'
p2480
S'BTREE'
p2481
sS'Key_name'
p2482
S'PRIMARY'
p2483
sS'Collation'
p2484
S'A'
sS'Null'
p2485
S''
sS'Seq_in_index'
p2486
L1L
sS'Table'
p2487
S'groups'
p2488
sS'Cardinality'
p2489
L13L
sS'Packed'
p2490
NsS'Column_name'
p2491
S'id'
p2492
sa(dp2493
g2477
S''
sg2478
L0L
sg2479
Nsg2480
S'BTREE'
p2494
sg2482
S'groups_name_idx'
p2495
sg2484
S'A'
sg2485
S''
sg2486
L1L
sg2487
S'groups'
p2496
sg2489
L13L
sg2490
Nsg2491
S'name'
p2497
satp2498
sS'status_workflow'
p2499
((lp2500
(dp2501
S'Extra'
p2502
S''
sS'Default'
p2503
NsS'Field'
p2504
S'old_status'
p2505
sS'Key'
p2506
S'MUL'
p2507
sS'Null'
p2508
S'YES'
p2509
sS'Type'
p2510
S'smallint(6)'
p2511
sa(dp2512
g2502
S''
sg2503
S''
sg2504
S'new_status'
p2513
sg2506
S''
sg2508
S'NO'
p2514
sg2510
S'smallint(6)'
p2515
sa(dp2516
g2502
S''
sg2503
S'0'
sg2504
S'require_comment'
p2517
sg2506
S''
sg2508
S'NO'
p2518
sg2510
S'tinyint(4)'
p2519
sa(lp2520
(dp2521
S'Comment'
p2522
S''
sS'Non_unique'
p2523
L0L
sS'Sub_part'
p2524
NsS'Index_type'
p2525
S'BTREE'
p2526
sS'Key_name'
p2527
S'status_workflow_idx'
p2528
sS'Collation'
p2529
S'A'
sS'Null'
p2530
S'YES'
p2531
sS'Seq_in_index'
p2532
L1L
sS'Table'
p2533
S'status_workflow'
p2534
sS'Cardinality'
p2535
L24L
sS'Packed'
p2536
NsS'Column_name'
p2537
S'old_status'
p2538
sa(dp2539
g2522
S''
sg2523
L0L
sg2524
Nsg2525
S'BTREE'
p2540
sg2527
S'status_workflow_idx'
p2541
sg2529
S'A'
sg2530
S''
sg2532
L2L
sg2533
S'status_workflow'
p2542
sg2535
L24L
sg2536
Nsg2537
S'new_status'
p2543
satp2544
sS'milestones'
p2545
((lp2546
(dp2547
S'Extra'
p2548
S'auto_increment'
p2549
sS'Default'
p2550
NsS'Field'
p2551
S'id'
p2552
sS'Key'
p2553
S'PRI'
p2554
sS'Null'
p2555
S'NO'
p2556
sS'Type'
p2557
S'mediumint(9)'
p2558
sa(dp2559
g2548
S''
sg2550
S''
sg2551
S'product_id'
p2560
sg2553
S'MUL'
p2561
sg2555
S'NO'
p2562
sg2557
S'smallint(6)'
p2563
sa(dp2564
g2548
S''
sg2550
S''
sg2551
S'value'
p2565
sg2553
S''
sg2555
S'NO'
p2566
sg2557
S'varchar(20)'
p2567
sa(dp2568
g2548
S''
sg2550
S'0'
sg2551
S'sortkey'
p2569
sg2553
S''
sg2555
S'NO'
p2570
sg2557
S'smallint(6)'
p2571
sa(lp2572
(dp2573
S'Comment'
p2574
S''
sS'Non_unique'
p2575
L0L
sS'Sub_part'
p2576
NsS'Index_type'
p2577
S'BTREE'
p2578
sS'Key_name'
p2579
S'PRIMARY'
p2580
sS'Collation'
p2581
S'A'
sS'Null'
p2582
S''
sS'Seq_in_index'
p2583
L1L
sS'Table'
p2584
S'milestones'
p2585
sS'Cardinality'
p2586
L1L
sS'Packed'
p2587
NsS'Column_name'
p2588
S'id'
p2589
sa(dp2590
g2574
S''
sg2575
L0L
sg2576
Nsg2577
S'BTREE'
p2591
sg2579
S'milestones_product_id_idx'
p2592
sg2581
S'A'
sg2582
S''
sg2583
L1L
sg2584
S'milestones'
p2593
sg2586
L1L
sg2587
Nsg2588
S'product_id'
p2594
sa(dp2595
g2574
S''
sg2575
L0L
sg2576
Nsg2577
S'BTREE'
p2596
sg2579
S'milestones_product_id_idx'
p2597
sg2581
S'A'
sg2582
S''
sg2583
L2L
sg2584
S'milestones'
p2598
sg2586
L1L
sg2587
Nsg2588
S'value'
p2599
satp2600
sS'classifications'
p2601
((lp2602
(dp2603
S'Extra'
p2604
S'auto_increment'
p2605
sS'Default'
p2606
NsS'Field'
p2607
S'id'
p2608
sS'Key'
p2609
S'PRI'
p2610
sS'Null'
p2611
S'NO'
p2612
sS'Type'
p2613
S'smallint(6)'
p2614
sa(dp2615
g2604
S''
sg2606
S''
sg2607
S'name'
p2616
sg2609
S'UNI'
p2617
sg2611
S'NO'
p2618
sg2613
S'varchar(64)'
p2619
sa(dp2620
g2604
S''
sg2606
Nsg2607
S'description'
p2621
sg2609
S''
sg2611
S'YES'
p2622
sg2613
S'mediumtext'
p2623
sa(dp2624
g2604
S''
sg2606
S'0'
sg2607
S'sortkey'
p2625
sg2609
S''
sg2611
S'NO'
p2626
sg2613
S'smallint(6)'
p2627
sa(lp2628
(dp2629
S'Comment'
p2630
S''
sS'Non_unique'
p2631
L0L
sS'Sub_part'
p2632
NsS'Index_type'
p2633
S'BTREE'
p2634
sS'Key_name'
p2635
S'PRIMARY'
p2636
sS'Collation'
p2637
S'A'
sS'Null'
p2638
S''
sS'Seq_in_index'
p2639
L1L
sS'Table'
p2640
S'classifications'
p2641
sS'Cardinality'
p2642
L1L
sS'Packed'
p2643
NsS'Column_name'
p2644
S'id'
p2645
sa(dp2646
g2630
S''
sg2631
L0L
sg2632
Nsg2633
S'BTREE'
p2647
sg2635
S'classifications_name_idx'
p2648
sg2637
S'A'
sg2638
S''
sg2639
L1L
sg2640
S'classifications'
p2649
sg2642
L1L
sg2643
Nsg2644
S'name'
p2650
satp2651
sS'longdescs'
p2652
((lp2653
(dp2654
S'Extra'
p2655
S'auto_increment'
p2656
sS'Default'
p2657
NsS'Field'
p2658
S'comment_id'
p2659
sS'Key'
p2660
S'PRI'
p2661
sS'Null'
p2662
S'NO'
p2663
sS'Type'
p2664
S'mediumint(9)'
p2665
sa(dp2666
g2655
S''
sg2657
S''
sg2658
S'bug_id'
p2667
sg2660
S'MUL'
p2668
sg2662
S'NO'
p2669
sg2664
S'mediumint(9)'
p2670
sa(dp2671
g2655
S''
sg2657
S''
sg2658
S'who'
p2672
sg2660
S'MUL'
p2673
sg2662
S'NO'
p2674
sg2664
S'mediumint(9)'
p2675
sa(dp2676
g2655
S''
sg2657
S''
sg2658
S'bug_when'
p2677
sg2660
S'MUL'
p2678
sg2662
S'NO'
p2679
sg2664
S'datetime'
p2680
sa(dp2681
g2655
S''
sg2657
S'0.00'
p2682
sg2658
S'work_time'
p2683
sg2660
S''
sg2662
S'NO'
p2684
sg2664
S'decimal(5,2)'
p2685
sa(dp2686
g2655
S''
sg2657
S''
sg2658
S'thetext'
p2687
sg2660
S''
sg2662
S'NO'
p2688
sg2664
S'mediumtext'
p2689
sa(dp2690
g2655
S''
sg2657
S'0'
sg2658
S'isprivate'
p2691
sg2660
S''
sg2662
S'NO'
p2692
sg2664
S'tinyint(4)'
p2693
sa(dp2694
g2655
S''
sg2657
S'0'
sg2658
S'already_wrapped'
p2695
sg2660
S''
sg2662
S'NO'
p2696
sg2664
S'tinyint(4)'
p2697
sa(dp2698
g2655
S''
sg2657
S'0'
sg2658
S'type'
p2699
sg2660
S''
sg2662
S'NO'
p2700
sg2664
S'smallint(6)'
p2701
sa(dp2702
g2655
S''
sg2657
Nsg2658
S'extra_data'
p2703
sg2660
S''
sg2662
S'YES'
p2704
sg2664
S'varchar(255)'
p2705
sa(lp2706
(dp2707
S'Comment'
p2708
S''
sS'Non_unique'
p2709
L0L
sS'Sub_part'
p2710
NsS'Index_type'
p2711
S'BTREE'
p2712
sS'Key_name'
p2713
S'PRIMARY'
p2714
sS'Collation'
p2715
S'A'
sS'Null'
p2716
S''
sS'Seq_in_index'
p2717
L1L
sS'Table'
p2718
S'longdescs'
p2719
sS'Cardinality'
p2720
L0L
sS'Packed'
p2721
NsS'Column_name'
p2722
S'comment_id'
p2723
sa(dp2724
g2708
S''
sg2709
L1L
sg2710
Nsg2711
S'BTREE'
p2725
sg2713
S'longdescs_bug_id_idx'
p2726
sg2715
S'A'
sg2716
S''
sg2717
L1L
sg2718
S'longdescs'
p2727
sg2720
L0L
sg2721
Nsg2722
S'bug_id'
p2728
sa(dp2729
g2708
S''
sg2709
L1L
sg2710
Nsg2711
S'BTREE'
p2730
sg2713
S'longdescs_who_idx'
p2731
sg2715
S'A'
sg2716
S''
sg2717
L1L
sg2718
S'longdescs'
p2732
sg2720
L0L
sg2721
Nsg2722
S'who'
p2733
sa(dp2734
g2708
S''
sg2709
L1L
sg2710
Nsg2711
S'BTREE'
p2735
sg2713
S'longdescs_who_idx'
p2736
sg2715
S'A'
sg2716
S''
sg2717
L2L
sg2718
S'longdescs'
p2737
sg2720
L0L
sg2721
Nsg2722
S'bug_id'
p2738
sa(dp2739
g2708
S''
sg2709
L1L
sg2710
Nsg2711
S'BTREE'
p2740
sg2713
S'longdescs_bug_when_idx'
p2741
sg2715
S'A'
sg2716
S''
sg2717
L1L
sg2718
S'longdescs'
p2742
sg2720
L0L
sg2721
Nsg2722
S'bug_when'
p2743
satp2744
sS'versions'
p2745
((lp2746
(dp2747
S'Extra'
p2748
S'auto_increment'
p2749
sS'Default'
p2750
NsS'Field'
p2751
S'id'
p2752
sS'Key'
p2753
S'PRI'
p2754
sS'Null'
p2755
S'NO'
p2756
sS'Type'
p2757
S'mediumint(9)'
p2758
sa(dp2759
g2748
S''
sg2750
S''
sg2751
S'value'
p2760
sg2753
S''
sg2755
S'NO'
p2761
sg2757
S'varchar(64)'
p2762
sa(dp2763
g2748
S''
sg2750
S''
sg2751
S'product_id'
p2764
sg2753
S'MUL'
p2765
sg2755
S'NO'
p2766
sg2757
S'smallint(6)'
p2767
sa(lp2768
(dp2769
S'Comment'
p2770
S''
sS'Non_unique'
p2771
L0L
sS'Sub_part'
p2772
NsS'Index_type'
p2773
S'BTREE'
p2774
sS'Key_name'
p2775
S'PRIMARY'
p2776
sS'Collation'
p2777
S'A'
sS'Null'
p2778
S''
sS'Seq_in_index'
p2779
L1L
sS'Table'
p2780
S'versions'
p2781
sS'Cardinality'
p2782
L1L
sS'Packed'
p2783
NsS'Column_name'
p2784
S'id'
p2785
sa(dp2786
g2770
S''
sg2771
L0L
sg2772
Nsg2773
S'BTREE'
p2787
sg2775
S'versions_product_id_idx'
p2788
sg2777
S'A'
sg2778
S''
sg2779
L1L
sg2780
S'versions'
p2789
sg2782
L1L
sg2783
Nsg2784
S'product_id'
p2790
sa(dp2791
g2770
S''
sg2771
L0L
sg2772
Nsg2773
S'BTREE'
p2792
sg2775
S'versions_product_id_idx'
p2793
sg2777
S'A'
sg2778
S''
sg2779
L2L
sg2780
S'versions'
p2794
sg2782
L1L
sg2783
Nsg2784
S'value'
p2795
satp2796
sS'flagtypes'
p2797
((lp2798
(dp2799
S'Extra'
p2800
S'auto_increment'
p2801
sS'Default'
p2802
NsS'Field'
p2803
S'id'
p2804
sS'Key'
p2805
S'PRI'
p2806
sS'Null'
p2807
S'NO'
p2808
sS'Type'
p2809
S'smallint(6)'
p2810
sa(dp2811
g2800
S''
sg2802
S''
sg2803
S'name'
p2812
sg2805
S''
sg2807
S'NO'
p2813
sg2809
S'varchar(50)'
p2814
sa(dp2815
g2800
S''
sg2802
S''
sg2803
S'description'
p2816
sg2805
S''
sg2807
S'NO'
p2817
sg2809
S'mediumtext'
p2818
sa(dp2819
g2800
S''
sg2802
Nsg2803
S'cc_list'
p2820
sg2805
S''
sg2807
S'YES'
p2821
sg2809
S'varchar(200)'
p2822
sa(dp2823
g2800
S''
sg2802
S'b'
sg2803
S'target_type'
p2824
sg2805
S''
sg2807
S'NO'
p2825
sg2809
S'char(1)'
p2826
sa(dp2827
g2800
S''
sg2802
S'1'
sg2803
S'is_active'
p2828
sg2805
S''
sg2807
S'NO'
p2829
sg2809
S'tinyint(4)'
p2830
sa(dp2831
g2800
S''
sg2802
S'0'
sg2803
S'is_requestable'
p2832
sg2805
S''
sg2807
S'NO'
p2833
sg2809
S'tinyint(4)'
p2834
sa(dp2835
g2800
S''
sg2802
S'0'
sg2803
S'is_requesteeble'
p2836
sg2805
S''
sg2807
S'NO'
p2837
sg2809
S'tinyint(4)'
p2838
sa(dp2839
g2800
S''
sg2802
S'0'
sg2803
S'is_multiplicable'
p2840
sg2805
S''
sg2807
S'NO'
p2841
sg2809
S'tinyint(4)'
p2842
sa(dp2843
g2800
S''
sg2802
S'0'
sg2803
S'sortkey'
p2844
sg2805
S''
sg2807
S'NO'
p2845
sg2809
S'smallint(6)'
p2846
sa(dp2847
g2800
S''
sg2802
Nsg2803
S'grant_group_id'
p2848
sg2805
S'MUL'
p2849
sg2807
S'YES'
p2850
sg2809
S'mediumint(9)'
p2851
sa(dp2852
g2800
S''
sg2802
Nsg2803
S'request_group_id'
p2853
sg2805
S'MUL'
p2854
sg2807
S'YES'
p2855
sg2809
S'mediumint(9)'
p2856
sa(lp2857
(dp2858
S'Comment'
p2859
S''
sS'Non_unique'
p2860
L0L
sS'Sub_part'
p2861
NsS'Index_type'
p2862
S'BTREE'
p2863
sS'Key_name'
p2864
S'PRIMARY'
p2865
sS'Collation'
p2866
S'A'
sS'Null'
p2867
S''
sS'Seq_in_index'
p2868
L1L
sS'Table'
p2869
S'flagtypes'
p2870
sS'Cardinality'
p2871
L0L
sS'Packed'
p2872
NsS'Column_name'
p2873
S'id'
p2874
sa(dp2875
g2859
S''
sg2860
L1L
sg2861
Nsg2862
S'BTREE'
p2876
sg2864
S'fk_flagtypes_grant_group_id_groups_id'
p2877
sg2866
S'A'
sg2867
S'YES'
p2878
sg2868
L1L
sg2869
S'flagtypes'
p2879
sg2871
L0L
sg2872
Nsg2873
S'grant_group_id'
p2880
sa(dp2881
g2859
S''
sg2860
L1L
sg2861
Nsg2862
S'BTREE'
p2882
sg2864
S'fk_flagtypes_request_group_id_groups_id'
p2883
sg2866
S'A'
sg2867
S'YES'
p2884
sg2868
L1L
sg2869
S'flagtypes'
p2885
sg2871
L0L
sg2872
Nsg2873
S'request_group_id'
p2886
satp2887
sS'user_group_map'
p2888
((lp2889
(dp2890
S'Extra'
p2891
S''
sS'Default'
p2892
S''
sS'Field'
p2893
S'user_id'
p2894
sS'Key'
p2895
S'PRI'
p2896
sS'Null'
p2897
S'NO'
p2898
sS'Type'
p2899
S'mediumint(9)'
p2900
sa(dp2901
g2891
S''
sg2892
S''
sg2893
S'group_id'
p2902
sg2895
S'PRI'
p2903
sg2897
S'NO'
p2904
sg2899
S'mediumint(9)'
p2905
sa(dp2906
g2891
S''
sg2892
S'0'
sg2893
S'isbless'
p2907
sg2895
S'PRI'
p2908
sg2897
S'NO'
p2909
sg2899
S'tinyint(4)'
p2910
sa(dp2911
g2891
S''
sg2892
S'0'
sg2893
S'grant_type'
p2912
sg2895
S'PRI'
p2913
sg2897
S'NO'
p2914
sg2899
S'tinyint(4)'
p2915
sa(lp2916
(dp2917
S'Comment'
p2918
S''
sS'Non_unique'
p2919
L0L
sS'Sub_part'
p2920
NsS'Index_type'
p2921
S'BTREE'
p2922
sS'Key_name'
p2923
S'user_group_map_user_id_idx'
p2924
sS'Collation'
p2925
S'A'
sS'Null'
p2926
S''
sS'Seq_in_index'
p2927
L1L
sS'Table'
p2928
S'user_group_map'
p2929
sS'Cardinality'
p2930
L4L
sS'Packed'
p2931
NsS'Column_name'
p2932
S'user_id'
p2933
sa(dp2934
g2918
S''
sg2919
L0L
sg2920
Nsg2921
S'BTREE'
p2935
sg2923
S'user_group_map_user_id_idx'
p2936
sg2925
S'A'
sg2926
S''
sg2927
L2L
sg2928
S'user_group_map'
p2937
sg2930
L4L
sg2931
Nsg2932
S'group_id'
p2938
sa(dp2939
g2918
S''
sg2919
L0L
sg2920
Nsg2921
S'BTREE'
p2940
sg2923
S'user_group_map_user_id_idx'
p2941
sg2925
S'A'
sg2926
S''
sg2927
L3L
sg2928
S'user_group_map'
p2942
sg2930
L4L
sg2931
Nsg2932
S'grant_type'
p2943
sa(dp2944
g2918
S''
sg2919
L0L
sg2920
Nsg2921
S'BTREE'
p2945
sg2923
S'user_group_map_user_id_idx'
p2946
sg2925
S'A'
sg2926
S''
sg2927
L4L
sg2928
S'user_group_map'
p2947
sg2930
L4L
sg2931
Nsg2932
S'isbless'
p2948
sa(dp2949
g2918
S''
sg2919
L1L
sg2920
Nsg2921
S'BTREE'
p2950
sg2923
S'fk_user_group_map_group_id_groups_id'
p2951
sg2925
S'A'
sg2926
S''
sg2927
L1L
sg2928
S'user_group_map'
p2952
sg2930
L4L
sg2931
Nsg2932
S'group_id'
p2953
satp2954
sS'bugs'
p2955
((lp2956
(dp2957
S'Extra'
p2958
S'auto_increment'
p2959
sS'Default'
p2960
NsS'Field'
p2961
S'bug_id'
p2962
sS'Key'
p2963
S'PRI'
p2964
sS'Null'
p2965
S'NO'
p2966
sS'Type'
p2967
S'mediumint(9)'
p2968
sa(dp2969
g2958
S''
sg2960
S''
sg2961
S'assigned_to'
p2970
sg2963
S'MUL'
p2971
sg2965
S'NO'
p2972
sg2967
S'mediumint(9)'
p2973
sa(dp2974
g2958
S''
sg2960
Nsg2961
S'bug_file_loc'
p2975
sg2963
S''
sg2965
S'YES'
p2976
sg2967
S'mediumtext'
p2977
sa(dp2978
g2958
S''
sg2960
S''
sg2961
S'bug_severity'
p2979
sg2963
S'MUL'
p2980
sg2965
S'NO'
p2981
sg2967
S'varchar(64)'
p2982
sa(dp2983
g2958
S''
sg2960
S''
sg2961
S'bug_status'
p2984
sg2963
S'MUL'
p2985
sg2965
S'NO'
p2986
sg2967
S'varchar(64)'
p2987
sa(dp2988
g2958
S''
sg2960
Nsg2961
S'creation_ts'
p2989
sg2963
S'MUL'
p2990
sg2965
S'YES'
p2991
sg2967
S'datetime'
p2992
sa(dp2993
g2958
S''
sg2960
S''
sg2961
S'delta_ts'
p2994
sg2963
S'MUL'
p2995
sg2965
S'NO'
p2996
sg2967
S'datetime'
p2997
sa(dp2998
g2958
S''
sg2960
S''
sg2961
S'short_desc'
p2999
sg2963
S''
sg2965
S'NO'
p3000
sg2967
S'varchar(255)'
p3001
sa(dp3002
g2958
S''
sg2960
S''
sg2961
S'op_sys'
p3003
sg2963
S'MUL'
p3004
sg2965
S'NO'
p3005
sg2967
S'varchar(64)'
p3006
sa(dp3007
g2958
S''
sg2960
S''
sg2961
S'priority'
p3008
sg2963
S'MUL'
p3009
sg2965
S'NO'
p3010
sg2967
S'varchar(64)'
p3011
sa(dp3012
g2958
S''
sg2960
S''
sg2961
S'product_id'
p3013
sg2963
S'MUL'
p3014
sg2965
S'NO'
p3015
sg2967
S'smallint(6)'
p3016
sa(dp3017
g2958
S''
sg2960
S''
sg2961
S'rep_platform'
p3018
sg2963
S''
sg2965
S'NO'
p3019
sg2967
S'varchar(64)'
p3020
sa(dp3021
g2958
S''
sg2960
S''
sg2961
S'reporter'
p3022
sg2963
S'MUL'
p3023
sg2965
S'NO'
p3024
sg2967
S'mediumint(9)'
p3025
sa(dp3026
g2958
S''
sg2960
S''
sg2961
S'version'
p3027
sg2963
S'MUL'
p3028
sg2965
S'NO'
p3029
sg2967
S'varchar(64)'
p3030
sa(dp3031
g2958
S''
sg2960
S''
sg2961
S'component_id'
p3032
sg2963
S'MUL'
p3033
sg2965
S'NO'
p3034
sg2967
S'smallint(6)'
p3035
sa(dp3036
g2958
S''
sg2960
S''
sg2961
S'resolution'
p3037
sg2963
S'MUL'
p3038
sg2965
S'NO'
p3039
sg2967
S'varchar(64)'
p3040
sa(dp3041
g2958
S''
sg2960
S'---'
p3042
sg2961
S'target_milestone'
p3043
sg2963
S'MUL'
p3044
sg2965
S'NO'
p3045
sg2967
S'varchar(20)'
p3046
sa(dp3047
g2958
S''
sg2960
Nsg2961
S'qa_contact'
p3048
sg2963
S'MUL'
p3049
sg2965
S'YES'
p3050
sg2967
S'mediumint(9)'
p3051
sa(dp3052
g2958
S''
sg2960
S''
sg2961
S'status_whiteboard'
p3053
sg2963
S''
sg2965
S'NO'
p3054
sg2967
S'mediumtext'
p3055
sa(dp3056
g2958
S''
sg2960
S'0'
sg2961
S'votes'
p3057
sg2963
S'MUL'
p3058
sg2965
S'NO'
p3059
sg2967
S'mediumint(9)'
p3060
sa(dp3061
g2958
S''
sg2960
S''
sg2961
S'keywords'
p3062
sg2963
S''
sg2965
S'NO'
p3063
sg2967
S'mediumtext'
p3064
sa(dp3065
g2958
S''
sg2960
Nsg2961
S'lastdiffed'
p3066
sg2963
S''
sg2965
S'YES'
p3067
sg2967
S'datetime'
p3068
sa(dp3069
g2958
S''
sg2960
S''
sg2961
S'everconfirmed'
p3070
sg2963
S''
sg2965
S'NO'
p3071
sg2967
S'tinyint(4)'
p3072
sa(dp3073
g2958
S''
sg2960
S'1'
sg2961
S'reporter_accessible'
p3074
sg2963
S''
sg2965
S'NO'
p3075
sg2967
S'tinyint(4)'
p3076
sa(dp3077
g2958
S''
sg2960
S'1'
sg2961
S'cclist_accessible'
p3078
sg2963
S''
sg2965
S'NO'
p3079
sg2967
S'tinyint(4)'
p3080
sa(dp3081
g2958
S''
sg2960
S'0.00'
p3082
sg2961
S'estimated_time'
p3083
sg2963
S''
sg2965
S'NO'
p3084
sg2967
S'decimal(5,2)'
p3085
sa(dp3086
g2958
S''
sg2960
S'0.00'
p3087
sg2961
S'remaining_time'
p3088
sg2963
S''
sg2965
S'NO'
p3089
sg2967
S'decimal(5,2)'
p3090
sa(dp3091
g2958
S''
sg2960
Nsg2961
S'deadline'
p3092
sg2963
S''
sg2965
S'YES'
p3093
sg2967
S'datetime'
p3094
sa(dp3095
g2958
S''
sg2960
Nsg2961
S'alias'
p3096
sg2963
S'UNI'
p3097
sg2965
S'YES'
p3098
sg2967
S'varchar(20)'
p3099
sa(lp3100
(dp3101
S'Comment'
p3102
S''
sS'Non_unique'
p3103
L0L
sS'Sub_part'
p3104
NsS'Index_type'
p3105
S'BTREE'
p3106
sS'Key_name'
p3107
S'PRIMARY'
p3108
sS'Collation'
p3109
S'A'
sS'Null'
p3110
S''
sS'Seq_in_index'
p3111
L1L
sS'Table'
p3112
S'bugs'
p3113
sS'Cardinality'
p3114
L0L
sS'Packed'
p3115
NsS'Column_name'
p3116
S'bug_id'
p3117
sa(dp3118
g3102
S''
sg3103
L0L
sg3104
Nsg3105
S'BTREE'
p3119
sg3107
S'bugs_alias_idx'
p3120
sg3109
S'A'
sg3110
S'YES'
p3121
sg3111
L1L
sg3112
S'bugs'
p3122
sg3114
L0L
sg3115
Nsg3116
S'alias'
p3123
sa(dp3124
g3102
S''
sg3103
L1L
sg3104
Nsg3105
S'BTREE'
p3125
sg3107
S'bugs_assigned_to_idx'
p3126
sg3109
S'A'
sg3110
S''
sg3111
L1L
sg3112
S'bugs'
p3127
sg3114
L0L
sg3115
Nsg3116
S'assigned_to'
p3128
sa(dp3129
g3102
S''
sg3103
L1L
sg3104
Nsg3105
S'BTREE'
p3130
sg3107
S'bugs_creation_ts_idx'
p3131
sg3109
S'A'
sg3110
S'YES'
p3132
sg3111
L1L
sg3112
S'bugs'
p3133
sg3114
L0L
sg3115
Nsg3116
S'creation_ts'
p3134
sa(dp3135
g3102
S''
sg3103
L1L
sg3104
Nsg3105
S'BTREE'
p3136
sg3107
S'bugs_delta_ts_idx'
p3137
sg3109
S'A'
sg3110
S''
sg3111
L1L
sg3112
S'bugs'
p3138
sg3114
L0L
sg3115
Nsg3116
S'delta_ts'
p3139
sa(dp3140
g3102
S''
sg3103
L1L
sg3104
Nsg3105
S'BTREE'
p3141
sg3107
S'bugs_bug_severity_idx'
p3142
sg3109
S'A'
sg3110
S''
sg3111
L1L
sg3112
S'bugs'
p3143
sg3114
L0L
sg3115
Nsg3116
S'bug_severity'
p3144
sa(dp3145
g3102
S''
sg3103
L1L
sg3104
Nsg3105
S'BTREE'
p3146
sg3107
S'bugs_bug_status_idx'
p3147
sg3109
S'A'
sg3110
S''
sg3111
L1L
sg3112
S'bugs'
p3148
sg3114
L0L
sg3115
Nsg3116
S'bug_status'
p3149
sa(dp3150
g3102
S''
sg3103
L1L
sg3104
Nsg3105
S'BTREE'
p3151
sg3107
S'bugs_op_sys_idx'
p3152
sg3109
S'A'
sg3110
S''
sg3111
L1L
sg3112
S'bugs'
p3153
sg3114
L0L
sg3115
Nsg3116
S'op_sys'
p3154
sa(dp3155
g3102
S''
sg3103
L1L
sg3104
Nsg3105
S'BTREE'
p3156
sg3107
S'bugs_priority_idx'
p3157
sg3109
S'A'
sg3110
S''
sg3111
L1L
sg3112
S'bugs'
p3158
sg3114
L0L
sg3115
Nsg3116
S'priority'
p3159
sa(dp3160
g3102
S''
sg3103
L1L
sg3104
Nsg3105
S'BTREE'
p3161
sg3107
S'bugs_product_id_idx'
p3162
sg3109
S'A'
sg3110
S''
sg3111
L1L
sg3112
S'bugs'
p3163
sg3114
L0L
sg3115
Nsg3116
S'product_id'
p3164
sa(dp3165
g3102
S''
sg3103
L1L
sg3104
Nsg3105
S'BTREE'
p3166
sg3107
S'bugs_reporter_idx'
p3167
sg3109
S'A'
sg3110
S''
sg3111
L1L
sg3112
S'bugs'
p3168
sg3114
L0L
sg3115
Nsg3116
S'reporter'
p3169
sa(dp3170
g3102
S''
sg3103
L1L
sg3104
Nsg3105
S'BTREE'
p3171
sg3107
S'bugs_version_idx'
p3172
sg3109
S'A'
sg3110
S''
sg3111
L1L
sg3112
S'bugs'
p3173
sg3114
L0L
sg3115
Nsg3116
S'version'
p3174
sa(dp3175
g3102
S''
sg3103
L1L
sg3104
Nsg3105
S'BTREE'
p3176
sg3107
S'bugs_component_id_idx'
p3177
sg3109
S'A'
sg3110
S''
sg3111
L1L
sg3112
S'bugs'
p3178
sg3114
L0L
sg3115
Nsg3116
S'component_id'
p3179
sa(dp3180
g3102
S''
sg3103
L1L
sg3104
Nsg3105
S'BTREE'
p3181
sg3107
S'bugs_resolution_idx'
p3182
sg3109
S'A'
sg3110
S''
sg3111
L1L
sg3112
S'bugs'
p3183
sg3114
L0L
sg3115
Nsg3116
S'resolution'
p3184
sa(dp3185
g3102
S''
sg3103
L1L
sg3104
Nsg3105
S'BTREE'
p3186
sg3107
S'bugs_target_milestone_idx'
p3187
sg3109
S'A'
sg3110
S''
sg3111
L1L
sg3112
S'bugs'
p3188
sg3114
L0L
sg3115
Nsg3116
S'target_milestone'
p3189
sa(dp3190
g3102
S''
sg3103
L1L
sg3104
Nsg3105
S'BTREE'
p3191
sg3107
S'bugs_qa_contact_idx'
p3192
sg3109
S'A'
sg3110
S'YES'
p3193
sg3111
L1L
sg3112
S'bugs'
p3194
sg3114
L0L
sg3115
Nsg3116
S'qa_contact'
p3195
sa(dp3196
g3102
S''
sg3103
L1L
sg3104
Nsg3105
S'BTREE'
p3197
sg3107
S'bugs_votes_idx'
p3198
sg3109
S'A'
sg3110
S''
sg3111
L1L
sg3112
S'bugs'
p3199
sg3114
L0L
sg3115
Nsg3116
S'votes'
p3200
satp3201
sS'profiles'
p3202
((lp3203
(dp3204
S'Extra'
p3205
S'auto_increment'
p3206
sS'Default'
p3207
NsS'Field'
p3208
S'userid'
p3209
sS'Key'
p3210
S'PRI'
p3211
sS'Null'
p3212
S'NO'
p3213
sS'Type'
p3214
S'mediumint(9)'
p3215
sa(dp3216
g3205
S''
sg3207
S''
sg3208
S'login_name'
p3217
sg3210
S'UNI'
p3218
sg3212
S'NO'
p3219
sg3214
S'varchar(255)'
p3220
sa(dp3221
g3205
S''
sg3207
Nsg3208
S'cryptpassword'
p3222
sg3210
S''
sg3212
S'YES'
p3223
sg3214
S'varchar(128)'
p3224
sa(dp3225
g3205
S''
sg3207
S''
sg3208
S'realname'
p3226
sg3210
S''
sg3212
S'NO'
p3227
sg3214
S'varchar(255)'
p3228
sa(dp3229
g3205
S''
sg3207
S''
sg3208
S'disabledtext'
p3230
sg3210
S''
sg3212
S'NO'
p3231
sg3214
S'mediumtext'
p3232
sa(dp3233
g3205
S''
sg3207
S'0'
sg3208
S'disable_mail'
p3234
sg3210
S''
sg3212
S'NO'
p3235
sg3214
S'tinyint(4)'
p3236
sa(dp3237
g3205
S''
sg3207
S'1'
sg3208
S'mybugslink'
p3238
sg3210
S''
sg3212
S'NO'
p3239
sg3214
S'tinyint(4)'
p3240
sa(dp3241
g3205
S''
sg3207
Nsg3208
S'extern_id'
p3242
sg3210
S''
sg3212
S'YES'
p3243
sg3214
S'varchar(64)'
p3244
sa(lp3245
(dp3246
S'Comment'
p3247
S''
sS'Non_unique'
p3248
L0L
sS'Sub_part'
p3249
NsS'Index_type'
p3250
S'BTREE'
p3251
sS'Key_name'
p3252
S'PRIMARY'
p3253
sS'Collation'
p3254
S'A'
sS'Null'
p3255
S''
sS'Seq_in_index'
p3256
L1L
sS'Table'
p3257
S'profiles'
p3258
sS'Cardinality'
p3259
L1L
sS'Packed'
p3260
NsS'Column_name'
p3261
S'userid'
p3262
sa(dp3263
g3247
S''
sg3248
L0L
sg3249
Nsg3250
S'BTREE'
p3264
sg3252
S'profiles_login_name_idx'
p3265
sg3254
S'A'
sg3255
S''
sg3256
L1L
sg3257
S'profiles'
p3266
sg3259
L1L
sg3260
Nsg3261
S'login_name'
p3267
satp3268
sS'flags'
p3269
((lp3270
(dp3271
S'Extra'
p3272
S'auto_increment'
p3273
sS'Default'
p3274
NsS'Field'
p3275
S'id'
p3276
sS'Key'
p3277
S'PRI'
p3278
sS'Null'
p3279
S'NO'
p3280
sS'Type'
p3281
S'mediumint(9)'
p3282
sa(dp3283
g3272
S''
sg3274
S''
sg3275
S'type_id'
p3284
sg3277
S'MUL'
p3285
sg3279
S'NO'
p3286
sg3281
S'smallint(6)'
p3287
sa(dp3288
g3272
S''
sg3274
S''
sg3275
S'status'
p3289
sg3277
S''
sg3279
S'NO'
p3290
sg3281
S'char(1)'
p3291
sa(dp3292
g3272
S''
sg3274
S''
sg3275
S'bug_id'
p3293
sg3277
S'MUL'
p3294
sg3279
S'NO'
p3295
sg3281
S'mediumint(9)'
p3296
sa(dp3297
g3272
S''
sg3274
Nsg3275
S'attach_id'
p3298
sg3277
S'MUL'
p3299
sg3279
S'YES'
p3300
sg3281
S'mediumint(9)'
p3301
sa(dp3302
g3272
S''
sg3274
S''
sg3275
S'creation_date'
p3303
sg3277
S''
sg3279
S'NO'
p3304
sg3281
S'datetime'
p3305
sa(dp3306
g3272
S''
sg3274
Nsg3275
S'modification_date'
p3307
sg3277
S''
sg3279
S'YES'
p3308
sg3281
S'datetime'
p3309
sa(dp3310
g3272
S''
sg3274
Nsg3275
S'setter_id'
p3311
sg3277
S'MUL'
p3312
sg3279
S'YES'
p3313
sg3281
S'mediumint(9)'
p3314
sa(dp3315
g3272
S''
sg3274
Nsg3275
S'requestee_id'
p3316
sg3277
S'MUL'
p3317
sg3279
S'YES'
p3318
sg3281
S'mediumint(9)'
p3319
sa(lp3320
(dp3321
S'Comment'
p3322
S''
sS'Non_unique'
p3323
L0L
sS'Sub_part'
p3324
NsS'Index_type'
p3325
S'BTREE'
p3326
sS'Key_name'
p3327
S'PRIMARY'
p3328
sS'Collation'
p3329
S'A'
sS'Null'
p3330
S''
sS'Seq_in_index'
p3331
L1L
sS'Table'
p3332
S'flags'
p3333
sS'Cardinality'
p3334
L0L
sS'Packed'
p3335
NsS'Column_name'
p3336
S'id'
p3337
sa(dp3338
g3322
S''
sg3323
L1L
sg3324
Nsg3325
S'BTREE'
p3339
sg3327
S'flags_bug_id_idx'
p3340
sg3329
S'A'
sg3330
S''
sg3331
L1L
sg3332
S'flags'
p3341
sg3334
L0L
sg3335
Nsg3336
S'bug_id'
p3342
sa(dp3343
g3322
S''
sg3323
L1L
sg3324
Nsg3325
S'BTREE'
p3344
sg3327
S'flags_bug_id_idx'
p3345
sg3329
S'A'
sg3330
S'YES'
p3346
sg3331
L2L
sg3332
S'flags'
p3347
sg3334
L0L
sg3335
Nsg3336
S'attach_id'
p3348
sa(dp3349
g3322
S''
sg3323
L1L
sg3324
Nsg3325
S'BTREE'
p3350
sg3327
S'flags_setter_id_idx'
p3351
sg3329
S'A'
sg3330
S'YES'
p3352
sg3331
L1L
sg3332
S'flags'
p3353
sg3334
L0L
sg3335
Nsg3336
S'setter_id'
p3354
sa(dp3355
g3322
S''
sg3323
L1L
sg3324
Nsg3325
S'BTREE'
p3356
sg3327
S'flags_requestee_id_idx'
p3357
sg3329
S'A'
sg3330
S'YES'
p3358
sg3331
L1L
sg3332
S'flags'
p3359
sg3334
L0L
sg3335
Nsg3336
S'requestee_id'
p3360
sa(dp3361
g3322
S''
sg3323
L1L
sg3324
Nsg3325
S'BTREE'
p3362
sg3327
S'flags_type_id_idx'
p3363
sg3329
S'A'
sg3330
S''
sg3331
L1L
sg3332
S'flags'
p3364
sg3334
L0L
sg3335
Nsg3336
S'type_id'
p3365
sa(dp3366
g3322
S''
sg3323
L1L
sg3324
Nsg3325
S'BTREE'
p3367
sg3327
S'fk_flags_attach_id_attachments_attach_id'
p3368
sg3329
S'A'
sg3330
S'YES'
p3369
sg3331
L1L
sg3332
S'flags'
p3370
sg3334
L0L
sg3335
Nsg3336
S'attach_id'
p3371
satp3372
sS'whine_events'
p3373
((lp3374
(dp3375
S'Extra'
p3376
S'auto_increment'
p3377
sS'Default'
p3378
NsS'Field'
p3379
S'id'
p3380
sS'Key'
p3381
S'PRI'
p3382
sS'Null'
p3383
S'NO'
p3384
sS'Type'
p3385
S'mediumint(9)'
p3386
sa(dp3387
g3376
S''
sg3378
S''
sg3379
S'owner_userid'
p3388
sg3381
S'MUL'
p3389
sg3383
S'NO'
p3390
sg3385
S'mediumint(9)'
p3391
sa(dp3392
g3376
S''
sg3378
Nsg3379
S'subject'
p3393
sg3381
S''
sg3383
S'YES'
p3394
sg3385
S'varchar(128)'
p3395
sa(dp3396
g3376
S''
sg3378
Nsg3379
S'body'
p3397
sg3381
S''
sg3383
S'YES'
p3398
sg3385
S'mediumtext'
p3399
sa(lp3400
(dp3401
S'Comment'
p3402
S''
sS'Non_unique'
p3403
L0L
sS'Sub_part'
p3404
NsS'Index_type'
p3405
S'BTREE'
p3406
sS'Key_name'
p3407
S'PRIMARY'
p3408
sS'Collation'
p3409
S'A'
sS'Null'
p3410
S''
sS'Seq_in_index'
p3411
L1L
sS'Table'
p3412
S'whine_events'
p3413
sS'Cardinality'
p3414
L0L
sS'Packed'
p3415
NsS'Column_name'
p3416
S'id'
p3417
sa(dp3418
g3402
S''
sg3403
L1L
sg3404
Nsg3405
S'BTREE'
p3419
sg3407
S'fk_whine_events_owner_userid_profiles_userid'
p3420
sg3409
S'A'
sg3410
S''
sg3411
L1L
sg3412
S'whine_events'
p3421
sg3414
L0L
sg3415
Nsg3416
S'owner_userid'
p3422
satp3423
sS'components'
p3424
((lp3425
(dp3426
S'Extra'
p3427
S'auto_increment'
p3428
sS'Default'
p3429
NsS'Field'
p3430
S'id'
p3431
sS'Key'
p3432
S'PRI'
p3433
sS'Null'
p3434
S'NO'
p3435
sS'Type'
p3436
S'smallint(6)'
p3437
sa(dp3438
g3427
S''
sg3429
S''
sg3430
S'name'
p3439
sg3432
S'MUL'
p3440
sg3434
S'NO'
p3441
sg3436
S'varchar(64)'
p3442
sa(dp3443
g3427
S''
sg3429
S''
sg3430
S'product_id'
p3444
sg3432
S'MUL'
p3445
sg3434
S'NO'
p3446
sg3436
S'smallint(6)'
p3447
sa(dp3448
g3427
S''
sg3429
S''
sg3430
S'initialowner'
p3449
sg3432
S'MUL'
p3450
sg3434
S'NO'
p3451
sg3436
S'mediumint(9)'
p3452
sa(dp3453
g3427
S''
sg3429
Nsg3430
S'initialqacontact'
p3454
sg3432
S'MUL'
p3455
sg3434
S'YES'
p3456
sg3436
S'mediumint(9)'
p3457
sa(dp3458
g3427
S''
sg3429
S''
sg3430
S'description'
p3459
sg3432
S''
sg3434
S'NO'
p3460
sg3436
S'mediumtext'
p3461
sa(lp3462
(dp3463
S'Comment'
p3464
S''
sS'Non_unique'
p3465
L0L
sS'Sub_part'
p3466
NsS'Index_type'
p3467
S'BTREE'
p3468
sS'Key_name'
p3469
S'PRIMARY'
p3470
sS'Collation'
p3471
S'A'
sS'Null'
p3472
S''
sS'Seq_in_index'
p3473
L1L
sS'Table'
p3474
S'components'
p3475
sS'Cardinality'
p3476
L1L
sS'Packed'
p3477
NsS'Column_name'
p3478
S'id'
p3479
sa(dp3480
g3464
S''
sg3465
L0L
sg3466
Nsg3467
S'BTREE'
p3481
sg3469
S'components_product_id_idx'
p3482
sg3471
S'A'
sg3472
S''
sg3473
L1L
sg3474
S'components'
p3483
sg3476
L1L
sg3477
Nsg3478
S'product_id'
p3484
sa(dp3485
g3464
S''
sg3465
L0L
sg3466
Nsg3467
S'BTREE'
p3486
sg3469
S'components_product_id_idx'
p3487
sg3471
S'A'
sg3472
S''
sg3473
L2L
sg3474
S'components'
p3488
sg3476
L1L
sg3477
Nsg3478
S'name'
p3489
sa(dp3490
g3464
S''
sg3465
L1L
sg3466
Nsg3467
S'BTREE'
p3491
sg3469
S'components_name_idx'
p3492
sg3471
S'A'
sg3472
S''
sg3473
L1L
sg3474
S'components'
p3493
sg3476
L1L
sg3477
Nsg3478
S'name'
p3494
sa(dp3495
g3464
S''
sg3465
L1L
sg3466
Nsg3467
S'BTREE'
p3496
sg3469
S'fk_components_initialowner_profiles_userid'
p3497
sg3471
S'A'
sg3472
S''
sg3473
L1L
sg3474
S'components'
p3498
sg3476
L1L
sg3477
Nsg3478
S'initialowner'
p3499
sa(dp3500
g3464
S''
sg3465
L1L
sg3466
Nsg3467
S'BTREE'
p3501
sg3469
S'fk_components_initialqacontact_profiles_userid'
p3502
sg3471
S'A'
sg3472
S'YES'
p3503
sg3473
L1L
sg3474
S'components'
p3504
sg3476
L1L
sg3477
Nsg3478
S'initialqacontact'
p3505
satp3506
sS'ts_error'
p3507
((lp3508
(dp3509
S'Extra'
p3510
S''
sS'Default'
p3511
S''
sS'Field'
p3512
S'error_time'
p3513
sS'Key'
p3514
S'MUL'
p3515
sS'Null'
p3516
S'NO'
p3517
sS'Type'
p3518
S'int(11)'
p3519
sa(dp3520
g3510
S''
sg3511
S''
sg3512
S'jobid'
p3521
sg3514
S'MUL'
p3522
sg3516
S'NO'
p3523
sg3518
S'int(11)'
p3524
sa(dp3525
g3510
S''
sg3511
S''
sg3512
S'message'
p3526
sg3514
S''
sg3516
S'NO'
p3527
sg3518
S'varchar(255)'
p3528
sa(dp3529
g3510
S''
sg3511
S'0'
sg3512
S'funcid'
p3530
sg3514
S'MUL'
p3531
sg3516
S'NO'
p3532
sg3518
S'int(11)'
p3533
sa(lp3534
(dp3535
S'Comment'
p3536
S''
sS'Non_unique'
p3537
L1L
sS'Sub_part'
p3538
NsS'Index_type'
p3539
S'BTREE'
p3540
sS'Key_name'
p3541
S'ts_error_funcid_idx'
p3542
sS'Collation'
p3543
S'A'
sS'Null'
p3544
S''
sS'Seq_in_index'
p3545
L1L
sS'Table'
p3546
S'ts_error'
p3547
sS'Cardinality'
p3548
L0L
sS'Packed'
p3549
NsS'Column_name'
p3550
S'funcid'
p3551
sa(dp3552
g3536
S''
sg3537
L1L
sg3538
Nsg3539
S'BTREE'
p3553
sg3541
S'ts_error_funcid_idx'
p3554
sg3543
S'A'
sg3544
S''
sg3545
L2L
sg3546
S'ts_error'
p3555
sg3548
L0L
sg3549
Nsg3550
S'error_time'
p3556
sa(dp3557
g3536
S''
sg3537
L1L
sg3538
Nsg3539
S'BTREE'
p3558
sg3541
S'ts_error_error_time_idx'
p3559
sg3543
S'A'
sg3544
S''
sg3545
L1L
sg3546
S'ts_error'
p3560
sg3548
L0L
sg3549
Nsg3550
S'error_time'
p3561
sa(dp3562
g3536
S''
sg3537
L1L
sg3538
Nsg3539
S'BTREE'
p3563
sg3541
S'ts_error_jobid_idx'
p3564
sg3543
S'A'
sg3544
S''
sg3545
L1L
sg3546
S'ts_error'
p3565
sg3548
L0L
sg3549
Nsg3550
S'jobid'
p3566
satp3567
sS'whine_queries'
p3568
((lp3569
(dp3570
S'Extra'
p3571
S'auto_increment'
p3572
sS'Default'
p3573
NsS'Field'
p3574
S'id'
p3575
sS'Key'
p3576
S'PRI'
p3577
sS'Null'
p3578
S'NO'
p3579
sS'Type'
p3580
S'mediumint(9)'
p3581
sa(dp3582
g3571
S''
sg3573
S''
sg3574
S'eventid'
p3583
sg3576
S'MUL'
p3584
sg3578
S'NO'
p3585
sg3580
S'mediumint(9)'
p3586
sa(dp3587
g3571
S''
sg3573
S''
sg3574
S'query_name'
p3588
sg3576
S''
sg3578
S'NO'
p3589
sg3580
S'varchar(64)'
p3590
sa(dp3591
g3571
S''
sg3573
S'0'
sg3574
S'sortkey'
p3592
sg3576
S''
sg3578
S'NO'
p3593
sg3580
S'smallint(6)'
p3594
sa(dp3595
g3571
S''
sg3573
S'0'
sg3574
S'onemailperbug'
p3596
sg3576
S''
sg3578
S'NO'
p3597
sg3580
S'tinyint(4)'
p3598
sa(dp3599
g3571
S''
sg3573
S''
sg3574
S'title'
p3600
sg3576
S''
sg3578
S'NO'
p3601
sg3580
S'varchar(128)'
p3602
sa(lp3603
(dp3604
S'Comment'
p3605
S''
sS'Non_unique'
p3606
L0L
sS'Sub_part'
p3607
NsS'Index_type'
p3608
S'BTREE'
p3609
sS'Key_name'
p3610
S'PRIMARY'
p3611
sS'Collation'
p3612
S'A'
sS'Null'
p3613
S''
sS'Seq_in_index'
p3614
L1L
sS'Table'
p3615
S'whine_queries'
p3616
sS'Cardinality'
p3617
L0L
sS'Packed'
p3618
NsS'Column_name'
p3619
S'id'
p3620
sa(dp3621
g3605
S''
sg3606
L1L
sg3607
Nsg3608
S'BTREE'
p3622
sg3610
S'whine_queries_eventid_idx'
p3623
sg3612
S'A'
sg3613
S''
sg3614
L1L
sg3615
S'whine_queries'
p3624
sg3617
L0L
sg3618
Nsg3619
S'eventid'
p3625
satp3626
sS'profile_setting'
p3627
((lp3628
(dp3629
S'Extra'
p3630
S''
sS'Default'
p3631
S''
sS'Field'
p3632
S'user_id'
p3633
sS'Key'
p3634
S'PRI'
p3635
sS'Null'
p3636
S'NO'
p3637
sS'Type'
p3638
S'mediumint(9)'
p3639
sa(dp3640
g3630
S''
sg3631
S''
sg3632
S'setting_name'
p3641
sg3634
S'PRI'
p3642
sg3636
S'NO'
p3643
sg3638
S'varchar(32)'
p3644
sa(dp3645
g3630
S''
sg3631
S''
sg3632
S'setting_value'
p3646
sg3634
S''
sg3636
S'NO'
p3647
sg3638
S'varchar(32)'
p3648
sa(lp3649
(dp3650
S'Comment'
p3651
S''
sS'Non_unique'
p3652
L0L
sS'Sub_part'
p3653
NsS'Index_type'
p3654
S'BTREE'
p3655
sS'Key_name'
p3656
S'profile_setting_value_unique_idx'
p3657
sS'Collation'
p3658
S'A'
sS'Null'
p3659
S''
sS'Seq_in_index'
p3660
L1L
sS'Table'
p3661
S'profile_setting'
p3662
sS'Cardinality'
p3663
L0L
sS'Packed'
p3664
NsS'Column_name'
p3665
S'user_id'
p3666
sa(dp3667
g3651
S''
sg3652
L0L
sg3653
Nsg3654
S'BTREE'
p3668
sg3656
S'profile_setting_value_unique_idx'
p3669
sg3658
S'A'
sg3659
S''
sg3660
L2L
sg3661
S'profile_setting'
p3670
sg3663
L0L
sg3664
Nsg3665
S'setting_name'
p3671
satp3672
sS'setting_value'
p3673
((lp3674
(dp3675
S'Extra'
p3676
S''
sS'Default'
p3677
S''
sS'Field'
p3678
S'name'
p3679
sS'Key'
p3680
S'PRI'
p3681
sS'Null'
p3682
S'NO'
p3683
sS'Type'
p3684
S'varchar(32)'
p3685
sa(dp3686
g3676
S''
sg3677
S''
sg3678
S'value'
p3687
sg3680
S'PRI'
p3688
sg3682
S'NO'
p3689
sg3684
S'varchar(32)'
p3690
sa(dp3691
g3676
S''
sg3677
S''
sg3678
S'sortindex'
p3692
sg3680
S''
sg3682
S'NO'
p3693
sg3684
S'smallint(6)'
p3694
sa(lp3695
(dp3696
S'Comment'
p3697
S''
sS'Non_unique'
p3698
L0L
sS'Sub_part'
p3699
NsS'Index_type'
p3700
S'BTREE'
p3701
sS'Key_name'
p3702
S'setting_value_nv_unique_idx'
p3703
sS'Collation'
p3704
S'A'
sS'Null'
p3705
S''
sS'Seq_in_index'
p3706
L1L
sS'Table'
p3707
S'setting_value'
p3708
sS'Cardinality'
p3709
L20L
sS'Packed'
p3710
NsS'Column_name'
p3711
S'name'
p3712
sa(dp3713
g3697
S''
sg3698
L0L
sg3699
Nsg3700
S'BTREE'
p3714
sg3702
S'setting_value_nv_unique_idx'
p3715
sg3704
S'A'
sg3705
S''
sg3706
L2L
sg3707
S'setting_value'
p3716
sg3709
L20L
sg3710
Nsg3711
S'value'
p3717
sa(dp3718
g3697
S''
sg3698
L0L
sg3699
Nsg3700
S'BTREE'
p3719
sg3702
S'setting_value_ns_unique_idx'
p3720
sg3704
S'A'
sg3705
S''
sg3706
L1L
sg3707
S'setting_value'
p3721
sg3709
L20L
sg3710
Nsg3711
S'name'
p3722
sa(dp3723
g3697
S''
sg3698
L0L
sg3699
Nsg3700
S'BTREE'
p3724
sg3702
S'setting_value_ns_unique_idx'
p3725
sg3704
S'A'
sg3705
S''
sg3706
L2L
sg3707
S'setting_value'
p3726
sg3709
L20L
sg3710
Nsg3711
S'sortindex'
p3727
satp3728
sS'resolution'
p3729
((lp3730
(dp3731
S'Extra'
p3732
S'auto_increment'
p3733
sS'Default'
p3734
NsS'Field'
p3735
S'id'
p3736
sS'Key'
p3737
S'PRI'
p3738
sS'Null'
p3739
S'NO'
p3740
sS'Type'
p3741
S'smallint(6)'
p3742
sa(dp3743
g3732
S''
sg3734
S''
sg3735
S'value'
p3744
sg3737
S'UNI'
p3745
sg3739
S'NO'
p3746
sg3741
S'varchar(64)'
p3747
sa(dp3748
g3732
S''
sg3734
S'0'
sg3735
S'sortkey'
p3749
sg3737
S'MUL'
p3750
sg3739
S'NO'
p3751
sg3741
S'smallint(6)'
p3752
sa(dp3753
g3732
S''
sg3734
S'1'
sg3735
S'isactive'
p3754
sg3737
S''
sg3739
S'NO'
p3755
sg3741
S'tinyint(4)'
p3756
sa(dp3757
g3732
S''
sg3734
Nsg3735
S'visibility_value_id'
p3758
sg3737
S'MUL'
p3759
sg3739
S'YES'
p3760
sg3741
S'smallint(6)'
p3761
sa(lp3762
(dp3763
S'Comment'
p3764
S''
sS'Non_unique'
p3765
L0L
sS'Sub_part'
p3766
NsS'Index_type'
p3767
S'BTREE'
p3768
sS'Key_name'
p3769
S'PRIMARY'
p3770
sS'Collation'
p3771
S'A'
sS'Null'
p3772
S''
sS'Seq_in_index'
p3773
L1L
sS'Table'
p3774
S'resolution'
p3775
sS'Cardinality'
p3776
L7L
sS'Packed'
p3777
NsS'Column_name'
p3778
S'id'
p3779
sa(dp3780
g3764
S''
sg3765
L0L
sg3766
Nsg3767
S'BTREE'
p3781
sg3769
S'resolution_value_idx'
p3782
sg3771
S'A'
sg3772
S''
sg3773
L1L
sg3774
S'resolution'
p3783
sg3776
L7L
sg3777
Nsg3778
S'value'
p3784
sa(dp3785
g3764
S''
sg3765
L1L
sg3766
Nsg3767
S'BTREE'
p3786
sg3769
S'resolution_sortkey_idx'
p3787
sg3771
S'A'
sg3772
S''
sg3773
L1L
sg3774
S'resolution'
p3788
sg3776
L7L
sg3777
Nsg3778
S'sortkey'
p3789
sa(dp3790
g3764
S''
sg3765
L1L
sg3766
Nsg3767
S'BTREE'
p3791
sg3769
S'resolution_sortkey_idx'
p3792
sg3771
S'A'
sg3772
S''
sg3773
L2L
sg3774
S'resolution'
p3793
sg3776
L7L
sg3777
Nsg3778
S'value'
p3794
sa(dp3795
g3764
S''
sg3765
L1L
sg3766
Nsg3767
S'BTREE'
p3796
sg3769
S'resolution_visibility_value_id_idx'
p3797
sg3771
S'A'
sg3772
S'YES'
p3798
sg3773
L1L
sg3774
S'resolution'
p3799
sg3776
L7L
sg3777
Nsg3778
S'visibility_value_id'
p3800
satp3801
sS'op_sys'
p3802
((lp3803
(dp3804
S'Extra'
p3805
S'auto_increment'
p3806
sS'Default'
p3807
NsS'Field'
p3808
S'id'
p3809
sS'Key'
p3810
S'PRI'
p3811
sS'Null'
p3812
S'NO'
p3813
sS'Type'
p3814
S'smallint(6)'
p3815
sa(dp3816
g3805
S''
sg3807
S''
sg3808
S'value'
p3817
sg3810
S'UNI'
p3818
sg3812
S'NO'
p3819
sg3814
S'varchar(64)'
p3820
sa(dp3821
g3805
S''
sg3807
S'0'
sg3808
S'sortkey'
p3822
sg3810
S'MUL'
p3823
sg3812
S'NO'
p3824
sg3814
S'smallint(6)'
p3825
sa(dp3826
g3805
S''
sg3807
S'1'
sg3808
S'isactive'
p3827
sg3810
S''
sg3812
S'NO'
p3828
sg3814
S'tinyint(4)'
p3829
sa(dp3830
g3805
S''
sg3807
Nsg3808
S'visibility_value_id'
p3831
sg3810
S'MUL'
p3832
sg3812
S'YES'
p3833
sg3814
S'smallint(6)'
p3834
sa(lp3835
(dp3836
S'Comment'
p3837
S''
sS'Non_unique'
p3838
L0L
sS'Sub_part'
p3839
NsS'Index_type'
p3840
S'BTREE'
p3841
sS'Key_name'
p3842
S'PRIMARY'
p3843
sS'Collation'
p3844
S'A'
sS'Null'
p3845
S''
sS'Seq_in_index'
p3846
L1L
sS'Table'
p3847
S'op_sys'
p3848
sS'Cardinality'
p3849
L5L
sS'Packed'
p3850
NsS'Column_name'
p3851
S'id'
p3852
sa(dp3853
g3837
S''
sg3838
L0L
sg3839
Nsg3840
S'BTREE'
p3854
sg3842
S'op_sys_value_idx'
p3855
sg3844
S'A'
sg3845
S''
sg3846
L1L
sg3847
S'op_sys'
p3856
sg3849
L5L
sg3850
Nsg3851
S'value'
p3857
sa(dp3858
g3837
S''
sg3838
L1L
sg3839
Nsg3840
S'BTREE'
p3859
sg3842
S'op_sys_sortkey_idx'
p3860
sg3844
S'A'
sg3845
S''
sg3846
L1L
sg3847
S'op_sys'
p3861
sg3849
L5L
sg3850
Nsg3851
S'sortkey'
p3862
sa(dp3863
g3837
S''
sg3838
L1L
sg3839
Nsg3840
S'BTREE'
p3864
sg3842
S'op_sys_sortkey_idx'
p3865
sg3844
S'A'
sg3845
S''
sg3846
L2L
sg3847
S'op_sys'
p3866
sg3849
L5L
sg3850
Nsg3851
S'value'
p3867
sa(dp3868
g3837
S''
sg3838
L1L
sg3839
Nsg3840
S'BTREE'
p3869
sg3842
S'op_sys_visibility_value_id_idx'
p3870
sg3844
S'A'
sg3845
S'YES'
p3871
sg3846
L1L
sg3847
S'op_sys'
p3872
sg3849
L5L
sg3850
Nsg3851
S'visibility_value_id'
p3873
satp3874
sS'group_group_map'
p3875
((lp3876
(dp3877
S'Extra'
p3878
S''
sS'Default'
p3879
S''
sS'Field'
p3880
S'member_id'
p3881
sS'Key'
p3882
S'PRI'
p3883
sS'Null'
p3884
S'NO'
p3885
sS'Type'
p3886
S'mediumint(9)'
p3887
sa(dp3888
g3878
S''
sg3879
S''
sg3880
S'grantor_id'
p3889
sg3882
S'PRI'
p3890
sg3884
S'NO'
p3891
sg3886
S'mediumint(9)'
p3892
sa(dp3893
g3878
S''
sg3879
S'0'
sg3880
S'grant_type'
p3894
sg3882
S'PRI'
p3895
sg3884
S'NO'
p3896
sg3886
S'tinyint(4)'
p3897
sa(lp3898
(dp3899
S'Comment'
p3900
S''
sS'Non_unique'
p3901
L0L
sS'Sub_part'
p3902
NsS'Index_type'
p3903
S'BTREE'
p3904
sS'Key_name'
p3905
S'group_group_map_member_id_idx'
p3906
sS'Collation'
p3907
S'A'
sS'Null'
p3908
S''
sS'Seq_in_index'
p3909
L1L
sS'Table'
p3910
S'group_group_map'
p3911
sS'Cardinality'
p3912
L41L
sS'Packed'
p3913
NsS'Column_name'
p3914
S'member_id'
p3915
sa(dp3916
g3900
S''
sg3901
L0L
sg3902
Nsg3903
S'BTREE'
p3917
sg3905
S'group_group_map_member_id_idx'
p3918
sg3907
S'A'
sg3908
S''
sg3909
L2L
sg3910
S'group_group_map'
p3919
sg3912
L41L
sg3913
Nsg3914
S'grantor_id'
p3920
sa(dp3921
g3900
S''
sg3901
L0L
sg3902
Nsg3903
S'BTREE'
p3922
sg3905
S'group_group_map_member_id_idx'
p3923
sg3907
S'A'
sg3908
S''
sg3909
L3L
sg3910
S'group_group_map'
p3924
sg3912
L41L
sg3913
Nsg3914
S'grant_type'
p3925
sa(dp3926
g3900
S''
sg3901
L1L
sg3902
Nsg3903
S'BTREE'
p3927
sg3905
S'fk_group_group_map_grantor_id_groups_id'
p3928
sg3907
S'A'
sg3908
S''
sg3909
L1L
sg3910
S'group_group_map'
p3929
sg3912
L41L
sg3913
Nsg3914
S'grantor_id'
p3930
satp3931
st.